	.arch armv6k
	.fpu softvfp
	.eabi_attribute 23, 1
	.eabi_attribute 24, 1
	.eabi_attribute 25, 1
	.eabi_attribute 26, 1
	.eabi_attribute 30, 2
	.eabi_attribute 34, 1
	.eabi_attribute 18, 4
	.file	"am_map.c"
	.text
.Ltext0:
	.cfi_sections	.debug_frame
	.align	2
	.type	AM_activateNewScale, %function
AM_activateNewScale:
.LFB5:
	.file 1 "c:/devl/prboom3ds/src/am_map.c"
	.loc 1 260 0
	.cfi_startproc
	@ args = 0, pretend = 0, frame = 0
	@ frame_needed = 0, uses_anonymous_args = 0
	.loc 1 261 0
	ldr	r3, .L3
	.loc 1 260 0
	stmfd	sp!, {r4, r5, r6, r7, lr}
	.cfi_def_cfa_offset 20
	.cfi_offset 4, -20
	.cfi_offset 5, -16
	.cfi_offset 6, -12
	.cfi_offset 7, -8
	.cfi_offset 14, -4
	.loc 1 264 0
	ldr	r2, [r3, #24]
	.loc 1 263 0
	ldr	r4, [r3, #16]
	ldr	r6, [r3, #20]
	.loc 1 264 0
	mov	r2, r2, asl #16
	.loc 1 263 0
	mov	r4, r4, asl #16
.LVL0:
.LBB143:
.LBB144:
	.file 2 "c:/devl/prboom3ds/src/m_fixed.h"
	.loc 2 72 0
	smull	r4, r5, r4, r6
.LVL1:
.LBE144:
.LBE143:
.LBB147:
.LBB148:
	smull	r6, r7, r6, r2
.LVL2:
.LBE148:
.LBE147:
	.loc 1 261 0
	ldr	ip, [r3]
	.loc 1 262 0
	ldr	r2, [r3, #8]
.LVL3:
	.loc 1 261 0
	ldr	lr, [r3, #4]
	.loc 1 262 0
	ldr	r1, [r3, #12]
.LBB151:
.LBB145:
	.loc 2 72 0
	mov	r4, r4, lsr #16
.LBE145:
.LBE151:
.LBB152:
.LBB149:
	mov	r0, r6, lsr #16
.LBE149:
.LBE152:
.LBB153:
.LBB146:
	orr	r4, r4, r5, asl #16
.LBE146:
.LBE153:
.LBB154:
.LBB150:
	orr	r0, r0, r7, asl #16
.LBE150:
.LBE154:
	.loc 1 261 0
	add	ip, ip, ip, lsr #31
	.loc 1 262 0
	add	r2, r2, r2, lsr #31
	.loc 1 261 0
	add	ip, lr, ip, asr #1
	.loc 1 262 0
	add	r2, r1, r2, asr #1
	.loc 1 266 0
	add	lr, r0, r0, lsr #31
	.loc 1 265 0
	add	r5, r4, r4, lsr #31
	sub	r1, ip, r5, asr #1
	.loc 1 266 0
	sub	r2, r2, lr, asr #1
	.loc 1 268 0
	add	ip, r2, r0
	.loc 1 267 0
	add	lr, r1, r4
	.loc 1 263 0
	str	r4, [r3]
	.loc 1 267 0
	str	lr, [r3, #28]
	.loc 1 265 0
	str	r1, [r3, #4]
	.loc 1 264 0
	str	r0, [r3, #8]
	.loc 1 268 0
	str	ip, [r3, #32]
	.loc 1 266 0
	str	r2, [r3, #12]
	ldmfd	sp!, {r4, r5, r6, r7, pc}
.L4:
	.align	2
.L3:
	.word	.LANCHOR0
	.cfi_endproc
.LFE5:
	.size	AM_activateNewScale, .-AM_activateNewScale
	.align	2
	.type	AM_changeWindowLoc, %function
AM_changeWindowLoc:
.LFB10:
	.loc 1 391 0
	.cfi_startproc
	@ args = 0, pretend = 0, frame = 0
	@ frame_needed = 0, uses_anonymous_args = 0
	.loc 1 392 0
	ldr	r3, .L20
	.loc 1 391 0
	stmfd	sp!, {r4, r5, r6, lr}
	.cfi_def_cfa_offset 16
	.cfi_offset 4, -16
	.cfi_offset 5, -12
	.cfi_offset 6, -8
	.cfi_offset 14, -4
	.loc 1 392 0
	ldr	ip, [r3, #36]
	ldr	r1, [r3, #40]
	cmp	ip, #0
	bne	.L7
	.loc 1 392 0 is_stmt 0 discriminator 1
	cmp	r1, #0
	bne	.L7
.L8:
	.loc 1 401 0 is_stmt 1
	ldr	r4, [r3]
	.loc 1 398 0
	ldr	r2, [r3, #4]
	.loc 1 401 0
	add	r0, r4, r4, lsr #31
	.loc 1 399 0
	ldr	r5, [r3, #12]
	.loc 1 398 0
	add	r2, ip, r2
	.loc 1 401 0
	mov	r0, r0, asr #1
	ldr	lr, [r3, #52]
	add	ip, r2, r0
	.loc 1 399 0
	add	r1, r1, r5
	.loc 1 401 0
	cmp	ip, lr
	.loc 1 398 0
	str	r2, [r3, #4]
	.loc 1 399 0
	str	r1, [r3, #12]
	.loc 1 398 0
	ldr	r5, .L20
	.loc 1 401 0
	bgt	.L17
	.loc 1 403 0
	ldr	lr, [r5, #56]
	cmp	ip, lr
	blt	.L17
.L10:
	.loc 1 406 0
	ldr	r0, [r3, #8]
	ldr	r5, [r3, #60]
	add	ip, r0, r0, lsr #31
	mov	ip, ip, asr #1
	add	lr, r1, ip
	cmp	lr, r5
	ldr	r6, .L20
	bgt	.L18
	.loc 1 408 0
	ldr	r5, [r6, #64]
	cmp	lr, r5
	bge	.L12
.L18:
	.loc 1 409 0
	rsb	r1, ip, r5
	str	r1, [r6, #12]
.L12:
	.loc 1 411 0
	add	r2, r4, r2
	.loc 1 412 0
	add	r1, r0, r1
	.loc 1 411 0
	str	r2, [r3, #28]
	.loc 1 412 0
	str	r1, [r3, #32]
	ldmfd	sp!, {r4, r5, r6, pc}
.L17:
	.loc 1 404 0
	rsb	r2, r0, lr
	str	r2, [r5, #4]
	b	.L10
.L7:
	.loc 1 395 0
	mvn	r2, #-2147483648
	.loc 1 394 0
	ldr	r0, .L20+4
	.loc 1 395 0
	str	r2, [r3, #44]
	.loc 1 394 0
	ldrb	r2, [r0]	@ zero_extendqisi2
	bic	r2, r2, #8
	strb	r2, [r0]
	b	.L8
.L21:
	.align	2
.L20:
	.word	.LANCHOR0
	.word	automapmode
	.cfi_endproc
.LFE10:
	.size	AM_changeWindowLoc, .-AM_changeWindowLoc
	.global	__aeabi_ldivmod
	.align	2
	.type	AM_minOutWindowScale, %function
AM_minOutWindowScale:
.LFB18:
	.loc 1 568 0
	.cfi_startproc
	@ args = 0, pretend = 0, frame = 0
	@ frame_needed = 0, uses_anonymous_args = 0
	stmfd	sp!, {r4, lr}
	.cfi_def_cfa_offset 8
	.cfi_offset 4, -8
	.cfi_offset 14, -4
	.loc 1 569 0
	ldr	r4, .L27
	ldr	r0, .L27+4
	ldr	r2, [r4, #68]
.LBB155:
.LBB156:
.LBB157:
.LBB158:
	.loc 2 59 0
	mov	r1, r2, asr #31
	.loc 2 60 0
	eor	r3, r1, r2
	rsb	r3, r1, r3
.LBE158:
.LBE157:
	.loc 2 84 0
	cmp	r3, #4
.LBE156:
.LBE155:
	.loc 1 569 0
	str	r2, [r0]
.LVL4:
.LBB161:
.LBB159:
	.loc 2 84 0
	ble	.L26
	.loc 2 85 0
	mov	r0, #0
	mov	r1, #1
.LVL5:
	mov	r3, r2, asr #31
.LVL6:
	bl	__aeabi_ldivmod
.LVL7:
.LBE159:
.LBE161:
	.loc 1 570 0
	str	r0, [r4, #20]
	.loc 1 572 0
	ldmfd	sp!, {r4, lr}
	.cfi_remember_state
	.cfi_restore 14
	.cfi_restore 4
	.cfi_def_cfa_offset 0
	.loc 1 571 0
	b	AM_activateNewScale
.LVL8:
.L26:
	.cfi_restore_state
.LBB162:
.LBB160:
	.loc 2 84 0
	eor	r0, r1, #-2147483648
	mvn	r0, r0
.LBE160:
.LBE162:
	.loc 1 570 0
	str	r0, [r4, #20]
	.loc 1 572 0
	ldmfd	sp!, {r4, lr}
	.cfi_restore 4
	.cfi_restore 14
	.cfi_def_cfa_offset 0
	.loc 1 571 0
	b	AM_activateNewScale
.LVL9:
.L28:
	.align	2
.L27:
	.word	.LANCHOR0
	.word	.LANCHOR1
	.cfi_endproc
.LFE18:
	.size	AM_minOutWindowScale, .-AM_minOutWindowScale
	.align	2
	.type	AM_rotate, %function
AM_rotate:
.LFB21:
	.loc 1 747 0
	.cfi_startproc
	@ args = 4, pretend = 0, frame = 0
	@ frame_needed = 0, uses_anonymous_args = 0
.LVL10:
	stmfd	sp!, {r4, r5, r6, r7, r8, r9, r10, fp, lr}
	.cfi_def_cfa_offset 36
	.cfi_offset 4, -36
	.cfi_offset 5, -32
	.cfi_offset 6, -28
	.cfi_offset 7, -24
	.cfi_offset 8, -20
	.cfi_offset 9, -16
	.cfi_offset 10, -12
	.cfi_offset 11, -8
	.cfi_offset 14, -4
	.loc 1 755 0
	mov	r2, r2, lsr #19
.LVL11:
	ldr	lr, .L31
	.loc 1 747 0
	ldr	r5, [sp, #36]
	.loc 1 755 0
	ldr	r4, [r0]
	.loc 1 756 0
	ldr	ip, [r1]
	.loc 1 755 0
	add	r6, r2, #2048
	.loc 1 756 0
	ldr	r8, [lr, r2, asl #2]
	.loc 1 755 0
	ldr	r6, [lr, r6, asl #2]
	.loc 1 752 0
	mov	r2, r5, asr #4
	.loc 1 751 0
	mov	r3, r3, asr #4
.LVL12:
	.loc 1 756 0
	rsb	ip, r2, ip
	.loc 1 755 0
	rsb	r4, r3, r4
.LVL13:
.LBB163:
.LBB164:
	.loc 2 72 0
	smull	r10, fp, r4, r8
.LBE164:
.LBE163:
.LBB167:
.LBB168:
	smull	r4, r5, r4, r6
.LVL14:
.LBE168:
.LBE167:
.LBB171:
.LBB172:
	smull	r8, r9, ip, r8
.LVL15:
.LBE172:
.LBE171:
.LBB175:
.LBB176:
	smull	r6, r7, r6, ip
.LVL16:
.LBE176:
.LBE175:
.LBB179:
.LBB165:
	mov	r10, r10, lsr #16
.LBE165:
.LBE179:
.LBB180:
.LBB169:
	mov	ip, r4, lsr #16
.LVL17:
.LBE169:
.LBE180:
.LBB181:
.LBB173:
	mov	r4, r8, lsr #16
.LBE173:
.LBE181:
.LBB182:
.LBB166:
	orr	r10, r10, fp, asl #16
.LBE166:
.LBE182:
.LBB183:
.LBB170:
	orr	ip, ip, r5, asl #16
.LBE170:
.LBE183:
.LBB184:
.LBB177:
	mov	lr, r6, lsr #16
.LVL18:
.LBE177:
.LBE184:
.LBB185:
.LBB174:
	orr	r4, r4, r9, asl #16
.LBE174:
.LBE185:
	.loc 1 758 0
	add	r2, r2, r10
.LVL19:
.LBB186:
.LBB178:
	.loc 2 72 0
	orr	lr, lr, r7, asl #16
.LBE178:
.LBE186:
	.loc 1 754 0
	rsb	ip, r4, ip
	.loc 1 760 0
	add	r2, r2, lr
	.loc 1 762 0
	add	ip, ip, r3
	.loc 1 758 0
	str	r2, [r1]
.LVL20:
	.loc 1 762 0
	str	ip, [r0]
	ldmfd	sp!, {r4, r5, r6, r7, r8, r9, r10, fp, pc}
.L32:
	.align	2
.L31:
	.word	finesine
	.cfi_endproc
.LFE21:
	.size	AM_rotate, .-AM_rotate
	.global	__aeabi_idiv
	.align	2
	.type	AM_drawMline, %function
AM_drawMline:
.LFB26:
	.loc 1 983 0
	.cfi_startproc
	@ args = 0, pretend = 0, frame = 24
	@ frame_needed = 0, uses_anonymous_args = 0
.LVL21:
	stmfd	sp!, {r4, r5, r6, r7, r8, r9, r10, fp, lr}
	.cfi_def_cfa_offset 36
	.cfi_offset 4, -36
	.cfi_offset 5, -32
	.cfi_offset 6, -28
	.cfi_offset 7, -24
	.cfi_offset 8, -20
	.cfi_offset 9, -16
	.cfi_offset 10, -12
	.cfi_offset 11, -8
	.cfi_offset 14, -4
	.loc 1 986 0
	cmn	r1, #1
	.loc 1 983 0
	sub	sp, sp, #28
	.cfi_def_cfa_offset 64
	.loc 1 983 0
	mov	r5, r1
	.loc 1 986 0
	beq	.L33
.LBB197:
.LBB198:
	.loc 1 873 0
	ldr	r4, .L99
	ldr	r2, [r0, #4]
	ldr	r3, [r4, #32]
.LBE198:
.LBE197:
	.loc 1 989 0
	cmp	r1, #247
	moveq	r5, #0
.LVL22:
.LBB221:
.LBB219:
	.loc 1 873 0
	cmp	r2, r3
	bgt	.L36
	.loc 1 875 0
	ldr	r6, [r4, #12]
	.loc 1 878 0
	ldr	r1, [r0, #12]
	.loc 1 855 0
	cmp	r2, r6
	movlt	r7, #4
	movge	r7, #0
.LVL23:
	.loc 1 878 0
	cmp	r3, r1
	bge	.L94
	.loc 1 879 0
	mov	r3, #8
.LVL24:
.L39:
	.loc 1 886 0
	ldr	r6, [r0]
	ldr	r8, [r4, #4]
	ldr	r9, .L99
	cmp	r6, r8
	.loc 1 887 0
	orrlt	r7, r7, #1
	.loc 1 886 0
	blt	.L42
	.loc 1 888 0
	ldr	r9, [r9, #28]
	cmp	r6, r9
	.loc 1 889 0
	orrgt	r7, r7, #2
.LVL25:
.L42:
	.loc 1 891 0
	ldr	r9, [r0, #8]
	cmp	r8, r9
	.loc 1 892 0
	orrgt	r3, r3, #1
.LVL26:
	.loc 1 891 0
	bgt	.L44
	.loc 1 893 0
	ldr	r0, [r4, #28]
.LVL27:
	cmp	r9, r0
	.loc 1 894 0
	orrgt	r3, r3, #2
.LVL28:
.L44:
	.loc 1 896 0
	tst	r3, r7
	bne	.L33
	.loc 1 900 0
	ldr	r3, .L99+4
.LVL29:
	.loc 1 901 0
	ldr	r10, [r4, #12]
	.loc 1 900 0
	ldr	r0, [r3]
	.loc 1 901 0
	rsb	r2, r10, r2
.LBB199:
.LBB200:
	.loc 2 72 0
	smull	r2, r3, r0, r2
.LBE200:
.LBE199:
	.loc 1 903 0
	rsb	r10, r10, r1
.LBB202:
.LBB203:
	.loc 2 72 0
	smull	r10, fp, r0, r10
.LBE203:
.LBE202:
	.loc 1 900 0
	rsb	r6, r8, r6
.LVL30:
	.loc 1 902 0
	rsb	r8, r8, r9
.LVL31:
.LBB205:
.LBB206:
	.loc 2 72 0
	smull	r6, r7, r6, r0
.LVL32:
.LBE206:
.LBE205:
.LBB209:
.LBB210:
	smull	r8, r9, r0, r8
.LVL33:
.LBE210:
.LBE209:
	.loc 1 901 0
	ldr	r1, [r4, #24]
.LBB213:
.LBB201:
	.loc 2 72 0
	mov	r2, r2, lsr #16
	orr	r2, r2, r3, asl #16
.LBE201:
.LBE213:
	.loc 1 901 0
	ldr	r0, [r4, #92]
.LVL34:
.LBB214:
.LBB204:
	.loc 2 72 0
	mov	r10, r10, lsr #16
	orr	r10, r10, fp, asl #16
.LBE204:
.LBE214:
.LBB215:
.LBB207:
	mov	r3, r6, lsr #16
.LBE207:
.LBE215:
	.loc 1 900 0
	ldr	fp, [r4, #72]
	.loc 1 901 0
	sub	r2, r1, r2, asr #16
.LBB216:
.LBB211:
	.loc 2 72 0
	mov	r8, r8, lsr #16
.LBE211:
.LBE216:
	.loc 1 901 0
	add	r2, r2, r0
	.loc 1 903 0
	sub	r10, r1, r10, asr #16
.LBB217:
.LBB208:
	.loc 2 72 0
	orr	r3, r3, r7, asl #16
.LBE208:
.LBE217:
.LBB218:
.LBB212:
	orr	r8, r8, r9, asl #16
.LBE212:
.LBE218:
	.loc 1 900 0
	add	r3, fp, r3, asr #16
	.loc 1 905 0
	cmp	r2, #0
	.loc 1 903 0
	add	r10, r0, r10
	.loc 1 902 0
	add	fp, fp, r8, asr #16
	.loc 1 901 0
	str	r2, [r4, #80]
	.loc 1 903 0
	str	r10, [r4, #88]
.LVL35:
	.loc 1 900 0
	str	r3, [r4, #76]
	.loc 1 902 0
	str	fp, [r4, #84]
	.loc 1 905 0
	movlt	r6, #8
	blt	.L45
	cmp	r1, r2
	movle	r6, #4
	movgt	r6, #0
.L45:
.LVL36:
	cmp	r3, #0
	orrlt	r6, r6, #1
.LVL37:
	blt	.L47
	ldr	r2, [r4, #16]
	cmp	r3, r2
	orrge	r6, r6, #2
.LVL38:
.L47:
	.loc 1 906 0
	cmp	r10, #0
	movlt	r10, #8
	blt	.L48
	cmp	r1, r10
	movle	r10, #4
	movgt	r10, #0
.L48:
.LVL39:
	cmp	fp, #0
	orrlt	r10, r10, #1
.LVL40:
	blt	.L50
	ldr	r3, [r4, #16]
	cmp	fp, r3
	orrge	r10, r10, #2
.LVL41:
.L50:
	.loc 1 908 0
	ands	r3, r10, r6
	bne	.L33
	.loc 1 939 0
	ldr	r8, [r4, #16]
	.loc 1 952 0
	str	r3, [sp, #20]
	.loc 1 939 0
	sub	r3, r8, #1
	mov	fp, r3
	mov	r1, ip
	.loc 1 932 0
	ldr	r7, [r4, #24]
	str	r5, [sp, #8]
	.loc 1 933 0
	sub	r2, r7, #1
	str	r2, [sp, #4]
.LVL42:
.L51:
	.loc 1 911 0
	orrs	r3, r10, r6
	beq	.L95
	.loc 1 915 0
	cmp	r6, #0
	beq	.L96
.LVL43:
	.loc 1 921 0
	tst	r6, #8
	moveq	r5, r6
	beq	.L53
	.loc 1 924 0
	ldr	r6, [r4, #76]
.LVL44:
	ldr	r0, [r4, #84]
	.loc 1 923 0
	ldr	r3, [r4, #80]
.LVL45:
	ldr	r1, [r4, #88]
.LVL46:
	.loc 1 924 0
	rsb	r0, r6, r0
.LVL47:
	.loc 1 925 0
	rsb	r1, r1, r3
.LVL48:
	mul	r0, r0, r3
.LVL49:
	bl	__aeabi_idiv
.LVL50:
	.loc 1 952 0
	ldr	r3, [sp, #20]
	.loc 1 925 0
	add	r1, r6, r0
.LVL51:
	.loc 1 952 0
	str	r1, [r4, #76]
	str	r3, [r4, #80]
.LVL52:
	.loc 1 926 0
	mov	lr, #0
	b	.L68
.LVL53:
.L97:
	.loc 1 883 0
	tst	r7, #4
	.loc 1 881 0
	moveq	r3, #4
	.loc 1 883 0
	beq	.L39
.LVL54:
.L33:
.LBE219:
.LBE221:
	.loc 1 993 0
	add	sp, sp, #28
	.cfi_remember_state
	.cfi_def_cfa_offset 36
	@ sp needed
	ldmfd	sp!, {r4, r5, r6, r7, r8, r9, r10, fp, pc}
.LVL55:
.L36:
	.cfi_restore_state
.LBB222:
.LBB220:
	.loc 1 878 0
	ldr	r1, [r0, #12]
	cmp	r3, r1
	blt	.L33
	.loc 1 880 0
	ldr	r3, [r4, #12]
	.loc 1 874 0
	mov	r7, #8
	cmp	r3, r1
	movgt	r3, #4
	movle	r3, #0
	b	.L39
.LVL56:
.L94:
	.loc 1 880 0
	cmp	r1, r6
	blt	.L97
	.loc 1 856 0
	mov	r3, #0
	b	.L39
.LVL57:
.L96:
	.loc 1 921 0
	tst	r10, #8
	beq	.L76
	.loc 1 924 0
	ldr	r10, [r4, #76]
.LVL58:
	ldr	r0, [r4, #84]
	.loc 1 923 0
	ldr	r3, [r4, #80]
.LVL59:
	ldr	r1, [r4, #88]
.LVL60:
	.loc 1 924 0
	rsb	r0, r10, r0
.LVL61:
	.loc 1 925 0
	rsb	r1, r1, r3
.LVL62:
	mul	r0, r0, r3
.LVL63:
	bl	__aeabi_idiv
.LVL64:
	.loc 1 926 0
	mov	lr, r6
	.loc 1 925 0
	add	r1, r10, r0
.LVL65:
	.loc 1 957 0
	str	r1, [r4, #84]
	str	r6, [r4, #88]
.LVL66:
.L54:
	.loc 1 958 0
	cmp	r7, lr
	movle	r10, #4
	movgt	r10, #0
.L62:
.LVL67:
	cmp	r1, #0
	orrlt	r10, r10, #1
.LVL68:
	blt	.L61
	cmp	r8, r1
	orrle	r10, r10, #2
.LVL69:
.L61:
	.loc 1 961 0
	tst	r10, r6
	beq	.L51
	b	.L33
.LVL70:
.L76:
	.loc 1 921 0
	mov	r5, r10
.LVL71:
.L53:
	.loc 1 928 0
	tst	r5, #4
	beq	.L55
	.loc 1 930 0
	ldr	r1, [r4, #80]
.LVL72:
	.loc 1 931 0
	ldr	r9, [r4, #76]
.LVL73:
	ldr	r3, [r4, #84]
	.loc 1 930 0
	ldr	lr, [r4, #88]
.LVL74:
	.loc 1 932 0
	rsb	r0, r7, r1
	.loc 1 931 0
	rsb	r3, r9, r3
.LVL75:
	.loc 1 932 0
	rsb	r1, lr, r1
.LVL76:
	mul	r0, r0, r3
	bl	__aeabi_idiv
.LVL77:
	.loc 1 933 0
	ldr	lr, [sp, #4]
	.loc 1 932 0
	add	r1, r9, r0
.LVL78:
.L56:
	.loc 1 950 0
	cmp	r6, r5
	beq	.L98
	.loc 1 958 0
	cmp	lr, #0
	.loc 1 957 0
	str	r1, [r4, #84]
	str	lr, [r4, #88]
.LVL79:
	.loc 1 958 0
	movlt	r10, #8
	blt	.L62
	b	.L54
.LVL80:
.L98:
	.loc 1 953 0
	cmp	lr, #0
	.loc 1 952 0
	str	r1, [r4, #76]
	str	lr, [r4, #80]
.LVL81:
	.loc 1 953 0
	movlt	r6, #8
	blt	.L59
.LVL82:
.L68:
	cmp	r7, lr
	movle	r6, #4
	movgt	r6, #0
.L59:
.LVL83:
	cmp	r1, #0
	orrlt	r6, r6, #1
.LVL84:
	blt	.L61
	cmp	r8, r1
	orrle	r6, r6, #2
	b	.L61
.LVL85:
.L55:
	.loc 1 935 0
	ands	ip, r5, #2
	beq	.L57
	.loc 1 937 0
	ldr	r9, [r4, #80]
.LVL86:
	.loc 1 938 0
	ldr	r1, [r4, #76]
.LVL87:
	.loc 1 937 0
	ldr	r0, [r4, #88]
	.loc 1 938 0
	ldr	ip, [r4, #84]
	.loc 1 939 0
	rsb	lr, r1, fp
.LVL88:
	.loc 1 937 0
	rsb	r0, r9, r0
.LVL89:
	.loc 1 939 0
	mul	r0, lr, r0
.LVL90:
	rsb	r1, r1, ip
.LVL91:
	bl	__aeabi_idiv
.LVL92:
	.loc 1 940 0
	mov	r1, fp
	.loc 1 939 0
	add	lr, r9, r0
.LVL93:
	b	.L56
.LVL94:
.L57:
	.loc 1 942 0
	tst	r5, #1
	beq	.L56
	.loc 1 944 0
	ldr	r3, [r4, #80]
.LVL95:
	ldr	r0, [r4, #88]
	.loc 1 945 0
	ldr	lr, [r4, #84]
.LVL96:
	ldr	r1, [r4, #76]
.LVL97:
	.loc 1 946 0
	rsb	r0, r0, r3
	mul	r0, r0, r1
	rsb	r1, r1, lr
.LVL98:
	str	ip, [sp, #16]
	str	r3, [sp, #12]
	bl	__aeabi_idiv
.LVL99:
	.loc 1 947 0
	ldr	ip, [sp, #16]
	.loc 1 946 0
	ldr	r3, [sp, #12]
	.loc 1 947 0
	mov	r1, ip
	.loc 1 946 0
	add	lr, r3, r0
.LVL100:
	b	.L56
.LVL101:
.L95:
	ldr	r5, [sp, #8]
.LBE220:
.LBE222:
	.loc 1 992 0
	ldr	r3, .L99+8
	mov	r1, r5
.LVL102:
	ldr	r3, [r3]
	ldr	r0, .L99+12
	.loc 1 993 0
	add	sp, sp, #28
	.cfi_def_cfa_offset 36
	@ sp needed
	ldmfd	sp!, {r4, r5, r6, r7, r8, r9, r10, fp, lr}
	.cfi_restore 14
	.cfi_restore 11
	.cfi_restore 10
	.cfi_restore 9
	.cfi_restore 8
	.cfi_restore 7
	.cfi_restore 6
	.cfi_restore 5
	.cfi_restore 4
	.cfi_def_cfa_offset 0
.LVL103:
	.loc 1 992 0
	bx	r3	@ indirect register sibling call
.LVL104:
.L100:
	.align	2
.L99:
	.word	.LANCHOR0
	.word	.LANCHOR1
	.word	V_DrawLine
	.word	.LANCHOR0+76
	.cfi_endproc
.LFE26:
	.size	AM_drawMline, .-AM_drawMline
	.align	2
	.type	AM_drawLineCharacter, %function
AM_drawLineCharacter:
.LFB30:
	.loc 1 1300 0
	.cfi_startproc
	@ args = 12, pretend = 0, frame = 16
	@ frame_needed = 0, uses_anonymous_args = 0
.LVL105:
	stmfd	sp!, {r4, r5, r6, r7, r8, r9, r10, fp, lr}
	.cfi_def_cfa_offset 36
	.cfi_offset 4, -36
	.cfi_offset 5, -32
	.cfi_offset 6, -28
	.cfi_offset 7, -24
	.cfi_offset 8, -20
	.cfi_offset 9, -16
	.cfi_offset 10, -12
	.cfi_offset 11, -8
	.cfi_offset 14, -4
	.loc 1 1304 0
	ldr	ip, .L130
	.loc 1 1300 0
	sub	sp, sp, #28
	.cfi_def_cfa_offset 64
	.loc 1 1304 0
	ldrb	ip, [ip]	@ zero_extendqisi2
	.loc 1 1300 0
	mov	r7, r1
	.loc 1 1304 0
	tst	ip, #4
	.loc 1 1300 0
	mov	r5, r2
	mov	r6, r3
	.loc 1 1304 0
	beq	.L102
	.loc 1 1304 0 is_stmt 0 discriminator 1
	ldr	r3, .L130+4
.LVL106:
	ldr	r3, [r3, #96]
	ldr	r3, [r3]
	ldr	r3, [r3, #44]
	rsb	r3, r3, #1073741824
	add	r6, r6, r3
.LVL107:
.L102:
	.loc 1 1306 0 is_stmt 1
	cmp	r7, #0
	ble	.L101
	mov	r10, #0
.LBB223:
.LBB224:
	.loc 2 72 0
	mov	r8, r5
	mov	r9, r5, asr #31
	add	r4, r0, #4
	b	.L108
.LVL108:
.L128:
	smull	r2, r3, r5, r2
.LVL109:
.LBE224:
.LBE223:
.LBB226:
.LBB227:
	smull	r0, r1, r5, r0
.LBE227:
.LBE226:
.LBB229:
.LBB225:
	mov	r2, r2, lsr #16
	orr	r2, r2, r3, asl #16
.LBE225:
.LBE229:
.LBB230:
.LBB228:
	mov	r3, r0, lsr #16
	orr	r3, r3, r1, asl #16
.LBE228:
.LBE230:
	.loc 1 1317 0
	cmp	r6, #0
	.loc 1 1313 0
	str	r2, [sp, #8]
.LVL110:
	.loc 1 1314 0
	str	r3, [sp, #12]
.LVL111:
	.loc 1 1317 0
	bne	.L127
.LVL112:
.L124:
	.loc 1 1324 0
	ldmib	r4, {fp, ip}
.LVL113:
	.loc 1 1320 0
	ldr	r1, [sp, #68]
.LBB231:
.LBB232:
	.loc 2 72 0
	mul	lr, fp, r9
.LBE232:
.LBE231:
	.loc 1 1320 0
	add	r2, r2, r1
	str	r2, [sp, #8]
	.loc 1 1321 0
	ldr	r1, [sp, #72]
.LBB239:
.LBB240:
	.loc 2 72 0
	mul	r2, ip, r9
.LBE240:
.LBE239:
	.loc 1 1321 0
	add	r3, r3, r1
	str	r3, [sp, #12]
.LBB247:
.LBB233:
	.loc 2 72 0
	mov	r1, fp, asr #31
.LBE233:
.LBE247:
.LBB248:
.LBB241:
	mov	r3, ip, asr #31
.LBE241:
.LBE248:
.LBB249:
.LBB234:
	mla	lr, r8, r1, lr
	umull	r0, r1, fp, r8
.LBE234:
.LBE249:
.LBB250:
.LBB242:
	mla	fp, r8, r3, r2
.LVL114:
	umull	r2, r3, ip, r8
.LBE242:
.LBE250:
.LBB251:
.LBB235:
	add	r1, lr, r1
.LBE235:
.LBE251:
.LBB252:
.LBB243:
	add	r3, fp, r3
.LBE243:
.LBE252:
.LBB253:
.LBB236:
	mov	r0, r0, lsr #16
.LBE236:
.LBE253:
.LBB254:
.LBB244:
	mov	r2, r2, lsr #16
.LBE244:
.LBE254:
.LBB255:
.LBB237:
	orr	r0, r0, r1, asl #16
.LBE237:
.LBE255:
.LBB256:
.LBB245:
	orr	r2, r2, r3, asl #16
.LBE245:
.LBE256:
	.loc 1 1332 0
	cmp	r6, #0
.LBB257:
.LBB238:
	.loc 2 72 0
	str	r0, [sp, #16]
.LVL115:
.LBE238:
.LBE257:
.LBB258:
.LBB246:
	str	r2, [sp, #20]
.LBE246:
.LBE258:
	.loc 1 1332 0
	bne	.L113
.LVL116:
.L107:
	.loc 1 1335 0 discriminator 2
	ldr	r2, [sp, #16]
	ldr	r1, [sp, #68]
	.loc 1 1336 0 discriminator 2
	ldr	r3, [sp, #20]
	.loc 1 1335 0 discriminator 2
	add	r2, r2, r1
	.loc 1 1336 0 discriminator 2
	ldr	r1, [sp, #72]
	.loc 1 1306 0 discriminator 2
	add	r10, r10, #1
.LVL117:
	.loc 1 1336 0 discriminator 2
	add	r3, r3, r1
	.loc 1 1338 0 discriminator 2
	add	r0, sp, #8
	ldr	r1, [sp, #64]
	.loc 1 1335 0 discriminator 2
	str	r2, [sp, #16]
	.loc 1 1336 0 discriminator 2
	str	r3, [sp, #20]
	.loc 1 1338 0 discriminator 2
	bl	AM_drawMline
.LVL118:
	.loc 1 1306 0 discriminator 2
	cmp	r10, r7
	add	r4, r4, #16
	beq	.L101
.LVL119:
.L108:
	.loc 1 1308 0
	ldr	r2, [r4, #-4]
	.loc 1 1309 0
	ldr	r0, [r4]
	.loc 1 1311 0
	cmp	r5, #0
	.loc 1 1308 0
	str	r2, [sp, #8]
	.loc 1 1309 0
	str	r0, [sp, #12]
	.loc 1 1311 0
	bne	.L128
	.loc 1 1317 0
	cmp	r6, #0
	bne	.L129
	.loc 1 1320 0
	ldr	r3, [sp, #68]
	.loc 1 1323 0
	ldr	r1, [r4, #4]
	.loc 1 1320 0
	add	r2, r2, r3
	.loc 1 1321 0
	ldr	r3, [sp, #72]
	.loc 1 1320 0
	str	r2, [sp, #8]
	.loc 1 1321 0
	add	r0, r0, r3
	.loc 1 1324 0
	ldr	r3, [r4, #8]
	.loc 1 1321 0
	str	r0, [sp, #12]
	.loc 1 1323 0
	str	r1, [sp, #16]
	.loc 1 1324 0
	str	r3, [sp, #20]
	b	.L107
.L129:
	.loc 1 1318 0
	add	r0, sp, #8
	add	r1, sp, #12
	mov	r2, r6
	mov	r3, r5
	str	r5, [sp]
	bl	AM_rotate
.LVL120:
	.loc 1 1324 0
	ldmib	r4, {r0, r1}
	.loc 1 1320 0
	ldr	r2, [sp, #8]
	ldr	ip, [sp, #68]
	.loc 1 1321 0
	ldr	r3, [sp, #12]
	.loc 1 1320 0
	add	r2, r2, ip
	.loc 1 1321 0
	ldr	ip, [sp, #72]
	.loc 1 1320 0
	str	r2, [sp, #8]
	.loc 1 1321 0
	add	r3, r3, ip
	str	r3, [sp, #12]
	.loc 1 1323 0
	str	r0, [sp, #16]
	.loc 1 1324 0
	str	r1, [sp, #20]
.L113:
	.loc 1 1333 0
	mov	r3, #0
	add	r0, sp, #16
	str	r3, [sp]
	add	r1, sp, #20
	mov	r2, r6
	bl	AM_rotate
.LVL121:
	b	.L107
.LVL122:
.L127:
	.loc 1 1318 0
	mov	r3, #0
	mov	r2, r6
	str	r3, [sp]
.LVL123:
	add	r0, sp, #8
	add	r1, sp, #12
	bl	AM_rotate
.LVL124:
	.loc 1 1320 0
	ldr	r2, [sp, #8]
	.loc 1 1321 0
	ldr	r3, [sp, #12]
	b	.L124
.LVL125:
.L101:
	.loc 1 1340 0
	add	sp, sp, #28
	.cfi_def_cfa_offset 36
	@ sp needed
	ldmfd	sp!, {r4, r5, r6, r7, r8, r9, r10, fp, pc}
.LVL126:
.L131:
	.align	2
.L130:
	.word	automapmode
	.word	.LANCHOR0
	.cfi_endproc
.LFE30:
	.size	AM_drawLineCharacter, .-AM_drawLineCharacter
	.align	2
	.global	AM_clearMarks
	.type	AM_clearMarks, %function
AM_clearMarks:
.LFB14:
	.loc 1 487 0
	.cfi_startproc
	@ args = 0, pretend = 0, frame = 0
	@ frame_needed = 0, uses_anonymous_args = 0
	@ link register save eliminated.
	.loc 1 488 0
	mov	r2, #0
	ldr	r3, .L133
	str	r2, [r3, #100]
	bx	lr
.L134:
	.align	2
.L133:
	.word	.LANCHOR0
	.cfi_endproc
.LFE14:
	.size	AM_clearMarks, .-AM_clearMarks
	.align	2
	.global	AM_Stop
	.type	AM_Stop, %function
AM_Stop:
.LFB16:
	.loc 1 524 0
	.cfi_startproc
	@ args = 0, pretend = 0, frame = 0
	@ frame_needed = 0, uses_anonymous_args = 0
	.loc 1 528 0
	ldr	r2, .L137
	.loc 1 524 0
	stmfd	sp!, {r4, lr}
	.cfi_def_cfa_offset 8
	.cfi_offset 4, -8
	.cfi_offset 14, -4
	.loc 1 528 0
	ldrb	r3, [r2]	@ zero_extendqisi2
	.loc 1 529 0
	ldr	r4, .L137+4
	.loc 1 528 0
	bic	r3, r3, #1
	.loc 1 529 0
	add	r0, r4, #4
	.loc 1 528 0
	strb	r3, [r2]
	.loc 1 529 0
	bl	ST_Responder
.LVL127:
	.loc 1 530 0
	mov	r3, #1
	str	r3, [r4, #20]
	ldmfd	sp!, {r4, pc}
.L138:
	.align	2
.L137:
	.word	automapmode
	.word	.LANCHOR1
	.cfi_endproc
.LFE16:
	.size	AM_Stop, .-AM_Stop
	.align	2
	.global	AM_Start
	.type	AM_Start, %function
AM_Start:
.LFB17:
	.loc 1 544 0
	.cfi_startproc
	@ args = 0, pretend = 0, frame = 24
	@ frame_needed = 0, uses_anonymous_args = 0
	stmfd	sp!, {r4, r5, r6, r7, r8, r9, r10, fp, lr}
	.cfi_def_cfa_offset 36
	.cfi_offset 4, -36
	.cfi_offset 5, -32
	.cfi_offset 6, -28
	.cfi_offset 7, -24
	.cfi_offset 8, -20
	.cfi_offset 9, -16
	.cfi_offset 10, -12
	.cfi_offset 11, -8
	.cfi_offset 14, -4
	.loc 1 547 0
	ldr	r6, .L174
	.loc 1 544 0
	sub	sp, sp, #28
	.cfi_def_cfa_offset 64
	.loc 1 547 0
	ldr	r3, [r6, #20]
	cmp	r3, #0
.LBB293:
.LBB294:
	.loc 1 528 0
	ldr	r3, .L174+4
	strne	r3, [sp, #4]
.LBE294:
.LBE293:
	.loc 1 547 0
	beq	.L171
.L140:
	.loc 1 549 0
	mov	r2, #0
	.loc 1 550 0
	ldr	r1, .L174+8
	ldr	r3, [r6, #24]
	ldr	r1, [r1]
	.loc 1 549 0
	str	r2, [r6, #20]
	.loc 1 550 0
	cmp	r3, r1
	str	r1, [sp, #16]
	.loc 1 549 0
	ldr	r3, .L174
	.loc 1 550 0
	beq	.L141
	ldr	r3, .L174+12
	ldr	r3, [r3]
	str	r3, [sp, #20]
.L142:
.LBB296:
.LBB297:
	.loc 1 503 0
	mov	ip, #0
.LBB298:
.LBB299:
	.loc 1 354 0
	mvn	r3, #-2147483648
	.loc 1 355 0
	mov	r0, #-2147483647
.LBE299:
.LBE298:
	.loc 1 507 0
	ldr	r2, .L174+16
	ldr	r8, .L174+20
	ldr	r1, [r2]
.LBB338:
.LBB328:
	.loc 1 357 0
	ldr	r4, .L174+24
.LBE328:
.LBE338:
	.loc 1 507 0
	mov	r2, r1, asl #5
	smull	lr, r8, r8, r2
	.loc 1 506 0
	ldr	lr, .L174+28
.LBB339:
.LBB329:
	.loc 1 357 0
	ldr	r9, [r4]
.LBE329:
.LBE339:
	.loc 1 507 0
	mov	r2, r2, asr #31
	.loc 1 505 0
	ldr	r4, .L174+32
	.loc 1 507 0
	sub	r2, r2, r8, asr #6
	.loc 1 506 0
	ldr	r5, [lr]
	.loc 1 507 0
	add	r8, r1, r2
.LBB340:
.LBB330:
	.loc 1 357 0
	cmp	r9, ip
.LBE330:
.LBE340:
	.loc 1 507 0
	str	r8, [r4, #24]
	.loc 1 506 0
	str	r5, [r4, #16]
	.loc 1 505 0
	str	ip, [r4, #92]
	.loc 1 503 0
	str	ip, [r6, #32]
	.loc 1 505 0
	str	ip, [r4, #72]
.LBB341:
.LBB331:
	.loc 1 354 0
	str	r3, [r4, #64]
	str	r3, [r4, #56]
	.loc 1 355 0
	str	r0, [r4, #60]
	str	r0, [r4, #52]
.LVL128:
	.loc 1 357 0
	ble	.L162
	mov	ip, r3
	mov	lr, r0
	mov	r7, r3
	ldr	r2, .L174+36
	ldr	r2, [r2]
	add	r9, r2, r9, asl #3
.LVL129:
.L147:
	.loc 1 359 0
	ldr	r1, [r2]
	cmp	r1, r7
	movlt	r3, r1
	blt	.L145
	cmp	r0, r1
	movlt	r0, r1
.L145:
	.loc 1 364 0
	ldr	r1, [r2, #4]
	cmp	r1, ip
	movlt	ip, r1
	blt	.L146
	.loc 1 366 0
	cmp	lr, r1
	movlt	lr, r1
.L146:
	add	r2, r2, #8
	.loc 1 357 0
	cmp	r2, r9
	mov	r7, r3
	bne	.L147
	mov	r10, r0, asr #4
	mov	r3, r3, asr #4
	mov	lr, lr, asr #4
	mov	ip, ip, asr #4
	rsb	r2, r3, r10
	rsb	r7, ip, lr
	mov	r1, r2, asr #31
	mov	r9, r7, asr #31
	eor	fp, r1, r2
	str	r0, [r4, #52]
	eor	r0, r9, r7
	rsb	fp, r1, fp
	rsb	r9, r9, r0
.L144:
	.loc 1 373 0
	mov	r0, #131072
	.loc 1 376 0
	mov	r1, r5, asl #16
.LVL130:
.LBB300:
.LBB301:
.LBB302:
.LBB303:
	.loc 2 59 0
	mov	r5, r1, asr #31
.LVL131:
.LBE303:
.LBE302:
.LBE301:
.LBE300:
	.loc 1 370 0
	str	r10, [r4, #52]
.LBB309:
.LBB306:
.LBB305:
.LBB304:
	.loc 2 60 0
	eor	r10, r5, r1
	rsb	r5, r5, r10
.LVL132:
.LBE304:
.LBE305:
	.loc 2 84 0
	cmp	fp, r5, asr #14
.LBE306:
.LBE309:
	.loc 1 370 0
	str	r3, [r4, #56]
	str	r2, [r4, #104]
	.loc 1 371 0
	str	lr, [r4, #60]
	str	ip, [r4, #64]
	str	r7, [r4, #108]
	.loc 1 373 0
	str	r0, [r4, #112]
	.loc 1 374 0
	str	r0, [r4, #116]
.LBB310:
.LBB307:
	.loc 2 84 0
	ble	.L172
	.loc 2 85 0
	mov	r10, r1
	mov	fp, r1, asr #31
.LVL133:
	mov	r3, fp, asl #16
	orr	r1, r3, r1, lsr #16
.LVL134:
	mov	r0, #0
	mov	r3, r2, asr #31
	strd	r10, [sp, #8]
	bl	__aeabi_ldivmod
.LVL135:
	mov	r5, r0
.LVL136:
.L149:
.LBE307:
.LBE310:
	.loc 1 377 0
	mov	r8, r8, asl #16
.LVL137:
.LBB311:
.LBB312:
.LBB313:
.LBB314:
	.loc 2 59 0
	mov	r2, r8, asr #31
.LVL138:
	.loc 2 60 0
	eor	r3, r2, r8
	rsb	r3, r2, r3
.LBE314:
.LBE313:
	.loc 2 84 0
	mov	r3, r3, asr #14
.LVL139:
	cmp	r3, r9
	blt	.L150
	eor	r0, r7, r8
	mov	r0, r0, asr #31
	eor	ip, r0, #-2147483648
	mvn	ip, ip
	mov	r10, r8
	mov	fp, r8, asr #31
.L151:
.LBE312:
.LBE311:
.LBB316:
.LBB317:
	.loc 2 85 0
	mov	r9, fp, asl #16
	orr	r9, r9, r10, lsr #16
	mov	r3, r9, asr #31
	mov	r0, r3
	mov	r1, r3, asr #31
.LBE317:
.LBE316:
	.loc 1 379 0
	cmp	ip, r5
.LBB322:
.LBB318:
	.loc 2 85 0
	mov	r3, #0
.LBE318:
.LBE322:
	.loc 1 379 0
	movlt	r5, ip
.LBB323:
.LBB319:
	.loc 2 85 0
	ldr	r2, .L174+40
	mov	r8, r10, asl #16
.LVL140:
	and	r0, r0, r2
	adds	r2, r0, r8
	and	r1, r1, r3
	adc	r3, r1, r9
.LBE319:
.LBE323:
.LBE331:
.LBE341:
.LBB342:
.LBB343:
.LBB344:
.LBB345:
	.loc 2 59 0
	mov	r1, r5, asr #31
	.loc 2 60 0
	eor	r7, r1, r5
.LVL141:
.LBE345:
.LBE344:
	.loc 2 84 0
	ldr	r0, .L174+44
.LBE343:
.LBE342:
.LBB352:
.LBB332:
.LBB324:
.LBB320:
	.loc 2 85 0
	mov	r8, r2, lsr #17
.LBE320:
.LBE324:
.LBE332:
.LBE352:
.LBB353:
.LBB348:
.LBB347:
.LBB346:
	.loc 2 60 0
	rsb	r7, r1, r7
.LBE346:
.LBE347:
.LBE348:
.LBE353:
.LBB354:
.LBB333:
.LBB325:
.LBB321:
	.loc 2 85 0
	orr	r8, r8, r3, asl #15
.LBE321:
.LBE325:
.LBE333:
.LBE354:
.LBB355:
.LBB349:
	.loc 2 84 0
	cmp	r0, r7, asr #14
.LBE349:
.LBE355:
.LBB356:
.LBB334:
	.loc 1 379 0
	str	r5, [r4, #68]
.LVL142:
	.loc 1 380 0
	str	r8, [r4, #120]
.LVL143:
.LBE334:
.LBE356:
.LBB357:
.LBB350:
	.loc 2 84 0
	bge	.L154
	eor	r2, r1, #-2147483648
	mvn	r2, r2
.LVL144:
.L155:
.LBE350:
.LBE357:
	.loc 1 511 0
	cmp	r2, r8
	movle	r3, r2, asr #31
	eorle	r7, r3, r2
	rsble	r7, r3, r7
	.loc 1 510 0
	strle	r2, [r6]
	.loc 1 512 0
	movgt	r2, r5
	strgt	r5, [r6]
.LVL145:
.LBB358:
.LBB359:
	.loc 2 84 0
	cmp	r7, #4
	ble	.L173
	.loc 2 85 0
	mov	r0, #0
	mov	r1, #1
	mov	r3, r2, asr #31
	bl	__aeabi_ldivmod
.LVL146:
.L159:
.LBE359:
.LBE358:
.LBE297:
.LBE296:
	.loc 1 553 0
	ldr	r3, [sp, #16]
.LBB370:
.LBB366:
	.loc 1 513 0
	str	r0, [r4, #20]
.LBE366:
.LBE370:
	.loc 1 553 0
	str	r3, [r6, #24]
	.loc 1 554 0
	ldr	r3, [sp, #20]
	str	r3, [r6, #28]
.LVL147:
.L143:
.LBB371:
.LBB372:
	.loc 1 434 0
	mov	lr, #0
.LBB373:
.LBB374:
	.loc 2 72 0
	ldrd	r2, [sp, #8]
.LBE374:
.LBE373:
	.loc 1 435 0
	mov	ip, #65536
	.loc 1 432 0
	mvn	r5, #-2147483648
.LBB379:
.LBB375:
	.loc 2 72 0
	mul	r6, r0, r3
.LBE375:
.LBE379:
.LBB380:
.LBB381:
	mul	r8, r0, fp
.LBE381:
.LBE380:
.LBB386:
.LBB376:
	mov	r7, r0, asr #31
	mla	r6, r2, r7, r6
	umull	r2, r3, r0, r2
.LBE376:
.LBE386:
.LBB387:
.LBB382:
	mla	r8, r10, r7, r8
	umull	r0, r1, r0, r10
.LBE382:
.LBE387:
	.loc 1 442 0
	ldr	r7, .L174+48
.LBB388:
.LBB377:
	.loc 2 72 0
	add	r3, r6, r3
.LBE377:
.LBE388:
	.loc 1 442 0
	ldr	r9, .L174+52
	.loc 1 430 0
	ldr	r6, [sp, #4]
	.loc 1 442 0
	ldr	r7, [r7]
.LBB389:
.LBB383:
	.loc 2 72 0
	add	r1, r8, r1
.LBE383:
.LBE389:
	.loc 1 442 0
	ldr	r10, [r9, r7, asl #2]
	.loc 1 430 0
	ldrb	r8, [r6]	@ zero_extendqisi2
.LBB390:
.LBB378:
	.loc 2 72 0
	mov	r6, r2, lsr #16
	orr	r6, r6, r3, asl #16
.LBE378:
.LBE390:
.LBB391:
.LBB384:
	mov	fp, r0, lsr #16
.LBE384:
.LBE391:
	.loc 1 430 0
	ldr	r3, [sp, #4]
.LBB392:
.LBB385:
	.loc 2 72 0
	orr	fp, fp, r1, asl #16
.LBE385:
.LBE392:
	.loc 1 430 0
	orr	r8, r8, #1
	.loc 1 442 0
	cmp	r10, lr
	.loc 1 438 0
	str	r6, [r4]
	.loc 1 439 0
	str	fp, [r4, #8]
	.loc 1 430 0
	strb	r8, [r3]
	.loc 1 432 0
	str	r5, [r4, #44]
	.loc 1 434 0
	str	lr, [r4, #40]
	str	lr, [r4, #36]
	.loc 1 435 0
	str	ip, [r4, #124]
	.loc 1 436 0
	str	ip, [r4, #128]
.LVL148:
	.loc 1 442 0
	bne	.L160
	mov	r7, r10
.LVL149:
.L161:
	.loc 1 444 0
	ldr	r3, [r9, r7, asl #2]
	cmp	r3, #0
	bne	.L160
	.loc 1 443 0
	add	r7, r7, #1
.LVL150:
	cmp	r7, #4
	bne	.L161
.L160:
	.loc 1 447 0
	mov	r3, #284
	mul	r7, r3, r7
.LVL151:
	ldr	r1, .L174+56
	.loc 1 448 0
	add	r2, r6, r6, lsr #31
	ldr	r0, [r7, r1]
	.loc 1 449 0
	add	r3, fp, fp, lsr #31
	.loc 1 448 0
	ldr	ip, [r0, #24]
	.loc 1 449 0
	ldr	r0, [r0, #28]
	.loc 1 448 0
	mov	r2, r2, asr #1
	.loc 1 449 0
	mov	r3, r3, asr #1
	.loc 1 448 0
	rsb	r2, r2, ip, asr #4
	.loc 1 449 0
	rsb	r3, r3, r0, asr #4
	.loc 1 447 0
	add	r7, r7, r1
	.loc 1 448 0
	str	r2, [r4, #4]
	.loc 1 449 0
	str	r3, [r4, #12]
	.loc 1 447 0
	str	r7, [r4, #96]
	.loc 1 450 0
	bl	AM_changeWindowLoc
.LVL152:
	.loc 1 453 0
	ldr	r2, [r4, #4]
	.loc 1 454 0
	ldr	r3, [r4, #12]
	.loc 1 459 0
	ldr	r0, .L174+60
	.loc 1 455 0
	str	r6, [r4, #140]
	.loc 1 456 0
	str	fp, [r4, #144]
	.loc 1 453 0
	str	r2, [r4, #132]
	.loc 1 454 0
	str	r3, [r4, #136]
.LBE372:
.LBE371:
	.loc 1 558 0
	add	sp, sp, #28
	.cfi_remember_state
	.cfi_def_cfa_offset 36
	@ sp needed
	ldmfd	sp!, {r4, r5, r6, r7, r8, r9, r10, fp, lr}
	.cfi_restore 14
	.cfi_restore 11
	.cfi_restore 10
	.cfi_restore 9
	.cfi_restore 8
	.cfi_restore 7
	.cfi_restore 6
	.cfi_restore 5
	.cfi_restore 4
	.cfi_def_cfa_offset 0
.LBB394:
.LBB393:
	.loc 1 459 0
	b	ST_Responder
.LVL153:
.L172:
	.cfi_restore_state
.LBE393:
.LBE394:
.LBB395:
.LBB367:
.LBB361:
.LBB335:
.LBB326:
.LBB308:
	.loc 2 84 0
	eor	r5, r2, r1
	mov	r2, r1
.LVL154:
	mov	r5, r5, asr #31
	eor	r5, r5, #-2147483648
	mov	r3, r1, asr #31
	mvn	r5, r5
	strd	r2, [sp, #8]
	b	.L149
.LVL155:
.L141:
.LBE308:
.LBE326:
.LBE335:
.LBE361:
.LBE367:
.LBE395:
	.loc 1 550 0 discriminator 1
	ldr	r2, .L174+12
	ldr	r3, [r3, #28]
	ldr	r2, [r2]
	cmp	r3, r2
	str	r2, [sp, #20]
	bne	.L142
	ldr	r4, .L174+32
	ldr	r2, [r4, #16]
	ldr	r3, [r4, #24]
	mov	r2, r2, asl #16
	mov	r0, r2
	mov	r3, r3, asl #16
	mov	r1, r2, asr #31
	strd	r0, [sp, #8]
	mov	r10, r3
	mov	fp, r3, asr #31
	ldr	r0, [r4, #20]
	b	.L143
.LVL156:
.L154:
.LBB396:
.LBB368:
.LBB362:
.LBB351:
	.loc 2 85 0
	mov	r3, r5, asr #31
	mov	r1, r3, asl #16
.LVL157:
	ldr	r2, .L174+64
	orr	r1, r1, r5, lsr #16
	mov	r0, r5, asl #16
	mov	r3, #0
	bl	__aeabi_ldivmod
.LVL158:
	mov	r2, r0
	b	.L155
.LVL159:
.L150:
.LBE351:
.LBE362:
.LBB363:
.LBB336:
.LBB327:
.LBB315:
	mov	fp, r8, asr #31
	mov	r1, fp, asl #16
	orr	r1, r1, r8, lsr #16
	mov	r0, #0
	mov	r2, r7
	mov	r3, r7, asr #31
	bl	__aeabi_ldivmod
.LVL160:
	mov	r10, r8
	mov	ip, r0
	b	.L151
.LVL161:
.L173:
.LBE315:
.LBE327:
.LBE336:
.LBE363:
.LBB364:
.LBB360:
	.loc 2 84 0
	mov	r0, r2, asr #31
	eor	r0, r0, #-2147483648
	mvn	r0, r0
	b	.L159
.LVL162:
.L171:
.LBE360:
.LBE364:
.LBE368:
.LBE396:
.LBB397:
.LBB295:
	.loc 1 528 0
	mov	r2, r3
	str	r3, [sp, #4]
	ldrb	r3, [r3]	@ zero_extendqisi2
	.loc 1 529 0
	add	r0, r6, #4
	.loc 1 528 0
	bic	r3, r3, #1
	strb	r3, [r2]
	.loc 1 529 0
	bl	ST_Responder
.LVL163:
	b	.L140
.LVL164:
.L162:
.LBE295:
.LBE397:
.LBB398:
.LBB369:
.LBB365:
.LBB337:
	.loc 1 357 0
	mvn	r9, #-268435456
	mov	r7, #-268435455
	mvn	ip, #-134217728
	mov	lr, #-134217728
	mov	fp, r9
	mov	r2, r7
	mov	r3, ip
	mov	r10, lr
	b	.L144
.L175:
	.align	2
.L174:
	.word	.LANCHOR1
	.word	automapmode
	.word	gamemap
	.word	gameepisode
	.word	SCREENHEIGHT
	.word	1374389535
	.word	numvertexes
	.word	SCREENWIDTH
	.word	.LANCHOR0
	.word	vertexes
	.word	131071
	.word	45874
	.word	consoleplayer
	.word	playeringame
	.word	players
	.word	.LANCHOR1+36
	.word	45875
.LBE337:
.LBE365:
.LBE369:
.LBE398:
	.cfi_endproc
.LFE17:
	.size	AM_Start, .-AM_Start
	.align	2
	.global	AM_Responder
	.type	AM_Responder, %function
AM_Responder:
.LFB20:
	.loc 1 597 0
	.cfi_startproc
	@ args = 0, pretend = 0, frame = 0
	@ frame_needed = 0, uses_anonymous_args = 0
.LVL165:
	.loc 1 605 0
	ldr	r2, .L254
	.loc 1 597 0
	stmfd	sp!, {r3, r4, r5, r6, r7, lr}
	.cfi_def_cfa_offset 24
	.cfi_offset 3, -24
	.cfi_offset 4, -20
	.cfi_offset 5, -16
	.cfi_offset 6, -12
	.cfi_offset 7, -8
	.cfi_offset 14, -4
	.loc 1 605 0
	ldrb	r1, [r2]	@ zero_extendqisi2
	.loc 1 607 0
	ldrb	r3, [r0]	@ zero_extendqisi2
	.loc 1 605 0
	ands	ip, r1, #1
	bne	.L177
	.loc 1 607 0
	cmp	r3, #0
	bne	.L228
	.loc 1 607 0 is_stmt 0 discriminator 1
	ldr	r2, .L254+4
	ldr	r1, [r0, #4]
	ldr	r2, [r2]
	cmp	r1, r2
	beq	.L238
.LVL166:
.L228:
	.loc 1 603 0 is_stmt 1
	mov	r0, #0
.LVL167:
	.loc 1 733 0
	ldmfd	sp!, {r3, r4, r5, r6, r7, pc}
.LVL168:
.L177:
	.loc 1 613 0
	cmp	r3, #0
	bne	.L179
.LVL169:
	.loc 1 617 0
	ldr	ip, .L254+8
	.loc 1 616 0
	ldr	r0, [r0, #4]
.LVL170:
	.loc 1 617 0
	ldr	ip, [ip]
	cmp	r0, ip
	beq	.L239
	.loc 1 622 0
	ldr	ip, .L254+12
	ldr	ip, [ip]
	cmp	r0, ip
	beq	.L240
	.loc 1 627 0
	ldr	ip, .L254+16
	ldr	ip, [ip]
	cmp	r0, ip
	beq	.L241
	.loc 1 632 0
	ldr	ip, .L254+20
	ldr	ip, [ip]
	cmp	r0, ip
	beq	.L242
	.loc 1 637 0
	ldr	ip, .L254+24
	ldr	ip, [ip]
	cmp	r0, ip
	beq	.L243
	.loc 1 642 0
	ldr	ip, .L254+28
	ldr	ip, [ip]
	cmp	r0, ip
	beq	.L244
	.loc 1 647 0
	ldr	ip, .L254+4
	ldr	ip, [ip]
	cmp	r0, ip
	beq	.L245
	.loc 1 652 0
	ldr	r3, .L254+32
	ldr	r3, [r3]
	cmp	r0, r3
	beq	.L246
	.loc 1 663 0
	ldr	r3, .L254+36
	ldr	r3, [r3]
	cmp	r0, r3
	beq	.L247
	.loc 1 670 0
	ldr	r3, .L254+40
	ldr	r3, [r3]
	cmp	r0, r3
	beq	.L248
	.loc 1 676 0
	ldr	r3, .L254+44
	ldr	r3, [r3]
	cmp	r0, r3
	beq	.L249
	.loc 1 683 0
	ldr	r3, .L254+48
	ldr	r3, [r3]
	cmp	r0, r3
	beq	.L250
	.loc 1 688 0
	ldr	r3, .L254+52
	ldr	r3, [r3]
	cmp	r0, r3
	beq	.L251
	.loc 1 692 0
	ldr	r3, .L254+56
	ldr	r3, [r3]
	cmp	r0, r3
	beq	.L252
	.loc 1 698 0
	mov	r3, #0
	ldr	r2, .L254+60
	.loc 1 699 0
	mov	r0, r3
.LVL171:
	.loc 1 698 0
	str	r3, [r2, #160]
.LVL172:
	ldmfd	sp!, {r3, r4, r5, r6, r7, pc}
.LVL173:
.L179:
	.loc 1 702 0
	cmp	r3, #1
	bne	.L228
	.loc 1 706 0
	ldr	r2, .L254+8
	.loc 1 705 0
	ldr	r3, [r0, #4]
.LVL174:
	.loc 1 706 0
	ldr	r2, [r2]
	cmp	r3, r2
	beq	.L236
	.loc 1 711 0
	ldr	r2, .L254+12
	ldr	r2, [r2]
	cmp	r3, r2
	beq	.L236
	.loc 1 716 0
	ldr	r2, .L254+16
	ldr	r2, [r2]
	cmp	r3, r2
	beq	.L237
	.loc 1 721 0
	ldr	r2, .L254+20
	ldr	r2, [r2]
	cmp	r3, r2
	beq	.L237
	.loc 1 726 0
	ldr	r2, .L254+24
	ldr	r2, [r2]
	cmp	r3, r2
	beq	.L217
	.loc 1 726 0 is_stmt 0 discriminator 1
	ldr	r2, .L254+28
	ldr	r2, [r2]
	cmp	r3, r2
	bne	.L228
.L217:
	.loc 1 728 0 is_stmt 1
	mov	r2, #65536
	ldr	r3, .L254+60
.LVL175:
	.loc 1 704 0
	mov	r0, #0
.LVL176:
	.loc 1 728 0
	str	r2, [r3, #128]
	.loc 1 729 0
	str	r2, [r3, #124]
	ldmfd	sp!, {r3, r4, r5, r6, r7, pc}
.LVL177:
.L239:
	.loc 1 618 0
	tst	r1, #8
	bne	.L228
	.loc 1 619 0
	ldr	r2, .L254+60
	.loc 1 615 0
	mov	r0, #1
.LVL178:
	.loc 1 619 0
	ldr	r3, [r2, #20]
.LVL179:
.LBB427:
.LBB428:
	.loc 2 72 0
	mov	r3, r3, asl #2
.LVL180:
	str	r3, [r2, #36]
.LBE428:
.LBE427:
	ldmfd	sp!, {r3, r4, r5, r6, r7, pc}
.LVL181:
.L240:
	.loc 1 623 0
	tst	r1, #8
	bne	.L228
	.loc 1 624 0
	ldr	r2, .L254+60
	.loc 1 615 0
	mov	r0, #1
.LVL182:
	.loc 1 624 0
	ldr	r3, [r2, #20]
.LVL183:
.LBB429:
.LBB430:
	.loc 2 72 0
	mov	r3, r3, asl #2
.LVL184:
.LBE430:
.LBE429:
	.loc 1 624 0
	rsb	r3, r3, #0
	str	r3, [r2, #36]
	ldmfd	sp!, {r3, r4, r5, r6, r7, pc}
.LVL185:
.L238:
	.loc 1 609 0
	bl	AM_Start
.LVL186:
	.loc 1 610 0
	mov	r0, #1
	ldmfd	sp!, {r3, r4, r5, r6, r7, pc}
.LVL187:
.L236:
	.loc 1 708 0
	tst	r1, #8
	bne	.L228
	.loc 1 709 0
	mov	r3, #0
.LVL188:
	ldr	r2, .L254+60
	.loc 1 704 0
	mov	r0, r3
.LVL189:
	.loc 1 709 0
	str	r3, [r2, #36]
	ldmfd	sp!, {r3, r4, r5, r6, r7, pc}
.LVL190:
.L244:
	.loc 1 644 0
	ldr	r3, .L254+60
	ldr	r1, .L254+64
	.loc 1 645 0
	ldr	r2, .L254+68
	.loc 1 644 0
	str	r1, [r3, #128]
	.loc 1 645 0
	str	r2, [r3, #124]
	.loc 1 615 0
	mov	r0, #1
.LVL191:
	ldmfd	sp!, {r3, r4, r5, r6, r7, pc}
.LVL192:
.L241:
	.loc 1 628 0
	tst	r1, #8
	bne	.L228
	.loc 1 629 0
	ldr	r2, .L254+60
	.loc 1 615 0
	mov	r0, #1
.LVL193:
	.loc 1 629 0
	ldr	r3, [r2, #20]
.LVL194:
.LBB431:
.LBB432:
	.loc 2 72 0
	mov	r3, r3, asl #2
.LVL195:
	str	r3, [r2, #40]
.LBE432:
.LBE431:
	ldmfd	sp!, {r3, r4, r5, r6, r7, pc}
.LVL196:
.L242:
	.loc 1 633 0
	tst	r1, #8
	bne	.L228
	.loc 1 634 0
	ldr	r2, .L254+60
	.loc 1 615 0
	mov	r0, #1
.LVL197:
	.loc 1 634 0
	ldr	r3, [r2, #20]
.LVL198:
.LBB433:
.LBB434:
	.loc 2 72 0
	mov	r3, r3, asl #2
.LVL199:
.LBE434:
.LBE433:
	.loc 1 634 0
	rsb	r3, r3, #0
	str	r3, [r2, #40]
	ldmfd	sp!, {r3, r4, r5, r6, r7, pc}
.LVL200:
.L237:
	.loc 1 718 0
	tst	r1, #8
	bne	.L228
	.loc 1 719 0
	mov	r3, #0
.LVL201:
	ldr	r2, .L254+60
	.loc 1 704 0
	mov	r0, r3
.LVL202:
	.loc 1 719 0
	str	r3, [r2, #40]
	ldmfd	sp!, {r3, r4, r5, r6, r7, pc}
.LVL203:
.L243:
	.loc 1 639 0
	ldr	r3, .L254+60
	ldr	r1, .L254+68
	.loc 1 640 0
	ldr	r2, .L254+64
	.loc 1 639 0
	str	r1, [r3, #128]
	.loc 1 640 0
	str	r2, [r3, #124]
	.loc 1 615 0
	mov	r0, #1
.LVL204:
	ldmfd	sp!, {r3, r4, r5, r6, r7, pc}
.LVL205:
.L246:
	.loc 1 654 0
	ldr	r4, .L254+60
	ldr	r3, [r4, #148]
	clz	r3, r3
	mov	r3, r3, lsr #5
	.loc 1 655 0
	cmp	r3, #0
	.loc 1 654 0
	str	r3, [r4, #148]
	.loc 1 655 0
	beq	.L188
.LBB435:
.LBB436:
	.loc 1 281 0
	ldr	r0, [r4, #4]
.LVL206:
	.loc 1 282 0
	ldr	r1, [r4, #12]
	.loc 1 283 0
	ldr	r2, [r4]
	.loc 1 284 0
	ldr	r3, [r4, #8]
	.loc 1 281 0
	str	r0, [r4, #132]
	.loc 1 282 0
	str	r1, [r4, #136]
	.loc 1 283 0
	str	r2, [r4, #140]
	.loc 1 284 0
	str	r3, [r4, #144]
.LBE436:
.LBE435:
	.loc 1 658 0
	bl	AM_minOutWindowScale
.LVL207:
	.loc 1 615 0
	mov	r0, #1
	ldmfd	sp!, {r3, r4, r5, r6, r7, pc}
.LVL208:
.L247:
	.loc 1 666 0
	mvn	r0, #-2147483648
.LVL209:
	.loc 1 665 0
	eor	r1, r1, #8
	.loc 1 668 0
	tst	r1, #8
	.loc 1 665 0
	strb	r1, [r2]
	.loc 1 666 0
	ldr	r3, .L254+60
	.loc 1 668 0
	ldrne	r2, .L254+72
	ldreq	r2, .L254+76
	.loc 1 666 0
	str	r0, [r3, #44]
	.loc 1 668 0
	ldr	r2, [r2]
	ldr	r3, [r3, #96]
.L210:
	.loc 1 694 0 discriminator 4
	str	r2, [r3, #220]
	.loc 1 615 0 discriminator 4
	mov	r0, #1
	ldmfd	sp!, {r3, r4, r5, r6, r7, pc}
.LVL210:
.L248:
	.loc 1 672 0
	eor	r1, r1, #16
	.loc 1 674 0
	tst	r1, #16
	.loc 1 672 0
	strb	r1, [r2]
	.loc 1 674 0
	ldr	r3, .L254+60
	ldrne	r2, .L254+80
	ldreq	r2, .L254+84
	ldr	r3, [r3, #96]
	ldr	r2, [r2]
	b	.L210
.L188:
.LBB437:
.LBB438:
	.loc 1 297 0
	ldr	r2, [r4, #140]
	.loc 1 298 0
	ldr	lr, [r4, #144]
	.loc 1 299 0
	tst	r1, #8
	.loc 1 297 0
	str	r2, [r4]
	.loc 1 298 0
	str	lr, [r4, #8]
	.loc 1 299 0
	bne	.L189
	.loc 1 301 0
	ldr	r1, [r4, #132]
	.loc 1 302 0
	ldr	r0, [r4, #136]
.LVL211:
	.loc 1 301 0
	str	r1, [r4, #4]
	.loc 1 302 0
	str	r0, [r4, #12]
.L190:
	.loc 1 313 0
	ldr	r3, [r4, #16]
.LBB439:
.LBB440:
.LBB441:
.LBB442:
	.loc 2 59 0
	mov	ip, r2, asr #31
.LBE442:
.LBE441:
.LBE440:
.LBE439:
	.loc 1 313 0
	mov	r3, r3, asl #16
.LVL212:
.LBB455:
.LBB451:
.LBB445:
.LBB446:
	.loc 2 59 0
	mov	r7, r3, asr #31
.LVL213:
	.loc 2 60 0
	eor	r6, r7, r3
.LBE446:
.LBE445:
.LBB448:
.LBB443:
	eor	r5, ip, r2
.LBE443:
.LBE448:
.LBB449:
.LBB447:
	rsb	r6, r7, r6
.LBE447:
.LBE449:
.LBB450:
.LBB444:
	rsb	ip, ip, r5
.LBE444:
.LBE450:
.LBE451:
.LBE455:
	.loc 1 309 0
	add	r1, r2, r1
	.loc 1 310 0
	add	r0, lr, r0
.LBB456:
.LBB452:
	.loc 2 84 0
	cmp	ip, r6, asr #14
.LBE452:
.LBE456:
	.loc 1 309 0
	str	r1, [r4, #28]
	.loc 1 310 0
	str	r0, [r4, #32]
.LBB457:
.LBB453:
	.loc 2 84 0
	bgt	.L191
	eor	r2, r2, r3
.LVL214:
	mov	r2, r2, asr #31
	eor	r2, r2, #-2147483648
	mvn	r2, r2
.LVL215:
.L192:
.LBE453:
.LBE457:
.LBB458:
.LBB459:
.LBB460:
.LBB461:
	.loc 2 59 0
	mov	r1, r2, asr #31
	.loc 2 60 0
	eor	r3, r1, r2
	rsb	r3, r1, r3
.LBE461:
.LBE460:
.LBE459:
.LBE458:
	.loc 1 313 0
	ldr	r1, .L254+88
.LBB465:
.LBB462:
	.loc 2 84 0
	cmp	r3, #4
.LBE462:
.LBE465:
	.loc 1 313 0
	str	r2, [r1]
.LVL216:
.LBB466:
.LBB463:
	.loc 2 84 0
	ble	.L253
	.loc 2 85 0
	mov	r0, #0
	mov	r1, #1
	mov	r3, r2, asr #31
.LVL217:
	bl	__aeabi_ldivmod
.LVL218:
.L194:
.LBE463:
.LBE466:
	.loc 1 314 0
	str	r0, [r4, #20]
.LBE438:
.LBE437:
	.loc 1 615 0
	mov	r0, #1
	ldmfd	sp!, {r3, r4, r5, r6, r7, pc}
.LVL219:
.L245:
.LBB471:
.LBB472:
	.loc 1 529 0
	ldr	r4, .L254+88
.LBE472:
.LBE471:
	.loc 1 649 0
	ldr	ip, .L254+60
.LBB475:
.LBB473:
	.loc 1 528 0
	bic	r1, r1, #1
	.loc 1 529 0
	add	r0, r4, #4
.LVL220:
	.loc 1 528 0
	strb	r1, [r2]
.LBE473:
.LBE475:
	.loc 1 649 0
	str	r3, [ip, #148]
.LBB476:
.LBB474:
	.loc 1 529 0
	bl	ST_Responder
.LVL221:
	.loc 1 530 0
	mov	r0, #1
	str	r0, [r4, #20]
	ldmfd	sp!, {r3, r4, r5, r6, r7, pc}
.LVL222:
.L251:
.LBE474:
.LBE476:
	.loc 1 689 0
	eor	r1, r1, #4
	.loc 1 690 0
	tst	r1, #4
	.loc 1 689 0
	strb	r1, [r2]
	.loc 1 690 0
	ldr	r3, .L254+60
	ldrne	r2, .L254+92
	ldreq	r2, .L254+96
	ldr	r3, [r3, #96]
	ldr	r2, [r2]
	b	.L210
.L252:
	.loc 1 693 0
	eor	r1, r1, #2
	.loc 1 694 0
	tst	r1, #2
	.loc 1 693 0
	strb	r1, [r2]
	.loc 1 694 0
	ldr	r3, .L254+60
	ldrne	r2, .L254+100
	ldreq	r2, .L254+104
	ldr	r3, [r3, #96]
	ldr	r2, [r2]
	b	.L210
.LVL223:
.L191:
.LBB477:
.LBB469:
.LBB467:
.LBB454:
	.loc 2 85 0
	mov	r1, r3, asr #31
	mov	r1, r1, asl #16
	orr	r1, r1, r3, lsr #16
	mov	r0, #0
	mov	r3, r2, asr #31
.LVL224:
	bl	__aeabi_ldivmod
.LVL225:
	mov	r2, r0
	b	.L192
.LVL226:
.L189:
.LBE454:
.LBE467:
	.loc 1 306 0
	ldr	r3, [r4, #96]
	add	r1, r2, r2, lsr #31
	ldr	r0, [r3]
.LVL227:
	.loc 1 307 0
	add	r3, lr, lr, lsr #31
	.loc 1 306 0
	ldr	ip, [r0, #24]
	.loc 1 307 0
	ldr	r0, [r0, #28]
	.loc 1 306 0
	mov	r1, r1, asr #1
	.loc 1 307 0
	mov	r3, r3, asr #1
	.loc 1 306 0
	rsb	r1, r1, ip, asr #4
	.loc 1 307 0
	rsb	r0, r3, r0, asr #4
	.loc 1 306 0
	str	r1, [r4, #4]
	.loc 1 307 0
	str	r0, [r4, #12]
	b	.L190
.LVL228:
.L250:
.LBE469:
.LBE477:
.LBB478:
.LBB479:
	.loc 1 488 0
	mov	r0, #0
.LVL229:
	ldr	r3, .L254+60
.LBE479:
.LBE478:
	.loc 1 686 0
	ldr	r1, .L254+108
	ldr	r2, [r3, #96]
	ldr	r1, [r1]
.LBB481:
.LBB480:
	.loc 1 488 0
	str	r0, [r3, #100]
.LBE480:
.LBE481:
	.loc 1 686 0
	str	r1, [r2, #220]
	.loc 1 615 0
	mov	r0, #1
	ldmfd	sp!, {r3, r4, r5, r6, r7, pc}
.LVL230:
.L253:
.LBB482:
.LBB470:
.LBB468:
.LBB464:
	.loc 2 84 0
	mov	r2, r2, asr #31
.LVL231:
	eor	r0, r2, #-2147483648
	mvn	r0, r0
	b	.L194
.LVL232:
.L249:
.LBE464:
.LBE468:
.LBE470:
.LBE482:
	.loc 1 680 0
	ldr	r3, .L254+112
	ldr	r4, .L254+60
	ldr	r1, [r3]
	ldr	r2, [r4, #100]
	ldr	r0, .L254+116
.LVL233:
	bl	doom_printf
.LVL234:
.LBB483:
.LBB484:
	.loc 1 330 0
	ldr	ip, [r4, #152]
	ldr	r3, [r4, #100]
	cmp	r3, ip
	blt	.L202
	.loc 1 331 0
	cmp	ip, #0
	moveq	ip, #16
	movne	ip, ip, asl #1
	ldr	r0, [r4, #156]
	mov	r1, ip, asl #3
	mov	r2, #1
	mov	r3, #0
	str	ip, [r4, #152]
	bl	Z_Realloc
.LVL235:
	str	r0, [r4, #156]
.L202:
	.loc 1 335 0
	ldr	r2, [r4]
	.loc 1 336 0
	ldr	r3, [r4, #8]
	.loc 1 335 0
	ldr	r0, [r4, #100]
	ldr	ip, [r4, #4]
	ldr	lr, [r4, #156]
	.loc 1 336 0
	ldr	r1, [r4, #12]
	.loc 1 335 0
	add	r2, r2, r2, lsr #31
	.loc 1 336 0
	add	r3, r3, r3, lsr #31
	.loc 1 335 0
	add	r2, ip, r2, asr #1
	.loc 1 337 0
	add	r5, r0, #1
	.loc 1 335 0
	add	ip, lr, r0, asl #3
	.loc 1 336 0
	add	r3, r1, r3, asr #1
	.loc 1 335 0
	str	r2, [lr, r0, asl #3]
.LBE484:
.LBE483:
	.loc 1 615 0
	mov	r0, #1
.LBB486:
.LBB485:
	.loc 1 337 0
	str	r5, [r4, #100]
	.loc 1 336 0
	str	r3, [ip, #4]
	ldmfd	sp!, {r3, r4, r5, r6, r7, pc}
.L255:
	.align	2
.L254:
	.word	automapmode
	.word	key_map
	.word	key_map_right
	.word	key_map_left
	.word	key_map_up
	.word	key_map_down
	.word	key_map_zoomout
	.word	key_map_zoomin
	.word	key_map_gobig
	.word	key_map_follow
	.word	key_map_grid
	.word	key_map_mark
	.word	key_map_clear
	.word	key_map_rotate
	.word	key_map_overlay
	.word	.LANCHOR0
	.word	66846
	.word	64250
	.word	s_AMSTR_FOLLOWON
	.word	s_AMSTR_FOLLOWOFF
	.word	s_AMSTR_GRIDON
	.word	s_AMSTR_GRIDOFF
	.word	.LANCHOR1
	.word	s_AMSTR_ROTATEON
	.word	s_AMSTR_ROTATEOFF
	.word	s_AMSTR_OVERLAYON
	.word	s_AMSTR_OVERLAYOFF
	.word	s_AMSTR_MARKSCLEARED
	.word	s_AMSTR_MARKEDSPOT
	.word	.LC0
.LBE485:
.LBE486:
	.cfi_endproc
.LFE20:
	.size	AM_Responder, .-AM_Responder
	.align	2
	.global	AM_Ticker
	.type	AM_Ticker, %function
AM_Ticker:
.LFB24:
	.loc 1 814 0
	.cfi_startproc
	@ args = 0, pretend = 0, frame = 0
	@ frame_needed = 0, uses_anonymous_args = 0
	stmfd	sp!, {r3, r4, r5, r6, r7, r8, r9, lr}
	.cfi_def_cfa_offset 32
	.cfi_offset 3, -32
	.cfi_offset 4, -28
	.cfi_offset 5, -24
	.cfi_offset 6, -20
	.cfi_offset 7, -16
	.cfi_offset 8, -12
	.cfi_offset 9, -8
	.cfi_offset 14, -4
	.loc 1 815 0
	ldr	r3, .L288
	ldrb	r3, [r3]	@ zero_extendqisi2
	tst	r3, #1
	ldmeqfd	sp!, {r3, r4, r5, r6, r7, r8, r9, pc}
	.loc 1 818 0
	tst	r3, #8
.LBB511:
.LBB512:
	.loc 1 795 0
	ldr	r4, .L288+4
.LBE512:
.LBE511:
	.loc 1 818 0
	bne	.L281
.L259:
	.loc 1 822 0
	ldr	r3, [r4, #124]
	ldr	r2, .L288+4
	cmp	r3, #65536
	beq	.L262
.L286:
.LBB533:
.LBB534:
	.loc 1 775 0
	ldr	r6, .L288+8
	ldr	r2, [r2, #128]
	ldr	r3, [r6]
.LVL236:
.LBB535:
.LBB536:
	.loc 2 72 0
	smull	r2, r3, r3, r2
.LVL237:
	mov	r5, r2, lsr #16
	orr	r5, r5, r3, asl #16
.LBE536:
.LBE535:
.LBB537:
.LBB538:
.LBB539:
.LBB540:
	.loc 2 59 0
	mov	r2, r5, asr #31
	.loc 2 60 0
	eor	r3, r2, r5
.LVL238:
	rsb	r3, r2, r3
.LBE540:
.LBE539:
	.loc 2 84 0
	cmp	r3, #4
.LBE538:
.LBE537:
	.loc 1 775 0
	str	r5, [r6]
.LVL239:
.LBB543:
.LBB541:
	.loc 2 84 0
	ble	.L282
	.loc 2 85 0
	mov	r0, #0
	mov	r1, #1
	mov	r2, r5
.LVL240:
	mov	r3, r5, asr #31
.LVL241:
	bl	__aeabi_ldivmod
.LVL242:
.L264:
.LBE541:
.LBE543:
	.loc 1 778 0
	ldr	r3, [r4, #68]
	.loc 1 776 0
	str	r0, [r4, #20]
	.loc 1 778 0
	cmp	r5, r3
	.loc 1 776 0
	ldr	r3, .L288+4
	.loc 1 778 0
	blt	.L283
	.loc 1 780 0
	ldr	r2, [r3, #120]
	cmp	r5, r2
	bgt	.L284
	.loc 1 783 0
	bl	AM_activateNewScale
.LVL243:
.L262:
.LBE534:
.LBE533:
	.loc 1 826 0
	ldr	r3, [r4, #36]
	ldr	r2, .L288+4
	cmp	r3, #0
	bne	.L269
	.loc 1 826 0 is_stmt 0 discriminator 1
	ldr	r3, [r2, #40]
	cmp	r3, #0
	ldmeqfd	sp!, {r3, r4, r5, r6, r7, r8, r9, pc}
.L269:
	.loc 1 828 0 is_stmt 1
	ldmfd	sp!, {r3, r4, r5, r6, r7, r8, r9, lr}
	.cfi_remember_state
	.cfi_restore 14
	.cfi_restore 9
	.cfi_restore 8
	.cfi_restore 7
	.cfi_restore 6
	.cfi_restore 5
	.cfi_restore 4
	.cfi_restore 3
	.cfi_def_cfa_offset 0
	.loc 1 827 0
	b	AM_changeWindowLoc
.LVL244:
.L281:
	.cfi_restore_state
.LBB559:
.LBB529:
	.loc 1 795 0
	ldr	r3, [r4, #96]
	ldr	r2, [r4, #44]
	ldr	r3, [r3]
	ldr	ip, [r3, #24]
	ldr	lr, [r3, #28]
	cmp	r2, ip
	beq	.L285
.L261:
	.loc 1 797 0
	ldr	r3, .L288+8
	mov	r0, ip, asr #4
	ldr	r3, [r3]
.LVL245:
	.loc 1 798 0
	mov	r2, lr, asr #4
.LBB513:
.LBB514:
	.loc 2 72 0
	smull	r0, r1, r0, r3
.LVL246:
.LBE514:
.LBE513:
.LBB515:
.LBB516:
	smull	r2, r3, r3, r2
.LBE516:
.LBE515:
	.loc 1 797 0
	ldr	r2, [r4, #20]
	.loc 1 798 0
	mov	r6, r3, asl #16
.LBB517:
.LBB518:
	.loc 2 72 0
	smull	r6, r7, r2, r6
.LBE518:
.LBE517:
	.loc 1 797 0
	mov	r8, r1, asl #16
.LVL247:
.LBB521:
.LBB522:
	.loc 2 72 0
	smull	r8, r9, r8, r2
.LVL248:
.LBE522:
.LBE521:
	.loc 1 798 0
	ldr	r1, [r4, #8]
.LVL249:
.LBB525:
.LBB519:
	.loc 2 72 0
	mov	r3, r6, lsr #16
.LVL250:
.LBE519:
.LBE525:
	.loc 1 797 0
	ldr	r0, [r4]
	.loc 1 798 0
	add	r5, r1, r1, lsr #31
.LBB526:
.LBB520:
	.loc 2 72 0
	orr	r3, r3, r7, asl #16
.LBE520:
.LBE526:
	.loc 1 798 0
	sub	r3, r3, r5, asr #1
.LBB527:
.LBB523:
	.loc 2 72 0
	mov	r2, r8, lsr #16
.LVL251:
.LBE523:
.LBE527:
	.loc 1 797 0
	add	r6, r0, r0, lsr #31
	.loc 1 800 0
	add	r1, r1, r3
.LBB528:
.LBB524:
	.loc 2 72 0
	orr	r2, r2, r9, asl #16
.LBE524:
.LBE528:
	.loc 1 798 0
	str	r3, [r4, #12]
.LBE529:
.LBE559:
	.loc 1 822 0
	ldr	r3, [r4, #124]
.LBB560:
.LBB530:
	.loc 1 797 0
	sub	r2, r2, r6, asr #1
	.loc 1 799 0
	add	r0, r0, r2
.LBE530:
.LBE560:
	.loc 1 822 0
	cmp	r3, #65536
.LBB561:
.LBB531:
	.loc 1 797 0
	str	r2, [r4, #4]
	.loc 1 801 0
	str	ip, [r4, #44]
	.loc 1 802 0
	str	lr, [r4, #48]
	.loc 1 799 0
	str	r0, [r4, #28]
	.loc 1 800 0
	str	r1, [r4, #32]
.LBE531:
.LBE561:
	.loc 1 822 0
	ldr	r2, .L288+4
	bne	.L286
	b	.L262
.LVL252:
.L282:
.LBB562:
.LBB557:
.LBB544:
.LBB542:
	.loc 2 84 0
	eor	r0, r2, #-2147483648
	mvn	r0, r0
	b	.L264
.LVL253:
.L284:
.LBE542:
.LBE544:
.LBB545:
.LBB546:
.LBB547:
.LBB548:
.LBB549:
.LBB550:
	.loc 2 59 0
	mov	r1, r2, asr #31
	.loc 2 60 0
	eor	r3, r1, r2
	rsb	r3, r1, r3
.LBE550:
.LBE549:
	.loc 2 84 0
	cmp	r3, #4
.LBE548:
.LBE547:
	.loc 1 583 0
	str	r2, [r6]
.LVL254:
.LBB553:
.LBB551:
	.loc 2 84 0
	ble	.L287
.LVL255:
	.loc 2 85 0
	mov	r0, #0
	mov	r1, #1
.LVL256:
	mov	r3, r2, asr #31
.LVL257:
	bl	__aeabi_ldivmod
.LVL258:
.L268:
.LBE551:
.LBE553:
	.loc 1 584 0
	str	r0, [r4, #20]
	.loc 1 585 0
	bl	AM_activateNewScale
.LVL259:
	b	.L262
.LVL260:
.L283:
.LBE546:
.LBE545:
	.loc 1 779 0
	bl	AM_minOutWindowScale
.LVL261:
	b	.L262
.LVL262:
.L285:
.LBE557:
.LBE562:
.LBB563:
.LBB532:
	.loc 1 795 0
	ldr	r3, [r4, #48]
	cmp	r3, lr
	bne	.L261
	b	.L259
.LVL263:
.L287:
.LBE532:
.LBE563:
.LBB564:
.LBB558:
.LBB556:
.LBB555:
.LBB554:
.LBB552:
	.loc 2 84 0
	eor	r0, r1, #-2147483648
	mvn	r0, r0
	b	.L268
.L289:
	.align	2
.L288:
	.word	automapmode
	.word	.LANCHOR0
	.word	.LANCHOR1
.LBE552:
.LBE554:
.LBE555:
.LBE556:
.LBE558:
.LBE564:
	.cfi_endproc
.LFE24:
	.size	AM_Ticker, .-AM_Ticker
	.align	2
	.global	AM_Drawer
	.type	AM_Drawer, %function
AM_Drawer:
.LFB35:
	.loc 1 1570 0
	.cfi_startproc
	@ args = 0, pretend = 0, frame = 40
	@ frame_needed = 0, uses_anonymous_args = 0
	stmfd	sp!, {r4, r5, r6, r7, r8, r9, r10, fp, lr}
	.cfi_def_cfa_offset 36
	.cfi_offset 4, -36
	.cfi_offset 5, -32
	.cfi_offset 6, -28
	.cfi_offset 7, -24
	.cfi_offset 8, -20
	.cfi_offset 9, -16
	.cfi_offset 10, -12
	.cfi_offset 11, -8
	.cfi_offset 14, -4
	.loc 1 1572 0
	ldr	fp, .L523
	.loc 1 1570 0
	sub	sp, sp, #60
	.cfi_def_cfa_offset 96
	.loc 1 1572 0
	ldrb	r3, [fp]	@ zero_extendqisi2
	tst	r3, #1
	beq	.L290
	.loc 1 1574 0
	and	r2, r3, #2
	ands	r0, r2, #255
	.loc 1 1575 0
	ldr	r7, .L523+4
	.loc 1 1574 0
	beq	.L505
	.loc 1 1576 0
	tst	r3, #16
	bne	.L487
.L520:
	add	r3, sp, #40
	str	r3, [sp, #16]
.L293:
.LVL264:
.LBB590:
.LBB591:
	.loc 1 1106 0
	ldr	r6, .L523+8
	ldr	r3, [r6]
	cmp	r3, #0
	ble	.L337
	mov	r4, #0
	ldr	r9, .L523+12
	mov	r5, r4
	.loc 1 1108 0
	ldr	r8, .L523+4
	b	.L301
.LVL265:
.L507:
	.loc 1 1119 0
	tst	r2, #256
	beq	.L306
	.loc 1 1121 0
	tst	r2, #128
	beq	.L380
.L307:
	.loc 1 1106 0
	ldr	r3, [r6]
	add	r5, r5, #1
.LVL266:
	cmp	r5, r3
	add	r4, r4, #124
	bge	.L337
.LVL267:
.L301:
	.loc 1 1108 0
	ldr	r3, [r9]
	.loc 1 1113 0
	ldrb	r1, [fp]	@ zero_extendqisi2
	.loc 1 1108 0
	add	r3, r3, r4
	ldr	r2, [r3, #4]
	.loc 1 1110 0
	ldr	r0, [r3, #8]
	.loc 1 1113 0
	tst	r1, #4
	.loc 1 1109 0
	ldmia	r2, {r1, r2}
	mov	r2, r2, asr #4
	.loc 1 1108 0
	mov	r1, r1, asr #4
	.loc 1 1109 0
	str	r2, [r7, #168]
	.loc 1 1108 0
	str	r1, [r7, #164]
	.loc 1 1110 0
	ldr	r2, [r0]
	mov	r2, r2, asr #4
	str	r2, [r7, #172]
	.loc 1 1111 0
	ldr	r2, [r0, #4]
	mov	r2, r2, asr #4
	str	r2, [r7, #176]
	.loc 1 1113 0
	bne	.L506
.L304:
	.loc 1 1119 0
	ldr	r10, [r7, #180]
	.loc 1 1121 0
	ldrh	r2, [r3, #20]
	.loc 1 1119 0
	cmp	r10, #0
	beq	.L507
.L380:
.LBB592:
	.loc 1 1126 0
	ldr	r1, .L523+16
	ldr	r1, [r1]
	cmp	r1, #0
	bne	.L308
	ldr	r0, .L523+20
	ldr	r0, [r0]
	cmp	r0, #0
	bne	.L308
	ldr	r0, .L523+24
	ldr	r0, [r0]
	cmp	r0, #0
	bne	.L308
.L309:
.LBE592:
	.loc 1 1160 0
	ldr	r1, .L523+28
	ldr	r1, [r1]
	.loc 1 1159 0
	cmp	r1, #0
	beq	.L320
	.loc 1 1162 0
	ldrh	lr, [r3, #22]
	cmp	lr, #11
	cmpne	lr, #124
	moveq	r0, #1
	movne	r0, #0
	.loc 1 1163 0
	uxth	lr, lr
	sub	ip, lr, #197
	cmp	ip, #1
	movhi	ip, r0
	orrls	ip, r0, #1
	.loc 1 1164 0
	sub	r0, lr, #51
	.loc 1 1166 0
	cmp	r0, #1
	movhi	r0, ip
	orrls	r0, ip, #1
	cmp	r0, #0
	bne	.L492
.L320:
	.loc 1 1174 0
	ldr	ip, [r3, #56]
	cmp	ip, #0
	beq	.L508
	.loc 1 1200 0
	ldr	r1, .L523+32
	ldr	r1, [r1]
	.loc 1 1199 0
	cmp	r1, #0
	bne	.L509
	.loc 1 1207 0
	tst	r2, #32
	bne	.L322
	.loc 1 1213 0
	ldr	r2, .L523+36
	ldr	r1, [r2]
	.loc 1 1212 0
	cmp	r1, #0
	beq	.L327
.L516:
	.loc 1 1214 0
	ldr	r0, [ip, #12]
	ldr	r2, [ip, #16]
	cmp	r0, r2
	beq	.L492
	.loc 1 1216 0
	ldr	r3, [r3, #52]
	.loc 1 1215 0
	ldr	r0, [r3, #12]
	ldr	r2, [r3, #16]
	cmp	r0, r2
	bne	.L329
.L492:
	.loc 1 1256 0
	ldr	r0, .L523+40
	bl	AM_drawMline
.LVL268:
	b	.L307
.LVL269:
.L337:
.LBE591:
.LBE590:
.LBB604:
.LBB605:
	.loc 1 1354 0
	ldr	r3, .L523+44
	ldr	r2, [r3]
	cmp	r2, #0
	bne	.L510
	.loc 1 1356 0
	ldr	r1, [r7, #180]
	ldr	r3, .L523+4
	cmp	r1, #0
	beq	.L338
	.loc 1 1362 0
	ldr	r1, [r3, #96]
	.loc 1 1357 0
	ldr	r3, .L523+48
	.loc 1 1362 0
	ldr	r1, [r1]
	.loc 1 1357 0
	ldr	r0, [r3]
	ldr	r3, [r1, #44]
	str	r0, [sp]
	ldr	r0, [r1, #24]
	mov	r0, r0, asr #4
	str	r0, [sp, #4]
	ldr	r1, [r1, #28]
	ldr	r0, .L523+52
	mov	r1, r1, asr #4
	str	r1, [sp, #8]
	mov	r1, #14
	bl	AM_drawLineCharacter
.LVL270:
.L339:
.LBE605:
.LBE604:
	.loc 1 1580 0
	ldr	r3, [r7, #180]
	cmp	r3, #2
	beq	.L345
.L348:
.LBB614:
.LBB615:
	.loc 1 1549 0
	ldr	r3, [r7, #16]
	.loc 1 1550 0
	ldr	r2, [r7, #24]
.LBE615:
.LBE614:
	.loc 1 1582 0
	ldr	r1, .L523+56
.LBB618:
.LBB616:
	.loc 1 1549 0
	add	r3, r3, r3, lsr #31
.LBE616:
.LBE618:
	.loc 1 1582 0
	ldr	r5, [r1]
.LVL271:
.LBB619:
.LBB617:
	.loc 1 1553 0
	ldr	r6, [sp, #16]
	.loc 1 1549 0
	mov	r3, r3, asr #1
	.loc 1 1553 0
	ldr	r4, .L523+60
	.loc 1 1550 0
	add	r2, r2, r2, lsr #31
	mov	r2, r2, asr #1
	.loc 1 1549 0
	sub	r1, r3, #1
	.loc 1 1551 0
	add	r3, r3, #1
	.loc 1 1549 0
	str	r1, [sp, #40]
	.loc 1 1551 0
	str	r3, [sp, #48]
	.loc 1 1550 0
	str	r2, [sp, #44]
	.loc 1 1552 0
	str	r2, [sp, #52]
	.loc 1 1553 0
	mov	r1, r5
	ldr	r3, [r4]
	mov	r0, r6
	blx	r3
.LVL272:
	.loc 1 1556 0
	ldr	r3, [r7, #24]
	.loc 1 1555 0
	ldr	r2, [r7, #16]
	.loc 1 1556 0
	add	r3, r3, r3, lsr #31
	mov	r3, r3, asr #1
	.loc 1 1555 0
	add	r2, r2, r2, lsr #31
	.loc 1 1556 0
	sub	r0, r3, #1
	.loc 1 1555 0
	mov	r2, r2, asr #1
	.loc 1 1558 0
	add	r3, r3, #1
	.loc 1 1556 0
	str	r0, [sp, #44]
	.loc 1 1558 0
	str	r3, [sp, #52]
	.loc 1 1559 0
	mov	r1, r5
	ldr	ip, [r4]
	.loc 1 1555 0
	str	r2, [sp, #40]
	.loc 1 1557 0
	str	r2, [sp, #48]
	.loc 1 1559 0
	mov	r0, r6
	blx	ip
.LVL273:
.LBE617:
.LBE619:
.LBB620:
.LBB621:
	.loc 1 1502 0
	ldr	r3, [r7, #100]
	cmp	r3, #0
	ble	.L290
	mov	r9, #0
	.loc 1 1503 0
	ldr	r10, .L523+4
.LBB622:
.LBB623:
	.loc 1 1518 0
	ldr	r8, .L523+64
.LVL274:
.L346:
.LBE623:
.LBE622:
	.loc 1 1503 0
	ldr	r2, [r7, #156]
	ldr	r3, [r2, r9, asl #3]
	add	r2, r2, r9, asl #3
	cmn	r3, #1
	beq	.L374
.LVL275:
.LBB638:
	.loc 1 1511 0
	ldrb	r1, [fp]	@ zero_extendqisi2
	.loc 1 1508 0
	ldr	r2, [r2, #4]
	.loc 1 1511 0
	tst	r1, #4
	.loc 1 1508 0
	str	r2, [sp, #36]
.LVL276:
	.loc 1 1507 0
	str	r3, [sp, #32]
	.loc 1 1511 0
	bne	.L511
.L375:
	.loc 1 1514 0
	ldr	r1, .L523+68
	ldr	r0, [r7, #12]
	ldr	ip, [r1]
	rsb	r0, r0, r2
	ldr	r2, [r7, #4]
.LBB625:
.LBB626:
	.loc 2 72 0
	smull	r0, r1, ip, r0
.LBE626:
.LBE625:
	.loc 1 1514 0
	rsb	r3, r2, r3
.LVL277:
.LBB628:
.LBB629:
	.loc 2 72 0
	smull	r2, r3, r3, ip
.LBE629:
.LBE628:
.LBB632:
.LBB627:
	mov	r0, r0, lsr #16
	orr	r0, r0, r1, asl #16
.LBE627:
.LBE632:
	.loc 1 1514 0
	ldr	r1, [r7, #24]
	ldr	ip, [r7, #92]
.LVL278:
.LBB633:
.LBB630:
	.loc 2 72 0
	mov	r5, r2, lsr #16
.LBE630:
.LBE633:
	.loc 1 1514 0
	ldr	r2, [r7, #72]
	sub	r1, r1, r0, asr #16
.LBB634:
.LBB631:
	.loc 2 72 0
	orr	r5, r5, r3, asl #16
.LBE631:
.LBE634:
	.loc 1 1514 0
	add	r1, r1, ip
	add	r5, r2, r5, asr #16
	mov	r4, r9
	str	r1, [sp, #36]
	str	r5, [sp, #32]
	mov	ip, r9
	b	.L379
.LVL279:
.L513:
	ldr	r2, [r7, #72]
.L379:
.LBB635:
	.loc 1 1518 0
	smull	r1, r3, r8, r4
	mov	r6, r4, asr #31
	rsb	r3, r6, r3, asr #2
	add	r3, r3, r3, asl #2
	sub	r3, r4, r3, asl #1
.LVL280:
	.loc 1 1519 0
	cmp	r3, #1
	.loc 1 1520 0
	addeq	r5, r5, #1
	streq	r5, [sp, #32]
	.loc 1 1522 0
	cmp	r2, r5
	bgt	.L377
	ldr	r2, [r7, #16]
	sub	r2, r2, #5
	cmp	r2, r5
	ble	.L377
	ldr	r1, [sp, #36]
	ldr	r2, [r10, #92]
	cmp	r1, r2
	blt	.L377
	ldr	r2, [r10, #24]
	sub	r2, r2, #6
	cmp	r1, r2
	blt	.L512
.LVL281:
.L377:
	.loc 1 1529 0
	smull	r3, r4, r8, r4
.LVL282:
	rsb	r4, r6, r4, asr #2
.LVL283:
	.loc 1 1528 0
	sub	r5, r5, #4
.LBE635:
	.loc 1 1531 0
	cmp	r4, #0
.LBB636:
	.loc 1 1528 0
	str	r5, [sp, #32]
.LBE636:
	.loc 1 1531 0
	bgt	.L513
	mov	r9, ip
.LVL284:
.L374:
.LBE638:
	.loc 1 1502 0
	ldr	r3, [r7, #100]
	add	r9, r9, #1
.LVL285:
	cmp	r9, r3
	blt	.L346
.LVL286:
.L290:
.LBE621:
.LBE620:
	.loc 1 1585 0
	add	sp, sp, #60
	.cfi_remember_state
	.cfi_def_cfa_offset 36
	@ sp needed
	ldmfd	sp!, {r4, r5, r6, r7, r8, r9, r10, fp, pc}
.LVL287:
.L308:
	.cfi_restore_state
.LBB641:
.LBB600:
.LBB597:
	.loc 1 1126 0
	tst	r2, #32
	bne	.L309
.LVL288:
.LBB593:
.LBB594:
	.loc 1 1060 0
	ldrsh	ip, [r3, #22]
.LVL289:
	sub	r0, ip, #14336
	cmp	r0, #1024
	bcs	.L310
.LVL290:
	.loc 1 1063 0
	and	r3, r0, #448
	mov	r3, r3, asr #6
.LVL291:
	.loc 1 1064 0
	cmp	r3, #0
	cmpne	r3, #7
	bne	.L514
.LBE594:
.LBE593:
	.loc 1 1152 0
	ldr	r3, .L523+36
.LVL292:
	ldr	r1, [r3]
.LVL293:
.L500:
	.loc 1 1151 0
	cmp	r1, #0
	bne	.L492
.L496:
	ldr	r3, .L523+72
.LBE597:
	.loc 1 1256 0
	ldr	r0, .L523+40
.LBB598:
	.loc 1 1151 0
	ldr	r1, [r3]
.LBE598:
	.loc 1 1256 0
	bl	AM_drawMline
.LVL294:
	b	.L307
.L506:
	.loc 1 1114 0
	ldr	r10, [r8, #96]
	ldr	r0, .L523+40
	ldr	ip, [r10]
	add	r1, r0, #4
	ldr	r2, [ip, #44]
	ldr	r3, [ip, #24]
	ldr	ip, [ip, #28]
	rsb	r2, r2, #1073741824
	str	ip, [sp]
	bl	AM_rotate
.LVL295:
	.loc 1 1115 0
	ldr	r1, [r10]
	ldr	r0, .L523+76
	ldr	r2, [r1, #44]
	ldr	r3, [r1, #24]
	ldr	r1, [r1, #28]
	rsb	r2, r2, #1073741824
	str	r1, [sp]
	add	r1, r0, #4
	bl	AM_rotate
.LVL296:
	ldr	r3, .L523+12
	ldr	r3, [r3]
	add	r3, r3, r4
	b	.L304
.L306:
	.loc 1 1260 0
	ldr	r1, [r8, #96]
	ldr	r1, [r1, #68]
	cmp	r1, #0
	beq	.L307
	.loc 1 1262 0
	tst	r2, #128
	bne	.L307
	.loc 1 1266 0
	ldr	r2, .L523+80
	.loc 1 1265 0
	ldr	r2, [r2]
	cmp	r2, #0
	bne	.L336
	.loc 1 1268 0
	ldr	r2, [r3, #56]
	.loc 1 1267 0
	cmp	r2, #0
	beq	.L336
	.loc 1 1271 0
	ldr	r3, [r3, #52]
	.loc 1 1269 0
	ldr	r0, [r2, #12]
	ldr	r1, [r3, #12]
	cmp	r0, r1
	beq	.L515
.L336:
	.loc 1 1276 0
	ldr	r3, .L523+84
	ldr	r0, .L523+40
	ldr	r1, [r3]
	bl	AM_drawMline
.LVL297:
	b	.L307
.LVL298:
.L310:
.LBB599:
.LBB596:
.LBB595:
	.loc 1 1068 0
	sub	ip, ip, #26
.LVL299:
	cmp	ip, #111
	ldrls	pc, [pc, ip, asl #2]
	b	.L309
.L315:
	.word	.L500
	.word	.L314
	.word	.L312
	.word	.L309
	.word	.L309
	.word	.L309
	.word	.L500
	.word	.L312
	.word	.L314
	.word	.L309
	.word	.L309
	.word	.L309
	.word	.L309
	.word	.L309
	.word	.L309
	.word	.L309
	.word	.L309
	.word	.L309
	.word	.L309
	.word	.L309
	.word	.L309
	.word	.L309
	.word	.L309
	.word	.L309
	.word	.L309
	.word	.L309
	.word	.L309
	.word	.L309
	.word	.L309
	.word	.L309
	.word	.L309
	.word	.L309
	.word	.L309
	.word	.L309
	.word	.L309
	.word	.L309
	.word	.L309
	.word	.L309
	.word	.L309
	.word	.L309
	.word	.L309
	.word	.L309
	.word	.L309
	.word	.L309
	.word	.L309
	.word	.L309
	.word	.L309
	.word	.L309
	.word	.L309
	.word	.L309
	.word	.L309
	.word	.L309
	.word	.L309
	.word	.L309
	.word	.L309
	.word	.L309
	.word	.L309
	.word	.L309
	.word	.L309
	.word	.L309
	.word	.L309
	.word	.L309
	.word	.L309
	.word	.L309
	.word	.L309
	.word	.L309
	.word	.L309
	.word	.L309
	.word	.L309
	.word	.L309
	.word	.L309
	.word	.L309
	.word	.L309
	.word	.L500
	.word	.L309
	.word	.L309
	.word	.L309
	.word	.L309
	.word	.L309
	.word	.L309
	.word	.L309
	.word	.L309
	.word	.L309
	.word	.L309
	.word	.L309
	.word	.L309
	.word	.L309
	.word	.L309
	.word	.L309
	.word	.L309
	.word	.L309
	.word	.L309
	.word	.L309
	.word	.L309
	.word	.L309
	.word	.L309
	.word	.L309
	.word	.L309
	.word	.L309
	.word	.L309
	.word	.L309
	.word	.L309
	.word	.L309
	.word	.L309
	.word	.L309
	.word	.L309
	.word	.L309
	.word	.L500
	.word	.L312
	.word	.L312
	.word	.L314
	.word	.L314
.LVL300:
.L514:
	.loc 1 1066 0
	ldr	r2, .L523+88
	sub	r3, r3, #1
.LVL301:
	smull	r0, r2, r2, r3
	sub	r2, r2, r3, asr #31
	add	r2, r2, r2, asl #1
	rsb	r3, r2, r3
.LVL302:
.LBE595:
.LBE596:
	.loc 1 1132 0
	cmp	r3, #1
	beq	.L500
	cmp	r3, #2
	beq	.L314
.LVL303:
.L312:
	.loc 1 1147 0
	ldr	r3, .L523+24
	ldr	r1, [r3]
	b	.L500
.L314:
	.loc 1 1142 0
	ldr	r3, .L523+20
	ldr	r1, [r3]
	.loc 1 1141 0
	cmp	r1, #0
	beq	.L496
.LBE599:
	.loc 1 1256 0
	ldr	r0, .L523+40
	bl	AM_drawMline
.LVL304:
	b	.L307
.L509:
	.loc 1 1200 0
	tst	r2, #32
	bne	.L322
	.loc 1 1201 0
	ldrh	r2, [r3, #22]
	cmp	r2, #39
	cmpne	r2, #97
	moveq	r0, #1
	movne	r0, #0
	sub	r2, r2, #125
	.loc 1 1202 0
	cmp	r2, #1
	movhi	r2, r0
	orrls	r2, r0, #1
	cmp	r2, #0
	bne	.L492
	.loc 1 1213 0
	ldr	r2, .L523+36
	ldr	r1, [r2]
	.loc 1 1212 0
	cmp	r1, #0
	bne	.L516
.L327:
	ldr	r3, [r3, #52]
.L329:
	.loc 1 1223 0
	ldr	r2, .L523+92
	ldr	r1, [r2]
	.loc 1 1222 0
	cmp	r1, #0
	beq	.L330
	.loc 1 1225 0
	ldr	r2, .L523+96
	str	r1, [sp, #28]
	.loc 1 1223 0
	ldr	r2, [r2]
	str	ip, [sp, #24]
	cmp	r2, #0
	.loc 1 1227 0
	mov	r0, r3
	str	r3, [sp, #20]
	.loc 1 1223 0
	beq	.L331
	.loc 1 1227 0
	bl	P_WasSecret
.LVL305:
	.loc 1 1225 0
	cmp	r0, #0
	ldr	r3, [sp, #20]
	ldr	ip, [sp, #24]
	ldr	r1, [sp, #28]
	beq	.L332
	.loc 1 1228 0
	mov	r0, r3
	bl	P_IsSecret
.LVL306:
	cmp	r0, #0
	ldr	r3, [sp, #20]
	ldr	ip, [sp, #24]
	ldr	r1, [sp, #28]
	beq	.L492
.L332:
	.loc 1 1229 0
	mov	r0, ip
	str	r3, [sp, #28]
	str	ip, [sp, #20]
	str	r1, [sp, #24]
	bl	P_WasSecret
.LVL307:
	.loc 1 1228 0
	cmp	r0, #0
	ldr	ip, [sp, #20]
	ldr	r3, [sp, #28]
	beq	.L330
	.loc 1 1230 0
	mov	r0, ip
	bl	P_IsSecret
.LVL308:
	cmp	r0, #0
	ldr	ip, [sp, #20]
	ldr	r1, [sp, #24]
	ldr	r3, [sp, #28]
	beq	.L492
.L330:
	.loc 1 1244 0
	ldr	r1, [ip, #12]
	ldr	r2, [r3, #12]
	cmp	r1, r2
	beq	.L334
	.loc 1 1247 0
	ldr	r3, .L523+100
	ldr	r0, .L523+40
	ldr	r1, [r3]
	bl	AM_drawMline
.LVL309:
	b	.L307
.L508:
	.loc 1 1177 0
	ldr	r2, .L523+92
	ldr	r10, [r2]
	cmp	r10, #0
	beq	.L322
	.loc 1 1180 0
	ldr	r2, .L523+96
	.loc 1 1177 0
	ldr	r2, [r2]
	cmp	r2, #0
	bne	.L517
	.loc 1 1187 0
	ldr	r0, [r3, #52]
	bl	P_WasSecret
.LVL310:
	.loc 1 1186 0
	cmp	r0, #0
	bne	.L324
.L322:
	.loc 1 1193 0
	ldr	r3, .L523+104
	ldr	r0, .L523+40
	ldr	r1, [r3]
	bl	AM_drawMline
.LVL311:
	b	.L307
.LVL312:
.L510:
	ldr	r6, .L523+108
.LBE600:
.LBE641:
.LBB642:
.LBB611:
	.loc 1 1354 0
	mov	r4, #0
.LBB606:
	.loc 1 1383 0
	ldr	r3, [r6]
	ldr	r5, .L523+112
	cmp	r3, #0
	.loc 1 1386 0
	ldr	r8, .L523+116
	.loc 1 1383 0
	ldr	r10, .L523+120
.LVL313:
	beq	.L340
.LVL314:
.L518:
	ldr	r3, [r10]
	cmp	r3, #0
	bne	.L340
	ldr	r3, [r7, #96]
	cmp	r3, r5
	beq	.L340
.L341:
.LBE606:
	.loc 1 1380 0
	add	r4, r4, #1
.LVL315:
	cmp	r4, #4
	add	r5, r5, #284
	beq	.L339
.LVL316:
.LBB609:
	.loc 1 1383 0
	ldr	r3, [r6]
	cmp	r3, #0
	bne	.L518
.LVL317:
.L340:
	.loc 1 1386 0
	ldr	r3, [r8, r4, asl #2]
	mov	r9, r4, asl #2
	cmp	r3, #0
	beq	.L341
.LBB607:
	.loc 1 1387 0
	ldr	r3, [r5]
	.loc 1 1388 0
	ldrb	r2, [fp]	@ zero_extendqisi2
	.loc 1 1387 0
	ldr	r1, [r3, #24]
	.loc 1 1388 0
	tst	r2, #4
	.loc 1 1387 0
	mov	r1, r1, asr #4
	str	r1, [sp, #36]
	ldr	r2, [r3, #28]
	mov	r2, r2, asr #4
	str	r2, [sp, #40]
	.loc 1 1388 0
	bne	.L519
.L342:
	.loc 1 1391 0
	ldr	r0, [r5, #60]
	ldr	r3, [r3, #44]
	cmp	r0, #0
	movne	r0, #246
	ldreq	r0, .L523+124
	ldreq	r0, [r9, r0]
	stmia	sp, {r0, r1, r2}
	ldr	r0, .L523+128
	mov	r1, #7
	mov	r2, #0
	bl	AM_drawLineCharacter
.LVL318:
	b	.L341
.LVL319:
.L512:
.LBE607:
.LBE609:
.LBE611:
.LBE642:
.LBB643:
.LBB640:
.LBB639:
.LBB637:
.LBB624:
	.loc 1 1524 0
	add	r3, r3, #48
.LVL320:
	strb	r3, [sp, #46]
	mov	r3, #65
.LVL321:
	strb	r3, [sp, #40]
	mov	r3, #77
	strb	r3, [sp, #41]
	strb	r3, [sp, #42]
	mov	r3, #78
	strb	r3, [sp, #43]
	mov	r3, #77
	mov	r2, #0
	mov	lr, #85
	strb	r3, [sp, #45]
	.loc 1 1526 0
	ldr	r3, .L523+132
	ldr	r0, [sp, #16]
	str	ip, [sp, #28]
	ldr	r9, [r3]
	str	r1, [sp, #24]
	.loc 1 1524 0
	strb	lr, [sp, #44]
	strb	r2, [sp, #47]
	str	r2, [sp, #20]
	.loc 1 1526 0
	bl	W_GetNumForName
.LVL322:
	mov	lr, #6
	ldr	r2, [sp, #20]
	mov	r3, r0
	str	r2, [sp, #4]
	mov	r0, r5
	ldr	r1, [sp, #24]
	str	lr, [sp]
	blx	r9
.LVL323:
	ldr	r5, [sp, #32]
	ldr	ip, [sp, #28]
	b	.L377
.LVL324:
.L511:
.LBE624:
.LBE637:
	.loc 1 1512 0
	ldr	r3, [r10, #96]
	add	r0, sp, #32
	ldr	ip, [r3]
	add	r1, sp, #36
	ldr	r2, [ip, #44]
	ldr	r3, [ip, #24]
	ldr	ip, [ip, #28]
	rsb	r2, r2, #1073741824
	str	ip, [sp]
	bl	AM_rotate
.LVL325:
	ldr	r3, [sp, #32]
	ldr	r2, [sp, #36]
	b	.L375
.LVL326:
.L334:
.LBE639:
.LBE640:
.LBE643:
.LBB644:
.LBB601:
	.loc 1 1249 0
	ldr	r2, [ip, #16]
	ldr	r3, [r3, #16]
	cmp	r2, r3
	beq	.L335
	.loc 1 1252 0
	ldr	r3, .L523+72
	ldr	r0, .L523+40
	ldr	r1, [r3]
	bl	AM_drawMline
.LVL327:
	b	.L307
.LVL328:
.L505:
.LBE601:
.LBE644:
	.loc 1 1575 0
	ldr	ip, .L523+136
	ldr	r4, [r7, #24]
	ldrb	lr, [ip]	@ zero_extendqisi2
	ldr	ip, .L523+140
	stmia	sp, {r4, lr}
	ldr	r3, [r7, #16]
	ldr	r1, [r7, #72]
	ldr	r2, [r7, #92]
	ldr	ip, [ip]
	blx	ip
.LVL329:
	ldrb	r3, [fp]	@ zero_extendqisi2
	.loc 1 1576 0
	tst	r3, #16
	beq	.L520
.L487:
.LBB645:
.LBB646:
	.loc 1 1011 0
	ldr	r3, .L523+144
	.loc 1 1010 0
	ldr	r2, [r7, #4]
	.loc 1 1011 0
	ldr	r3, [r3]
	.loc 1 1014 0
	ldr	r8, [r7]
	.loc 1 1011 0
	rsb	r3, r3, r2
	bic	r1, r3, #-16777216
	bic	r1, r1, #16252928
	cmp	r1, #0
	.loc 1 1010 0
	moveq	r5, r2
	.loc 1 1013 0
	movne	r5, r3, asr #31
	movne	r5, r5, lsr #13
	addne	r3, r3, r5
	bicne	r3, r3, #-16777216
	bicne	r3, r3, #16252928
	rsbne	r5, r5, r3
	rsbne	r5, r5, #524288
	.loc 1 1017 0
	ldr	r4, [r7, #12]
	.loc 1 1018 0
	ldr	r9, [r7, #8]
.LBE646:
.LBE645:
	.loc 1 1577 0
	ldr	r0, .L523+148
.LBB649:
.LBB647:
	.loc 1 1012 0
	addne	r5, r2, r5
	.loc 1 1014 0
	add	r8, r2, r8
	add	r3, sp, #40
	.loc 1 1018 0
	add	r9, r4, r9
	.loc 1 1019 0
	cmp	r8, r5
.LBE647:
.LBE649:
	.loc 1 1577 0
	ldr	r6, [r0]
.LVL330:
.LBB650:
.LBB648:
	.loc 1 1017 0
	str	r4, [sp, #44]
	.loc 1 1018 0
	str	r9, [sp, #52]
.LVL331:
	str	r3, [sp, #16]
	.loc 1 1019 0
	ble	.L295
	mov	r4, r3
.LVL332:
.L296:
	.loc 1 1021 0
	str	r5, [sp, #40]
	.loc 1 1022 0
	str	r5, [sp, #48]
	.loc 1 1023 0
	mov	r0, r4
	.loc 1 1019 0
	add	r5, r5, #524288
.LVL333:
	.loc 1 1023 0
	mov	r1, r6
	bl	AM_drawMline
.LVL334:
	.loc 1 1019 0
	cmp	r8, r5
	bgt	.L296
	ldr	r4, [r7, #12]
	ldr	r8, [r7]
.LVL335:
	ldmib	r7, {r2, r9}
	add	r9, r4, r9
	add	r8, r2, r8
.L295:
.LVL336:
	.loc 1 1028 0
	ldr	r3, .L523+152
	ldr	r3, [r3]
	rsb	r3, r3, r4
	bic	r1, r3, #-16777216
	bic	r1, r1, #16252928
	cmp	r1, #0
	beq	.L297
	.loc 1 1030 0
	mov	r1, r3, asr #31
	mov	r1, r1, lsr #13
	add	r3, r3, r1
	bic	r3, r3, #-16777216
	bic	r3, r3, #16252928
	rsb	r3, r1, r3
	rsb	r3, r3, #524288
	.loc 1 1029 0
	add	r4, r4, r3
.LVL337:
.L297:
	.loc 1 1036 0
	cmp	r4, r9
	.loc 1 1034 0
	str	r2, [sp, #40]
	.loc 1 1035 0
	str	r8, [sp, #48]
.LVL338:
	.loc 1 1036 0
	bge	.L293
	ldr	r5, [sp, #16]
.LVL339:
.L299:
	.loc 1 1038 0
	str	r4, [sp, #44]
	.loc 1 1039 0
	str	r4, [sp, #52]
	.loc 1 1040 0
	mov	r0, r5
	.loc 1 1036 0
	add	r4, r4, #524288
.LVL340:
	.loc 1 1040 0
	mov	r1, r6
	bl	AM_drawMline
.LVL341:
	.loc 1 1036 0
	cmp	r4, r9
	blt	.L299
	b	.L293
.LVL342:
.L331:
.LBE648:
.LBE650:
.LBB651:
.LBB602:
	.loc 1 1236 0
	bl	P_WasSecret
.LVL343:
	.loc 1 1235 0
	cmp	r0, #0
	ldr	r3, [sp, #20]
	ldr	ip, [sp, #24]
	ldr	r1, [sp, #28]
	bne	.L492
	.loc 1 1237 0
	mov	r0, ip
	str	r3, [sp, #28]
	str	r1, [sp, #24]
	str	ip, [sp, #20]
	bl	P_WasSecret
.LVL344:
	.loc 1 1236 0
	cmp	r0, #0
	ldr	ip, [sp, #20]
	ldr	r1, [sp, #24]
	ldr	r3, [sp, #28]
	bne	.L492
	b	.L330
.LVL345:
.L338:
.LBE602:
.LBE651:
.LBB652:
.LBB612:
	.loc 1 1373 0
	ldr	r2, [r3, #96]
	.loc 1 1368 0
	ldr	r3, .L523+48
	.loc 1 1373 0
	ldr	r0, [r2]
	.loc 1 1368 0
	ldr	r2, [r3]
	ldr	r3, [r0, #44]
	str	r2, [sp]
	ldr	ip, [r0, #24]
	mov	r2, r1
	mov	r1, ip, asr #4
	str	r1, [sp, #4]
	ldr	r1, [r0, #28]
	ldr	r0, .L523+128
	mov	r1, r1, asr #4
	str	r1, [sp, #8]
	mov	r1, #7
	bl	AM_drawLineCharacter
.LVL346:
	b	.L339
.LVL347:
.L335:
.LBE612:
.LBE652:
.LBB653:
.LBB603:
	.loc 1 1254 0
	ldr	r3, .L523+80
	ldr	r1, [r3]
	cmp	r1, #0
	cmpne	r10, #0
	beq	.L307
	b	.L492
.L515:
	.loc 1 1272 0
	ldr	r2, [r2, #16]
	ldr	r3, [r3, #16]
	cmp	r2, r3
	bne	.L336
	b	.L307
.L517:
	.loc 1 1181 0
	ldr	r3, [r3, #52]
	mov	r0, r3
	str	r3, [sp, #20]
	bl	P_WasSecret
.LVL348:
	.loc 1 1180 0
	cmp	r0, #0
	ldr	r3, [sp, #20]
	beq	.L322
	.loc 1 1182 0
	mov	r0, r3
	bl	P_IsSecret
.LVL349:
	.loc 1 1181 0
	cmp	r0, #0
	bne	.L322
.L324:
	.loc 1 1191 0
	mov	r1, r10
	ldr	r0, .L523+40
	bl	AM_drawMline
.LVL350:
	b	.L307
.LVL351:
.L519:
.LBE603:
.LBE653:
.LBB654:
.LBB613:
.LBB610:
.LBB608:
	.loc 1 1389 0
	ldr	r3, [r7, #96]
	ldr	r1, [sp, #16]
	ldr	ip, [r3]
	add	r0, sp, #36
	ldr	r2, [ip, #44]
	ldr	r3, [ip, #24]
	ldr	ip, [ip, #28]
	rsb	r2, r2, #1073741824
	str	ip, [sp]
	bl	AM_rotate
.LVL352:
	ldr	r3, [r5]
	ldr	r1, [sp, #36]
	ldr	r2, [sp, #40]
	b	.L342
.LVL353:
.L345:
.LBE608:
.LBE610:
.LBE613:
.LBE654:
.LBB655:
.LBB656:
	.loc 1 1413 0
	ldr	r3, .L523+156
	ldr	r3, [r3]
	cmp	r3, #0
	ble	.L348
	mov	r8, #0
.LBB657:
	.loc 1 1471 0
	mov	r6, r8
	ldr	r5, .L523+160
	.loc 1 1481 0
	ldr	r10, .L523+164
	.loc 1 1471 0
	str	r8, [sp, #20]
.LVL354:
.L350:
.LBE657:
	.loc 1 1415 0
	ldr	r3, .L523+168
	ldr	r2, [sp, #20]
	ldr	r3, [r3]
	add	r3, r3, r2
	ldr	r4, [r3, #92]
.L494:
.LVL355:
	.loc 1 1416 0
	cmp	r4, #0
	beq	.L521
.L372:
.LBB658:
	.loc 1 1418 0
	ldr	r2, [r4, #24]
	.loc 1 1420 0
	ldrb	r3, [fp]	@ zero_extendqisi2
	.loc 1 1418 0
	mov	r2, r2, asr #4
	str	r2, [sp, #36]
	ldr	ip, [r4, #28]
	.loc 1 1420 0
	tst	r3, #4
	.loc 1 1418 0
	mov	ip, ip, asr #4
	str	ip, [sp, #40]
	.loc 1 1420 0
	bne	.L522
.L351:
	.loc 1 1424 0
	ldr	r1, [r5]
	cmp	r1, #0
	bne	.L352
	ldr	r3, .L523+172
	ldr	r0, [r3]
	cmp	r0, #0
	bne	.L353
	ldr	r3, .L523+176
	ldr	lr, [r3]
	cmp	lr, #0
	beq	.L355
	.loc 1 1426 0
	ldr	r3, [r4, #108]
	ldr	r3, [r3]
	sub	r3, r3, #5
	cmp	r3, #35
	ldrls	pc, [pc, r3, asl #2]
	b	.L355
.L385:
	.word	.L364
	.word	.L384
	.word	.L355
	.word	.L355
	.word	.L355
	.word	.L355
	.word	.L355
	.word	.L355
	.word	.L386
	.word	.L355
	.word	.L355
	.word	.L355
	.word	.L355
	.word	.L355
	.word	.L355
	.word	.L355
	.word	.L355
	.word	.L355
	.word	.L355
	.word	.L355
	.word	.L355
	.word	.L355
	.word	.L355
	.word	.L355
	.word	.L355
	.word	.L355
	.word	.L355
	.word	.L355
	.word	.L355
	.word	.L355
	.word	.L355
	.word	.L355
	.word	.L355
	.word	.L386
	.word	.L384
	.word	.L364
.L356:
	ldr	r3, .L523+176
	ldr	lr, [r3]
.L364:
	.loc 1 1454 0
	cmn	lr, #1
	ldreq	lr, [r10]
	ldr	r3, [r4, #44]
	str	lr, [sp]
.L498:
	.loc 1 1442 0
	stmib	sp, {r2, ip}
	ldr	r0, .L523+180
	mov	r1, #2
	mov	r2, #65536
	bl	AM_drawLineCharacter
.LVL356:
	.loc 1 1451 0
	ldr	r4, [r4, #36]
.LVL357:
.LBE658:
	.loc 1 1416 0
	cmp	r4, #0
	bne	.L372
.L521:
	.loc 1 1413 0
	ldr	r3, .L523+156
	add	r6, r6, #1
.LVL358:
	ldr	r3, [r3]
	cmp	r6, r3
	ldr	r3, [sp, #20]
	add	r3, r3, #196
	str	r3, [sp, #20]
	blt	.L350
	b	.L348
.L386:
.LBB659:
	.loc 1 1430 0
	ldr	r3, [r4, #44]
.L360:
	str	r1, [sp]
	b	.L498
.L355:
	.loc 1 1477 0
	mov	r8, #0
	ldrd	r0, [r4, #120]
	and	r9, r1, #4
	.loc 1 1471 0
	orrs	r3, r8, r9
	ldr	r3, [r4, #44]
	beq	.L366
	.loc 1 1477 0
	ldr	lr, [r4, #156]
	cmp	lr, #0
	beq	.L367
.L366:
	.loc 1 1479 0
	mov	r9, #0
	and	r8, r0, #5242880
	cmp	r9, #0
	cmpeq	r8, #4194304
	beq	.L368
	.loc 1 1481 0
	mov	r1, #0
	and	r0, r0, #8388608
	orrs	r1, r0, r1
	ldrne	r1, .L523+184
	ldreq	r1, [r10]
	ldrne	r1, [r1]
.L370:
	.loc 1 1471 0
	stmia	sp, {r1, r2, ip}
	ldr	r0, .L523+188
	mov	r1, #3
	mov	r2, #65536
	bl	AM_drawLineCharacter
.LVL359:
	.loc 1 1484 0
	ldr	r4, [r4, #36]
.LVL360:
	b	.L494
.L352:
	.loc 1 1426 0
	ldr	r3, [r4, #108]
	ldr	r3, [r3]
	sub	r3, r3, #5
	cmp	r3, #35
	ldrls	pc, [pc, r3, asl #2]
	b	.L355
.L357:
	.word	.L356
	.word	.L358
	.word	.L355
	.word	.L355
	.word	.L355
	.word	.L355
	.word	.L355
	.word	.L355
	.word	.L359
	.word	.L355
	.word	.L355
	.word	.L355
	.word	.L355
	.word	.L355
	.word	.L355
	.word	.L355
	.word	.L355
	.word	.L355
	.word	.L355
	.word	.L355
	.word	.L355
	.word	.L355
	.word	.L355
	.word	.L355
	.word	.L355
	.word	.L355
	.word	.L355
	.word	.L355
	.word	.L355
	.word	.L355
	.word	.L355
	.word	.L355
	.word	.L355
	.word	.L359
	.word	.L358
	.word	.L356
.L358:
	ldr	r3, .L523+172
	ldr	r0, [r3]
.L362:
	.loc 1 1442 0
	cmn	r0, #1
	ldr	r3, [r4, #44]
	ldreq	r0, [r10]
.L363:
	str	r0, [sp]
	b	.L498
.L359:
	.loc 1 1430 0
	cmn	r1, #1
	ldr	r3, [r4, #44]
	ldreq	r1, [r10]
	b	.L360
.L522:
	.loc 1 1421 0
	ldr	r3, [r7, #96]
	add	r0, sp, #36
	ldr	ip, [r3]
	ldr	r1, [sp, #16]
	ldr	r2, [ip, #44]
	ldr	r3, [ip, #24]
	ldr	ip, [ip, #28]
	rsb	r2, r2, #1073741824
	str	ip, [sp]
	bl	AM_rotate
.LVL361:
	ldr	r2, [sp, #36]
	ldr	ip, [sp, #40]
	b	.L351
.L524:
	.align	2
.L523:
	.word	automapmode
	.word	.LANCHOR0
	.word	numlines
	.word	lines
	.word	mapcolor_bdor
	.word	mapcolor_ydor
	.word	mapcolor_rdor
	.word	mapcolor_exit
	.word	mapcolor_tele
	.word	mapcolor_clsd
	.word	.LANCHOR0+164
	.word	netgame
	.word	mapcolor_sngl
	.word	.LANCHOR1+52
	.word	mapcolor_hair
	.word	V_DrawLine
	.word	1717986919
	.word	.LANCHOR1
	.word	mapcolor_cchg
	.word	.LANCHOR0+172
	.word	mapcolor_flat
	.word	mapcolor_unsn
	.word	1431655766
	.word	mapcolor_secr
	.word	map_secret_after
	.word	mapcolor_fchg
	.word	mapcolor_wall
	.word	deathmatch
	.word	players
	.word	playeringame
	.word	demoplayback
	.word	.LANCHOR1+388
	.word	.LANCHOR1+276
	.word	V_DrawNumPatch
	.word	mapcolor_back
	.word	V_FillRect
	.word	bmaporgx
	.word	mapcolor_grid
	.word	bmaporgy
	.word	numsectors
	.word	mapcolor_rkey
	.word	mapcolor_sprt
	.word	sectors
	.word	mapcolor_ykey
	.word	mapcolor_bkey
	.word	.LANCHOR1+404
	.word	mapcolor_item
	.word	.LANCHOR1+436
	.word	mapcolor_enemy
	.word	mapcolor_frnd
.L353:
	.loc 1 1426 0
	ldr	r3, [r4, #108]
	ldr	r3, [r3]
	sub	r3, r3, #5
	cmp	r3, #35
	ldrls	pc, [pc, r3, asl #2]
	b	.L355
.L383:
	.word	.L356
	.word	.L362
	.word	.L355
	.word	.L355
	.word	.L355
	.word	.L355
	.word	.L355
	.word	.L355
	.word	.L386
	.word	.L355
	.word	.L355
	.word	.L355
	.word	.L355
	.word	.L355
	.word	.L355
	.word	.L355
	.word	.L355
	.word	.L355
	.word	.L355
	.word	.L355
	.word	.L355
	.word	.L355
	.word	.L355
	.word	.L355
	.word	.L355
	.word	.L355
	.word	.L355
	.word	.L355
	.word	.L355
	.word	.L355
	.word	.L355
	.word	.L355
	.word	.L355
	.word	.L386
	.word	.L362
	.word	.L356
.L368:
	.loc 1 1479 0
	ldr	r1, .L523+192
	ldr	r1, [r1]
	b	.L370
.L367:
	.loc 1 1471 0
	ldr	r1, .L523+196
	ldr	r1, [r1]
	b	.L370
.L384:
	.loc 1 1442 0
	ldr	r3, [r4, #44]
	b	.L363
.LBE659:
.LBE656:
.LBE655:
	.cfi_endproc
.LFE35:
	.size	AM_Drawer, .-AM_Drawer
	.global	markpointnum_max
	.global	markpointnum
	.global	markpoints
	.comm	automapmode,1,1
	.global	ddt_cheating
	.global	thintriangle_guy
	.global	cross_mark
	.global	triangle_guy
	.global	cheat_player_arrow
	.global	player_arrow
	.comm	map_secret_after,4,4
	.global	mapcolor_plyr
	.comm	mapcolor_sngl,4,4
	.comm	mapcolor_hair,4,4
	.comm	mapcolor_enemy,4,4
	.comm	mapcolor_frnd,4,4
	.comm	mapcolor_item,4,4
	.comm	mapcolor_sprt,4,4
	.comm	mapcolor_flat,4,4
	.comm	mapcolor_unsn,4,4
	.comm	mapcolor_exit,4,4
	.comm	mapcolor_secr,4,4
	.comm	mapcolor_tele,4,4
	.comm	mapcolor_ydor,4,4
	.comm	mapcolor_bdor,4,4
	.comm	mapcolor_rdor,4,4
	.comm	mapcolor_ykey,4,4
	.comm	mapcolor_bkey,4,4
	.comm	mapcolor_rkey,4,4
	.comm	mapcolor_clsd,4,4
	.comm	mapcolor_cchg,4,4
	.comm	mapcolor_fchg,4,4
	.comm	mapcolor_wall,4,4
	.comm	mapcolor_grid,4,4
	.comm	mapcolor_back,4,4
	.data
	.align	2
	.set	.LANCHOR1,. + 0
	.type	scale_mtof, %object
	.size	scale_mtof, 4
scale_mtof:
	.word	13107
	.type	st_notify.9679, %object
	.size	st_notify.9679, 16
st_notify.9679:
	.byte	0
	.space	3
	.word	1
	.word	1634564096
	.word	0
	.type	stopped, %object
	.size	stopped, 4
stopped:
	.word	1
	.type	lastlevel.9683, %object
	.size	lastlevel.9683, 4
lastlevel.9683:
	.word	-1
	.type	lastepisode.9684, %object
	.size	lastepisode.9684, 4
lastepisode.9684:
	.word	-1
	.type	leveljuststarted, %object
	.size	leveljuststarted, 4
leveljuststarted:
	.word	1
	.type	st_notify.9660, %object
	.size	st_notify.9660, 16
st_notify.9660:
	.byte	1
	.space	3
	.word	1634559232
	.word	0
	.word	0
	.type	cheat_player_arrow, %object
	.size	cheat_player_arrow, 224
cheat_player_arrow:
	.word	-65536
	.word	0
	.word	74898
	.word	0
	.word	74898
	.word	0
	.word	37449
	.word	18724
	.word	74898
	.word	0
	.word	37449
	.word	-18724
	.word	-65536
	.word	0
	.word	-84260
	.word	18724
	.word	-65536
	.word	0
	.word	-84260
	.word	-18724
	.word	-46812
	.word	0
	.word	-65536
	.word	18724
	.word	-46812
	.word	0
	.word	-65536
	.word	-18724
	.word	-19972
	.word	18724
	.word	-19972
	.word	-18724
	.word	-19972
	.word	-18724
	.word	-29334
	.word	-18724
	.word	-29334
	.word	-18724
	.word	-29334
	.word	-9362
	.word	-7489
	.word	18724
	.word	-7489
	.word	-18724
	.word	-7489
	.word	18724
	.word	1873
	.word	18724
	.word	11235
	.word	18724
	.word	11235
	.word	-18724
	.word	11235
	.word	18724
	.word	20597
	.word	18724
	.type	player_arrow, %object
	.size	player_arrow, 112
player_arrow:
	.word	-65536
	.word	0
	.word	74898
	.word	0
	.word	74898
	.word	0
	.word	37449
	.word	18724
	.word	74898
	.word	0
	.word	37449
	.word	-18724
	.word	-65536
	.word	0
	.word	-84260
	.word	18724
	.word	-65536
	.word	0
	.word	-84260
	.word	-18724
	.word	-46812
	.word	0
	.word	-65536
	.word	18724
	.word	-46812
	.word	0
	.word	-65536
	.word	-18724
	.type	mapcolor_plyr, %object
	.size	mapcolor_plyr, 16
mapcolor_plyr:
	.word	112
	.word	88
	.word	64
	.word	32
	.type	cross_mark, %object
	.size	cross_mark, 32
cross_mark:
	.word	-65536
	.word	0
	.word	65536
	.word	0
	.word	0
	.word	-65536
	.word	0
	.word	65536
	.type	thintriangle_guy, %object
	.size	thintriangle_guy, 48
thintriangle_guy:
	.word	-32768
	.word	-45875
	.word	65536
	.word	0
	.word	65536
	.word	0
	.word	-32768
	.word	45875
	.word	-32768
	.word	45875
	.word	-32768
	.word	-45875
	.type	triangle_guy, %object
	.size	triangle_guy, 48
triangle_guy:
	.word	-56819
	.word	-32768
	.word	56819
	.word	-32768
	.word	56819
	.word	-32768
	.word	0
	.word	65536
	.word	0
	.word	65536
	.word	-56819
	.word	-32768
	.section	.rodata.str1.4,"aMS",%progbits,1
	.align	2
.LC0:
	.ascii	"%s %d\000"
	.bss
	.align	2
	.set	.LANCHOR0,. + 0
	.type	m_w, %object
	.size	m_w, 4
m_w:
	.space	4
	.type	m_x, %object
	.size	m_x, 4
m_x:
	.space	4
	.type	m_h, %object
	.size	m_h, 4
m_h:
	.space	4
	.type	m_y, %object
	.size	m_y, 4
m_y:
	.space	4
	.type	f_w, %object
	.size	f_w, 4
f_w:
	.space	4
	.type	scale_ftom, %object
	.size	scale_ftom, 4
scale_ftom:
	.space	4
	.type	f_h, %object
	.size	f_h, 4
f_h:
	.space	4
	.type	m_x2, %object
	.size	m_x2, 4
m_x2:
	.space	4
	.type	m_y2, %object
	.size	m_y2, 4
m_y2:
	.space	4
	.type	m_paninc, %object
	.size	m_paninc, 8
m_paninc:
	.space	8
	.type	f_oldloc, %object
	.size	f_oldloc, 8
f_oldloc:
	.space	8
	.type	max_x, %object
	.size	max_x, 4
max_x:
	.space	4
	.type	min_x, %object
	.size	min_x, 4
min_x:
	.space	4
	.type	max_y, %object
	.size	max_y, 4
max_y:
	.space	4
	.type	min_y, %object
	.size	min_y, 4
min_y:
	.space	4
	.type	min_scale_mtof, %object
	.size	min_scale_mtof, 4
min_scale_mtof:
	.space	4
	.type	f_x, %object
	.size	f_x, 4
f_x:
	.space	4
	.type	fl.9737, %object
	.size	fl.9737, 16
fl.9737:
	.space	16
	.type	f_y, %object
	.size	f_y, 4
f_y:
	.space	4
	.type	plr, %object
	.size	plr, 4
plr:
	.space	4
	.type	markpointnum, %object
	.size	markpointnum, 4
markpointnum:
	.space	4
	.type	max_w, %object
	.size	max_w, 4
max_w:
	.space	4
	.type	max_h, %object
	.size	max_h, 4
max_h:
	.space	4
	.type	min_w, %object
	.size	min_w, 4
min_w:
	.space	4
	.type	min_h, %object
	.size	min_h, 4
min_h:
	.space	4
	.type	max_scale_mtof, %object
	.size	max_scale_mtof, 4
max_scale_mtof:
	.space	4
	.type	ftom_zoommul, %object
	.size	ftom_zoommul, 4
ftom_zoommul:
	.space	4
	.type	mtof_zoommul, %object
	.size	mtof_zoommul, 4
mtof_zoommul:
	.space	4
	.type	old_m_x, %object
	.size	old_m_x, 4
old_m_x:
	.space	4
	.type	old_m_y, %object
	.size	old_m_y, 4
old_m_y:
	.space	4
	.type	old_m_w, %object
	.size	old_m_w, 4
old_m_w:
	.space	4
	.type	old_m_h, %object
	.size	old_m_h, 4
old_m_h:
	.space	4
	.type	bigstate.9696, %object
	.size	bigstate.9696, 4
bigstate.9696:
	.space	4
	.type	markpointnum_max, %object
	.size	markpointnum_max, 4
markpointnum_max:
	.space	4
	.type	markpoints, %object
	.size	markpoints, 4
markpoints:
	.space	4
	.type	cheatstate.9695, %object
	.size	cheatstate.9695, 4
cheatstate.9695:
	.space	4
	.type	l.9772, %object
	.size	l.9772, 16
l.9772:
	.space	16
	.type	ddt_cheating, %object
	.size	ddt_cheating, 4
ddt_cheating:
	.space	4
	.text
.Letext0:
	.file 3 "c:/devl/prboom3ds/src/z_zone.h"
	.file 4 "c:/devl/prboom3ds/src/doomdef.h"
	.file 5 "c:\\devkitpro\\devkitarm\\lib\\gcc\\arm-none-eabi\\4.9.2\\include\\stddef.h"
	.file 6 "c:/devl/prboom3ds/src/doomtype.h"
	.file 7 "c:/devl/prboom3ds/src/tables.h"
	.file 8 "c:/devl/prboom3ds/src/d_think.h"
	.file 9 "c:/devl/prboom3ds/src/info.h"
	.file 10 "c:/devl/prboom3ds/src/p_pspr.h"
	.file 11 "c:/devl/prboom3ds/src/doomdata.h"
	.file 12 "c:/devl/prboom3ds/src/p_mobj.h"
	.file 13 "c:/devl/prboom3ds/src/r_defs.h"
	.file 14 "c:/devl/prboom3ds/src/d_player.h"
	.file 15 "c:/devl/prboom3ds/src/d_ticcmd.h"
	.file 16 "c:/devl/prboom3ds/src/doomstat.h"
	.file 17 "c:/devl/prboom3ds/src/d_event.h"
	.file 18 "c:/devl/prboom3ds/src/v_video.h"
	.file 19 "c:/devl/prboom3ds/src/am_map.h"
	.file 20 "c:/devl/prboom3ds/src/r_state.h"
	.file 21 "c:/devl/prboom3ds/src/p_setup.h"
	.file 22 "c:/devl/prboom3ds/src/d_deh.h"
	.file 23 "c:/devl/prboom3ds/src/g_game.h"
	.file 24 "c:/devl/prboom3ds/src/st_stuff.h"
	.file 25 "c:/devl/prboom3ds/src/p_spec.h"
	.file 26 "c:/devl/prboom3ds/src/w_wad.h"