Archive member included because of file (symbol)

c:/devkitPro/libctru/lib\libctru.a(linear.o)
                              3ds_mix.o (linearAlloc)
c:/devkitPro/libctru/lib\libctru.a(mem_pool.o)
                              c:/devkitPro/libctru/lib\libctru.a(linear.o) (MemPool::Allocate(MemChunk&, unsigned long, int))
c:/devkitPro/libctru/lib\libctru.a(console.o)
                              ds_main.o (consoleInit)
c:/devkitPro/libctru/lib\libctru.a(gfx.o)
                              ds_main.o (gfxSet3D)
c:/devkitPro/libctru/lib\libctru.a(initSystem.o)
                              c:/devkitpro/devkitarm/bin/../lib/gcc/arm-none-eabi/4.9.2/../../../../arm-none-eabi/lib/3dsx_crt0.o (__ctru_exit)
c:/devkitPro/libctru/lib\libctru.a(os.o)
                              ds_sys.o (osGetTime)
c:/devkitPro/libctru/lib\libctru.a(srv.o)
                              c:/devkitPro/libctru/lib\libctru.a(initSystem.o) (__destroy_handle_list)
c:/devkitPro/libctru/lib\libctru.a(apt.o)
                              d_main.o (aptWaitStatusEvent)
c:/devkitPro/libctru/lib\libctru.a(csnd.o)
                              3ds_mix.o (CSND_initialize)
c:/devkitPro/libctru/lib\libctru.a(fs.o)
                              file.o (FS_makePath)
c:/devkitPro/libctru/lib\libctru.a(gsp.o)
                              c:/devkitPro/libctru/lib\libctru.a(gfx.o) (gspInit)
c:/devkitPro/libctru/lib\libctru.a(gx.o)
                              c:/devkitPro/libctru/lib\libctru.a(gfx.o) (gxCmdBuf)
c:/devkitPro/libctru/lib\libctru.a(hid.o)
                              d_main.o (hidExit)
c:/devkitPro/libctru/lib\libctru.a(irrst.o)
                              d_main.o (irrstExit)
c:/devkitPro/libctru/lib\libctru.a(rbtree_find.o)
                              c:/devkitPro/libctru/lib\libctru.a(linear.o) (rbtree_find)
c:/devkitPro/libctru/lib\libctru.a(rbtree_init.o)
                              c:/devkitPro/libctru/lib\libctru.a(linear.o) (rbtree_init)
c:/devkitPro/libctru/lib\libctru.a(rbtree_insert.o)
                              c:/devkitPro/libctru/lib\libctru.a(linear.o) (rbtree_insert)
c:/devkitPro/libctru/lib\libctru.a(rbtree_remove.o)
                              c:/devkitPro/libctru/lib\libctru.a(linear.o) (rbtree_remove)
c:/devkitPro/libctru/lib\libctru.a(rbtree_rotate.o)
                              c:/devkitPro/libctru/lib\libctru.a(rbtree_insert.o) (rbtree_rotate)
c:/devkitPro/libctru/lib\libctru.a(svc.o)
                              c:/devkitPro/libctru/lib\libctru.a(initSystem.o) (svcControlMemory)
c:/devkitPro/libctru/lib\libctru.a(default_font.bin.o)
                              c:/devkitPro/libctru/lib\libctru.a(console.o) (default_font_bin)
c:/devkitPro/libctru/lib\libctru.a(rbtree_iterator.o)
                              c:/devkitPro/libctru/lib\libctru.a(rbtree_remove.o) (rbtree_node_next)
c:/devkitpro/devkitarm/bin/../lib/gcc/arm-none-eabi/4.9.2/../../../../arm-none-eabi/lib\libm.a(lib_a-w_atan2.o)
                              r_main.o (atan2)
c:/devkitpro/devkitarm/bin/../lib/gcc/arm-none-eabi/4.9.2/../../../../arm-none-eabi/lib\libm.a(lib_a-w_sqrt.o)
                              p_setup.o (sqrt)
c:/devkitpro/devkitarm/bin/../lib/gcc/arm-none-eabi/4.9.2/../../../../arm-none-eabi/lib\libm.a(lib_a-e_atan2.o)
                              c:/devkitpro/devkitarm/bin/../lib/gcc/arm-none-eabi/4.9.2/../../../../arm-none-eabi/lib\libm.a(lib_a-w_atan2.o) (__ieee754_atan2)
c:/devkitpro/devkitarm/bin/../lib/gcc/arm-none-eabi/4.9.2/../../../../arm-none-eabi/lib\libm.a(lib_a-e_sqrt.o)
                              c:/devkitpro/devkitarm/bin/../lib/gcc/arm-none-eabi/4.9.2/../../../../arm-none-eabi/lib\libm.a(lib_a-w_sqrt.o) (__ieee754_sqrt)
c:/devkitpro/devkitarm/bin/../lib/gcc/arm-none-eabi/4.9.2/../../../../arm-none-eabi/lib\libm.a(lib_a-s_atan.o)
                              c:/devkitpro/devkitarm/bin/../lib/gcc/arm-none-eabi/4.9.2/../../../../arm-none-eabi/lib\libm.a(lib_a-e_atan2.o) (atan)
c:/devkitpro/devkitarm/bin/../lib/gcc/arm-none-eabi/4.9.2/../../../../arm-none-eabi/lib\libm.a(lib_a-s_fabs.o)
                              c:/devkitpro/devkitarm/bin/../lib/gcc/arm-none-eabi/4.9.2/../../../../arm-none-eabi/lib\libm.a(lib_a-e_atan2.o) (fabs)
c:/devkitpro/devkitarm/bin/../lib/gcc/arm-none-eabi/4.9.2/../../../../arm-none-eabi/lib\libm.a(lib_a-s_fpclassify.o)
                              c:/devkitpro/devkitarm/bin/../lib/gcc/arm-none-eabi/4.9.2/../../../../arm-none-eabi/lib\libm.a(lib_a-w_sqrt.o) (__fpclassifyd)
c:/devkitpro/devkitarm/bin/../lib/gcc/arm-none-eabi/4.9.2/../../../../arm-none-eabi/lib\libm.a(lib_a-s_lib_ver.o)
                              c:/devkitpro/devkitarm/bin/../lib/gcc/arm-none-eabi/4.9.2/../../../../arm-none-eabi/lib\libm.a(lib_a-w_sqrt.o) (__fdlib_version)
c:/devkitpro/devkitarm/bin/../lib/gcc/arm-none-eabi/4.9.2/../../../../arm-none-eabi/lib\libm.a(lib_a-s_matherr.o)
                              c:/devkitpro/devkitarm/bin/../lib/gcc/arm-none-eabi/4.9.2/../../../../arm-none-eabi/lib\libm.a(lib_a-w_sqrt.o) (matherr)
c:/devkitpro/devkitarm/bin/../lib/gcc/arm-none-eabi/4.9.2\libgcc.a(_udivsi3.o)
                              r_segs.o (__aeabi_uidiv)
c:/devkitpro/devkitarm/bin/../lib/gcc/arm-none-eabi/4.9.2\libgcc.a(_divsi3.o)
                              am_map.o (__aeabi_idiv)
c:/devkitpro/devkitarm/bin/../lib/gcc/arm-none-eabi/4.9.2\libgcc.a(_dvmd_tls.o)
                              c:/devkitpro/devkitarm/bin/../lib/gcc/arm-none-eabi/4.9.2\libgcc.a(_udivsi3.o) (__aeabi_idiv0)
c:/devkitpro/devkitarm/bin/../lib/gcc/arm-none-eabi/4.9.2\libgcc.a(_arm_addsubdf3.o)
                              c:/devkitpro/devkitarm/bin/../lib/gcc/arm-none-eabi/4.9.2/../../../../arm-none-eabi/lib\libm.a(lib_a-e_atan2.o) (__aeabi_dsub)
c:/devkitpro/devkitarm/bin/../lib/gcc/arm-none-eabi/4.9.2\libgcc.a(_arm_muldivdf3.o)
                              g_game.o (__aeabi_dmul)
c:/devkitpro/devkitarm/bin/../lib/gcc/arm-none-eabi/4.9.2\libgcc.a(_arm_cmpdf2.o)
                              c:/devkitpro/devkitarm/bin/../lib/gcc/arm-none-eabi/4.9.2/../../../../arm-none-eabi/lib\libm.a(lib_a-w_sqrt.o) (__aeabi_dcmplt)
c:/devkitpro/devkitarm/bin/../lib/gcc/arm-none-eabi/4.9.2\libgcc.a(_arm_fixdfsi.o)
                              p_setup.o (__aeabi_d2iz)
c:/devkitpro/devkitarm/bin/../lib/gcc/arm-none-eabi/4.9.2\libgcc.a(_arm_truncdfsf2.o)
                              p_setup.o (__aeabi_d2f)
c:/devkitpro/devkitarm/bin/../lib/gcc/arm-none-eabi/4.9.2\libgcc.a(_arm_addsubsf3.o)
                              r_main.o (__aeabi_fsub)
c:/devkitpro/devkitarm/bin/../lib/gcc/arm-none-eabi/4.9.2\libgcc.a(_arm_muldivsf3.o)
                              f_finale.o (__aeabi_fmul)
c:/devkitpro/devkitarm/bin/../lib/gcc/arm-none-eabi/4.9.2\libgcc.a(_arm_cmpsf2.o)
                              f_finale.o (__aeabi_fcmpgt)
c:/devkitpro/devkitarm/bin/../lib/gcc/arm-none-eabi/4.9.2\libgcc.a(_arm_fixsfsi.o)
                              f_finale.o (__aeabi_f2iz)
c:/devkitpro/devkitarm/bin/../lib/gcc/arm-none-eabi/4.9.2\libgcc.a(_arm_fixunssfsi.o)
                              ds_sys.o (__aeabi_f2uiz)
c:/devkitpro/devkitarm/bin/../lib/gcc/arm-none-eabi/4.9.2\libgcc.a(_aeabi_ldivmod.o)
                              am_map.o (__aeabi_ldivmod)
c:/devkitpro/devkitarm/bin/../lib/gcc/arm-none-eabi/4.9.2\libgcc.a(_aeabi_uldivmod.o)
                              p_enemy.o (__aeabi_uldivmod)
c:/devkitpro/devkitarm/bin/../lib/gcc/arm-none-eabi/4.9.2\libgcc.a(bpabi.o)
                              c:/devkitpro/devkitarm/bin/../lib/gcc/arm-none-eabi/4.9.2\libgcc.a(_aeabi_ldivmod.o) (__gnu_ldivmod_helper)
c:/devkitpro/devkitarm/bin/../lib/gcc/arm-none-eabi/4.9.2\libgcc.a(_divdi3.o)
                              c:/devkitpro/devkitarm/bin/../lib/gcc/arm-none-eabi/4.9.2\libgcc.a(bpabi.o) (__divdi3)
c:/devkitpro/devkitarm/bin/../lib/gcc/arm-none-eabi/4.9.2\libgcc.a(_udivdi3.o)
                              c:/devkitpro/devkitarm/bin/../lib/gcc/arm-none-eabi/4.9.2\libgcc.a(bpabi.o) (__udivdi3)
c:/devkitpro/devkitarm/bin/../lib/gcc/arm-none-eabi/4.9.2\libgcc.a(_clzdi2.o)
                              c:/devkitpro/devkitarm/bin/../lib/gcc/arm-none-eabi/4.9.2\libgcc.a(_divdi3.o) (__clzdi2)
c:/devkitpro/devkitarm/bin/../lib/gcc/arm-none-eabi/4.9.2\libgcc.a(_clzsi2.o)
                              c:/devkitpro/devkitarm/bin/../lib/gcc/arm-none-eabi/4.9.2\libgcc.a(_clzdi2.o) (__clzsi2)
c:/devkitpro/devkitarm/bin/../lib/gcc/arm-none-eabi/4.9.2/../../../../arm-none-eabi/lib\libg.a(lib_a-access.o)
                              d_main.o (access)
c:/devkitpro/devkitarm/bin/../lib/gcc/arm-none-eabi/4.9.2/../../../../arm-none-eabi/lib\libg.a(lib_a-assert.o)
                              lprintf.o (__assert_func)
c:/devkitpro/devkitarm/bin/../lib/gcc/arm-none-eabi/4.9.2/../../../../arm-none-eabi/lib\libg.a(lib_a-atexit.o)
                              p_checksum.o (atexit)
c:/devkitpro/devkitarm/bin/../lib/gcc/arm-none-eabi/4.9.2/../../../../arm-none-eabi/lib\libg.a(lib_a-atoi.o)
                              d_main.o (atoi)
c:/devkitpro/devkitarm/bin/../lib/gcc/arm-none-eabi/4.9.2/../../../../arm-none-eabi/lib\libg.a(lib_a-ctype_.o)
                              d_deh.o (__ctype_ptr__)
c:/devkitpro/devkitarm/bin/../lib/gcc/arm-none-eabi/4.9.2/../../../../arm-none-eabi/lib\libg.a(lib_a-errno.o)
                              m_misc.o (__errno)
c:/devkitpro/devkitarm/bin/../lib/gcc/arm-none-eabi/4.9.2/../../../../arm-none-eabi/lib\libg.a(lib_a-exit.o)
                              g_game.o (exit)
c:/devkitpro/devkitarm/bin/../lib/gcc/arm-none-eabi/4.9.2/../../../../arm-none-eabi/lib\libg.a(lib_a-fclose.o)
                              d_deh.o (fclose)
c:/devkitpro/devkitarm/bin/../lib/gcc/arm-none-eabi/4.9.2/../../../../arm-none-eabi/lib\libg.a(lib_a-fflush.o)
                              c:/devkitpro/devkitarm/bin/../lib/gcc/arm-none-eabi/4.9.2/../../../../arm-none-eabi/lib\libg.a(lib_a-fclose.o) (_fflush_r)
c:/devkitpro/devkitarm/bin/../lib/gcc/arm-none-eabi/4.9.2/../../../../arm-none-eabi/lib\libg.a(lib_a-fgetc.o)
                              d_deh.o (fgetc)
c:/devkitpro/devkitarm/bin/../lib/gcc/arm-none-eabi/4.9.2/../../../../arm-none-eabi/lib\libg.a(lib_a-fgets.o)
                              d_deh.o (fgets)
c:/devkitpro/devkitarm/bin/../lib/gcc/arm-none-eabi/4.9.2/../../../../arm-none-eabi/lib\libg.a(lib_a-findfp.o)
                              c:/devkitpro/devkitarm/bin/../lib/gcc/arm-none-eabi/4.9.2/../../../../arm-none-eabi/lib\libg.a(lib_a-fclose.o) (__sinit)
c:/devkitpro/devkitarm/bin/../lib/gcc/arm-none-eabi/4.9.2/../../../../arm-none-eabi/lib\libg.a(lib_a-fini.o)
                              c:/devkitPro/libctru/lib\libctru.a(initSystem.o) (__libc_fini_array)
c:/devkitpro/devkitarm/bin/../lib/gcc/arm-none-eabi/4.9.2/../../../../arm-none-eabi/lib\libg.a(lib_a-fiprintf.o)
                              c:/devkitpro/devkitarm/bin/../lib/gcc/arm-none-eabi/4.9.2/../../../../arm-none-eabi/lib\libg.a(lib_a-assert.o) (fiprintf)
c:/devkitpro/devkitarm/bin/../lib/gcc/arm-none-eabi/4.9.2/../../../../arm-none-eabi/lib\libg.a(lib_a-fopen.o)
                              d_deh.o (fopen)
c:/devkitpro/devkitarm/bin/../lib/gcc/arm-none-eabi/4.9.2/../../../../arm-none-eabi/lib\libg.a(lib_a-fprintf.o)
                              d_deh.o (fprintf)
c:/devkitpro/devkitarm/bin/../lib/gcc/arm-none-eabi/4.9.2/../../../../arm-none-eabi/lib\libg.a(lib_a-fputc.o)
                              g_game.o (fputc)
c:/devkitpro/devkitarm/bin/../lib/gcc/arm-none-eabi/4.9.2/../../../../arm-none-eabi/lib\libg.a(lib_a-fread.o)
                              d_main.o (fread)
c:/devkitpro/devkitarm/bin/../lib/gcc/arm-none-eabi/4.9.2/../../../../arm-none-eabi/lib\libg.a(lib_a-freer.o)
                              c:/devkitpro/devkitarm/bin/../lib/gcc/arm-none-eabi/4.9.2/../../../../arm-none-eabi/lib\libg.a(lib_a-fclose.o) (_free_r)
c:/devkitpro/devkitarm/bin/../lib/gcc/arm-none-eabi/4.9.2/../../../../arm-none-eabi/lib\libg.a(lib_a-fscanf.o)
                              m_misc.o (fscanf)
c:/devkitpro/devkitarm/bin/../lib/gcc/arm-none-eabi/4.9.2/../../../../arm-none-eabi/lib\libg.a(lib_a-fseek.o)
                              c:/devkitpro/devkitarm/bin/../lib/gcc/arm-none-eabi/4.9.2/../../../../arm-none-eabi/lib\libg.a(lib_a-fopen.o) (_fseek_r)
c:/devkitpro/devkitarm/bin/../lib/gcc/arm-none-eabi/4.9.2/../../../../arm-none-eabi/lib\libg.a(lib_a-fseeko.o)
                              c:/devkitpro/devkitarm/bin/../lib/gcc/arm-none-eabi/4.9.2/../../../../arm-none-eabi/lib\libg.a(lib_a-fseek.o) (_fseeko_r)
c:/devkitpro/devkitarm/bin/../lib/gcc/arm-none-eabi/4.9.2/../../../../arm-none-eabi/lib\libg.a(lib_a-ftell.o)
                              m_misc.o (ftell)
c:/devkitpro/devkitarm/bin/../lib/gcc/arm-none-eabi/4.9.2/../../../../arm-none-eabi/lib\libg.a(lib_a-ftello.o)
                              c:/devkitpro/devkitarm/bin/../lib/gcc/arm-none-eabi/4.9.2/../../../../arm-none-eabi/lib\libg.a(lib_a-ftell.o) (_ftello_r)
c:/devkitpro/devkitarm/bin/../lib/gcc/arm-none-eabi/4.9.2/../../../../arm-none-eabi/lib\libg.a(lib_a-fwalk.o)
                              c:/devkitpro/devkitarm/bin/../lib/gcc/arm-none-eabi/4.9.2/../../../../arm-none-eabi/lib\libg.a(lib_a-findfp.o) (_fwalk)
c:/devkitpro/devkitarm/bin/../lib/gcc/arm-none-eabi/4.9.2/../../../../arm-none-eabi/lib\libg.a(lib_a-fwrite.o)
                              d_deh.o (fwrite)
c:/devkitpro/devkitarm/bin/../lib/gcc/arm-none-eabi/4.9.2/../../../../arm-none-eabi/lib\libg.a(lib_a-getenv.o)
                              d_main.o (getenv)
c:/devkitpro/devkitarm/bin/../lib/gcc/arm-none-eabi/4.9.2/../../../../arm-none-eabi/lib\libg.a(lib_a-getenv_r.o)
                              c:/devkitpro/devkitarm/bin/../lib/gcc/arm-none-eabi/4.9.2/../../../../arm-none-eabi/lib\libg.a(lib_a-getenv.o) (_findenv_r)
c:/devkitpro/devkitarm/bin/../lib/gcc/arm-none-eabi/4.9.2/../../../../arm-none-eabi/lib\libg.a(lib_a-impure.o)
                              c:/devkitpro/devkitarm/bin/../lib/gcc/arm-none-eabi/4.9.2/../../../../arm-none-eabi/lib\libg.a(lib_a-exit.o) (_global_impure_ptr)
c:/devkitpro/devkitarm/bin/../lib/gcc/arm-none-eabi/4.9.2/../../../../arm-none-eabi/lib\libg.a(lib_a-init.o)
                              c:/devkitPro/libctru/lib\libctru.a(initSystem.o) (__libc_init_array)
c:/devkitpro/devkitarm/bin/../lib/gcc/arm-none-eabi/4.9.2/../../../../arm-none-eabi/lib\libg.a(lib_a-iprintf.o)
                              d_main.o (iprintf)
c:/devkitpro/devkitarm/bin/../lib/gcc/arm-none-eabi/4.9.2/../../../../arm-none-eabi/lib\libg.a(lib_a-makebuf.o)
                              c:/devkitpro/devkitarm/bin/../lib/gcc/arm-none-eabi/4.9.2/../../../../arm-none-eabi/lib\libg.a(lib_a-fseeko.o) (__smakebuf_r)
c:/devkitpro/devkitarm/bin/../lib/gcc/arm-none-eabi/4.9.2/../../../../arm-none-eabi/lib\libg.a(lib_a-malloc.o)
                              z_zone.o (malloc)
c:/devkitpro/devkitarm/bin/../lib/gcc/arm-none-eabi/4.9.2/../../../../arm-none-eabi/lib\libg.a(lib_a-mallocr.o)
                              c:/devkitpro/devkitarm/bin/../lib/gcc/arm-none-eabi/4.9.2/../../../../arm-none-eabi/lib\libg.a(lib_a-findfp.o) (_malloc_r)
c:/devkitpro/devkitarm/bin/../lib/gcc/arm-none-eabi/4.9.2/../../../../arm-none-eabi/lib\libg.a(lib_a-memchr-stub.o)
                              r_bsp.o (memchr)
c:/devkitpro/devkitarm/bin/../lib/gcc/arm-none-eabi/4.9.2/../../../../arm-none-eabi/lib\libg.a(lib_a-memcmp.o)
                              d_deh.o (memcmp)
c:/devkitpro/devkitarm/bin/../lib/gcc/arm-none-eabi/4.9.2/../../../../arm-none-eabi/lib\libg.a(lib_a-memcpy-stub.o)
                              d_main.o (memcpy)
c:/devkitpro/devkitarm/bin/../lib/gcc/arm-none-eabi/4.9.2/../../../../arm-none-eabi/lib\libg.a(lib_a-memmove.o)
                              lprintf.o (memmove)
c:/devkitpro/devkitarm/bin/../lib/gcc/arm-none-eabi/4.9.2/../../../../arm-none-eabi/lib\libg.a(lib_a-memset.o)
                              g_game.o (memset)
c:/devkitpro/devkitarm/bin/../lib/gcc/arm-none-eabi/4.9.2/../../../../arm-none-eabi/lib\libg.a(lib_a-mlock.o)
                              c:/devkitpro/devkitarm/bin/../lib/gcc/arm-none-eabi/4.9.2/../../../../arm-none-eabi/lib\libg.a(lib_a-freer.o) (__malloc_lock)
c:/devkitpro/devkitarm/bin/../lib/gcc/arm-none-eabi/4.9.2/../../../../arm-none-eabi/lib\libg.a(lib_a-printf.o)
                              d_deh.o (printf)
c:/devkitpro/devkitarm/bin/../lib/gcc/arm-none-eabi/4.9.2/../../../../arm-none-eabi/lib\libg.a(lib_a-putc.o)
                              c:/devkitpro/devkitarm/bin/../lib/gcc/arm-none-eabi/4.9.2/../../../../arm-none-eabi/lib\libg.a(lib_a-fputc.o) (_putc_r)
c:/devkitpro/devkitarm/bin/../lib/gcc/arm-none-eabi/4.9.2/../../../../arm-none-eabi/lib\libg.a(lib_a-puts.o)
                              d_deh.o (puts)
c:/devkitpro/devkitarm/bin/../lib/gcc/arm-none-eabi/4.9.2/../../../../arm-none-eabi/lib\libg.a(lib_a-rand.o)
                              ds_main.o (srand)
c:/devkitpro/devkitarm/bin/../lib/gcc/arm-none-eabi/4.9.2/../../../../arm-none-eabi/lib\libg.a(lib_a-realloc.o)
                              lprintf.o (realloc)
c:/devkitpro/devkitarm/bin/../lib/gcc/arm-none-eabi/4.9.2/../../../../arm-none-eabi/lib\libg.a(lib_a-reallocr.o)
                              c:/devkitpro/devkitarm/bin/../lib/gcc/arm-none-eabi/4.9.2/../../../../arm-none-eabi/lib\libg.a(lib_a-realloc.o) (_realloc_r)
c:/devkitpro/devkitarm/bin/../lib/gcc/arm-none-eabi/4.9.2/../../../../arm-none-eabi/lib\libg.a(lib_a-refill.o)
                              c:/devkitpro/devkitarm/bin/../lib/gcc/arm-none-eabi/4.9.2/../../../../arm-none-eabi/lib\libg.a(lib_a-fgets.o) (__srefill_r)
c:/devkitpro/devkitarm/bin/../lib/gcc/arm-none-eabi/4.9.2/../../../../arm-none-eabi/lib\libg.a(lib_a-remove.o)
                              m_misc.o (remove)
c:/devkitpro/devkitarm/bin/../lib/gcc/arm-none-eabi/4.9.2/../../../../arm-none-eabi/lib\libg.a(lib_a-rget.o)
                              c:/devkitpro/devkitarm/bin/../lib/gcc/arm-none-eabi/4.9.2/../../../../arm-none-eabi/lib\libg.a(lib_a-fgetc.o) (__srget_r)
c:/devkitpro/devkitarm/bin/../lib/gcc/arm-none-eabi/4.9.2/../../../../arm-none-eabi/lib\libg.a(lib_a-setbuf.o)
                              d_main.o (setbuf)
c:/devkitpro/devkitarm/bin/../lib/gcc/arm-none-eabi/4.9.2/../../../../arm-none-eabi/lib\libg.a(lib_a-setvbuf.o)
                              c:/devkitPro/libctru/lib\libctru.a(console.o) (setvbuf)
c:/devkitpro/devkitarm/bin/../lib/gcc/arm-none-eabi/4.9.2/../../../../arm-none-eabi/lib\libg.a(lib_a-sprintf.o)
                              d_main.o (sprintf)
c:/devkitpro/devkitarm/bin/../lib/gcc/arm-none-eabi/4.9.2/../../../../arm-none-eabi/lib\libg.a(lib_a-sscanf.o)
                              d_deh.o (sscanf)
c:/devkitpro/devkitarm/bin/../lib/gcc/arm-none-eabi/4.9.2/../../../../arm-none-eabi/lib\libg.a(lib_a-stdio.o)
                              c:/devkitpro/devkitarm/bin/../lib/gcc/arm-none-eabi/4.9.2/../../../../arm-none-eabi/lib\libg.a(lib_a-findfp.o) (__sread)
c:/devkitpro/devkitarm/bin/../lib/gcc/arm-none-eabi/4.9.2/../../../../arm-none-eabi/lib\libg.a(lib_a-strcasecmp.o)
                              d_deh.o (strcasecmp)
c:/devkitpro/devkitarm/bin/../lib/gcc/arm-none-eabi/4.9.2/../../../../arm-none-eabi/lib\libg.a(lib_a-strcat.o)
                              hu_stuff.o (strcat)
c:/devkitpro/devkitarm/bin/../lib/gcc/arm-none-eabi/4.9.2/../../../../arm-none-eabi/lib\libg.a(lib_a-strchr.o)
                              d_main.o (strchr)
c:/devkitpro/devkitarm/bin/../lib/gcc/arm-none-eabi/4.9.2/../../../../arm-none-eabi/lib\libg.a(lib_a-strcmp.o)
                              d_deh.o (strcmp)
c:/devkitpro/devkitarm/bin/../lib/gcc/arm-none-eabi/4.9.2/../../../../arm-none-eabi/lib\libg.a(lib_a-strcpy.o)
                              d_deh.o (strcpy)
c:/devkitpro/devkitarm/bin/../lib/gcc/arm-none-eabi/4.9.2/../../../../arm-none-eabi/lib\libg.a(lib_a-strerror.o)
                              p_checksum.o (strerror)
c:/devkitpro/devkitarm/bin/../lib/gcc/arm-none-eabi/4.9.2/../../../../arm-none-eabi/lib\libg.a(lib_a-strlen.o)
                              d_deh.o (strlen)
c:/devkitpro/devkitarm/bin/../lib/gcc/arm-none-eabi/4.9.2/../../../../arm-none-eabi/lib\libg.a(lib_a-strlwr.o)
                              d_deh.o (strlwr)
c:/devkitpro/devkitarm/bin/../lib/gcc/arm-none-eabi/4.9.2/../../../../arm-none-eabi/lib\libg.a(lib_a-strncasecmp.o)
                              d_deh.o (strncasecmp)
c:/devkitpro/devkitarm/bin/../lib/gcc/arm-none-eabi/4.9.2/../../../../arm-none-eabi/lib\libg.a(lib_a-strncmp.o)
                              d_main.o (strncmp)
c:/devkitpro/devkitarm/bin/../lib/gcc/arm-none-eabi/4.9.2/../../../../arm-none-eabi/lib\libg.a(lib_a-strncpy.o)
                              d_deh.o (strncpy)
c:/devkitpro/devkitarm/bin/../lib/gcc/arm-none-eabi/4.9.2/../../../../arm-none-eabi/lib\libg.a(lib_a-strtok.o)
                              d_deh.o (strtok)
c:/devkitpro/devkitarm/bin/../lib/gcc/arm-none-eabi/4.9.2/../../../../arm-none-eabi/lib\libg.a(lib_a-strtok_r.o)
                              c:/devkitpro/devkitarm/bin/../lib/gcc/arm-none-eabi/4.9.2/../../../../arm-none-eabi/lib\libg.a(lib_a-strtok.o) (__strtok_r)
c:/devkitpro/devkitarm/bin/../lib/gcc/arm-none-eabi/4.9.2/../../../../arm-none-eabi/lib\libg.a(lib_a-strtol.o)
                              c:/devkitpro/devkitarm/bin/../lib/gcc/arm-none-eabi/4.9.2/../../../../arm-none-eabi/lib\libg.a(lib_a-atoi.o) (_strtol_r)
c:/devkitpro/devkitarm/bin/../lib/gcc/arm-none-eabi/4.9.2/../../../../arm-none-eabi/lib\libg.a(lib_a-svfprintf.o)
                              c:/devkitpro/devkitarm/bin/../lib/gcc/arm-none-eabi/4.9.2/../../../../arm-none-eabi/lib\libg.a(lib_a-sprintf.o) (_svfprintf_r)
c:/devkitpro/devkitarm/bin/../lib/gcc/arm-none-eabi/4.9.2/../../../../arm-none-eabi/lib\libg.a(lib_a-svfscanf.o)
                              c:/devkitpro/devkitarm/bin/../lib/gcc/arm-none-eabi/4.9.2/../../../../arm-none-eabi/lib\libg.a(lib_a-sscanf.o) (__ssvfscanf_r)
c:/devkitpro/devkitarm/bin/../lib/gcc/arm-none-eabi/4.9.2/../../../../arm-none-eabi/lib\libg.a(lib_a-sysfstat.o)
                              ds_sys.o (fstat)
c:/devkitpro/devkitarm/bin/../lib/gcc/arm-none-eabi/4.9.2/../../../../arm-none-eabi/lib\libg.a(lib_a-sysisatty.o)
                              lprintf.o (isatty)
c:/devkitpro/devkitarm/bin/../lib/gcc/arm-none-eabi/4.9.2/../../../../arm-none-eabi/lib\libg.a(lib_a-sysstat.o)
                              d_main.o (stat)
c:/devkitpro/devkitarm/bin/../lib/gcc/arm-none-eabi/4.9.2/../../../../arm-none-eabi/lib\libg.a(lib_a-u_strerr.o)
                              c:/devkitpro/devkitarm/bin/../lib/gcc/arm-none-eabi/4.9.2/../../../../arm-none-eabi/lib\libg.a(lib_a-strerror.o) (_user_strerror)
c:/devkitpro/devkitarm/bin/../lib/gcc/arm-none-eabi/4.9.2/../../../../arm-none-eabi/lib\libg.a(lib_a-vfiprintf.o)
                              c:/devkitpro/devkitarm/bin/../lib/gcc/arm-none-eabi/4.9.2/../../../../arm-none-eabi/lib\libg.a(lib_a-fiprintf.o) (_vfiprintf_r)
c:/devkitpro/devkitarm/bin/../lib/gcc/arm-none-eabi/4.9.2/../../../../arm-none-eabi/lib\libg.a(lib_a-vfprintf.o)
                              c:/devkitpro/devkitarm/bin/../lib/gcc/arm-none-eabi/4.9.2/../../../../arm-none-eabi/lib\libg.a(lib_a-fprintf.o) (_vfprintf_r)
c:/devkitpro/devkitarm/bin/../lib/gcc/arm-none-eabi/4.9.2/../../../../arm-none-eabi/lib\libg.a(lib_a-vfscanf.o)
                              c:/devkitpro/devkitarm/bin/../lib/gcc/arm-none-eabi/4.9.2/../../../../arm-none-eabi/lib\libg.a(lib_a-fscanf.o) (_vfscanf_r)
c:/devkitpro/devkitarm/bin/../lib/gcc/arm-none-eabi/4.9.2/../../../../arm-none-eabi/lib\libg.a(lib_a-vsnprintf.o)
                              lprintf.o (vsnprintf)
c:/devkitpro/devkitarm/bin/../lib/gcc/arm-none-eabi/4.9.2/../../../../arm-none-eabi/lib\libg.a(lib_a-wbuf.o)
                              c:/devkitpro/devkitarm/bin/../lib/gcc/arm-none-eabi/4.9.2/../../../../arm-none-eabi/lib\libg.a(lib_a-putc.o) (__swbuf_r)
c:/devkitpro/devkitarm/bin/../lib/gcc/arm-none-eabi/4.9.2/../../../../arm-none-eabi/lib\libg.a(lib_a-wcrtomb.o)
                              c:/devkitpro/devkitarm/bin/../lib/gcc/arm-none-eabi/4.9.2/../../../../arm-none-eabi/lib\libg.a(lib_a-svfprintf.o) (_wcrtomb_r)
c:/devkitpro/devkitarm/bin/../lib/gcc/arm-none-eabi/4.9.2/../../../../arm-none-eabi/lib\libg.a(lib_a-wcsrtombs.o)
                              c:/devkitpro/devkitarm/bin/../lib/gcc/arm-none-eabi/4.9.2/../../../../arm-none-eabi/lib\libg.a(lib_a-svfprintf.o) (_wcsrtombs_r)
c:/devkitpro/devkitarm/bin/../lib/gcc/arm-none-eabi/4.9.2/../../../../arm-none-eabi/lib\libg.a(lib_a-wctomb_r.o)
                              c:/devkitpro/devkitarm/bin/../lib/gcc/arm-none-eabi/4.9.2/../../../../arm-none-eabi/lib\libg.a(lib_a-wcrtomb.o) (__wctomb)
c:/devkitpro/devkitarm/bin/../lib/gcc/arm-none-eabi/4.9.2/../../../../arm-none-eabi/lib\libg.a(lib_a-wsetup.o)
                              c:/devkitpro/devkitarm/bin/../lib/gcc/arm-none-eabi/4.9.2/../../../../arm-none-eabi/lib\libg.a(lib_a-vfiprintf.o) (__swsetup_r)
c:/devkitpro/devkitarm/bin/../lib/gcc/arm-none-eabi/4.9.2/../../../../arm-none-eabi/lib\libg.a(lib_a-abort.o)
                              c:/devkitpro/devkitarm/bin/../lib/gcc/arm-none-eabi/4.9.2/../../../../arm-none-eabi/lib\libg.a(lib_a-assert.o) (abort)
c:/devkitpro/devkitarm/bin/../lib/gcc/arm-none-eabi/4.9.2/../../../../arm-none-eabi/lib\libg.a(lib_a-__atexit.o)
                              c:/devkitpro/devkitarm/bin/../lib/gcc/arm-none-eabi/4.9.2/../../../../arm-none-eabi/lib\libg.a(lib_a-atexit.o) (__register_exitproc)
c:/devkitpro/devkitarm/bin/../lib/gcc/arm-none-eabi/4.9.2/../../../../arm-none-eabi/lib\libg.a(lib_a-__call_atexit.o)
                              c:/devkitpro/devkitarm/bin/../lib/gcc/arm-none-eabi/4.9.2/../../../../arm-none-eabi/lib\libg.a(lib_a-exit.o) (__call_exitprocs)
c:/devkitpro/devkitarm/bin/../lib/gcc/arm-none-eabi/4.9.2/../../../../arm-none-eabi/lib\libg.a(lib_a-dtoa.o)
                              c:/devkitpro/devkitarm/bin/../lib/gcc/arm-none-eabi/4.9.2/../../../../arm-none-eabi/lib\libg.a(lib_a-svfprintf.o) (_dtoa_r)
c:/devkitpro/devkitarm/bin/../lib/gcc/arm-none-eabi/4.9.2/../../../../arm-none-eabi/lib\libg.a(lib_a-environ.o)
                              c:/devkitpro/devkitarm/bin/../lib/gcc/arm-none-eabi/4.9.2/../../../../arm-none-eabi/lib\libg.a(lib_a-getenv_r.o) (environ)
c:/devkitpro/devkitarm/bin/../lib/gcc/arm-none-eabi/4.9.2/../../../../arm-none-eabi/lib\libg.a(lib_a-envlock.o)
                              c:/devkitpro/devkitarm/bin/../lib/gcc/arm-none-eabi/4.9.2/../../../../arm-none-eabi/lib\libg.a(lib_a-getenv_r.o) (__env_lock)
c:/devkitpro/devkitarm/bin/../lib/gcc/arm-none-eabi/4.9.2/../../../../arm-none-eabi/lib\libg.a(lib_a-flags.o)
                              c:/devkitpro/devkitarm/bin/../lib/gcc/arm-none-eabi/4.9.2/../../../../arm-none-eabi/lib\libg.a(lib_a-fopen.o) (__sflags)
c:/devkitpro/devkitarm/bin/../lib/gcc/arm-none-eabi/4.9.2/../../../../arm-none-eabi/lib\libg.a(lib_a-fputwc.o)
                              c:/devkitpro/devkitarm/bin/../lib/gcc/arm-none-eabi/4.9.2/../../../../arm-none-eabi/lib\libg.a(lib_a-vfiprintf.o) (_fputwc_r)
c:/devkitpro/devkitarm/bin/../lib/gcc/arm-none-eabi/4.9.2/../../../../arm-none-eabi/lib\libg.a(lib_a-fvwrite.o)
                              c:/devkitpro/devkitarm/bin/../lib/gcc/arm-none-eabi/4.9.2/../../../../arm-none-eabi/lib\libg.a(lib_a-fwrite.o) (__sfvwrite_r)
c:/devkitpro/devkitarm/bin/../lib/gcc/arm-none-eabi/4.9.2/../../../../arm-none-eabi/lib\libg.a(lib_a-iswspace.o)
                              c:/devkitpro/devkitarm/bin/../lib/gcc/arm-none-eabi/4.9.2/../../../../arm-none-eabi/lib\libg.a(lib_a-svfscanf.o) (iswspace)
c:/devkitpro/devkitarm/bin/../lib/gcc/arm-none-eabi/4.9.2/../../../../arm-none-eabi/lib\libg.a(lib_a-jp2uc.o)
                              c:/devkitpro/devkitarm/bin/../lib/gcc/arm-none-eabi/4.9.2/../../../../arm-none-eabi/lib\libg.a(lib_a-iswspace.o) (_jp2uc)
c:/devkitpro/devkitarm/bin/../lib/gcc/arm-none-eabi/4.9.2/../../../../arm-none-eabi/lib\libg.a(lib_a-locale.o)
                              c:/devkitpro/devkitarm/bin/../lib/gcc/arm-none-eabi/4.9.2/../../../../arm-none-eabi/lib\libg.a(lib_a-svfprintf.o) (__locale_charset)
c:/devkitpro/devkitarm/bin/../lib/gcc/arm-none-eabi/4.9.2/../../../../arm-none-eabi/lib\libg.a(lib_a-mbrtowc.o)
                              c:/devkitpro/devkitarm/bin/../lib/gcc/arm-none-eabi/4.9.2/../../../../arm-none-eabi/lib\libg.a(lib_a-svfscanf.o) (_mbrtowc_r)
c:/devkitpro/devkitarm/bin/../lib/gcc/arm-none-eabi/4.9.2/../../../../arm-none-eabi/lib\libg.a(lib_a-mbtowc_r.o)
                              c:/devkitpro/devkitarm/bin/../lib/gcc/arm-none-eabi/4.9.2/../../../../arm-none-eabi/lib\libg.a(lib_a-locale.o) (__utf8_mbtowc)
c:/devkitpro/devkitarm/bin/../lib/gcc/arm-none-eabi/4.9.2/../../../../arm-none-eabi/lib\libg.a(lib_a-mprec.o)
                              c:/devkitpro/devkitarm/bin/../lib/gcc/arm-none-eabi/4.9.2/../../../../arm-none-eabi/lib\libg.a(lib_a-dtoa.o) (_Balloc)
c:/devkitpro/devkitarm/bin/../lib/gcc/arm-none-eabi/4.9.2/../../../../arm-none-eabi/lib\libg.a(lib_a-sccl.o)
                              c:/devkitpro/devkitarm/bin/../lib/gcc/arm-none-eabi/4.9.2/../../../../arm-none-eabi/lib\libg.a(lib_a-svfscanf.o) (__sccl)
c:/devkitpro/devkitarm/bin/../lib/gcc/arm-none-eabi/4.9.2/../../../../arm-none-eabi/lib\libg.a(lib_a-sf_nan.o)
                              c:/devkitpro/devkitarm/bin/../lib/gcc/arm-none-eabi/4.9.2/../../../../arm-none-eabi/lib\libg.a(lib_a-svfscanf.o) (nanf)
c:/devkitpro/devkitarm/bin/../lib/gcc/arm-none-eabi/4.9.2/../../../../arm-none-eabi/lib\libg.a(lib_a-s_frexp.o)
                              c:/devkitpro/devkitarm/bin/../lib/gcc/arm-none-eabi/4.9.2/../../../../arm-none-eabi/lib\libg.a(lib_a-svfprintf.o) (frexp)
c:/devkitpro/devkitarm/bin/../lib/gcc/arm-none-eabi/4.9.2/../../../../arm-none-eabi/lib\libg.a(lib_a-signal.o)
                              c:/devkitpro/devkitarm/bin/../lib/gcc/arm-none-eabi/4.9.2/../../../../arm-none-eabi/lib\libg.a(lib_a-abort.o) (raise)
c:/devkitpro/devkitarm/bin/../lib/gcc/arm-none-eabi/4.9.2/../../../../arm-none-eabi/lib\libg.a(lib_a-stpncpy.o)
                              c:/devkitpro/devkitarm/bin/../lib/gcc/arm-none-eabi/4.9.2/../../../../arm-none-eabi/lib\libg.a(lib_a-svfscanf.o) (stpncpy)
c:/devkitpro/devkitarm/bin/../lib/gcc/arm-none-eabi/4.9.2/../../../../arm-none-eabi/lib\libg.a(lib_a-strlcpy.o)
                              c:/devkitpro/devkitarm/bin/../lib/gcc/arm-none-eabi/4.9.2/../../../../arm-none-eabi/lib\libg.a(lib_a-locale.o) (strlcpy)
c:/devkitpro/devkitarm/bin/../lib/gcc/arm-none-eabi/4.9.2/../../../../arm-none-eabi/lib\libg.a(lib_a-strtod.o)
                              c:/devkitpro/devkitarm/bin/../lib/gcc/arm-none-eabi/4.9.2/../../../../arm-none-eabi/lib\libg.a(lib_a-svfscanf.o) (_strtod_r)
c:/devkitpro/devkitarm/bin/../lib/gcc/arm-none-eabi/4.9.2/../../../../arm-none-eabi/lib\libg.a(lib_a-strtoll_r.o)
                              c:/devkitpro/devkitarm/bin/../lib/gcc/arm-none-eabi/4.9.2/../../../../arm-none-eabi/lib\libg.a(lib_a-svfscanf.o) (_strtoll_r)
c:/devkitpro/devkitarm/bin/../lib/gcc/arm-none-eabi/4.9.2/../../../../arm-none-eabi/lib\libg.a(lib_a-strtoull_r.o)
                              c:/devkitpro/devkitarm/bin/../lib/gcc/arm-none-eabi/4.9.2/../../../../arm-none-eabi/lib\libg.a(lib_a-svfscanf.o) (_strtoull_r)
c:/devkitpro/devkitarm/bin/../lib/gcc/arm-none-eabi/4.9.2/../../../../arm-none-eabi/lib\libg.a(lib_a-strtoul.o)
                              c:/devkitpro/devkitarm/bin/../lib/gcc/arm-none-eabi/4.9.2/../../../../arm-none-eabi/lib\libg.a(lib_a-svfscanf.o) (_strtoul_r)
c:/devkitpro/devkitarm/bin/../lib/gcc/arm-none-eabi/4.9.2/../../../../arm-none-eabi/lib\libg.a(lib_a-svfiprintf.o)
                              c:/devkitpro/devkitarm/bin/../lib/gcc/arm-none-eabi/4.9.2/../../../../arm-none-eabi/lib\libg.a(lib_a-svfprintf.o) (__ssprint_r)
c:/devkitpro/devkitarm/bin/../lib/gcc/arm-none-eabi/4.9.2/../../../../arm-none-eabi/lib\libg.a(lib_a-svfiscanf.o)
                              c:/devkitpro/devkitarm/bin/../lib/gcc/arm-none-eabi/4.9.2/../../../../arm-none-eabi/lib\libg.a(lib_a-svfscanf.o) (_sungetc_r)
c:/devkitpro/devkitarm/bin/../lib/gcc/arm-none-eabi/4.9.2/../../../../arm-none-eabi/lib\libg.a(lib_a-ungetc.o)
                              c:/devkitpro/devkitarm/bin/../lib/gcc/arm-none-eabi/4.9.2/../../../../arm-none-eabi/lib\libg.a(lib_a-svfiscanf.o) (__submore)
c:/devkitpro/devkitarm/bin/../lib/gcc/arm-none-eabi/4.9.2/../../../../arm-none-eabi/lib\libg.a(lib_a-wcsnrtombs.o)
                              c:/devkitpro/devkitarm/bin/../lib/gcc/arm-none-eabi/4.9.2/../../../../arm-none-eabi/lib\libg.a(lib_a-wcsrtombs.o) (_wcsnrtombs_r)
c:/devkitpro/devkitarm/bin/../lib/gcc/arm-none-eabi/4.9.2/../../../../arm-none-eabi/lib\libg.a(lib_a-callocr.o)
                              c:/devkitpro/devkitarm/bin/../lib/gcc/arm-none-eabi/4.9.2/../../../../arm-none-eabi/lib\libg.a(lib_a-mprec.o) (_calloc_r)
c:/devkitpro/devkitarm/bin/../lib/gcc/arm-none-eabi/4.9.2/../../../../arm-none-eabi/lib\libg.a(lib_a-gdtoa-gethex.o)
                              c:/devkitpro/devkitarm/bin/../lib/gcc/arm-none-eabi/4.9.2/../../../../arm-none-eabi/lib\libg.a(lib_a-strtod.o) (__gethex)
c:/devkitpro/devkitarm/bin/../lib/gcc/arm-none-eabi/4.9.2/../../../../arm-none-eabi/lib\libg.a(lib_a-gdtoa-hexnan.o)
                              c:/devkitpro/devkitarm/bin/../lib/gcc/arm-none-eabi/4.9.2/../../../../arm-none-eabi/lib\libg.a(lib_a-strtod.o) (__hexnan)
c:/devkitpro/devkitarm/bin/../lib/gcc/arm-none-eabi/4.9.2/../../../../arm-none-eabi/lib\libsysbase.a(iosupport.o)
                              file.o (FindDevice)
c:/devkitpro/devkitarm/bin/../lib/gcc/arm-none-eabi/4.9.2/../../../../arm-none-eabi/lib\libsysbase.a(close.o)
                              c:/devkitpro/devkitarm/bin/../lib/gcc/arm-none-eabi/4.9.2/../../../../arm-none-eabi/lib\libg.a(lib_a-stdio.o) (_close_r)
c:/devkitpro/devkitarm/bin/../lib/gcc/arm-none-eabi/4.9.2/../../../../arm-none-eabi/lib\libsysbase.a(fstat.o)
                              c:/devkitpro/devkitarm/bin/../lib/gcc/arm-none-eabi/4.9.2/../../../../arm-none-eabi/lib\libg.a(lib_a-fseeko.o) (_fstat_r)
c:/devkitpro/devkitarm/bin/../lib/gcc/arm-none-eabi/4.9.2/../../../../arm-none-eabi/lib\libsysbase.a(getpid.o)
                              c:/devkitpro/devkitarm/bin/../lib/gcc/arm-none-eabi/4.9.2/../../../../arm-none-eabi/lib\libg.a(lib_a-signal.o) (_getpid_r)
c:/devkitpro/devkitarm/bin/../lib/gcc/arm-none-eabi/4.9.2/../../../../arm-none-eabi/lib\libsysbase.a(isatty.o)
                              c:/devkitpro/devkitarm/bin/../lib/gcc/arm-none-eabi/4.9.2/../../../../arm-none-eabi/lib\libg.a(lib_a-makebuf.o) (_isatty_r)
c:/devkitpro/devkitarm/bin/../lib/gcc/arm-none-eabi/4.9.2/../../../../arm-none-eabi/lib\libsysbase.a(kill.o)
                              c:/devkitpro/devkitarm/bin/../lib/gcc/arm-none-eabi/4.9.2/../../../../arm-none-eabi/lib\libg.a(lib_a-signal.o) (_kill_r)
c:/devkitpro/devkitarm/bin/../lib/gcc/arm-none-eabi/4.9.2/../../../../arm-none-eabi/lib\libsysbase.a(lseek.o)
                              c:/devkitpro/devkitarm/bin/../lib/gcc/arm-none-eabi/4.9.2/../../../../arm-none-eabi/lib\libg.a(lib_a-stdio.o) (_lseek_r)
c:/devkitpro/devkitarm/bin/../lib/gcc/arm-none-eabi/4.9.2/../../../../arm-none-eabi/lib\libsysbase.a(open.o)
                              c:/devkitpro/devkitarm/bin/../lib/gcc/arm-none-eabi/4.9.2/../../../../arm-none-eabi/lib\libg.a(lib_a-fopen.o) (_open_r)
c:/devkitpro/devkitarm/bin/../lib/gcc/arm-none-eabi/4.9.2/../../../../arm-none-eabi/lib\libsysbase.a(read.o)
                              c:/devkitpro/devkitarm/bin/../lib/gcc/arm-none-eabi/4.9.2/../../../../arm-none-eabi/lib\libg.a(lib_a-stdio.o) (_read_r)
c:/devkitpro/devkitarm/bin/../lib/gcc/arm-none-eabi/4.9.2/../../../../arm-none-eabi/lib\libsysbase.a(sbrk.o)
                              c:/devkitpro/devkitarm/bin/../lib/gcc/arm-none-eabi/4.9.2/../../../../arm-none-eabi/lib\libg.a(lib_a-freer.o) (_sbrk_r)
c:/devkitpro/devkitarm/bin/../lib/gcc/arm-none-eabi/4.9.2/../../../../arm-none-eabi/lib\libsysbase.a(stat.o)
                              c:/devkitpro/devkitarm/bin/../lib/gcc/arm-none-eabi/4.9.2/../../../../arm-none-eabi/lib\libg.a(lib_a-sysstat.o) (_stat_r)
c:/devkitpro/devkitarm/bin/../lib/gcc/arm-none-eabi/4.9.2/../../../../arm-none-eabi/lib\libsysbase.a(unlink.o)
                              c:/devkitpro/devkitarm/bin/../lib/gcc/arm-none-eabi/4.9.2/../../../../arm-none-eabi/lib\libg.a(lib_a-remove.o) (_unlink_r)
c:/devkitpro/devkitarm/bin/../lib/gcc/arm-none-eabi/4.9.2/../../../../arm-none-eabi/lib\libsysbase.a(write.o)
                              c:/devkitpro/devkitarm/bin/../lib/gcc/arm-none-eabi/4.9.2/../../../../arm-none-eabi/lib\libg.a(lib_a-stdio.o) (_write_r)
c:/devkitpro/devkitarm/bin/../lib/gcc/arm-none-eabi/4.9.2/../../../../arm-none-eabi/lib\libsysbase.a(_exit.o)
                              c:/devkitpro/devkitarm/bin/../lib/gcc/arm-none-eabi/4.9.2/../../../../arm-none-eabi/lib\libg.a(lib_a-exit.o) (_exit)
c:/devkitpro/devkitarm/bin/../lib/gcc/arm-none-eabi/4.9.2/../../../../arm-none-eabi/lib\libsysbase.a(malloc_vars.o)
                              c:/devkitPro/libctru/lib\libctru.a(initSystem.o) (fake_heap_start)
c:/devkitpro/devkitarm/bin/../lib/gcc/arm-none-eabi/4.9.2/../../../../arm-none-eabi/lib\libsysbase.a(chdir.o)
                              file.o (chdir)
c:/devkitpro/devkitarm/bin/../lib/gcc/arm-none-eabi/4.9.2/../../../../arm-none-eabi/lib\libsysbase.a(syscall_support.o)
                              c:/devkitPro/libctru/lib\libctru.a(initSystem.o) (__syscalls)
c:/devkitpro/devkitarm/bin/../lib/gcc/arm-none-eabi/4.9.2/../../../../arm-none-eabi/lib\libsysbase.a(handle_manager.o)
                              c:/devkitpro/devkitarm/bin/../lib/gcc/arm-none-eabi/4.9.2/../../../../arm-none-eabi/lib\libsysbase.a(close.o) (__release_handle)
c:/devkitpro/devkitarm/bin/../lib/gcc/arm-none-eabi/4.9.2\libgcc.a(_arm_fixunsdfsi.o)
                              c:/devkitpro/devkitarm/bin/../lib/gcc/arm-none-eabi/4.9.2/../../../../arm-none-eabi/lib\libg.a(lib_a-strtod.o) (__aeabi_d2uiz)
c:/devkitpro/devkitarm/bin/../lib/gcc/arm-none-eabi/4.9.2/../../../../arm-none-eabi/lib\libg.a(lib_a-strnlen.o)
                              c:/devkitpro/devkitarm/bin/../lib/gcc/arm-none-eabi/4.9.2/../../../../arm-none-eabi/lib\libsysbase.a(chdir.o) (strnlen)
c:/devkitpro/devkitarm/bin/../lib/gcc/arm-none-eabi/4.9.2/../../../../arm-none-eabi/lib\libg.a(lib_a-strrchr.o)
                              c:/devkitpro/devkitarm/bin/../lib/gcc/arm-none-eabi/4.9.2/../../../../arm-none-eabi/lib\libsysbase.a(chdir.o) (strrchr)

Allocating common symbols
Common symbol       size              file

sidedef             0x4               r_bsp.o
sectors             0x4               p_setup.o
numflats            0x4               r_data.o
pspritescale        0x4               r_things.o
castonmelee         0x4               f_finale.o
timingdemo          0x4               g_game.o
maxdrawsegs         0x4               r_bsp.o
hudcolor_list       0x4               hu_stuff.o
mapcolor_fchg       0x4               am_map.o
hidMemHandle        0x4               c:/devkitPro/libctru/lib\libctru.a(hid.o)
paused              0x4               g_game.o
key_spy             0x4               g_game.o
bmapwidth           0x4               p_setup.o
currentCopy         0x4c              c:/devkitPro/libctru/lib\libctru.a(console.o)
sprites             0x4               r_things.o
whichSkull          0x2               m_menu.o
skytexture          0x4               r_sky.o
totalitems          0x4               g_game.o
debugfile           0x4               d_main.o
centery             0x4               r_main.o
idmusnum            0x4               3ds_sound.o
projection          0x4               r_main.o
snd_Samples         0x4               3ds_mix.o
brain               0x8               p_enemy.o
ceilingplane        0x4               r_plane.o
ammo_yellow         0x4               st_stuff.o
viewcos             0x4               r_main.o
linedef             0x4               r_bsp.o
vertexes            0x4               p_setup.o
aptEventHandlerThread
                    0x4               c:/devkitPro/libctru/lib\libctru.a(apt.o)
fixedcolormap       0x4               r_main.o
default_help_friends
                    0x4               doomstat.o
deathmatch_p        0x4               p_setup.o
dog_jumping         0x4               doomstat.o
key_menu_enter      0x4               g_game.o
openbacksector      0x4               p_maputl.o
key_quicksave       0x4               g_game.o
key_backspace       0x4               g_game.o
castnum             0x4               f_finale.o
mouse_double_click_use
                    0x4               g_game.o
hidHandle           0x4               c:/devkitPro/libctru/lib\libctru.a(hid.o)
tmceilingz          0x4               p_map.o
key_weapontoggle    0x4               g_game.o
wanted_player_number
                    0x4               d_client.o
saveOldString       0x18              m_menu.o
maketic             0x4               d_client.o
startmap            0x4               d_main.o
key_quickload       0x4               g_game.o
zlight              0x4               r_main.o
extralight          0x4               r_main.o
deh_files           0x8               d_main.o
default_monkeys     0x4               doomstat.o
starttime           0x4               g_game.o
gspEventStack       0x1000            c:/devkitPro/libctru/lib\libctru.a(gsp.o)
bmaporgy            0x4               p_setup.o
rng                 0x100             m_random.o
numsides            0x4               p_setup.o
blockmaplump        0x4               p_setup.o
hu_font             0x76c             hu_stuff.o
openbottom          0x4               p_maputl.o
skullAnimCounter    0x2               m_menu.o
gfxBottomFramebuffers
                    0x8               c:/devkitPro/libctru/lib\libctru.a(gfx.o)
activeplats         0x4               p_plats.o
openrange           0x4               p_maputl.o
numbraintargets     0x4               p_enemy.o
rejectmatrix        0x4               p_setup.o
compatibility_level
                    0x1               doomstat.o
textureheight       0x4               r_data.o
trace               0x10              p_maputl.o
key_loadgame        0x4               g_game.o
viewheightfrac      0x4               r_main.o
gspSharedMemHandle  0x4               c:/devkitPro/libctru/lib\libctru.a(gfx.o)
lastopening         0x4               r_plane.o
viewy               0x4               r_main.o
shiftxform          0x4               hu_stuff.o
key_zoomout         0x4               g_game.o
rendered_visplanes  0x4               r_main.o
blockline           0x4               p_map.o
viewangletox        0x4000            r_main.o
finesine            0xa000            tables.o
hud_displayed       0x4               hu_stuff.o
firstflat           0x4               r_data.o
defaultskill        0x4               g_game.o
opentop             0x4               p_maputl.o
__system_argv       0x4               c:/devkitPro/libctru/lib\libctru.a(initSystem.o)
ceilingline         0x4               p_map.o
tantoangle          0x2004            tables.o
key_weapon4         0x4               g_game.o
mapcolor_unsn       0x4               am_map.o
mousebstrafe        0x4               g_game.o
default_translucency
                    0x4               doomstat.o
levelFragLimit      0x4               p_spec.o
mapcolor_rdor       0x4               am_map.o
basesavegame        0x4               d_main.o
armor_red           0x4               st_stuff.o
mapcolor_ykey       0x4               am_map.o
key_menu_left       0x4               g_game.o
frontsector         0x4               r_bsp.o
sts_pct_always_gray
                    0x4               st_lib.o
numvertexes         0x4               p_setup.o
mapcolor_flat       0x4               am_map.o
extended_help_count
                    0x4               m_menu.o
key_hud             0x4               g_game.o
weapon_recoil       0x4               doomstat.o
mapcolor_ydor       0x4               am_map.o
mapcolor_rkey       0x4               am_map.o
myargv              0x4               m_argv.o
usemouse            0x4               m_misc.o
hu_msgbg            0xb4              hu_stuff.o
setsizeneeded       0x4               r_main.o
mapcolor_wall       0x4               am_map.o
general_translucency
                    0x4               doomstat.o
usergame            0x4               g_game.o
quickSaveSlot       0x4               m_menu.o
thinkerclasscap     0x78              p_tick.o
respawnmonsters     0x4               g_game.o
use_fullscreen      0x4               ds_vid.o
xtoviewangle        0x644             r_main.o
screenblocks        0x4               m_menu.o
nomusicparm         0x4               d_main.o
read_e2             0x1               m_menu.o
color_palette_y     0x4               m_menu.o
key_weapon1         0x4               g_game.o
ds_p                0x4               r_bsp.o
setup_screen        0x4               m_menu.o
tmfloorz            0x4               p_map.o
key_use             0x4               g_game.o
viewwidth           0x4               r_draw.o
joybfire            0x4               g_game.o
current_setup_menu  0x4               m_menu.o
iquehead            0x4               p_mobj.o
saveSlot            0x4               m_menu.o
flattranslation     0x4               r_data.o
rendering_stats     0x4               r_main.o
consoleplayer       0x4               g_game.o
hudcolor_titl       0x4               hu_stuff.o
playerstarts        0x28              p_setup.o
attackrange         0x4               p_map.o
health_green        0x4               st_stuff.o
default_videomode   0x4               v_video.o
monster_avoid_hazards
                    0x4               doomstat.o
key_strafeleft      0x4               g_game.o
distscale           0x640             r_plane.o
default_numChannels
                    0x4               3ds_sound.o
gather_buffer       0x6               m_menu.o
flashing_hom        0x4               doomstat.o
mousebuse           0x4               g_game.o
mapcolor_secr       0x4               am_map.o
usething            0x4               p_map.o
hudcolor_mesg       0x4               hu_stuff.o
snd_Speed           0x4               3ds_mix.o
mapcolor_clsd       0x4               am_map.o
ffmap               0x4               d_main.o
shootz              0x4               p_map.o
casttics            0x4               f_finale.o
comp                0x80              doomstat.o
hidSharedMem        0x4               c:/devkitPro/libctru/lib\libctru.a(hid.o)
key_map_grid        0x4               g_game.o
openings            0x4               r_plane.o
mapcolor_cchg       0x4               am_map.o
hud_distributed     0x4               hu_stuff.o
mapcolor_frnd       0x4               am_map.o
newgame_e           0x1               m_menu.o
key_map_down        0x4               g_game.o
floorclip           0x640             r_plane.o
__system_argc       0x4               c:/devkitPro/libctru/lib\libctru.a(initSystem.o)
spryscale           0x4               r_things.o
bottomFramebufferInfo
                    0x1c              c:/devkitPro/libctru/lib\libctru.a(gfx.o)
key_menu_down       0x4               g_game.o
__linear_heap       0x4               c:/devkitPro/libctru/lib\libctru.a(initSystem.o)
hu_fontk            0x76c             hu_stuff.o
nosfxparm           0x4               d_main.o
tmbbox              0x10              p_map.o
mapcolor_item       0x4               am_map.o
c_snd_Buffer_left   0x4               3ds_mix.o
lastspritelump      0x4               r_data.o
clipangle           0x4               r_main.o
soundtime           0x4               3ds_mix.o
players             0x470             g_game.o
numsectors          0x4               p_setup.o
startskill          0x1               d_main.o
key_quit            0x4               g_game.o
aptParameters       0x1000            c:/devkitPro/libctru/lib\libctru.a(apt.o)
key_weapon7         0x4               g_game.o
demover             0x4               g_game.o
demo_insurance      0x4               doomstat.o
messageNeedsInput   0x4               m_menu.o
mult_screens_index  0x4               m_menu.o
default_monster_avoid_hazards
                    0x4               doomstat.o
c_zlight            0x4               r_main.o
chat_index          0x4               m_menu.o
monsters_remember   0x4               doomstat.o
aptEventHandlerStack
                    0x1000            c:/devkitPro/libctru/lib\libctru.a(apt.o)
respawnparm         0x4               d_main.o
clrespawnparm       0x4               d_main.o
projectiony         0x4               r_main.o
default_compatibility_level
                    0x1               doomstat.o
num_deathmatchstarts
                    0x4               p_setup.o
viletryx            0x4               p_enemy.o
aptuHandle          0x4               c:/devkitPro/libctru/lib\libctru.a(apt.o)
extended_help_index
                    0x4               m_menu.o
totalsecret         0x4               g_game.o
screenheightarray   0x640             r_things.o
key_map_up          0x4               g_game.o
acceleratestage     0x4               wi_stuff.o
corpsehit           0x4               p_enemy.o
messy               0x4               m_menu.o
irrstHandle         0x4               c:/devkitPro/libctru/lib\libctru.a(irrst.o)
key_messages        0x4               g_game.o
gamestate           0x1               g_game.o
deathmatchstarts    0x4               p_setup.o
backsector          0x4               r_bsp.o
key_reverse         0x4               g_game.o
castattacking       0x4               f_finale.o
deh_soundnames      0x1cc             d_deh.o
key_endgame         0x4               g_game.o
fullcolormap        0x4               r_main.o
default_monsters_remember
                    0x4               doomstat.o
netgame             0x4               g_game.o
aptEvents           0xc               c:/devkitPro/libctru/lib\libctru.a(apt.o)
bodyquesize         0x4               g_game.o
gspEventThread      0x4               c:/devkitPro/libctru/lib\libctru.a(gsp.o)
viewsin             0x4               r_main.o
automapmode         0x1               am_map.o
lastflat            0x4               r_data.o
default_dogs        0x4               doomstat.o
totallive           0x4               g_game.o
mceilingclip        0x4               r_things.o
key_setup           0x4               g_game.o
key_straferight     0x4               g_game.o
episodes_e          0x1               m_menu.o
centerx             0x4               r_main.o
gspEvent            0x4               c:/devkitPro/libctru/lib\libctru.a(gfx.o)
singledemo          0x4               g_game.o
key_map_follow      0x4               g_game.o
colrngs             0x2c              v_video.o
openfrontsector     0x4               p_maputl.o
desired_fullscreen  0x4               ds_vid.o
hidEvents           0x14              c:/devkitPro/libctru/lib\libctru.a(hid.o)
netcmds             0x180             d_client.o
wminfo              0xcc              g_game.o
gather_count        0x4               m_menu.o
messageRoutine      0x4               m_menu.o
__system_retAddr    0x4               c:/devkitPro/libctru/lib\libctru.a(initSystem.o)
joybspeed           0x4               g_game.o
default_variable_friction
                    0x4               doomstat.o
doom_weapon_toggles
                    0x4               doomstat.o
linetarget          0x4               p_map.o
bmaporgx            0x4               p_setup.o
paintbuffer         0x1000            3ds_mix.o
playernumtotrans    0x4               r_draw.o
mapcolor_enemy      0x4               am_map.o
load_e              0x1               m_menu.o
chat_on             0x4               hu_stuff.o
main_tranmap        0x4               r_draw.o
filter_roundedUVMap
                    0x1000            r_filter.o
texturetranslation  0x4               r_data.o
noblit              0x4               g_game.o
messageLastMenuActive
                    0x4               m_menu.o
hud_list_bgon       0x4               hu_stuff.o
key_menu_right      0x4               g_game.o
caststate           0x4               f_finale.o
MLtime              0x4               musplay.o
mouseSensitivity_horiz
                    0x4               m_menu.o
viewimage           0x4               r_draw.o
subsectors          0x4               p_setup.o
irrstEvent          0x4               c:/devkitPro/libctru/lib\libctru.a(irrst.o)
segs                0x4               p_setup.o
mapcolor_hair       0x4               am_map.o
mouseSensitivity_vert
                    0x4               m_menu.o
pspriteyscale       0x4               r_things.o
deh_musicnames      0x114             d_deh.o
currentMenu         0x4               m_menu.o
numtextures         0x4               r_data.o
default_player_bobbing
                    0x4               doomstat.o
nomonsters          0x4               d_main.o
key_map_clear       0x4               g_game.o
numsegs             0x4               p_setup.o
mousebfire          0x4               g_game.o
key_map_right       0x4               g_game.o
firstcolormaplump   0x4               r_data.o
numdefaults         0x4               m_misc.o
clnomonsters        0x4               d_main.o
modifiedgame        0x4               doomstat.o
print_warning_about_changes
                    0x4               m_menu.o
help_e              0x1               m_menu.o
key_weapon9         0x4               g_game.o
firstspritelump     0x4               r_data.o
devparm             0x4               d_main.o
iquetail            0x4               p_mobj.o
paintedtime         0x4               3ds_mix.o
gspEventCounts      0x1c              c:/devkitPro/libctru/lib\libctru.a(gsp.o)
numsprites          0x4               r_things.o
key_soundvolume     0x4               g_game.o
menuactive          0x1               m_menu.o
key_weapon3         0x4               g_game.o
irrstMemHandle      0x4               c:/devkitPro/libctru/lib\libctru.a(irrst.o)
key_enter           0x4               g_game.o
WasRenderedInTryRunTics
                    0x4               r_fps.o
tic_vars            0x14              r_fps.o
mouse_e             0x1               m_menu.o
ms_to_next_tick     0x4               ds_sys.o
c_snd_Buffer_right  0x4               3ds_mix.o
lumpinfo            0x4               w_wad.o
default_allow_pushers
                    0x4               doomstat.o
mus_pause_opt       0x4               m_misc.o
demoplayback        0x4               g_game.o
default_demo_insurance
                    0x4               doomstat.o
pspriteiscale       0x4               r_things.o
tmdropoffz          0x4               p_map.o
totalkills          0x4               g_game.o
monster_backing     0x4               doomstat.o
gameskill           0x1               g_game.o
playeringame        0x10              g_game.o
bmapheight          0x4               p_setup.o
mapcolor_sngl       0x4               am_map.o
key_zoomin          0x4               g_game.o
numlines            0x4               p_setup.o
viewplayer          0x4               r_main.o
translationtables   0x4               r_draw.o
sprtopscreen        0x4               r_things.o
monkeys             0x4               doomstat.o
generic_setup_e     0x1               m_menu.o
gameepisode         0x4               g_game.o
main_e              0x1               m_menu.o
viewz               0x4               r_main.o
hud_nosecrets       0x4               hu_stuff.o
screens             0xa8              v_video.o
key_map             0x4               g_game.o
joybstrafe          0x4               g_game.o
mfloorclip          0x4               r_things.o
default_dog_jumping
                    0x4               doomstat.o
destination_keys    0x10              g_game.o
key_fire            0x4               g_game.o
key_menu_escape     0x4               g_game.o
gfxTopLeftFramebuffers
                    0x8               c:/devkitPro/libctru/lib\libctru.a(gfx.o)
palette_background  0x88              m_menu.o
key_menu_up         0x4               g_game.o
gametic             0x4               g_game.o
lastcolormaplump    0x4               r_data.o
nodes               0x4               p_setup.o
numcolormaps        0x4               r_main.o
solidcol            0x190             r_bsp.o
textures            0x4               r_data.o
armor_yellow        0x4               st_stuff.o
rendered_vissprites
                    0x4               r_main.o
joybuse             0x4               g_game.o
numnodes            0x4               p_setup.o
key_weapon8         0x4               g_game.o
key_savegame        0x4               g_game.o
key_right           0x4               g_game.o
default_monster_backing
                    0x4               doomstat.o
key_map_overlay     0x4               g_game.o
key_autorun         0x4               g_game.o
rw_normalangle      0x4               r_segs.o
fastparm            0x4               d_main.o
skyflatnum          0x4               r_sky.o
curline             0x4               r_bsp.o
read_e              0x1               m_menu.o
viewheight          0x4               r_draw.o
colormaps           0x4               r_main.o
tranmap             0x4               r_draw.o
hud_msg_lines       0x4               hu_stuff.o
pal3ds              0x300             ds_vid.o
viewangleoffset     0x4               r_main.o
key_map_mark        0x4               g_game.o
fastdemo            0x4               g_game.o
felldown            0x4               p_map.o
sound_e             0x1               m_menu.o
numspechit          0x4               p_map.o
setblocks           0x4               r_main.o
setup_e             0x1               m_menu.o
health_yellow       0x4               st_stuff.o
gfxTopRightFramebuffers
                    0x8               c:/devkitPro/libctru/lib\libctru.a(gfx.o)
color_palette_x     0x4               m_menu.o
onground            0x4               p_user.o
default_comp        0x80              doomstat.o
viletryy            0x4               p_enemy.o
options_e           0x1               m_menu.o
vileobj             0x4               p_enemy.o
clfastparm          0x4               d_main.o
demorecording       0x4               g_game.o
health_red          0x4               st_stuff.o
totalleveltimes     0x4               g_game.o
key_menu_backspace  0x4               g_game.o
map_point_coordinates
                    0x4               m_misc.o
nodrawers           0x4               g_game.o
messx               0x4               m_menu.o
screenSize          0x4               m_menu.o
topFramebufferInfo  0x1c              c:/devkitPro/libctru/lib\libctru.a(gfx.o)
ceilingclip         0x640             r_plane.o
mapcolor_sprt       0x4               am_map.o
myargc              0x4               m_argv.o
mapcolor_grid       0x4               am_map.o
deathmatch          0x4               g_game.o
key_map_zoomout     0x4               g_game.o
rw_distance         0x4               r_segs.o
displayplayer       0x4               g_game.o
mapcolor_bkey       0x4               am_map.o
rendered_segs       0x4               r_main.o
finetangent         0x4000            tables.o
gspEvents           0x1c              c:/devkitPro/libctru/lib\libctru.a(gsp.o)
S_music_files       0x110             3ds_sound.o
key_map_left        0x4               g_game.o
pitched_sounds      0x4               doomstat.o
saveStringEnter     0x4               m_menu.o
key_weapon2         0x4               g_game.o
autostart           0x4               d_main.o
sts_traditional_keys
                    0x4               st_stuff.o
gfxThreadID         0x1               c:/devkitPro/libctru/lib\libctru.a(gfx.o)
scaledviewwidth     0x4               r_draw.o
centeryfrac         0x4               r_main.o
default_weapon_recoil
                    0x4               doomstat.o
advancedemo         0x4               d_main.o
key_left            0x4               g_game.o
floatok             0x4               p_map.o
doomcom             0x4               d_client.o
yslope              0x3c0             r_plane.o
itemOn              0x2               m_menu.o
drawsegs            0x4               r_bsp.o
key_strafe          0x4               g_game.o
gfxSharedMemory     0x4               c:/devkitPro/libctru/lib\libctru.a(gfx.o)
key_chat            0x4               g_game.o
longtics            0x4               g_game.o
specials_e          0x1               p_saveg.o
floorline           0x4               p_map.o
gspRunEvents        0x1               c:/devkitPro/libctru/lib\libctru.a(gsp.o)
sides               0x4               p_setup.o
key_pause           0x4               g_game.o
blockmap            0x4               p_setup.o
map_secret_after    0x4               am_map.o
key_map_gobig       0x4               g_game.o
key_down            0x4               g_game.o
save_p              0x4               p_saveg.o
hudcolor_xyco       0x4               hu_stuff.o
key_up              0x4               g_game.o
saveCharIndex       0x4               m_menu.o
castframes          0x4               f_finale.o
nodes_zdbsp         0x4               p_setup.o
blocklinks          0x4               p_setup.o
skytexturemid       0x4               r_sky.o
viewangle           0x4               r_main.o
dogs                0x4               doomstat.o
numbraintargets_alloc
                    0x4               p_enemy.o
epi                 0x4               m_menu.o
leveltime           0x4               p_tick.o
mousebforward       0x4               g_game.o
la_damage           0x4               p_map.o
startepisode        0x4               d_main.o
gamemap             0x4               g_game.o
sts_always_red      0x4               st_lib.o
negonearray         0x640             r_things.o
tempstring          0x50              m_menu.o
buttonlist          0x140             p_switch.o
tmpusher            0x4               p_spec.o
chat_string_buffer  0x4               m_menu.o
viewx               0x4               r_main.o
hu_font2            0x76c             hu_stuff.o
activeceilings      0x4               p_ceilng.o
mapcolor_tele       0x4               am_map.o
irrstSharedMem      0x4               c:/devkitPro/libctru/lib\libctru.a(irrst.o)
maxopenings         0x4               r_plane.o
gameaction          0x1               g_game.o
mousebbackward      0x4               g_game.o
wad_files           0x8               d_main.o
aptStatusMutex      0x4               c:/devkitPro/libctru/lib\libctru.a(apt.o)
lowfloor            0x4               p_maputl.o
rw_angle1           0x4               r_segs.o
key_weapon5         0x4               g_game.o
mapcolor_exit       0x4               am_map.o
usegamma            0x4               v_video.o
key_weapon6         0x4               g_game.o
centerxfrac         0x4               r_main.o
message_dontfuckwithme
                    0x4               hu_stuff.o
levelFragLimitCount
                    0x4               p_spec.o
mapcolor_bdor       0x4               am_map.o
castdeath           0x4               f_finale.o
armor_green         0x4               st_stuff.o
warning_about_changes
                    0x4               m_menu.o
savegamestrings     0xf0              m_menu.o
spechit             0x4               p_map.o
player_bobbing      0x4               doomstat.o
inhelpscreens       0x4               m_menu.o
viewwindowy         0x4               r_draw.o
gxCmdBuf            0x4               c:/devkitPro/libctru/lib\libctru.a(gx.o)
key_gamma           0x4               g_game.o
mapcolor_back       0x4               am_map.o
nodes_glbsp         0x4               p_setup.o
deh_spritenames     0x234             d_deh.o
showMessages        0x4               m_menu.o
messageToPrint      0x4               m_menu.o
ammo_red            0x4               st_stuff.o
hud_active          0x4               hu_stuff.o
aptLockHandle       0x4               c:/devkitPro/libctru/lib\libctru.a(apt.o)
key_map_zoomin      0x4               g_game.o
savedescription     0x20              g_game.o
desired_screenheight
                    0x4               d_main.o
numsubsectors       0x4               p_setup.o
braintargets        0x4               p_enemy.o
chat_char           0x1               hu_stuff.o
key_screenshot      0x4               g_game.o
original_view_vars  0x14              r_fps.o
basetic             0x4               g_game.o
mapcolor_me         0x4               m_menu.o
filter_roundedRowMap
                    0x40              r_filter.o
numspritelumps      0x4               r_data.o
key_speed           0x4               g_game.o
hudcolor_chat       0x4               hu_stuff.o
viewwindowx         0x4               r_draw.o
desired_screenwidth
                    0x4               d_main.o
key_map_rotate      0x4               g_game.o
currentAppId        0x2               c:/devkitPro/libctru/lib\libctru.a(apt.o)
lines               0x4               p_setup.o
help_friends        0x4               doomstat.o
floorplane          0x4               r_plane.o
bodyqueslot         0x4               g_game.o

Discarded input sections

 .comment       0x00000000       0x23 c:/devkitpro/devkitarm/bin/../lib/gcc/arm-none-eabi/4.9.2/crtbegin.o
 .comment       0x00000000       0x23 am_map.o
 .comment       0x00000000       0x23 d_client.o
 .comment       0x00000000       0x23 d_deh.o
 .comment       0x00000000       0x23 d_items.o
 .comment       0x00000000       0x23 d_main.o
 .comment       0x00000000       0x23 doomdef.o
 .comment       0x00000000       0x23 doomstat.o
 .comment       0x00000000       0x23 dstrings.o
 .comment       0x00000000       0x23 f_finale.o
 .comment       0x00000000       0x23 f_wipe.o
 .comment       0x00000000       0x23 g_game.o
 .comment       0x00000000       0x23 hu_lib.o
 .comment       0x00000000       0x23 hu_stuff.o
 .comment       0x00000000       0x23 info.o
 .comment       0x00000000       0x23 lprintf.o
 .comment       0x00000000       0x23 m_argv.o
 .comment       0x00000000       0x23 m_bbox.o
 .comment       0x00000000       0x23 m_cheat.o
 .comment       0x00000000       0x23 m_menu.o
 .comment       0x00000000       0x23 m_misc.o
 .comment       0x00000000       0x23 m_random.o
 .comment       0x00000000       0x23 md5.o
 .comment       0x00000000       0x23 p_ceilng.o
 .comment       0x00000000       0x23 p_checksum.o
 .comment       0x00000000       0x23 p_doors.o
 .comment       0x00000000       0x23 p_enemy.o
 .comment       0x00000000       0x23 p_floor.o
 .comment       0x00000000       0x23 p_genlin.o
 .comment       0x00000000       0x23 p_inter.o
 .comment       0x00000000       0x23 p_lights.o
 .comment       0x00000000       0x23 p_map.o
 .comment       0x00000000       0x23 p_maputl.o
 .comment       0x00000000       0x23 p_mobj.o
 .comment       0x00000000       0x23 p_plats.o
 .comment       0x00000000       0x23 p_pspr.o
 .comment       0x00000000       0x23 p_saveg.o
 .comment       0x00000000       0x23 p_setup.o
 .comment       0x00000000       0x23 p_sight.o
 .comment       0x00000000       0x23 p_spec.o
 .comment       0x00000000       0x23 p_switch.o
 .comment       0x00000000       0x23 p_telept.o
 .comment       0x00000000       0x23 p_tick.o
 .comment       0x00000000       0x23 p_user.o
 .comment       0x00000000       0x23 r_bsp.o
 .comment       0x00000000       0x23 r_data.o
 .comment       0x00000000       0x23 r_demo.o
 .comment       0x00000000       0x23 r_draw.o
 .comment       0x00000000       0x23 r_filter.o
 .comment       0x00000000       0x23 r_fps.o
 .comment       0x00000000       0x23 r_main.o
 .comment       0x00000000       0x23 r_patch.o
 .comment       0x00000000       0x23 r_plane.o
 .comment       0x00000000       0x23 r_segs.o
 .comment       0x00000000       0x23 r_sky.o
 .comment       0x00000000       0x23 r_things.o
 .comment       0x00000000       0x23 sounds.o
 .comment       0x00000000       0x23 st_lib.o
 .comment       0x00000000       0x23 st_stuff.o
 .comment       0x00000000       0x23 tables.o
 .comment       0x00000000       0x23 v_video.o
 .comment       0x00000000       0x23 version.o
 .comment       0x00000000       0x23 w_memcache.o
 .comment       0x00000000       0x23 w_wad.o
 .comment       0x00000000       0x23 wi_stuff.o
 .comment       0x00000000       0x23 z_bmalloc.o
 .comment       0x00000000       0x23 z_zone.o
 .comment       0x00000000       0x23 ds_main.o
 .comment       0x00000000       0x23 ds_render.o
 .comment       0x00000000       0x23 ds_sys.o
 .comment       0x00000000       0x23 ds_textures.o
 .comment       0x00000000       0x23 ds_vid.o
 .comment       0x00000000       0x23 ds_vram.o
 .comment       0x00000000       0x23 geometry.o
 .comment       0x00000000       0x23 musplay.o
 .comment       0x00000000       0x23 polylib.o
 .comment       0x00000000       0x23 3ds_mix.o
 .comment       0x00000000       0x23 3ds_sound.o
 .comment       0x00000000       0x23 console.o
 .comment       0x00000000       0x23 file.o
 .comment       0x00000000       0x23 c:/devkitPro/libctru/lib\libctru.a(linear.o)
 .comment       0x00000000       0x23 c:/devkitPro/libctru/lib\libctru.a(mem_pool.o)
 .comment       0x00000000       0x23 c:/devkitPro/libctru/lib\libctru.a(console.o)
 .comment       0x00000000       0x23 c:/devkitPro/libctru/lib\libctru.a(gfx.o)
 .comment       0x00000000       0x23 c:/devkitPro/libctru/lib\libctru.a(initSystem.o)
 .comment       0x00000000       0x23 c:/devkitPro/libctru/lib\libctru.a(os.o)
 .comment       0x00000000       0x23 c:/devkitPro/libctru/lib\libctru.a(srv.o)
 .comment       0x00000000       0x23 c:/devkitPro/libctru/lib\libctru.a(apt.o)
 .comment       0x00000000       0x23 c:/devkitPro/libctru/lib\libctru.a(csnd.o)
 .comment       0x00000000       0x23 c:/devkitPro/libctru/lib\libctru.a(fs.o)
 .comment       0x00000000       0x23 c:/devkitPro/libctru/lib\libctru.a(gsp.o)
 .comment       0x00000000       0x23 c:/devkitPro/libctru/lib\libctru.a(gx.o)
 .comment       0x00000000       0x23 c:/devkitPro/libctru/lib\libctru.a(hid.o)
 .comment       0x00000000       0x23 c:/devkitPro/libctru/lib\libctru.a(irrst.o)
 .comment       0x00000000       0x23 c:/devkitPro/libctru/lib\libctru.a(rbtree_find.o)
 .comment       0x00000000       0x23 c:/devkitPro/libctru/lib\libctru.a(rbtree_init.o)
 .comment       0x00000000       0x23 c:/devkitPro/libctru/lib\libctru.a(rbtree_insert.o)
 .comment       0x00000000       0x23 c:/devkitPro/libctru/lib\libctru.a(rbtree_remove.o)
 .comment       0x00000000       0x23 c:/devkitPro/libctru/lib\libctru.a(rbtree_rotate.o)
 .comment       0x00000000       0x23 c:/devkitPro/libctru/lib\libctru.a(rbtree_iterator.o)
 .comment       0x00000000       0x23 c:/devkitpro/devkitarm/bin/../lib/gcc/arm-none-eabi/4.9.2/../../../../arm-none-eabi/lib\libm.a(lib_a-w_atan2.o)
 .comment       0x00000000       0x23 c:/devkitpro/devkitarm/bin/../lib/gcc/arm-none-eabi/4.9.2/../../../../arm-none-eabi/lib\libm.a(lib_a-w_sqrt.o)
 .comment       0x00000000       0x23 c:/devkitpro/devkitarm/bin/../lib/gcc/arm-none-eabi/4.9.2/../../../../arm-none-eabi/lib\libm.a(lib_a-e_atan2.o)
 .comment       0x00000000       0x23 c:/devkitpro/devkitarm/bin/../lib/gcc/arm-none-eabi/4.9.2/../../../../arm-none-eabi/lib\libm.a(lib_a-e_sqrt.o)
 .comment       0x00000000       0x23 c:/devkitpro/devkitarm/bin/../lib/gcc/arm-none-eabi/4.9.2/../../../../arm-none-eabi/lib\libm.a(lib_a-s_atan.o)
 .comment       0x00000000       0x23 c:/devkitpro/devkitarm/bin/../lib/gcc/arm-none-eabi/4.9.2/../../../../arm-none-eabi/lib\libm.a(lib_a-s_fabs.o)
 .comment       0x00000000       0x23 c:/devkitpro/devkitarm/bin/../lib/gcc/arm-none-eabi/4.9.2/../../../../arm-none-eabi/lib\libm.a(lib_a-s_fpclassify.o)
 .comment       0x00000000       0x23 c:/devkitpro/devkitarm/bin/../lib/gcc/arm-none-eabi/4.9.2/../../../../arm-none-eabi/lib\libm.a(lib_a-s_lib_ver.o)
 .comment       0x00000000       0x23 c:/devkitpro/devkitarm/bin/../lib/gcc/arm-none-eabi/4.9.2/../../../../arm-none-eabi/lib\libm.a(lib_a-s_matherr.o)
 .comment       0x00000000       0x23 c:/devkitpro/devkitarm/bin/../lib/gcc/arm-none-eabi/4.9.2\libgcc.a(bpabi.o)
 .comment       0x00000000       0x23 c:/devkitpro/devkitarm/bin/../lib/gcc/arm-none-eabi/4.9.2\libgcc.a(_divdi3.o)
 .comment       0x00000000       0x23 c:/devkitpro/devkitarm/bin/../lib/gcc/arm-none-eabi/4.9.2\libgcc.a(_udivdi3.o)
 .comment       0x00000000       0x23 c:/devkitpro/devkitarm/bin/../lib/gcc/arm-none-eabi/4.9.2/../../../../arm-none-eabi/lib\libg.a(lib_a-access.o)
 .comment       0x00000000       0x23 c:/devkitpro/devkitarm/bin/../lib/gcc/arm-none-eabi/4.9.2/../../../../arm-none-eabi/lib\libg.a(lib_a-assert.o)
 .comment       0x00000000       0x23 c:/devkitpro/devkitarm/bin/../lib/gcc/arm-none-eabi/4.9.2/../../../../arm-none-eabi/lib\libg.a(lib_a-atexit.o)
 .comment       0x00000000       0x23 c:/devkitpro/devkitarm/bin/../lib/gcc/arm-none-eabi/4.9.2/../../../../arm-none-eabi/lib\libg.a(lib_a-atoi.o)
 .comment       0x00000000       0x23 c:/devkitpro/devkitarm/bin/../lib/gcc/arm-none-eabi/4.9.2/../../../../arm-none-eabi/lib\libg.a(lib_a-ctype_.o)
 .comment       0x00000000       0x23 c:/devkitpro/devkitarm/bin/../lib/gcc/arm-none-eabi/4.9.2/../../../../arm-none-eabi/lib\libg.a(lib_a-errno.o)
 .comment       0x00000000       0x23 c:/devkitpro/devkitarm/bin/../lib/gcc/arm-none-eabi/4.9.2/../../../../arm-none-eabi/lib\libg.a(lib_a-exit.o)
 .comment       0x00000000       0x23 c:/devkitpro/devkitarm/bin/../lib/gcc/arm-none-eabi/4.9.2/../../../../arm-none-eabi/lib\libg.a(lib_a-fclose.o)
 .comment       0x00000000       0x23 c:/devkitpro/devkitarm/bin/../lib/gcc/arm-none-eabi/4.9.2/../../../../arm-none-eabi/lib\libg.a(lib_a-fflush.o)
 .comment       0x00000000       0x23 c:/devkitpro/devkitarm/bin/../lib/gcc/arm-none-eabi/4.9.2/../../../../arm-none-eabi/lib\libg.a(lib_a-fgetc.o)
 .comment       0x00000000       0x23 c:/devkitpro/devkitarm/bin/../lib/gcc/arm-none-eabi/4.9.2/../../../../arm-none-eabi/lib\libg.a(lib_a-fgets.o)
 .comment       0x00000000       0x23 c:/devkitpro/devkitarm/bin/../lib/gcc/arm-none-eabi/4.9.2/../../../../arm-none-eabi/lib\libg.a(lib_a-findfp.o)
 .comment       0x00000000       0x23 c:/devkitpro/devkitarm/bin/../lib/gcc/arm-none-eabi/4.9.2/../../../../arm-none-eabi/lib\libg.a(lib_a-fini.o)
 .comment       0x00000000       0x23 c:/devkitpro/devkitarm/bin/../lib/gcc/arm-none-eabi/4.9.2/../../../../arm-none-eabi/lib\libg.a(lib_a-fiprintf.o)
 .comment       0x00000000       0x23 c:/devkitpro/devkitarm/bin/../lib/gcc/arm-none-eabi/4.9.2/../../../../arm-none-eabi/lib\libg.a(lib_a-fopen.o)
 .comment       0x00000000       0x23 c:/devkitpro/devkitarm/bin/../lib/gcc/arm-none-eabi/4.9.2/../../../../arm-none-eabi/lib\libg.a(lib_a-fprintf.o)
 .comment       0x00000000       0x23 c:/devkitpro/devkitarm/bin/../lib/gcc/arm-none-eabi/4.9.2/../../../../arm-none-eabi/lib\libg.a(lib_a-fputc.o)
 .comment       0x00000000       0x23 c:/devkitpro/devkitarm/bin/../lib/gcc/arm-none-eabi/4.9.2/../../../../arm-none-eabi/lib\libg.a(lib_a-fread.o)
 .comment       0x00000000       0x23 c:/devkitpro/devkitarm/bin/../lib/gcc/arm-none-eabi/4.9.2/../../../../arm-none-eabi/lib\libg.a(lib_a-freer.o)
 .comment       0x00000000       0x23 c:/devkitpro/devkitarm/bin/../lib/gcc/arm-none-eabi/4.9.2/../../../../arm-none-eabi/lib\libg.a(lib_a-fscanf.o)
 .comment       0x00000000       0x23 c:/devkitpro/devkitarm/bin/../lib/gcc/arm-none-eabi/4.9.2/../../../../arm-none-eabi/lib\libg.a(lib_a-fseek.o)
 .comment       0x00000000       0x23 c:/devkitpro/devkitarm/bin/../lib/gcc/arm-none-eabi/4.9.2/../../../../arm-none-eabi/lib\libg.a(lib_a-fseeko.o)
 .comment       0x00000000       0x23 c:/devkitpro/devkitarm/bin/../lib/gcc/arm-none-eabi/4.9.2/../../../../arm-none-eabi/lib\libg.a(lib_a-ftell.o)
 .comment       0x00000000       0x23 c:/devkitpro/devkitarm/bin/../lib/gcc/arm-none-eabi/4.9.2/../../../../arm-none-eabi/lib\libg.a(lib_a-ftello.o)
 .comment       0x00000000       0x23 c:/devkitpro/devkitarm/bin/../lib/gcc/arm-none-eabi/4.9.2/../../../../arm-none-eabi/lib\libg.a(lib_a-fwalk.o)
 .comment       0x00000000       0x23 c:/devkitpro/devkitarm/bin/../lib/gcc/arm-none-eabi/4.9.2/../../../../arm-none-eabi/lib\libg.a(lib_a-fwrite.o)
 .comment       0x00000000       0x23 c:/devkitpro/devkitarm/bin/../lib/gcc/arm-none-eabi/4.9.2/../../../../arm-none-eabi/lib\libg.a(lib_a-getenv.o)
 .comment       0x00000000       0x23 c:/devkitpro/devkitarm/bin/../lib/gcc/arm-none-eabi/4.9.2/../../../../arm-none-eabi/lib\libg.a(lib_a-getenv_r.o)
 .comment       0x00000000       0x23 c:/devkitpro/devkitarm/bin/../lib/gcc/arm-none-eabi/4.9.2/../../../../arm-none-eabi/lib\libg.a(lib_a-impure.o)
 .comment       0x00000000       0x23 c:/devkitpro/devkitarm/bin/../lib/gcc/arm-none-eabi/4.9.2/../../../../arm-none-eabi/lib\libg.a(lib_a-init.o)
 .comment       0x00000000       0x23 c:/devkitpro/devkitarm/bin/../lib/gcc/arm-none-eabi/4.9.2/../../../../arm-none-eabi/lib\libg.a(lib_a-iprintf.o)
 .comment       0x00000000       0x23 c:/devkitpro/devkitarm/bin/../lib/gcc/arm-none-eabi/4.9.2/../../../../arm-none-eabi/lib\libg.a(lib_a-makebuf.o)
 .comment       0x00000000       0x23 c:/devkitpro/devkitarm/bin/../lib/gcc/arm-none-eabi/4.9.2/../../../../arm-none-eabi/lib\libg.a(lib_a-malloc.o)
 .comment       0x00000000       0x23 c:/devkitpro/devkitarm/bin/../lib/gcc/arm-none-eabi/4.9.2/../../../../arm-none-eabi/lib\libg.a(lib_a-mallocr.o)
 .comment       0x00000000       0x23 c:/devkitpro/devkitarm/bin/../lib/gcc/arm-none-eabi/4.9.2/../../../../arm-none-eabi/lib\libg.a(lib_a-memchr-stub.o)
 .comment       0x00000000       0x23 c:/devkitpro/devkitarm/bin/../lib/gcc/arm-none-eabi/4.9.2/../../../../arm-none-eabi/lib\libg.a(lib_a-memcmp.o)
 .comment       0x00000000       0x23 c:/devkitpro/devkitarm/bin/../lib/gcc/arm-none-eabi/4.9.2/../../../../arm-none-eabi/lib\libg.a(lib_a-memcpy-stub.o)
 .comment       0x00000000       0x23 c:/devkitpro/devkitarm/bin/../lib/gcc/arm-none-eabi/4.9.2/../../../../arm-none-eabi/lib\libg.a(lib_a-memmove.o)
 .comment       0x00000000       0x23 c:/devkitpro/devkitarm/bin/../lib/gcc/arm-none-eabi/4.9.2/../../../../arm-none-eabi/lib\libg.a(lib_a-memset.o)
 .comment       0x00000000       0x23 c:/devkitpro/devkitarm/bin/../lib/gcc/arm-none-eabi/4.9.2/../../../../arm-none-eabi/lib\libg.a(lib_a-mlock.o)
 .comment       0x00000000       0x23 c:/devkitpro/devkitarm/bin/../lib/gcc/arm-none-eabi/4.9.2/../../../../arm-none-eabi/lib\libg.a(lib_a-printf.o)
 .comment       0x00000000       0x23 c:/devkitpro/devkitarm/bin/../lib/gcc/arm-none-eabi/4.9.2/../../../../arm-none-eabi/lib\libg.a(lib_a-putc.o)
 .comment       0x00000000       0x23 c:/devkitpro/devkitarm/bin/../lib/gcc/arm-none-eabi/4.9.2/../../../../arm-none-eabi/lib\libg.a(lib_a-puts.o)
 .comment       0x00000000       0x23 c:/devkitpro/devkitarm/bin/../lib/gcc/arm-none-eabi/4.9.2/../../../../arm-none-eabi/lib\libg.a(lib_a-rand.o)
 .comment       0x00000000       0x23 c:/devkitpro/devkitarm/bin/../lib/gcc/arm-none-eabi/4.9.2/../../../../arm-none-eabi/lib\libg.a(lib_a-realloc.o)
 .comment       0x00000000       0x23 c:/devkitpro/devkitarm/bin/../lib/gcc/arm-none-eabi/4.9.2/../../../../arm-none-eabi/lib\libg.a(lib_a-reallocr.o)
 .comment       0x00000000       0x23 c:/devkitpro/devkitarm/bin/../lib/gcc/arm-none-eabi/4.9.2/../../../../arm-none-eabi/lib\libg.a(lib_a-refill.o)
 .comment       0x00000000       0x23 c:/devkitpro/devkitarm/bin/../lib/gcc/arm-none-eabi/4.9.2/../../../../arm-none-eabi/lib\libg.a(lib_a-remove.o)
 .comment       0x00000000       0x23 c:/devkitpro/devkitarm/bin/../lib/gcc/arm-none-eabi/4.9.2/../../../../arm-none-eabi/lib\libg.a(lib_a-rget.o)
 .comment       0x00000000       0x23 c:/devkitpro/devkitarm/bin/../lib/gcc/arm-none-eabi/4.9.2/../../../../arm-none-eabi/lib\libg.a(lib_a-setbuf.o)
 .comment       0x00000000       0x23 c:/devkitpro/devkitarm/bin/../lib/gcc/arm-none-eabi/4.9.2/../../../../arm-none-eabi/lib\libg.a(lib_a-setvbuf.o)
 .comment       0x00000000       0x23 c:/devkitpro/devkitarm/bin/../lib/gcc/arm-none-eabi/4.9.2/../../../../arm-none-eabi/lib\libg.a(lib_a-sprintf.o)
 .comment       0x00000000       0x23 c:/devkitpro/devkitarm/bin/../lib/gcc/arm-none-eabi/4.9.2/../../../../arm-none-eabi/lib\libg.a(lib_a-sscanf.o)
 .comment       0x00000000       0x23 c:/devkitpro/devkitarm/bin/../lib/gcc/arm-none-eabi/4.9.2/../../../../arm-none-eabi/lib\libg.a(lib_a-stdio.o)
 .comment       0x00000000       0x23 c:/devkitpro/devkitarm/bin/../lib/gcc/arm-none-eabi/4.9.2/../../../../arm-none-eabi/lib\libg.a(lib_a-strcasecmp.o)
 .comment       0x00000000       0x23 c:/devkitpro/devkitarm/bin/../lib/gcc/arm-none-eabi/4.9.2/../../../../arm-none-eabi/lib\libg.a(lib_a-strcat.o)
 .comment       0x00000000       0x23 c:/devkitpro/devkitarm/bin/../lib/gcc/arm-none-eabi/4.9.2/../../../../arm-none-eabi/lib\libg.a(lib_a-strchr.o)
 .comment       0x00000000       0x23 c:/devkitpro/devkitarm/bin/../lib/gcc/arm-none-eabi/4.9.2/../../../../arm-none-eabi/lib\libg.a(lib_a-strcpy.o)
 .comment       0x00000000       0x23 c:/devkitpro/devkitarm/bin/../lib/gcc/arm-none-eabi/4.9.2/../../../../arm-none-eabi/lib\libg.a(lib_a-strerror.o)
 .comment       0x00000000       0x23 c:/devkitpro/devkitarm/bin/../lib/gcc/arm-none-eabi/4.9.2/../../../../arm-none-eabi/lib\libg.a(lib_a-strlen.o)
 .comment       0x00000000       0x23 c:/devkitpro/devkitarm/bin/../lib/gcc/arm-none-eabi/4.9.2/../../../../arm-none-eabi/lib\libg.a(lib_a-strlwr.o)
 .comment       0x00000000       0x23 c:/devkitpro/devkitarm/bin/../lib/gcc/arm-none-eabi/4.9.2/../../../../arm-none-eabi/lib\libg.a(lib_a-strncasecmp.o)
 .comment       0x00000000       0x23 c:/devkitpro/devkitarm/bin/../lib/gcc/arm-none-eabi/4.9.2/../../../../arm-none-eabi/lib\libg.a(lib_a-strncmp.o)
 .comment       0x00000000       0x23 c:/devkitpro/devkitarm/bin/../lib/gcc/arm-none-eabi/4.9.2/../../../../arm-none-eabi/lib\libg.a(lib_a-strncpy.o)
 .comment       0x00000000       0x23 c:/devkitpro/devkitarm/bin/../lib/gcc/arm-none-eabi/4.9.2/../../../../arm-none-eabi/lib\libg.a(lib_a-strtok.o)
 .comment       0x00000000       0x23 c:/devkitpro/devkitarm/bin/../lib/gcc/arm-none-eabi/4.9.2/../../../../arm-none-eabi/lib\libg.a(lib_a-strtok_r.o)
 .comment       0x00000000       0x23 c:/devkitpro/devkitarm/bin/../lib/gcc/arm-none-eabi/4.9.2/../../../../arm-none-eabi/lib\libg.a(lib_a-strtol.o)
 .comment       0x00000000       0x23 c:/devkitpro/devkitarm/bin/../lib/gcc/arm-none-eabi/4.9.2/../../../../arm-none-eabi/lib\libg.a(lib_a-svfprintf.o)
 .comment       0x00000000       0x23 c:/devkitpro/devkitarm/bin/../lib/gcc/arm-none-eabi/4.9.2/../../../../arm-none-eabi/lib\libg.a(lib_a-svfscanf.o)
 .comment       0x00000000       0x23 c:/devkitpro/devkitarm/bin/../lib/gcc/arm-none-eabi/4.9.2/../../../../arm-none-eabi/lib\libg.a(lib_a-sysfstat.o)
 .comment       0x00000000       0x23 c:/devkitpro/devkitarm/bin/../lib/gcc/arm-none-eabi/4.9.2/../../../../arm-none-eabi/lib\libg.a(lib_a-sysisatty.o)
 .comment       0x00000000       0x23 c:/devkitpro/devkitarm/bin/../lib/gcc/arm-none-eabi/4.9.2/../../../../arm-none-eabi/lib\libg.a(lib_a-sysstat.o)
 .comment       0x00000000       0x23 c:/devkitpro/devkitarm/bin/../lib/gcc/arm-none-eabi/4.9.2/../../../../arm-none-eabi/lib\libg.a(lib_a-u_strerr.o)
 .comment       0x00000000       0x23 c:/devkitpro/devkitarm/bin/../lib/gcc/arm-none-eabi/4.9.2/../../../../arm-none-eabi/lib\libg.a(lib_a-vfiprintf.o)
 .comment       0x00000000       0x23 c:/devkitpro/devkitarm/bin/../lib/gcc/arm-none-eabi/4.9.2/../../../../arm-none-eabi/lib\libg.a(lib_a-vfprintf.o)
 .comment       0x00000000       0x23 c:/devkitpro/devkitarm/bin/../lib/gcc/arm-none-eabi/4.9.2/../../../../arm-none-eabi/lib\libg.a(lib_a-vfscanf.o)
 .comment       0x00000000       0x23 c:/devkitpro/devkitarm/bin/../lib/gcc/arm-none-eabi/4.9.2/../../../../arm-none-eabi/lib\libg.a(lib_a-vsnprintf.o)
 .comment       0x00000000       0x23 c:/devkitpro/devkitarm/bin/../lib/gcc/arm-none-eabi/4.9.2/../../../../arm-none-eabi/lib\libg.a(lib_a-wbuf.o)
 .comment       0x00000000       0x23 c:/devkitpro/devkitarm/bin/../lib/gcc/arm-none-eabi/4.9.2/../../../../arm-none-eabi/lib\libg.a(lib_a-wcrtomb.o)
 .comment       0x00000000       0x23 c:/devkitpro/devkitarm/bin/../lib/gcc/arm-none-eabi/4.9.2/../../../../arm-none-eabi/lib\libg.a(lib_a-wcsrtombs.o)
 .comment       0x00000000       0x23 c:/devkitpro/devkitarm/bin/../lib/gcc/arm-none-eabi/4.9.2/../../../../arm-none-eabi/lib\libg.a(lib_a-wctomb_r.o)
 .comment       0x00000000       0x23 c:/devkitpro/devkitarm/bin/../lib/gcc/arm-none-eabi/4.9.2/../../../../arm-none-eabi/lib\libg.a(lib_a-wsetup.o)
 .comment       0x00000000       0x23 c:/devkitpro/devkitarm/bin/../lib/gcc/arm-none-eabi/4.9.2/../../../../arm-none-eabi/lib\libg.a(lib_a-abort.o)
 .comment       0x00000000       0x23 c:/devkitpro/devkitarm/bin/../lib/gcc/arm-none-eabi/4.9.2/../../../../arm-none-eabi/lib\libg.a(lib_a-__atexit.o)
 .comment       0x00000000       0x23 c:/devkitpro/devkitarm/bin/../lib/gcc/arm-none-eabi/4.9.2/../../../../arm-none-eabi/lib\libg.a(lib_a-__call_atexit.o)
 .comment       0x00000000       0x23 c:/devkitpro/devkitarm/bin/../lib/gcc/arm-none-eabi/4.9.2/../../../../arm-none-eabi/lib\libg.a(lib_a-dtoa.o)
 .comment       0x00000000       0x23 c:/devkitpro/devkitarm/bin/../lib/gcc/arm-none-eabi/4.9.2/../../../../arm-none-eabi/lib\libg.a(lib_a-environ.o)
 .comment       0x00000000       0x23 c:/devkitpro/devkitarm/bin/../lib/gcc/arm-none-eabi/4.9.2/../../../../arm-none-eabi/lib\libg.a(lib_a-envlock.o)
 .comment       0x00000000       0x23 c:/devkitpro/devkitarm/bin/../lib/gcc/arm-none-eabi/4.9.2/../../../../arm-none-eabi/lib\libg.a(lib_a-flags.o)
 .comment       0x00000000       0x23 c:/devkitpro/devkitarm/bin/../lib/gcc/arm-none-eabi/4.9.2/../../../../arm-none-eabi/lib\libg.a(lib_a-fputwc.o)
 .comment       0x00000000       0x23 c:/devkitpro/devkitarm/bin/../lib/gcc/arm-none-eabi/4.9.2/../../../../arm-none-eabi/lib\libg.a(lib_a-fvwrite.o)
 .comment       0x00000000       0x23 c:/devkitpro/devkitarm/bin/../lib/gcc/arm-none-eabi/4.9.2/../../../../arm-none-eabi/lib\libg.a(lib_a-iswspace.o)
 .comment       0x00000000       0x23 c:/devkitpro/devkitarm/bin/../lib/gcc/arm-none-eabi/4.9.2/../../../../arm-none-eabi/lib\libg.a(lib_a-jp2uc.o)
 .comment       0x00000000       0x23 c:/devkitpro/devkitarm/bin/../lib/gcc/arm-none-eabi/4.9.2/../../../../arm-none-eabi/lib\libg.a(lib_a-locale.o)
 .comment       0x00000000       0x23 c:/devkitpro/devkitarm/bin/../lib/gcc/arm-none-eabi/4.9.2/../../../../arm-none-eabi/lib\libg.a(lib_a-mbrtowc.o)
 .comment       0x00000000       0x23 c:/devkitpro/devkitarm/bin/../lib/gcc/arm-none-eabi/4.9.2/../../../../arm-none-eabi/lib\libg.a(lib_a-mbtowc_r.o)
 .comment       0x00000000       0x23 c:/devkitpro/devkitarm/bin/../lib/gcc/arm-none-eabi/4.9.2/../../../../arm-none-eabi/lib\libg.a(lib_a-mprec.o)
 .comment       0x00000000       0x23 c:/devkitpro/devkitarm/bin/../lib/gcc/arm-none-eabi/4.9.2/../../../../arm-none-eabi/lib\libg.a(lib_a-sccl.o)
 .comment       0x00000000       0x23 c:/devkitpro/devkitarm/bin/../lib/gcc/arm-none-eabi/4.9.2/../../../../arm-none-eabi/lib\libg.a(lib_a-sf_nan.o)
 .comment       0x00000000       0x23 c:/devkitpro/devkitarm/bin/../lib/gcc/arm-none-eabi/4.9.2/../../../../arm-none-eabi/lib\libg.a(lib_a-s_frexp.o)
 .comment       0x00000000       0x23 c:/devkitpro/devkitarm/bin/../lib/gcc/arm-none-eabi/4.9.2/../../../../arm-none-eabi/lib\libg.a(lib_a-signal.o)
 .comment       0x00000000       0x23 c:/devkitpro/devkitarm/bin/../lib/gcc/arm-none-eabi/4.9.2/../../../../arm-none-eabi/lib\libg.a(lib_a-stpncpy.o)
 .comment       0x00000000       0x23 c:/devkitpro/devkitarm/bin/../lib/gcc/arm-none-eabi/4.9.2/../../../../arm-none-eabi/lib\libg.a(lib_a-strlcpy.o)
 .comment       0x00000000       0x23 c:/devkitpro/devkitarm/bin/../lib/gcc/arm-none-eabi/4.9.2/../../../../arm-none-eabi/lib\libg.a(lib_a-strtod.o)
 .comment       0x00000000       0x23 c:/devkitpro/devkitarm/bin/../lib/gcc/arm-none-eabi/4.9.2/../../../../arm-none-eabi/lib\libg.a(lib_a-strtoll_r.o)
 .comment       0x00000000       0x23 c:/devkitpro/devkitarm/bin/../lib/gcc/arm-none-eabi/4.9.2/../../../../arm-none-eabi/lib\libg.a(lib_a-strtoull_r.o)
 .comment       0x00000000       0x23 c:/devkitpro/devkitarm/bin/../lib/gcc/arm-none-eabi/4.9.2/../../../../arm-none-eabi/lib\libg.a(lib_a-strtoul.o)
 .comment       0x00000000       0x23 c:/devkitpro/devkitarm/bin/../lib/gcc/arm-none-eabi/4.9.2/../../../../arm-none-eabi/lib\libg.a(lib_a-svfiprintf.o)
 .comment       0x00000000       0x23 c:/devkitpro/devkitarm/bin/../lib/gcc/arm-none-eabi/4.9.2/../../../../arm-none-eabi/lib\libg.a(lib_a-svfiscanf.o)
 .comment       0x00000000       0x23 c:/devkitpro/devkitarm/bin/../lib/gcc/arm-none-eabi/4.9.2/../../../../arm-none-eabi/lib\libg.a(lib_a-ungetc.o)
 .comment       0x00000000       0x23 c:/devkitpro/devkitarm/bin/../lib/gcc/arm-none-eabi/4.9.2/../../../../arm-none-eabi/lib\libg.a(lib_a-wcsnrtombs.o)
 .comment       0x00000000       0x23 c:/devkitpro/devkitarm/bin/../lib/gcc/arm-none-eabi/4.9.2/../../../../arm-none-eabi/lib\libg.a(lib_a-callocr.o)
 .comment       0x00000000       0x23 c:/devkitpro/devkitarm/bin/../lib/gcc/arm-none-eabi/4.9.2/../../../../arm-none-eabi/lib\libg.a(lib_a-gdtoa-gethex.o)
 .comment       0x00000000       0x23 c:/devkitpro/devkitarm/bin/../lib/gcc/arm-none-eabi/4.9.2/../../../../arm-none-eabi/lib\libg.a(lib_a-gdtoa-hexnan.o)
 .comment       0x00000000       0x23 c:/devkitpro/devkitarm/bin/../lib/gcc/arm-none-eabi/4.9.2/../../../../arm-none-eabi/lib\libsysbase.a(iosupport.o)
 .comment       0x00000000       0x23 c:/devkitpro/devkitarm/bin/../lib/gcc/arm-none-eabi/4.9.2/../../../../arm-none-eabi/lib\libsysbase.a(close.o)
 .comment       0x00000000       0x23 c:/devkitpro/devkitarm/bin/../lib/gcc/arm-none-eabi/4.9.2/../../../../arm-none-eabi/lib\libsysbase.a(fstat.o)
 .comment       0x00000000       0x23 c:/devkitpro/devkitarm/bin/../lib/gcc/arm-none-eabi/4.9.2/../../../../arm-none-eabi/lib\libsysbase.a(getpid.o)
 .comment       0x00000000       0x23 c:/devkitpro/devkitarm/bin/../lib/gcc/arm-none-eabi/4.9.2/../../../../arm-none-eabi/lib\libsysbase.a(isatty.o)
 .comment       0x00000000       0x23 c:/devkitpro/devkitarm/bin/../lib/gcc/arm-none-eabi/4.9.2/../../../../arm-none-eabi/lib\libsysbase.a(kill.o)
 .comment       0x00000000       0x23 c:/devkitpro/devkitarm/bin/../lib/gcc/arm-none-eabi/4.9.2/../../../../arm-none-eabi/lib\libsysbase.a(lseek.o)
 .comment       0x00000000       0x23 c:/devkitpro/devkitarm/bin/../lib/gcc/arm-none-eabi/4.9.2/../../../../arm-none-eabi/lib\libsysbase.a(open.o)
 .comment       0x00000000       0x23 c:/devkitpro/devkitarm/bin/../lib/gcc/arm-none-eabi/4.9.2/../../../../arm-none-eabi/lib\libsysbase.a(read.o)
 .comment       0x00000000       0x23 c:/devkitpro/devkitarm/bin/../lib/gcc/arm-none-eabi/4.9.2/../../../../arm-none-eabi/lib\libsysbase.a(sbrk.o)
 .comment       0x00000000       0x23 c:/devkitpro/devkitarm/bin/../lib/gcc/arm-none-eabi/4.9.2/../../../../arm-none-eabi/lib\libsysbase.a(stat.o)
 .comment       0x00000000       0x23 c:/devkitpro/devkitarm/bin/../lib/gcc/arm-none-eabi/4.9.2/../../../../arm-none-eabi/lib\libsysbase.a(unlink.o)
 .comment       0x00000000       0x23 c:/devkitpro/devkitarm/bin/../lib/gcc/arm-none-eabi/4.9.2/../../../../arm-none-eabi/lib\libsysbase.a(write.o)
 .comment       0x00000000       0x23 c:/devkitpro/devkitarm/bin/../lib/gcc/arm-none-eabi/4.9.2/../../../../arm-none-eabi/lib\libsysbase.a(_exit.o)
 .comment       0x00000000       0x23 c:/devkitpro/devkitarm/bin/../lib/gcc/arm-none-eabi/4.9.2/../../../../arm-none-eabi/lib\libsysbase.a(malloc_vars.o)
 .comment       0x00000000       0x23 c:/devkitpro/devkitarm/bin/../lib/gcc/arm-none-eabi/4.9.2/../../../../arm-none-eabi/lib\libsysbase.a(chdir.o)
 .comment       0x00000000       0x23 c:/devkitpro/devkitarm/bin/../lib/gcc/arm-none-eabi/4.9.2/../../../../arm-none-eabi/lib\libsysbase.a(syscall_support.o)
 .comment       0x00000000       0x23 c:/devkitpro/devkitarm/bin/../lib/gcc/arm-none-eabi/4.9.2/../../../../arm-none-eabi/lib\libsysbase.a(handle_manager.o)
 .comment       0x00000000       0x23 c:/devkitpro/devkitarm/bin/../lib/gcc/arm-none-eabi/4.9.2/../../../../arm-none-eabi/lib\libg.a(lib_a-strnlen.o)
 .comment       0x00000000       0x23 c:/devkitpro/devkitarm/bin/../lib/gcc/arm-none-eabi/4.9.2/../../../../arm-none-eabi/lib\libg.a(lib_a-strrchr.o)
 .comment       0x00000000       0x23 c:/devkitpro/devkitarm/bin/../lib/gcc/arm-none-eabi/4.9.2/crtend.o

Memory Configuration

Name             Origin             Length             Attributes
*default*        0x00000000         0xffffffff

Linker script and memory map

                0x00100000                . = 0x100000
                0x00100000                __start__ = .

.text           0x00100000    0xb7e28
 *(.crt0)
 .crt0          0x00100000       0x94 c:/devkitpro/devkitarm/bin/../lib/gcc/arm-none-eabi/4.9.2/../../../../arm-none-eabi/lib/3dsx_crt0.o
                0x00100000                _start
                0x00100008                __service_ptr
                0x0010000c                __apt_appid
                0x00100010                __heap_size
                0x00100014                __linear_heap_size
                0x00100018                __system_arglist
                0x0010001c                __system_runflags
 *(.init)
 .init          0x00100094        0xc c:/devkitpro/devkitarm/bin/../lib/gcc/arm-none-eabi/4.9.2/crti.o
                0x00100094                _init
 .init          0x001000a0        0xc c:/devkitpro/devkitarm/bin/../lib/gcc/arm-none-eabi/4.9.2/crtn.o
                0x001000ac                . = ALIGN (0x4)
 *(.text)
 .text          0x001000ac        0x0 c:/devkitpro/devkitarm/bin/../lib/gcc/arm-none-eabi/4.9.2/../../../../arm-none-eabi/lib/3dsx_crt0.o
 .text          0x001000ac        0x0 c:/devkitpro/devkitarm/bin/../lib/gcc/arm-none-eabi/4.9.2/crti.o
 .text          0x001000ac      0x108 c:/devkitpro/devkitarm/bin/../lib/gcc/arm-none-eabi/4.9.2/crtbegin.o
 .text          0x001001b4     0x2658 am_map.o
                0x001009e0                AM_clearMarks
                0x001009f4                AM_Stop
                0x00100a28                AM_Start
                0x00100f14                AM_Responder
                0x00101524                AM_Ticker
                0x001016f4                AM_Drawer
 .text          0x0010280c      0x320 d_client.o
                0x0010280c                D_InitNetGame
                0x00102924                D_BuildNewTiccmds
                0x001029bc                TryRunTics
 .text          0x00102b2c     0x3888 d_deh.o
                0x00102c94                D_BuildBEXTables
                0x00102df8                deh_procStringSub
                0x00103554                dehReformatStr
                0x001035a0                lfstrip
                0x001038f0                ProcessDehFile
                0x00103f50                rstrip
                0x00103fb8                ptr_lstrip
                0x00103ff0                deh_GetData
 .text          0x001063b4        0x0 d_items.o
 .text          0x001063b4     0x33e4 d_main.o
                0x00106a74                D_PostEvent
                0x00106adc                D_Display
                0x00107018                D_PageTicker
                0x00107044                D_AdvanceDemo
                0x00107058                D_DoAdvanceDemo
                0x00107170                D_StartTitle
                0x001071a8                D_AddFile
                0x001072f4                find_wads
                0x0010735c                GetFirstMap
                0x00107528                D_DoomMain
 .text          0x00109798        0x0 doomdef.o
 .text          0x00109798        0x0 doomstat.o
 .text          0x00109798        0x0 dstrings.o
 .text          0x00109798     0x1300 f_finale.o
                0x00109ce4                F_StartFinale
                0x0010a0a4                F_Responder
                0x0010a0ec                F_StartCast
                0x0010a198                F_Ticker
                0x0010a494                F_CastTicker
                0x0010a4b4                F_CastResponder
                0x0010a4e8                F_CastDrawer
                0x0010a6e0                F_Drawer
 .text          0x0010aa98      0x4f8 f_wipe.o
                0x0010aa98                wipe_StartScreen
                0x0010ab50                wipe_EndScreen
                0x0010ac40                wipe_ScreenWipe
 .text          0x0010af90     0x48c8 g_game.o
                0x0010b7d0                G_BuildTiccmd
                0x0010c0d4                G_RestartLevel
                0x0010c0e8                G_Responder
                0x0010c4d8                G_ChangedPlayerColour
                0x0010c4f0                G_PlayerReborn
                0x0010c5b4                G_DeathMatchSpawnPlayer
                0x0010c694                G_DoReborn
                0x0010c764                G_ExitLevel
                0x0010c788                G_SecretExitLevel
                0x0010c7d4                G_DoCompleted
                0x0010cc28                G_WorldDone
                0x0010ccf4                G_DoWorldDone
                0x0010cd4c                G_ForcedLoadGame
                0x0010cd70                G_LoadGame
                0x0010cdfc                CheckSaveGame
                0x0010ce74                G_SaveGameName
                0x0010cebc                G_DeferedInitNew
                0x0010cee8                G_Compatibility
                0x0010cff8                G_ReloadDefaults
                0x0010d358                G_SetFastParms
                0x0010d42c                G_InitNew
                0x0010d5d0                G_DoNewGame
                0x0010d624                G_WriteOptions
                0x0010d830                G_ReadOptions
                0x0010e010                G_RecordDemo
                0x0010e1f8                G_BeginRecording
                0x0010e538                G_DeferedPlayDemo
                0x0010e558                G_DoPlayDemo
                0x0010e604                G_DoLoadGame
                0x0010eab0                G_CheckDemoStatus
                0x0010ec10                G_ReadDemoTiccmd
                0x0010ed0c                G_WriteDemoTiccmd
                0x0010edb0                doom_printf
                0x0010f268                G_SaveGame
                0x0010f2c0                G_Ticker
 .text          0x0010f858      0xf58 hu_lib.o
                0x0010f858                HUlib_clearTextLine
                0x0010f874                HUlib_initTextLine
                0x0010f8a4                HUlib_addCharToTextLine
                0x0010f900                HUlib_drawTextLine
                0x0010fad8                HUlib_eraseTextLine
                0x0010fbd4                HUlib_initSText
                0x0010fc50                HUlib_addMessageToSText
                0x0010fdcc                HUlib_drawSText
                0x0010fe2c                HUlib_eraseSText
                0x0010fe98                HUlib_initMText
                0x0010ff54                HUlib_addMessageToMText
                0x001100c0                HUlib_drawMBg
                0x00110388                HUlib_drawMText
                0x0011046c                HUlib_eraseMText
                0x001105b8                HUlib_initIText
                0x001105fc                HUlib_resetIText
                0x0011061c                HUlib_addPrefixToIText
                0x0011068c                HUlib_keyInIText
                0x00110758                HUlib_drawIText
                0x00110770                HUlib_eraseIText
 .text          0x001107b0     0x2608 hu_stuff.o
                0x001107b0                HU_Init
                0x00110a70                HU_Start
                0x00111204                HU_MoveHud
                0x00111328                HU_Erase
                0x00111374                HU_Drawer
                0x00112584                HU_Ticker
                0x00112838                HU_dequeueChatChar
                0x00112868                HU_Responder
 .text          0x00112db8        0x0 info.o
 .text          0x00112db8      0x2b4 lprintf.o
                0x00112db8                doom_vsnprintf
                0x00112f1c                lprintf
                0x00112fdc                I_Error
                0x0011303c                doom_snprintf
 .text          0x0011306c       0x58 m_argv.o
                0x0011306c                M_CheckParm
 .text          0x001130c4       0x58 m_bbox.o
                0x001130c4                M_ClearBox
                0x001130e0                M_AddToBox
 .text          0x0011311c     0x119c m_cheat.o
                0x00113f48                M_FindCheats
 .text          0x001142b8     0x6190 m_menu.o
                0x001142b8                M_ReadThis
                0x001142e0                M_ReadThis2
                0x0011430c                M_FinishReadThis
                0x00114338                M_FinishHelp
                0x00114364                M_Options
                0x00114390                M_Sound
                0x001143bc                M_ChangeSensitivity
                0x001143e8                M_ChangeMessages
                0x0011444c                M_Setup
                0x00114478                M_KeyBindings
                0x0011451c                M_Weapons
                0x001145c8                M_StatusBar
                0x00114678                M_Automap
                0x00114728                M_Enemy
                0x001147d4                M_General
                0x00114880                M_Compat
                0x0011492c                M_Messages
                0x001149d8                M_ChatStrings
                0x00114a84                M_ExtHelp
                0x00114be4                M_DrawMainMenu
                0x00114c2c                M_DrawEpisode
                0x00114c74                M_DrawNewGame
                0x00114cec                M_DrawExtHelp
                0x00114da4                M_LoadSelect
                0x00114e24                M_SaveSelect
                0x00114ea0                M_QuitDOOM
                0x00114f88                M_SfxVol
                0x00114fc8                M_MusicVol
                0x001150c8                M_SizeDisplay
                0x00115178                M_Trans
                0x001151a0                M_ChangeDemoSmoothTurns
                0x00115578                M_ExtHelpNextScreen
                0x001155d8                M_Episode
                0x001156dc                M_NewGame
                0x00115868                M_ChooseSkill
                0x00115948                M_EndGame
                0x00115be4                M_DrawSaveLoadBorder
                0x00115cb0                M_ForcedLoadGame
                0x00115d20                M_ReadSaveStrings
                0x00115df4                M_LoadGame
                0x00115ea8                M_SaveGame
                0x00115f8c                M_Mouse
                0x00115fc4                M_MouseHoriz
                0x00115fd0                M_MouseVert
                0x00115fdc                M_QuickSave
                0x00116128                M_QuickLoad
                0x0011626c                M_FullScreen
                0x00116280                M_InitExtendedHelp
                0x00116358                M_GetKeyString
                0x00116e9c                M_DrawHelp
                0x00116ed8                M_StartControlPanel
                0x00116ef0                M_ClearMenus
                0x00116f1c                M_SetupNextMenu
                0x00116f3c                M_Ticker
                0x00116f80                M_StartMessage
                0x00116fd8                M_StopMessage
                0x00117004                M_DrawThermo
                0x001171a8                M_DrawOptions
                0x00117264                M_DrawSound
                0x001172f4                M_DrawMouse
                0x00117394                M_DrawEmptyCell
                0x001173f4                M_DrawSelCell
                0x00117454                M_StringWidth
                0x001174c0                M_Responder
                0x001192cc                M_StringHeight
                0x0011930c                M_WriteText
                0x001193f0                M_DrawLoad
                0x00119484                M_DrawSave
                0x00119574                M_Drawer
                0x001198e0                M_DrawTitle
                0x001199b0                M_DrawSetup
                0x001199ec                M_DrawKeybnd
                0x00119a88                M_DrawWeapons
                0x00119b24                M_DrawStatusHUD
                0x00119bc0                M_DrawAutoMap
                0x00119d00                M_DrawEnemy
                0x00119d9c                M_DrawGeneral
                0x00119e38                M_DrawCompat
                0x00119ed4                M_DrawMessages
                0x00119f70                M_DrawChatStrings
                0x0011a00c                M_DrawCredits
                0x0011a094                M_DrawReadThis1
                0x0011a10c                M_DrawReadThis2
                0x0011a17c                M_InitHelpScreen
                0x0011a25c                M_Init
 .text          0x0011a448      0x758 m_misc.o
                0x0011a448                M_WriteFile
                0x0011a4c4                M_ReadFile
                0x0011a55c                M_SaveDefaults
                0x0011a688                M_LookupDefault
                0x0011a70c                M_LoadDefaults
                0x0011aa48                M_DoScreenShot
                0x0011aa68                M_ScreenShot
 .text          0x0011aba0      0x128 m_random.o
                0x0011aba0                P_Random
                0x0011ac78                M_ClearRandom
 .text          0x0011acc8      0xc18 md5.o
                0x0011acc8                MD5Init
                0x0011ad0c                MD5Transform
                0x0011b720                MD5Update
                0x0011b81c                MD5Final
 .text          0x0011b8e0      0x5a8 p_ceilng.o
                0x0011b8e0                P_ActivateInStasisCeiling
                0x0011b95c                EV_CeilingCrushStop
                0x0011b9c4                P_AddActiveCeiling
                0x0011ba10                EV_DoCeiling
                0x0011bbc4                P_RemoveActiveCeiling
                0x0011bc04                T_MoveCeiling
                0x0011be58                P_RemoveAllActiveCeilings
 .text          0x0011be88      0x278 p_checksum.o
                0x0011bebc                checksum_gamestate
                0x0011bfb8                P_RecordChecksum
                0x0011c07c                P_ChecksumFinal
 .text          0x0011c100      0xc94 p_doors.o
                0x0011c100                T_VerticalDoor
                0x0011c5d4                EV_DoDoor
                0x0011c7c4                EV_DoLockedDoor
                0x0011c918                EV_VerticalDoor
                0x0011cc8c                P_SpawnDoorCloseIn30
                0x0011cd00                P_SpawnDoorRaiseIn5Mins
 .text          0x0011cd94     0x4188 p_enemy.o
                0x0011e944                P_NoiseAlert
                0x0011e96c                A_KeenDie
                0x0011ea08                A_Look
                0x0011eb8c                A_FaceTarget
                0x0011ec08                A_Chase
                0x0011f2b0                A_PosAttack
                0x0011f364                A_SPosAttack
                0x0011f428                A_CPosAttack
                0x0011f4dc                A_CPosRefire
                0x0011f58c                A_SpidRefire
                0x0011f630                A_BspiAttack
                0x0011f65c                A_TroopAttack
                0x0011f6d8                A_SargAttack
                0x0011f740                A_HeadAttack
                0x0011f7c0                A_CyberAttack
                0x0011f7ec                A_BruisAttack
                0x0011f864                A_SkelMissile
                0x0011f8d4                A_Tracer
                0x0011fa80                A_SkelWhoosh
                0x0011faa8                A_SkelFist
                0x0011fb24                A_VileChase
                0x0011fd38                A_VileStart
                0x0011fd40                A_Fire
                0x0011fdd4                A_StartFire
                0x0011fdf0                A_FireCrackle
                0x0011fe0c                A_VileTarget
                0x0011fe84                A_VileAttack
                0x0011ff58                A_FatRaise
                0x0011ff74                A_FatAttack1
                0x00120008                A_FatAttack2
                0x0012009c                A_FatAttack3
                0x0012016c                A_SkullAttack
                0x00120414                A_PainAttack
                0x0012043c                A_PainDie
                0x00120480                A_Scream
                0x0012050c                A_XScream
                0x00120514                A_Pain
                0x00120528                A_Fall
                0x00120538                A_Explode
                0x00120544                A_BossDeath
                0x001207ec                A_Hoof
                0x00120808                A_Metal
                0x00120824                A_BabyMetal
                0x00120840                A_OpenShotgun2
                0x0012084c                A_LoadShotgun2
                0x00120858                A_CloseShotgun2
                0x00120880                P_SpawnBrainTargets
                0x00120964                A_BrainAwake
                0x00120970                A_BrainPain
                0x0012097c                A_BrainScream
                0x00120a38                A_BrainExplode
                0x00120ad0                A_BrainDie
                0x00120ad4                A_BrainSpit
                0x00120bc0                A_SpawnSound
                0x00120bf4                A_SpawnFly
                0x00120c10                A_PlayerScream
                0x00120c3c                A_Die
                0x00120c4c                A_Detonate
                0x00120c5c                A_Mushroom
                0x00120d34                A_Spawn
                0x00120d68                A_Turn
                0x00120d98                A_Face
                0x00120dc0                A_Scratch
                0x00120e20                A_PlaySound
                0x00120e38                A_RandomJump
                0x00120e68                A_LineEffect
 .text          0x00120f1c     0x1278 p_floor.o
                0x00120f1c                T_MovePlane
                0x00121178                T_MoveFloor
                0x00121394                T_MoveElevator
                0x001214a8                EV_DoFloor
                0x00121a08                EV_DoChange
                0x00121ab0                EV_BuildStairs
                0x00121e28                EV_DoDonut
                0x00121ff4                EV_DoElevator
 .text          0x00122194     0x14f0 p_genlin.o
                0x00122194                EV_DoGenFloor
                0x0012250c                EV_DoGenCeiling
                0x00122888                EV_DoGenLift
                0x00122b40                EV_DoGenStairs
                0x00122f64                EV_DoGenCrusher
                0x00123114                EV_DoGenLockedDoor
                0x00123314                EV_DoGenDoor
 .text          0x00123684     0x15e4 p_inter.o
                0x0012390c                P_GivePower
                0x001239c0                P_TouchSpecialThing
                0x00124388                P_DamageMobj
 .text          0x00124c68      0x624 p_lights.o
                0x00124c68                T_StrobeFlash
                0x00124cac                T_Glow
                0x00124d24                T_FireFlicker
                0x00124d80                T_LightFlash
                0x00124df4                P_SpawnFireFlicker
                0x00124e64                P_SpawnLightFlash
                0x00124ef0                P_SpawnStrobeFlash
                0x00124f9c                P_SpawnGlowingLight
                0x0012500c                EV_StartLightStrobing
                0x0012506c                EV_TurnTagLightsOff
                0x001250f8                EV_LightTurnOn
                0x001251b8                EV_LightTurnOnPartway
 .text          0x0012528c     0x3468 p_map.o
                0x0012528c                PIT_StompThing
                0x00125728                PTR_AimTraverse
                0x00125a60                PTR_NoWayTraverse
                0x00125ed0                PTR_SlideTraverse
                0x00125fb0                PTR_ShootTraverse
                0x00126800                PTR_UseTraverse
                0x001268c0                PIT_RadiusAttack
                0x001269c0                P_GetFriction
                0x00126adc                P_GetMoveFactor
                0x00126c30                P_TeleportMove
                0x00126e2c                Check_Sides
                0x00126f38                P_CheckPosition
                0x00127190                P_TryMove
                0x001275b8                P_ApplyTorque
                0x001276d4                P_ThingHeightClip
                0x00127780                PIT_ChangeSector
                0x001278ec                P_HitSlideLine
                0x00127be8                P_SlideMove
                0x00127ed8                P_AimLineAttack
                0x00127fa0                P_LineAttack
                0x00128044                P_UseLines
                0x00128110                P_RadiusAttack
                0x001281c4                P_ChangeSector
                0x00128244                P_CheckSector
                0x00128300                P_AddSecnode
                0x001283a8                PIT_GetSectors
                0x0012845c                P_DelSecnode
                0x001284b8                P_DelSeclist
                0x001284d4                P_CreateSecNodeList
                0x001286c0                P_MapStart
                0x001286e0                P_MapEnd
 .text          0x001286f4      0xf64 p_maputl.o
                0x0012896c                P_AproxDistance
                0x00128994                P_PointOnLineSide
                0x00128a48                P_BoxOnLineSide
                0x00128b44                P_InterceptVector2
                0x00128c10                P_InterceptVector
                0x00128ca8                PIT_AddLineIntercepts
                0x00128da8                PIT_AddThingIntercepts
                0x00128e8c                P_LineOpening
                0x00128f40                P_UnsetThingPosition
                0x00128fb4                P_SetThingPosition
                0x001290f0                P_BlockLinesIterator
                0x00129104                P_BlockThingsIterator
                0x0012911c                P_TraverseIntercepts
                0x001291c0                P_PathTraverse
 .text          0x00129658     0x2338 p_mobj.o
                0x0012976c                P_SpawnMobj
                0x00129aec                P_RemoveMobj
                0x00129c40                P_SetMobjState
                0x00129da4                P_ExplodeMissile
                0x00129e24                P_MobjThinker
                0x0012ae20                P_RespawnSpecials
                0x0012af68                P_SpawnPlayer
                0x0012af80                P_IsDoomnumAllowed
                0x0012afc8                P_SpawnMapThing
                0x0012b50c                P_SpawnPuff
                0x0012b598                P_SpawnBlood
                0x0012b63c                P_CheckMissileSpawn
                0x0012b6e0                P_SpawnMissile
                0x0012b810                P_SpawnPlayerMissile
 .text          0x0012b990      0x610 p_plats.o
                0x0012b990                P_ActivateInStasis
                0x0012ba04                EV_StopPlat
                0x0012ba68                P_AddActivePlat
                0x0012bab4                EV_DoPlat
                0x0012bd5c                P_RemoveActivePlat
                0x0012bd9c                T_PlatRaise
                0x0012bf70                P_RemoveAllActivePlats
 .text          0x0012bfa0     0x1218 p_pspr.o
                0x0012c2f8                P_SwitchWeapon
                0x0012c4c4                P_WeaponPreferred
                0x0012c58c                P_GetAmmoLevel
                0x0012c61c                P_CheckAmmo
                0x0012c6e4                P_DropWeapon
                0x0012c704                A_WeaponReady
                0x0012c848                A_ReFire
                0x0012c890                A_CheckReload
                0x0012c8dc                A_Lower
                0x0012c924                A_Raise
                0x0012c960                A_GunFlash
                0x0012c984                A_Punch
                0x0012cacc                A_Saw
                0x0012cc7c                A_FireMissile
                0x0012ccac                A_FireBFG
                0x0012cce8                A_FirePlasma
                0x0012cd38                A_FirePistol
                0x0012cda8                A_FireShotgun
                0x0012ce1c                A_FireShotgun2
                0x0012cf1c                A_FireCGun
                0x0012cffc                A_Light0
                0x0012d008                A_Light1
                0x0012d014                A_Light2
                0x0012d020                A_BFGSpray
                0x0012d120                A_BFGsound
                0x0012d12c                P_SetupPsprites
                0x0012d144                P_MovePsprites
 .text          0x0012d1b8     0x1d90 p_saveg.o
                0x0012d1b8                P_ArchivePlayers
                0x0012d27c                P_UnArchivePlayers
                0x0012d32c                P_ArchiveWorld
                0x0012d4f4                P_UnArchiveWorld
                0x0012d66c                P_ThinkerToIndex
                0x0012d6c4                P_IndexToThinker
                0x0012d700                P_ArchiveThinkers
                0x0012d98c                P_UnArchiveThinkers
                0x0012dd44                P_ArchiveSpecials
                0x0012e60c                P_UnArchiveSpecials
                0x0012ed10                P_ArchiveRNG
                0x0012ed58                P_UnArchiveRNG
                0x0012ed88                P_ArchiveMap
                0x0012ee54                P_UnArchiveMap
 .text          0x0012ef48     0x3264 p_setup.o
                0x0012f3a4                BuildSideSegs
                0x0012f4c4                P_SetupLevel
                0x00132190                P_Init
 .text          0x001321ac      0xbc4 p_sight.o
                0x00132b14                P_CheckSight
 .text          0x00132d70     0x4810 p_spec.o
                0x00132d70                T_Scroll
                0x00133244                T_Friction
                0x00133308                T_Pusher
                0x00133538                P_InitPicAnims
                0x001336d8                getSide
                0x00133718                getSector
                0x0013375c                twoSided
                0x001337cc                getNextSector
                0x0013382c                P_FindLowestFloorSurrounding
                0x001338bc                P_FindHighestFloorSurrounding
                0x00133958                P_FindNextHighestFloor
                0x00133a94                P_FindNextLowestFloor
                0x00133bbc                P_FindNextLowestCeiling
                0x00133ce4                P_FindNextHighestCeiling
                0x00133e0c                P_FindLowestCeilingSurrounding
                0x00133ea4                P_FindHighestCeilingSurrounding
                0x00133f3c                P_FindShortestTextureAround
                0x00134010                P_FindShortestUpperAround
                0x001340e4                P_FindModelFloorSector
                0x001341d0                P_FindModelCeilingSector
                0x001342bc                P_FindSectorFromLineTag
                0x00134360                P_FindLineFromLineTag
                0x00134404                P_FindMinSurroundingLight
                0x00134490                P_CanUnlockGenDoor
                0x001347a0                P_SectorActive
                0x0013481c                P_CheckTag
                0x00134ba4                P_IsSecret
                0x00134bbc                P_WasSecret
                0x00134bd4                P_CrossSpecialLine
                0x00135eec                P_ShootSpecialLine
                0x0013624c                P_PlayerInSpecialSector
                0x001364f4                P_UpdateSpecials
                0x00136774                P_SpawnSpecials
                0x00137540                P_GetPushThing
 .text          0x00137580     0x16e8 p_switch.o
                0x00137580                P_InitSwitchList
                0x001376e4                P_ChangeSwitchTexture
                0x001378ec                P_UseSpecialLine
 .text          0x00138c68      0x77c p_telept.o
                0x00138cf4                EV_Teleport
                0x00138e5c                EV_SilentTeleport
                0x00138fd8                EV_SilentLineTeleport
 .text          0x001393e4      0x360 p_tick.o
                0x001393e4                P_RemoveThinkerDelayed
                0x00139424                P_InitThinkers
                0x00139468                P_UpdateThinker
                0x00139520                P_AddThinker
                0x0013956c                P_RemoveThinker
                0x00139590                P_NextThinker
                0x001395c0                P_SetTarget
                0x001395ec                P_Ticker
 .text          0x00139744      0x8f0 p_user.o
                0x00139744                P_Thrust
                0x00139798                P_CalcHeight
                0x001399d8                P_MovePlayer
                0x00139bfc                P_DeathThink
                0x00139d0c                P_PlayerThink
 .text          0x0013a034      0xa7c r_bsp.o
                0x0013a034                R_ClearDrawSegs
                0x0013a050                R_ClearClipSegs
                0x0013a06c                R_FakeFlat
                0x0013a2f0                R_RenderBSPNode
 .text          0x0013aab0     0x122c r_data.o
                0x0013ab20                R_GetTextureColumn
                0x0013ab50                R_ColormapNumForName
                0x0013ab98                R_ColourMap
                0x0013ac50                R_InitTranMap
                0x0013b118                R_InitData
                0x0013b864                R_FlatNumForName
                0x0013b8ac                R_CheckTextureNumForName
                0x0013b8c4                R_TextureNumForName
                0x0013b90c                R_SafeTextureNumForName
                0x0013b958                R_PrecacheLevel
                0x0013bc90                R_SetPatchNum
 .text          0x0013bcdc      0x184 r_demo.o
                0x0013bcdc                R_SmoothPlaying_Reset
                0x0013bd84                R_SmoothPlaying_Add
                0x0013be1c                R_SmoothPlaying_Get
                0x0013be48                R_ResetAfterTeleport
 .text          0x0013be60    0x3b5b4 r_draw.o
                0x0014af8c                R_ResetColumnBuffer
                0x0014afe0                R_GetDrawColumnFunc
                0x00174df0                R_SetDefaultDrawColumnVars
                0x00174e58                R_InitTranslationTables
                0x00174fcc                R_GetDrawSpanFunc
                0x00176d50                R_DrawSpan
                0x00176d7c                R_InitBuffer
                0x00176eec                R_FillBackScreen
                0x00177248                R_VideoErase
                0x001772b4                R_DrawViewBorder
 .text          0x00177414      0x204 r_filter.o
                0x00177414                R_FilterInit
                0x00177584                filter_getScale2xQuadColors
 .text          0x00177618      0xa30 r_fps.o
                0x001779e4                R_InitInterpolation
                0x00177a1c                R_InterpolateView
                0x00177bb0                R_ResetViewInterpolation
                0x00177bc4                R_UpdateInterpolations
                0x00177c00                R_StopAllInterpolations
                0x00177c30                R_DoInterpolations
                0x00177d78                R_RestoreInterpolations
                0x00177e98                R_ActivateSectorInterpolations
                0x00177f48                R_ActivateThinkerInterpolations
                0x00177fc8                R_StopInterpolationIfNeeded
 .text          0x00178048     0x10d4 r_main.o
                0x00178048                R_PointOnSide
                0x00178108                R_PointOnSegSide
                0x001781c8                R_PointToAngle
                0x001783b0                R_PointToAngle2
                0x001784ec                R_SetViewSize
                0x0017850c                R_ExecuteSetViewSize
                0x00178a48                R_Init
                0x00178bbc                R_PointInSubsector
                0x00178c3c                R_RenderPlayerView_
                0x00178d5c                R_RenderPlayerView
 .text          0x0017911c     0x1494 r_patch.o
                0x001791e0                R_InitPatches
                0x00179278                R_FlushAllPatches
                0x0017936c                R_CachePatchNum
                0x00179a3c                R_UnlockPatchNum
                0x00179ad4                R_NumPatchWidth
                0x00179af4                R_NumPatchHeight
                0x00179b14                R_CacheTextureCompositePatchNum
                0x0017a464                R_UnlockTextureCompositePatchNum
                0x0017a4fc                R_GetPatchColumnWrapped
                0x0017a530                R_GetPatchColumnClamped
                0x0017a550                R_GetPatchColumn
 .text          0x0017a5b0      0xb7c r_plane.o
                0x0017a7fc                R_InitPlanes
                0x0017a800                R_ClearPlanes
                0x0017a994                R_DupPlane
                0x0017aa08                R_FindPlane
                0x0017ab10                R_CheckPlane
                0x0017ab8c                R_DrawPlanes
 .text          0x0017b12c     0x1814 r_segs.o
                0x0017b214                R_RenderMaskedSegRange
                0x0017b6c4                R_StoreWallRange
 .text          0x0017c940       0x14 r_sky.o
                0x0017c940                R_InitSkyMap
 .text          0x0017c954     0x19c4 r_things.o
                0x0017cb94                R_InitSprites
                0x0017cf50                R_ClearSprites
                0x0017cf64                R_DrawMaskedColumn
                0x0017d7f0                R_AddSprites
                0x0017df3c                R_DrawPlayerSprites
                0x0017e1e4                R_SortVisSprites
                0x0017e27c                R_DrawMasked
 .text          0x0017e318        0x0 sounds.o
 .text          0x0017e318      0x598 st_lib.o
                0x0017e558                STlib_init
                0x0017e55c                STlib_initNum
                0x0017e58c                STlib_updateNum
                0x0017e5a0                STlib_initPercent
                0x0017e5d8                STlib_updatePercent
                0x0017e6a4                STlib_initMultIcon
                0x0017e6cc                STlib_updateMultIcon
                0x0017e7c4                STlib_initBinIcon
                0x0017e7ec                STlib_updateBinIcon
 .text          0x0017e8b0     0x1278 st_stuff.o
                0x0017eb50                ST_Responder
                0x0017ebc4                ST_Ticker
                0x0017f204                ST_Drawer
                0x0017f4c0                ST_Start
                0x0017f894                ST_Init
 .text          0x0017fb28      0x1f4 tables.o
                0x0017fb28                SlopeDiv
                0x0017fb54                R_LoadTrigTables
 .text          0x0017fd1c     0x1f08 v_video.o
                0x00181108                V_InitColorTranslation
                0x0018113c                V_Init
                0x00181178                V_UpdateTrueColorPalette
                0x001818ac                V_DestroyUnusedTrueColorPalettes
                0x00181944                V_SetPalette
                0x0018199c                V_InitMode
                0x00181af0                V_GetMode
                0x00181b00                V_GetModePixelDepth
                0x00181b18                V_GetNumPixelBits
                0x00181b40                V_GetPixelDepth
                0x00181b64                V_AllocScreen
                0x00181b74                V_AllocScreens
                0x00181bb8                V_FreeScreen
                0x00181bdc                V_FreeScreens
 .text          0x00181c24        0x0 version.o
 .text          0x00181c24      0x1b8 w_memcache.o
                0x00181c24                W_InitCache
                0x00181c68                W_DoneCache
                0x00181c6c                W_CacheLumpNum
                0x00181d30                W_LockLumpNum
                0x00181d34                W_UnlockLumpNum
                0x00181dc8                W_LumpIsCached
 .text          0x00181ddc      0xb38 w_wad.o
                0x00182050                ExtractFileBase
                0x00182158                AddDefaultExtension
                0x001821cc                W_LumpNameHash
                0x00182314                W_FindNumFromName
                0x001823cc                W_HashLumps
                0x00182450                W_GetNumForName
                0x00182490                W_ListNumFromName
                0x001824d4                W_Init
                0x0018283c                W_ReleaseAllWads
                0x0018287c                W_LumpLength
                0x001828c4                W_ReadLump
 .text          0x00182914     0x2ae0 wi_stuff.o
                0x00182ea0                WI_levelNameLump
                0x00182eec                WI_Responder
                0x00182ef4                WI_drawLF
                0x00183004                WI_drawEL
                0x00183100                WI_drawOnLnode
                0x0018325c                WI_initAnimatedBack
                0x00183364                WI_updateAnimatedBack
                0x001834dc                WI_drawAnimatedBack
                0x001835b0                WI_End
                0x00183608                WI_initNoState
                0x00183634                WI_updateNoState
                0x00183660                WI_initShowNextLoc
                0x001836cc                WI_updateShowNextLoc
                0x00183738                WI_drawShowNextLoc
                0x00183834                WI_drawNoState
                0x00183848                WI_fragSum
                0x001838a8                WI_initDeathmatchStats
                0x00183960                WI_updateDeathmatchStats
                0x00183be0                WI_drawDeathmatchStats
                0x00183edc                WI_initNetgameStats
                0x00183fb4                WI_updateNetgameStats
                0x00184430                WI_drawNetgameStats
                0x00184868                WI_initStats
                0x00184900                WI_updateStats
                0x00184e80                WI_drawStats
                0x00184fdc                WI_checkForAccelerate
                0x00185064                WI_Ticker
                0x00185120                WI_loadData
                0x001852c0                WI_Drawer
                0x00185324                WI_initVariables
                0x001853a8                WI_Start
 .text          0x001853f4      0x168 z_bmalloc.o
                0x001853f4                Z_BMalloc
                0x001854b0                Z_BFree
 .text          0x0018555c      0x34c z_zone.o
                0x0018555c                Z_DumpHistory
                0x00185560                Z_Close
                0x00185564                Z_Init
                0x00185568                Z_Free
                0x001855ec                Z_FreeTags
                0x0018565c                Z_Malloc
                0x00185734                Z_ChangeTag
                0x001857e0                Z_Realloc
                0x0018583c                Z_Calloc
                0x00185874                Z_Strdup
                0x001858a4                Z_CheckHeap
 .text          0x001858a8       0x1c ds_main.o
                0x001858a8                drawFrame
                0x001858b8                keyboardStart
                0x001858bc                keyboardEnd
                0x001858c0                switchConsole
 .text          0x001858c4        0x0 ds_render.o
 .text          0x001858c4      0x620 ds_sys.o
                0x001858dc                I_GetTime_RealTime
                0x00185998                GetTicks
                0x001859a4                Pause
                0x001859c4                I_StartDisplay
                0x001859fc                I_EndDisplay
                0x00185a24                I_Read
                0x00185a38                I_Filelength
                0x00185a84                HasTrailingSlash
                0x00185aa8                I_uSleep
                0x00185abc                I_GetRandomTimeSeed
                0x00185ac8                I_GetTimeFrac
                0x00185b28                I_GetTime_SaveMS
                0x00185b84                I_DoomExeDir
                0x00185bec                I_FindFile
                0x00185e5c                I_InitSound
                0x00185e60                I_Init
                0x00185ee0                I_SafeExit
 .text          0x00185ee4        0x0 ds_textures.o
 .text          0x00185ee4      0xb3c ds_vid.o
                0x00185ee4                I_ShutdownGraphics
                0x00185ee8                DS_Controls
                0x00186468                I_StartTic
                0x00186480                I_StartFrame
                0x00186484                I_ScreenShot
                0x00186488                I_SetPalette
                0x00186498                I_CalculateRes
                0x001864c0                I_SetRes
                0x001865e4                I_GetModeFromString
                0x001866d0                I_UpdateVideoMode
                0x00186780                I_UpdateNoBlit
                0x00186784                copy_screen
                0x00186824                I_FinishUpdate
                0x001869b8                I_InitGraphics
 .text          0x00186a20        0x0 ds_vram.o
 .text          0x00186a20        0x0 geometry.o
 .text          0x00186a20       0x10 musplay.o
                0x00186a20                mus_init_music
                0x00186a24                mus_play_music
                0x00186a28                mus_stop_music
                0x00186a2c                mus_update_volume
 .text          0x00186a30        0x0 polylib.o
 .text          0x00186a30     0x1038 3ds_mix.o
                0x00186a30                sound_time
                0x00186a50                mix_start
                0x00186ac4                MIX_InitScaletable
                0x00186b08                mix_stop
                0x00186b0c                MIX_init
                0x00186c00                MIX_TransferPaintBuffer
                0x00186cb8                MIX_PaintChannelFrom8
                0x00186d98                MIX_PaintChannels
                0x00186f54                MIX_SamplePos
                0x0018704c                MIX_UpdateTime
                0x00187064                MIX_Update_
                0x0018707c                S_AdjustSoundParams
                0x001871e4                S_StopChannel
                0x00187248                S_StopSound
                0x001872cc                MIX_UpdateSounds
                0x001873f8                S_GetSfxLumpNum
                0x00187424                I_StartSound
                0x0018757c                S_StartSoundAtVolume
                0x001879e0                S_StartSound
                0x001879f0                S_Stop
 .text          0x00187a68      0x298 3ds_sound.o
                0x00187a68                S_PauseSound
                0x00187a6c                S_ResumeSound
                0x00187a70                S_SetSfxVolume
                0x00187a84                S_StopMusic
                0x00187b90                S_StartMusic
                0x00187bbc                S_ChangeMusic
                0x00187be8                S_SetMusicVolume
                0x00187c48                S_Start
                0x00187cf8                S_UpdateSounds
                0x00187cfc                S_Init
 .text          0x00187d00        0x0 console.o
 .text          0x00187d00      0x994 file.o
                0x00187d00                _FAT_open_r
                0x00187e5c                _FAT_close_r
                0x00187eb4                _FAT_write_r
                0x00187ed8                _FAT_fstat_r
                0x00187ef0                _FAT_link_r
                0x00187f14                _FAT_unlink_r
                0x00187f38                _FAT_rename_r
                0x00187f5c                _FAT_mkdir_r
                0x00187f80                _FAT_dirreset_r
                0x00187fa4                _FAT_statvfs_r
                0x00187fc8                _FAT_ftruncate_r
                0x00187fec                _FAT_fsync_r
                0x00188010                _FAT_read_r
                0x001880bc                _FAT_seek_r
                0x00188180                _FAT_stat_r
                0x001882a4                _FAT_chdir_r
                0x00188348                _FAT_diropen_r
                0x00188464                _FAT_dirnext_r
                0x00188514                _FAT_dirclose_r
                0x00188544                SD_init
 .text          0x00188694      0x1d4 c:/devkitPro/libctru/lib\libctru.a(linear.o)
                0x001886bc                linearMemAlign
                0x001887fc                linearAlloc
                0x00188804                linearRealloc
                0x0018880c                linearFree
                0x0018885c                linearSpaceFree
 .text          0x00188868      0x2f8 c:/devkitPro/libctru/lib\libctru.a(mem_pool.o)
                0x00188868                MemPool::CoalesceRight(MemBlock*)
                0x0018890c                MemPool::Allocate(MemChunk&, unsigned long, int)
                0x00188a30                MemPool::Deallocate(MemChunk const&)
                0x00188b30                MemPool::GetFreeSpace()
 .text          0x00188b60     0x103c c:/devkitPro/libctru/lib\libctru.a(console.o)
                0x00188b60                debug_write
                0x00188b7c                consoleGetDefault
                0x00188b88                consoleDebugInit
                0x00188c08                consoleSelect
                0x00188c20                consoleSetFont
                0x00188c3c                consoleDrawChar
                0x00188de8                consolePrintChar
                0x00189080                consoleInit
                0x00189354                con_write
                0x00189b58                consoleClear
                0x00189b64                consoleSetWindow
 .text          0x00189b9c      0x618 c:/devkitPro/libctru/lib\libctru.a(gfx.o)
                0x00189c28                gfxSet3D
                0x00189c38                gfxSetScreenFormat
                0x00189c50                gfxGetScreenFormat
                0x00189c68                gfxSetDoubleBuffering
                0x00189c7c                gfxSetFramebufferInfo
                0x00189cec                gfxWriteFramebufferInfo
                0x00189db0                gfxInit
                0x00189f04                gfxExit
                0x00189f9c                gfxGetFramebuffer
                0x0018a04c                gfxFlushBuffers
                0x0018a0e4                gfxSwapBuffers
                0x0018a158                gfxSwapBuffersGpu
 .text          0x0018a1b4      0x258 c:/devkitPro/libctru/lib\libctru.a(initSystem.o)
                0x0018a1b4                __ctru_exit
                0x0018a248                initSystem
 *fill*         0x0018a40c        0x4 
 .text          0x0018a410      0x170 c:/devkitPro/libctru/lib\libctru.a(os.o)
                0x0018a410                osConvertVirtToPhys
                0x0018a45c                osConvertOldLINEARMemToNew
                0x0018a47c                osGetTime
                0x0018a534                osGetFirmVersion
                0x0018a548                osGetKernelVersion
                0x0018a55c                osStrError
 .text          0x0018a580      0x2f0 c:/devkitPro/libctru/lib\libctru.a(srv.o)
                0x0018a580                __get_handle_from_list
                0x0018a618                __destroy_handle_list
                0x0018a66c                srvExit
                0x0018a694                srvRegisterClient
                0x0018a6cc                srvInit
                0x0018a720                srvGetServiceHandle
                0x0018a7a0                srvPmInit
                0x0018a7f4                srvRegisterProcess
                0x0018a83c                srvUnregisterProcess
 .text          0x0018a870     0x183c c:/devkitPro/libctru/lib\libctru.a(apt.o)
                0x0018a8d4                aptInitCaptureInfo
                0x0018a988                aptWaitStatusEvent
                0x0018a9b0                aptGetStatus
                0x0018a9e8                aptSetStatus
                0x0018aa4c                aptGetStatusPower
                0x0018aa84                aptSetStatusPower
                0x0018aabc                aptOpenSession
                0x0018aae0                aptCloseSession
                0x0018ab08                aptSignalReadyForSleep
                0x0018ab18                APT_GetLockHandle
                0x0018ab68                APT_Initialize
                0x0018abd0                APT_HardwareResetAsync
                0x0018ac04                APT_Enable
                0x0018ac40                APT_GetAppletManInfo
                0x0018acc0                aptGetMenuAppID
                0x0018acfc                APT_IsRegistered
                0x0018ad4c                APT_InquireNotification
                0x0018ad9c                APT_PrepareToJumpToHomeMenu
                0x0018add0                APT_JumpToHomeMenu
                0x0018ae20                APT_NotifyToWait
                0x0018ae5c                APT_AppletUtility
                0x0018aee4                aptAppletUtility_Exit_RetToApp
                0x0018b004                aptAppletClosed
                0x0018b124                aptInit
                0x0018b264                APT_GlanceParameter
                0x0018b2d8                APT_ReceiveParameter
                0x0018b34c                APT_SendParameter
                0x0018b3bc                APT_SendCaptureBufferInfo
                0x0018b408                aptReturnToMenu
                0x0018b5c8                APT_ReplySleepQuery
                0x0018b608                APT_ReplySleepNotificationComplete
                0x0018b644                aptEventHandler
                0x0018b910                APT_PrepareToCloseApplication
                0x0018b94c                APT_CloseApplication
                0x0018b9a4                aptExit
                0x0018ba74                APT_SetAppCpuTimeLimit
                0x0018bab8                APT_GetAppCpuTimeLimit
                0x0018bb0c                APT_CheckNew3DS_Application
                0x0018bb5c                APT_CheckNew3DS_System
                0x0018bbac                APT_CheckNew3DS
                0x0018bc28                APT_PrepareToDoAppJump
                0x0018bc74                APT_DoAppJump
                0x0018bcdc                APT_PrepareToStartLibraryApplet
                0x0018bd18                APT_StartLibraryApplet
                0x0018bd78                aptAppletStarted
                0x0018be7c                aptMainLoop
                0x0018bef4                APT_LaunchLibraryApplet
 .text          0x0018c0ac      0x6fc c:/devkitPro/libctru/lib\libctru.a(csnd.o)
                0x0018c0ac                CSND_cmd1
                0x0018c114                CSND_cmd2
                0x0018c140                CSND_cmd5
                0x0018c178                CSND_initialize
                0x0018c234                CSND_shutdown
                0x0018c26c                CSND_cmd3
                0x0018c2a0                CSND_writesharedmem_cmdtype0
                0x0018c384                CSND_processtype0cmds
                0x0018c3b8                CSND_convertsamplerate
                0x0018c3d8                CSND_sharedmemtype0_cmd0
                0x0018c414                CSND_setchannel_playbackstate
                0x0018c450                CSND_sharedmemtype0_cmd3
                0x0018c48c                CSND_sharedmemtype0_cmd9
                0x0018c4c8                CSND_sharedmemtype0_cmd8
                0x0018c51c                CSND_sharedmemtype0_cmde
                0x0018c5d0                CSND_sharedmemtype0_cmdupdatestate
                0x0018c648                CSND_playsound
                0x0018c71c                CSND_getchannelstate
                0x0018c780                CSND_getchannelstate_isplaying
 .text          0x0018c7a8      0xb3c c:/devkitPro/libctru/lib\libctru.a(fs.o)
                0x0018c7a8                FS_makePath
                0x0018c7d4                fsExit
                0x0018c7e4                FSUSER_Initialize
                0x0018c854                fsInit
                0x0018c894                FSUSER_OpenFile
                0x0018c940                FSUSER_OpenFileDirectly
                0x0018ca0c                FSUSER_DeleteFile
                0x0018ca94                FSUSER_RenameFile
                0x0018cb58                FSUSER_DeleteDirectory
                0x0018cbe0                FSUSER_DeleteDirectoryRecursively
                0x0018cbe8                FSUSER_CreateFile
                0x0018cc80                FSUSER_CreateDirectory
                0x0018cd0c                FSUSER_RenameDirectory
                0x0018cdd0                FSUSER_OpenDirectory
                0x0018ce64                FSUSER_OpenArchive
                0x0018ceec                FSUSER_CloseArchive
                0x0018cf44                FSUSER_GetSdmcArchiveResource
                0x0018cfc0                FSUSER_IsSdmcDetected
                0x0018d00c                FSUSER_IsSdmcWritable
                0x0018d058                FSFILE_Close
                0x0018d09c                FSFILE_Read
                0x0018d0f8                FSFILE_Write
                0x0018d15c                FSFILE_GetSize
                0x0018d19c                FSFILE_SetSize
                0x0018d1c8                FSFILE_GetAttributes
                0x0018d200                FSFILE_SetAttributes
                0x0018d228                FSFILE_Flush
                0x0018d24c                FSDIR_Read
                0x0018d2a0                FSDIR_Close
 .text          0x0018d2e4      0x8c8 c:/devkitPro/libctru/lib\libctru.a(gsp.o)
                0x0018d3f0                gspInit
                0x0018d404                gspExit
                0x0018d41c                gspInitEventHandler
                0x0018d4e8                gspExitEventHandler
                0x0018d540                gspWaitForEvent
                0x0018d598                GSPGPU_WriteHWRegs
                0x0018d608                GSPGPU_WriteHWRegsWithMask
                0x0018d694                GSPGPU_ReadHWRegs
                0x0018d704                GSPGPU_SetBufferSwap
                0x0018d778                GSPGPU_FlushDataCache
                0x0018d7cc                GSPGPU_InvalidateDataCache
                0x0018d820                GSPGPU_SetLcdForceBlack
                0x0018d85c                GSPGPU_TriggerCmdReqQueue
                0x0018d890                GSPGPU_RegisterInterruptRelayQueue
                0x0018d8fc                GSPGPU_UnregisterInterruptRelayQueue
                0x0018d930                GSPGPU_AcquireRight
                0x0018d980                GSPGPU_ReleaseRight
                0x0018d9b4                GSPGPU_ImportDisplayCaptureInfo
                0x0018da38                GSPGPU_SaveVramSysArea
                0x0018da6c                GSPGPU_RestoreVramSysArea
                0x0018daa0                GSPGPU_SubmitGxCommand
 .text          0x0018dbac      0x264 c:/devkitPro/libctru/lib\libctru.a(gx.o)
                0x0018dbac                GX_RequestDma
                0x0018dc00                GX_SetCommandList_Last
                0x0018dc68                GX_SetMemoryFill
                0x0018dcdc                GX_SetDisplayTransfer
                0x0018dd40                GX_SetTextureCopy
                0x0018dda8                GX_SetCommandList_First
 .text          0x0018de10      0x6a4 c:/devkitPro/libctru/lib\libctru.a(hid.o)
                0x0018de10                hidExit
                0x0018de94                hidWaitForEvent
                0x0018deec                hidCheckSectionUpdateTime
                0x0018df28                hidScanInput
                0x0018e15c                hidKeysHeld
                0x0018e16c                hidKeysDown
                0x0018e17c                hidKeysUp
                0x0018e18c                hidTouchRead
                0x0018e1a4                hidCircleRead
                0x0018e1bc                hidAccelRead
                0x0018e1dc                hidGyroRead
                0x0018e1fc                HIDUSER_GetHandles
                0x0018e28c                hidInit
                0x0018e390                HIDUSER_EnableAccelerometer
                0x0018e3bc                HIDUSER_DisableAccelerometer
                0x0018e3e8                HIDUSER_EnableGyroscope
                0x0018e414                HIDUSER_DisableGyroscope
                0x0018e440                HIDUSER_GetGyroscopeRawToDpsCoefficient
                0x0018e47c                HIDUSER_GetSoundVolume
 .text          0x0018e4b4      0x350 c:/devkitPro/libctru/lib\libctru.a(irrst.o)
                0x0018e4b4                irrstExit
                0x0018e51c                irrstWaitForEvent
                0x0018e568                irrstCheckSectionUpdateTime
                0x0018e5a4                irrstScanInput
                0x0018e658                irrstKeysHeld
                0x0018e670                irrstCstickRead
                0x0018e688                IRRST_GetHandles
                0x0018e6d8                irrstInit
                0x0018e7a0                IRRST_Initialize
                0x0018e7d8                IRRST_Shutdown
 .text          0x0018e804       0x70 c:/devkitPro/libctru/lib\libctru.a(rbtree_find.o)
                0x0018e804                rbtree_find
 .text          0x0018e874       0x14 c:/devkitPro/libctru/lib\libctru.a(rbtree_init.o)
                0x0018e874                rbtree_init
 .text          0x0018e888      0x1f4 c:/devkitPro/libctru/lib\libctru.a(rbtree_insert.o)
                0x0018ea6c                rbtree_insert
                0x0018ea74                rbtree_insert_multi
 .text          0x0018ea7c      0x340 c:/devkitPro/libctru/lib\libctru.a(rbtree_remove.o)
                0x0018ea7c                rbtree_remove
 .text          0x0018edbc       0xac c:/devkitPro/libctru/lib\libctru.a(rbtree_rotate.o)
                0x0018edbc                rbtree_rotate
 *fill*         0x0018ee68        0x8 
 .text          0x0018ee70      0x250 c:/devkitPro/libctru/lib\libctru.a(svc.o)
                0x0018ee70                svcControlMemory
                0x0018ee90                svcQueryMemory
                0x0018eec0                svcExitProcess
                0x0018eec8                svcCreateThread
                0x0018eee8                svcExitThread
                0x0018eef0                svcSleepThread
                0x0018eef8                svcSetThreadPriority
                0x0018ef00                svcCreateMutex
                0x0018ef14                svcReleaseMutex
                0x0018ef1c                svcCreateEvent
                0x0018ef30                svcSignalEvent
                0x0018ef38                svcClearEvent
                0x0018ef40                svcCreateTimer
                0x0018ef54                svcSetTimer
                0x0018ef5c                svcCancelTimer
                0x0018ef64                svcClearTimer
                0x0018ef6c                svcCreateMemoryBlock
                0x0018ef84                svcMapMemoryBlock
                0x0018ef8c                svcUnmapMemoryBlock
                0x0018ef94                svcCreateAddressArbiter
                0x0018ef9c                svcArbitrateAddress
                0x0018efbc                svcCloseHandle
                0x0018efc4                svcWaitSynchronization
                0x0018efcc                svcWaitSynchronizationN
                0x0018eff4                svcDuplicateHandle
                0x0018f008                svcGetSystemTick
                0x0018f010                svcGetSystemInfo
                0x0018f030                svcGetProcessInfo
                0x0018f04c                svcConnectToPort
                0x0018f060                svcSendSyncRequest
                0x0018f068                svcGetProcessId
                0x0018f07c                svcOutputDebugString
                0x0018f084                svcCreateSemaphore
                0x0018f098                svcReleaseSemaphore
                0x0018f0ac                svcGetThreadId
 .text          0x0018f0c0        0x0 c:/devkitPro/libctru/lib\libctru.a(default_font.bin.o)
 .text          0x0018f0c0      0x118 c:/devkitPro/libctru/lib\libctru.a(rbtree_iterator.o)
                0x0018f0c0                rbtree_node_next
                0x0018f14c                rbtree_node_prev
 .text          0x0018f1d8       0x10 c:/devkitpro/devkitarm/bin/../lib/gcc/arm-none-eabi/4.9.2/../../../../arm-none-eabi/lib\libm.a(lib_a-w_atan2.o)
                0x0018f1d8                atan2
 .text          0x0018f1e8      0x13c c:/devkitpro/devkitarm/bin/../lib/gcc/arm-none-eabi/4.9.2/../../../../arm-none-eabi/lib\libm.a(lib_a-w_sqrt.o)
                0x0018f1e8                sqrt
 *fill*         0x0018f324        0x4 
 .text          0x0018f328      0x288 c:/devkitpro/devkitarm/bin/../lib/gcc/arm-none-eabi/4.9.2/../../../../arm-none-eabi/lib\libm.a(lib_a-e_atan2.o)
                0x0018f328                __ieee754_atan2
 .text          0x0018f5b0      0x220 c:/devkitpro/devkitarm/bin/../lib/gcc/arm-none-eabi/4.9.2/../../../../arm-none-eabi/lib\libm.a(lib_a-e_sqrt.o)
                0x0018f5b0                __ieee754_sqrt
 .text          0x0018f7d0      0x490 c:/devkitpro/devkitarm/bin/../lib/gcc/arm-none-eabi/4.9.2/../../../../arm-none-eabi/lib\libm.a(lib_a-s_atan.o)
                0x0018f7d0                atan
 .text          0x0018fc60        0x8 c:/devkitpro/devkitarm/bin/../lib/gcc/arm-none-eabi/4.9.2/../../../../arm-none-eabi/lib\libm.a(lib_a-s_fabs.o)
                0x0018fc60                fabs
 .text          0x0018fc68       0x6c c:/devkitpro/devkitarm/bin/../lib/gcc/arm-none-eabi/4.9.2/../../../../arm-none-eabi/lib\libm.a(lib_a-s_fpclassify.o)
                0x0018fc68                __fpclassifyd
 .text          0x0018fcd4        0x0 c:/devkitpro/devkitarm/bin/../lib/gcc/arm-none-eabi/4.9.2/../../../../arm-none-eabi/lib\libm.a(lib_a-s_lib_ver.o)
 .text          0x0018fcd4        0x8 c:/devkitpro/devkitarm/bin/../lib/gcc/arm-none-eabi/4.9.2/../../../../arm-none-eabi/lib\libm.a(lib_a-s_matherr.o)
                0x0018fcd4                matherr
 .text          0x0018fcdc      0x114 c:/devkitpro/devkitarm/bin/../lib/gcc/arm-none-eabi/4.9.2\libgcc.a(_udivsi3.o)
                0x0018fcdc                __aeabi_uidiv
                0x0018fcdc                __udivsi3
                0x0018fdd0                __aeabi_uidivmod
 .text          0x0018fdf0      0x148 c:/devkitpro/devkitarm/bin/../lib/gcc/arm-none-eabi/4.9.2\libgcc.a(_divsi3.o)
                0x0018fdf0                __divsi3
                0x0018fdf0                __aeabi_idiv
                0x0018ff18                __aeabi_idivmod
 .text          0x0018ff38        0x4 c:/devkitpro/devkitarm/bin/../lib/gcc/arm-none-eabi/4.9.2\libgcc.a(_dvmd_tls.o)
                0x0018ff38                __aeabi_idiv0
                0x0018ff38                __aeabi_ldiv0
 .text          0x0018ff3c      0x41c c:/devkitpro/devkitarm/bin/../lib/gcc/arm-none-eabi/4.9.2\libgcc.a(_arm_addsubdf3.o)
                0x0018ff3c                __aeabi_drsub
                0x0018ff44                __aeabi_dsub
                0x0018ff44                __subdf3
                0x0018ff48                __aeabi_dadd
                0x0018ff48                __adddf3
                0x00190258                __floatunsidf
                0x00190258                __aeabi_ui2d
                0x0019027c                __floatsidf
                0x0019027c                __aeabi_i2d
                0x001902a4                __aeabi_f2d
                0x001902a4                __extendsfdf2
                0x001902e4                __floatundidf
                0x001902e4                __aeabi_ul2d
                0x001902f8                __floatdidf
                0x001902f8                __aeabi_l2d
 .text          0x00190358      0x49c c:/devkitpro/devkitarm/bin/../lib/gcc/arm-none-eabi/4.9.2\libgcc.a(_arm_muldivdf3.o)
                0x00190358                __aeabi_dmul
                0x00190358                __muldf3
                0x001905e8                __divdf3
                0x001905e8                __aeabi_ddiv
 .text          0x001907f4      0x144 c:/devkitpro/devkitarm/bin/../lib/gcc/arm-none-eabi/4.9.2\libgcc.a(_arm_cmpdf2.o)
                0x001907f4                __gtdf2
                0x001907f4                __gedf2
                0x001907fc                __ltdf2
                0x001907fc                __ledf2
                0x00190804                __nedf2
                0x00190804                __eqdf2
                0x00190804                __cmpdf2
                0x0019088c                __aeabi_cdrcmple
                0x001908a8                __aeabi_cdcmpeq
                0x001908a8                __aeabi_cdcmple
                0x001908c0                __aeabi_dcmpeq
                0x001908d8                __aeabi_dcmplt
                0x001908f0                __aeabi_dcmple
                0x00190908                __aeabi_dcmpge
                0x00190920                __aeabi_dcmpgt
 .text          0x00190938       0x5c c:/devkitpro/devkitarm/bin/../lib/gcc/arm-none-eabi/4.9.2\libgcc.a(_arm_fixdfsi.o)
                0x00190938                __aeabi_d2iz
                0x00190938                __fixdfsi
 .text          0x00190994       0xa0 c:/devkitpro/devkitarm/bin/../lib/gcc/arm-none-eabi/4.9.2\libgcc.a(_arm_truncdfsf2.o)
                0x00190994                __truncdfsf2
                0x00190994                __aeabi_d2f
 .text          0x00190a34      0x2ac c:/devkitpro/devkitarm/bin/../lib/gcc/arm-none-eabi/4.9.2\libgcc.a(_arm_addsubsf3.o)
                0x00190a34                __aeabi_frsub
                0x00190a3c                __subsf3
                0x00190a3c                __aeabi_fsub
                0x00190a40                __aeabi_fadd
                0x00190a40                __addsf3
                0x00190bfc                __aeabi_ui2f
                0x00190bfc                __floatunsisf
                0x00190c04                __aeabi_i2f
                0x00190c04                __floatsisf
                0x00190c24                __aeabi_ul2f
                0x00190c24                __floatundisf
                0x00190c34                __aeabi_l2f
                0x00190c34                __floatdisf
 .text          0x00190ce0      0x2f8 c:/devkitpro/devkitarm/bin/../lib/gcc/arm-none-eabi/4.9.2\libgcc.a(_arm_muldivsf3.o)
                0x00190ce0                __mulsf3
                0x00190ce0                __aeabi_fmul
                0x00190e78                __aeabi_fdiv
                0x00190e78                __divsf3
 .text          0x00190fd8      0x114 c:/devkitpro/devkitarm/bin/../lib/gcc/arm-none-eabi/4.9.2\libgcc.a(_arm_cmpsf2.o)
                0x00190fd8                __gesf2
                0x00190fd8                __gtsf2
                0x00190fe0                __lesf2
                0x00190fe0                __ltsf2
                0x00190fe8                __nesf2
                0x00190fe8                __eqsf2
                0x00190fe8                __cmpsf2
                0x0019104c                __aeabi_cfrcmple
                0x0019105c                __aeabi_cfcmpeq
                0x0019105c                __aeabi_cfcmple
                0x00191074                __aeabi_fcmpeq
                0x0019108c                __aeabi_fcmplt
                0x001910a4                __aeabi_fcmple
                0x001910bc                __aeabi_fcmpge
                0x001910d4                __aeabi_fcmpgt
 .text          0x001910ec       0x5c c:/devkitpro/devkitarm/bin/../lib/gcc/arm-none-eabi/4.9.2\libgcc.a(_arm_fixsfsi.o)
                0x001910ec                __aeabi_f2iz
                0x001910ec                __fixsfsi
 .text          0x00191148       0x54 c:/devkitpro/devkitarm/bin/../lib/gcc/arm-none-eabi/4.9.2\libgcc.a(_arm_fixunssfsi.o)
                0x00191148                __fixunssfsi
                0x00191148                __aeabi_f2uiz
 .text          0x0019119c       0x44 c:/devkitpro/devkitarm/bin/../lib/gcc/arm-none-eabi/4.9.2\libgcc.a(_aeabi_ldivmod.o)
                0x0019119c                __aeabi_ldivmod
 .text          0x001911e0       0x3c c:/devkitpro/devkitarm/bin/../lib/gcc/arm-none-eabi/4.9.2\libgcc.a(_aeabi_uldivmod.o)
                0x001911e0                __aeabi_uldivmod
 .text          0x0019121c       0x84 c:/devkitpro/devkitarm/bin/../lib/gcc/arm-none-eabi/4.9.2\libgcc.a(bpabi.o)
                0x0019121c                __gnu_ldivmod_helper
                0x00191260                __gnu_uldivmod_helper
 .text          0x001912a0      0x178 c:/devkitpro/devkitarm/bin/../lib/gcc/arm-none-eabi/4.9.2\libgcc.a(_divdi3.o)
                0x001912a0                __divdi3
 .text          0x00191418      0x120 c:/devkitpro/devkitarm/bin/../lib/gcc/arm-none-eabi/4.9.2\libgcc.a(_udivdi3.o)
                0x00191418                __udivdi3
 .text          0x00191538       0x28 c:/devkitpro/devkitarm/bin/../lib/gcc/arm-none-eabi/4.9.2\libgcc.a(_clzdi2.o)
                0x00191538                __clzdi2
 .text          0x00191560       0x48 c:/devkitpro/devkitarm/bin/../lib/gcc/arm-none-eabi/4.9.2\libgcc.a(_clzsi2.o)
                0x00191560                __clzsi2
 .text          0x001915a8       0x54 c:/devkitpro/devkitarm/bin/../lib/gcc/arm-none-eabi/4.9.2/../../../../arm-none-eabi/lib\libg.a(lib_a-access.o)
                0x001915a8                access
 .text          0x001915fc       0x68 c:/devkitpro/devkitarm/bin/../lib/gcc/arm-none-eabi/4.9.2/../../../../arm-none-eabi/lib\libg.a(lib_a-assert.o)
                0x001915fc                __assert_func
                0x00191654                __assert
 .text          0x00191664       0x20 c:/devkitpro/devkitarm/bin/../lib/gcc/arm-none-eabi/4.9.2/../../../../arm-none-eabi/lib\libg.a(lib_a-atexit.o)
                0x00191664                atexit
 .text          0x00191684       0x30 c:/devkitpro/devkitarm/bin/../lib/gcc/arm-none-eabi/4.9.2/../../../../arm-none-eabi/lib\libg.a(lib_a-atoi.o)
                0x00191684                atoi
                0x0019169c                _atoi_r
 .text          0x001916b4       0x18 c:/devkitpro/devkitarm/bin/../lib/gcc/arm-none-eabi/4.9.2/../../../../arm-none-eabi/lib\libg.a(lib_a-ctype_.o)
                0x001916b4                __set_ctype
 .text          0x001916cc       0x10 c:/devkitpro/devkitarm/bin/../lib/gcc/arm-none-eabi/4.9.2/../../../../arm-none-eabi/lib\libg.a(lib_a-errno.o)
                0x001916cc                __errno
 .text          0x001916dc       0x34 c:/devkitpro/devkitarm/bin/../lib/gcc/arm-none-eabi/4.9.2/../../../../arm-none-eabi/lib\libg.a(lib_a-exit.o)
                0x001916dc                exit
 .text          0x00191710      0x110 c:/devkitpro/devkitarm/bin/../lib/gcc/arm-none-eabi/4.9.2/../../../../arm-none-eabi/lib\libg.a(lib_a-fclose.o)
                0x00191710                _fclose_r
                0x0019180c                fclose
 .text          0x00191820      0x2d0 c:/devkitpro/devkitarm/bin/../lib/gcc/arm-none-eabi/4.9.2/../../../../arm-none-eabi/lib\libg.a(lib_a-fflush.o)
                0x00191820                __sflush_r
                0x00191a60                _fflush_r
                0x00191ab4                fflush
 .text          0x00191af0       0xd0 c:/devkitpro/devkitarm/bin/../lib/gcc/arm-none-eabi/4.9.2/../../../../arm-none-eabi/lib\libg.a(lib_a-fgetc.o)
                0x00191af0                _fgetc_r
                0x00191b50                fgetc
 .text          0x00191bc0      0x150 c:/devkitpro/devkitarm/bin/../lib/gcc/arm-none-eabi/4.9.2/../../../../arm-none-eabi/lib\libg.a(lib_a-fgets.o)
                0x00191bc0                _fgets_r
                0x00191ce8                fgets
 .text          0x00191d10      0x350 c:/devkitpro/devkitarm/bin/../lib/gcc/arm-none-eabi/4.9.2/../../../../arm-none-eabi/lib\libg.a(lib_a-findfp.o)
                0x00191d20                _cleanup_r
                0x00191e98                __sfmoreglue
                0x00191ee8                __sfp
                0x00191fd4                _cleanup
                0x00191ff8                __sinit
                0x00192008                __sfp_lock_acquire
                0x0019200c                __sfp_lock_release
                0x00192010                __sinit_lock_acquire
                0x00192014                __sinit_lock_release
                0x00192018                __fp_lock_all
                0x0019203c                __fp_unlock_all
 .text          0x00192060       0x48 c:/devkitpro/devkitarm/bin/../lib/gcc/arm-none-eabi/4.9.2/../../../../arm-none-eabi/lib\libg.a(lib_a-fini.o)
                0x00192060                __libc_fini_array
 .text          0x001920a8       0x70 c:/devkitpro/devkitarm/bin/../lib/gcc/arm-none-eabi/4.9.2/../../../../arm-none-eabi/lib\libg.a(lib_a-fiprintf.o)
                0x001920a8                _fiprintf_r
                0x001920d8                fiprintf
 .text          0x00192118      0x114 c:/devkitpro/devkitarm/bin/../lib/gcc/arm-none-eabi/4.9.2/../../../../arm-none-eabi/lib\libg.a(lib_a-fopen.o)
                0x00192118                _fopen_r
                0x00192214                fopen
 .text          0x0019222c       0x70 c:/devkitpro/devkitarm/bin/../lib/gcc/arm-none-eabi/4.9.2/../../../../arm-none-eabi/lib\libg.a(lib_a-fprintf.o)
                0x0019222c                _fprintf_r
                0x0019225c                fprintf
 .text          0x0019229c       0x84 c:/devkitpro/devkitarm/bin/../lib/gcc/arm-none-eabi/4.9.2/../../../../arm-none-eabi/lib\libg.a(lib_a-fputc.o)
                0x0019229c                _fputc_r
                0x001922d8                fputc
 .text          0x00192320      0x270 c:/devkitpro/devkitarm/bin/../lib/gcc/arm-none-eabi/4.9.2/../../../../arm-none-eabi/lib\libg.a(lib_a-fread.o)
                0x00192320                _fread_r
                0x00192550                fread
 .text          0x00192590      0x3bc c:/devkitpro/devkitarm/bin/../lib/gcc/arm-none-eabi/4.9.2/../../../../arm-none-eabi/lib\libg.a(lib_a-freer.o)
                0x00192590                _malloc_trim_r
                0x00192690                _free_r
 .text          0x0019294c       0x70 c:/devkitpro/devkitarm/bin/../lib/gcc/arm-none-eabi/4.9.2/../../../../arm-none-eabi/lib\libg.a(lib_a-fscanf.o)
                0x0019294c                fscanf
                0x0019298c                _fscanf_r
 .text          0x001929bc       0x3c c:/devkitpro/devkitarm/bin/../lib/gcc/arm-none-eabi/4.9.2/../../../../arm-none-eabi/lib\libg.a(lib_a-fseek.o)
                0x001929bc                _fseek_r
                0x001929cc                fseek
 .text          0x001929f8      0x4a8 c:/devkitpro/devkitarm/bin/../lib/gcc/arm-none-eabi/4.9.2/../../../../arm-none-eabi/lib\libg.a(lib_a-fseeko.o)
                0x001929f8                _fseeko_r
                0x00192e78                fseeko
 .text          0x00192ea0       0x30 c:/devkitpro/devkitarm/bin/../lib/gcc/arm-none-eabi/4.9.2/../../../../arm-none-eabi/lib\libg.a(lib_a-ftell.o)
                0x00192ea0                _ftell_r
                0x00192eb0                ftell
 .text          0x00192ed0       0xf0 c:/devkitpro/devkitarm/bin/../lib/gcc/arm-none-eabi/4.9.2/../../../../arm-none-eabi/lib\libg.a(lib_a-ftello.o)
                0x00192ed0                _ftello_r
                0x00192fac                ftello
 .text          0x00192fc0      0x110 c:/devkitpro/devkitarm/bin/../lib/gcc/arm-none-eabi/4.9.2/../../../../arm-none-eabi/lib\libg.a(lib_a-fwalk.o)
                0x00192fc0                _fwalk
                0x00193044                _fwalk_reent
 .text          0x001930d0       0xdc c:/devkitpro/devkitarm/bin/../lib/gcc/arm-none-eabi/4.9.2/../../../../arm-none-eabi/lib\libg.a(lib_a-fwrite.o)
                0x001930d0                _fwrite_r
                0x0019316c                fwrite
 .text          0x001931ac       0x50 c:/devkitpro/devkitarm/bin/../lib/gcc/arm-none-eabi/4.9.2/../../../../arm-none-eabi/lib\libg.a(lib_a-getenv.o)
                0x001931ac                _findenv
                0x001931d0                getenv
 .text          0x001931fc       0xec c:/devkitpro/devkitarm/bin/../lib/gcc/arm-none-eabi/4.9.2/../../../../arm-none-eabi/lib\libg.a(lib_a-getenv_r.o)
                0x001931fc                _findenv_r
                0x001932cc                _getenv_r
 .text          0x001932e8        0x0 c:/devkitpro/devkitarm/bin/../lib/gcc/arm-none-eabi/4.9.2/../../../../arm-none-eabi/lib\libg.a(lib_a-impure.o)
 .text          0x001932e8       0x80 c:/devkitpro/devkitarm/bin/../lib/gcc/arm-none-eabi/4.9.2/../../../../arm-none-eabi/lib\libg.a(lib_a-init.o)
                0x001932e8                __libc_init_array
 .text          0x00193368       0x74 c:/devkitpro/devkitarm/bin/../lib/gcc/arm-none-eabi/4.9.2/../../../../arm-none-eabi/lib\libg.a(lib_a-iprintf.o)
                0x00193368                iprintf
                0x001933a8                _iprintf_r
 .text          0x001933dc      0x168 c:/devkitpro/devkitarm/bin/../lib/gcc/arm-none-eabi/4.9.2/../../../../arm-none-eabi/lib\libg.a(lib_a-makebuf.o)
                0x001933dc                __smakebuf_r
 .text          0x00193544       0x40 c:/devkitpro/devkitarm/bin/../lib/gcc/arm-none-eabi/4.9.2/../../../../arm-none-eabi/lib\libg.a(lib_a-malloc.o)
                0x00193544                malloc
                0x00193564                free
 .text          0x00193584      0x724 c:/devkitpro/devkitarm/bin/../lib/gcc/arm-none-eabi/4.9.2/../../../../arm-none-eabi/lib\libg.a(lib_a-mallocr.o)
                0x00193584                _malloc_r
 .text          0x00193ca8      0x118 c:/devkitpro/devkitarm/bin/../lib/gcc/arm-none-eabi/4.9.2/../../../../arm-none-eabi/lib\libg.a(lib_a-memchr-stub.o)
                0x00193ca8                memchr
 .text          0x00193dc0       0xb0 c:/devkitpro/devkitarm/bin/../lib/gcc/arm-none-eabi/4.9.2/../../../../arm-none-eabi/lib\libg.a(lib_a-memcmp.o)
                0x00193dc0                memcmp
 .text          0x00193e70       0xf0 c:/devkitpro/devkitarm/bin/../lib/gcc/arm-none-eabi/4.9.2/../../../../arm-none-eabi/lib\libg.a(lib_a-memcpy-stub.o)
                0x00193e70                memcpy
 .text          0x00193f60      0x12c c:/devkitpro/devkitarm/bin/../lib/gcc/arm-none-eabi/4.9.2/../../../../arm-none-eabi/lib\libg.a(lib_a-memmove.o)
                0x00193f60                memmove
 .text          0x0019408c       0xf4 c:/devkitpro/devkitarm/bin/../lib/gcc/arm-none-eabi/4.9.2/../../../../arm-none-eabi/lib\libg.a(lib_a-memset.o)
                0x0019408c                memset
 .text          0x00194180        0x8 c:/devkitpro/devkitarm/bin/../lib/gcc/arm-none-eabi/4.9.2/../../../../arm-none-eabi/lib\libg.a(lib_a-mlock.o)
                0x00194180                __malloc_lock
                0x00194184                __malloc_unlock
 .text          0x00194188       0x74 c:/devkitpro/devkitarm/bin/../lib/gcc/arm-none-eabi/4.9.2/../../../../arm-none-eabi/lib\libg.a(lib_a-printf.o)
                0x00194188                _printf_r
                0x001941bc                printf
 .text          0x001941fc      0x158 c:/devkitpro/devkitarm/bin/../lib/gcc/arm-none-eabi/4.9.2/../../../../arm-none-eabi/lib\libg.a(lib_a-putc.o)
                0x001941fc                _putc_r
                0x001942a0                putc
 .text          0x00194354       0xa8 c:/devkitpro/devkitarm/bin/../lib/gcc/arm-none-eabi/4.9.2/../../../../arm-none-eabi/lib\libg.a(lib_a-puts.o)
                0x00194354                _puts_r
                0x001943e8                puts
 .text          0x001943fc       0x70 c:/devkitpro/devkitarm/bin/../lib/gcc/arm-none-eabi/4.9.2/../../../../arm-none-eabi/lib\libg.a(lib_a-rand.o)
                0x001943fc                srand
                0x00194418                rand
 .text          0x0019446c       0x24 c:/devkitpro/devkitarm/bin/../lib/gcc/arm-none-eabi/4.9.2/../../../../arm-none-eabi/lib\libg.a(lib_a-realloc.o)
                0x0019446c                realloc
 .text          0x00194490      0x4dc c:/devkitpro/devkitarm/bin/../lib/gcc/arm-none-eabi/4.9.2/../../../../arm-none-eabi/lib\libg.a(lib_a-reallocr.o)
                0x00194490                _realloc_r
 .text          0x0019496c      0x20c c:/devkitpro/devkitarm/bin/../lib/gcc/arm-none-eabi/4.9.2/../../../../arm-none-eabi/lib\libg.a(lib_a-refill.o)
                0x00194998                __srefill_r
 .text          0x00194b78       0x50 c:/devkitpro/devkitarm/bin/../lib/gcc/arm-none-eabi/4.9.2/../../../../arm-none-eabi/lib\libg.a(lib_a-remove.o)
                0x00194b78                _remove_r
                0x00194b98                remove
 .text          0x00194bc8       0x68 c:/devkitpro/devkitarm/bin/../lib/gcc/arm-none-eabi/4.9.2/../../../../arm-none-eabi/lib\libg.a(lib_a-rget.o)
                0x00194bc8                __srget_r
                0x00194c1c                __srget
 .text          0x00194c30       0x20 c:/devkitpro/devkitarm/bin/../lib/gcc/arm-none-eabi/4.9.2/../../../../arm-none-eabi/lib\libg.a(lib_a-setbuf.o)
                0x00194c30                setbuf
 .text          0x00194c50      0x174 c:/devkitpro/devkitarm/bin/../lib/gcc/arm-none-eabi/4.9.2/../../../../arm-none-eabi/lib\libg.a(lib_a-setvbuf.o)
                0x00194c50                setvbuf
 .text          0x00194dc4       0xdc c:/devkitpro/devkitarm/bin/../lib/gcc/arm-none-eabi/4.9.2/../../../../arm-none-eabi/lib\libg.a(lib_a-sprintf.o)
                0x00194dc4                _sprintf_r
                0x00194e2c                sprintf
 .text          0x00194ea0      0x100 c:/devkitpro/devkitarm/bin/../lib/gcc/arm-none-eabi/4.9.2/../../../../arm-none-eabi/lib\libg.a(lib_a-sscanf.o)
                0x00194ea0                sscanf
                0x00194f20                _sscanf_r
 .text          0x00194fa0       0xd8 c:/devkitpro/devkitarm/bin/../lib/gcc/arm-none-eabi/4.9.2/../../../../arm-none-eabi/lib\libg.a(lib_a-stdio.o)
                0x00194fa0                __sread
                0x00194fd4                __seofread
                0x00194fdc                __swrite
                0x00195034                __sseek
                0x00195064                __sclose
 .text          0x00195078       0x6c c:/devkitpro/devkitarm/bin/../lib/gcc/arm-none-eabi/4.9.2/../../../../arm-none-eabi/lib\libg.a(lib_a-strcasecmp.o)
                0x00195078                strcasecmp
 .text          0x001950e4       0x84 c:/devkitpro/devkitarm/bin/../lib/gcc/arm-none-eabi/4.9.2/../../../../arm-none-eabi/lib\libg.a(lib_a-strcat.o)
                0x001950e4                strcat
 .text          0x00195168      0x160 c:/devkitpro/devkitarm/bin/../lib/gcc/arm-none-eabi/4.9.2/../../../../arm-none-eabi/lib\libg.a(lib_a-strchr.o)
                0x00195168                strchr
 .text          0x001952c8      0x230 c:/devkitpro/devkitarm/bin/../lib/gcc/arm-none-eabi/4.9.2/../../../../arm-none-eabi/lib\libg.a(lib_a-strcmp.o)
                0x001952c8                strcmp
 .text          0x001954f8       0xf0 c:/devkitpro/devkitarm/bin/../lib/gcc/arm-none-eabi/4.9.2/../../../../arm-none-eabi/lib\libg.a(lib_a-strcpy.o)
                0x001954f8                strcpy
 .text          0x001955e8      0x614 c:/devkitpro/devkitarm/bin/../lib/gcc/arm-none-eabi/4.9.2/../../../../arm-none-eabi/lib\libg.a(lib_a-strerror.o)
                0x001955e8                _strerror_r
                0x00195be0                strerror
 .text          0x00195bfc       0x60 c:/devkitpro/devkitarm/bin/../lib/gcc/arm-none-eabi/4.9.2/../../../../arm-none-eabi/lib\libg.a(lib_a-strlen.o)
                0x00195bfc                strlen
 .text          0x00195c5c       0x44 c:/devkitpro/devkitarm/bin/../lib/gcc/arm-none-eabi/4.9.2/../../../../arm-none-eabi/lib\libg.a(lib_a-strlwr.o)
                0x00195c5c                strlwr
 .text          0x00195ca0       0x94 c:/devkitpro/devkitarm/bin/../lib/gcc/arm-none-eabi/4.9.2/../../../../arm-none-eabi/lib\libg.a(lib_a-strncasecmp.o)
                0x00195ca0                strncasecmp
 .text          0x00195d34      0x118 c:/devkitpro/devkitarm/bin/../lib/gcc/arm-none-eabi/4.9.2/../../../../arm-none-eabi/lib\libg.a(lib_a-strncmp.o)
                0x00195d34                strncmp
 .text          0x00195e4c       0xe4 c:/devkitpro/devkitarm/bin/../lib/gcc/arm-none-eabi/4.9.2/../../../../arm-none-eabi/lib\libg.a(lib_a-strncpy.o)
                0x00195e4c                strncpy
 .text          0x00195f30       0x24 c:/devkitpro/devkitarm/bin/../lib/gcc/arm-none-eabi/4.9.2/../../../../arm-none-eabi/lib\libg.a(lib_a-strtok.o)
                0x00195f30                strtok
 .text          0x00195f54       0xc8 c:/devkitpro/devkitarm/bin/../lib/gcc/arm-none-eabi/4.9.2/../../../../arm-none-eabi/lib\libg.a(lib_a-strtok_r.o)
                0x00195f54                __strtok_r
                0x00196014                strtok_r
 .text          0x0019601c      0x204 c:/devkitpro/devkitarm/bin/../lib/gcc/arm-none-eabi/4.9.2/../../../../arm-none-eabi/lib\libg.a(lib_a-strtol.o)
                0x0019601c                _strtol_r
                0x001961f8                strtol
 .text          0x00196220     0x4cbc c:/devkitpro/devkitarm/bin/../lib/gcc/arm-none-eabi/4.9.2/../../../../arm-none-eabi/lib\libg.a(lib_a-svfprintf.o)
                0x00196a80                _svfprintf_r
 .text          0x0019aedc     0x2af4 c:/devkitpro/devkitarm/bin/../lib/gcc/arm-none-eabi/4.9.2/../../../../arm-none-eabi/lib\libg.a(lib_a-svfscanf.o)
                0x0019aedc                __ssvfscanf_r
 .text          0x0019d9d0       0x24 c:/devkitpro/devkitarm/bin/../lib/gcc/arm-none-eabi/4.9.2/../../../../arm-none-eabi/lib\libg.a(lib_a-sysfstat.o)
                0x0019d9d0                fstat
 .text          0x0019d9f4       0x20 c:/devkitpro/devkitarm/bin/../lib/gcc/arm-none-eabi/4.9.2/../../../../arm-none-eabi/lib\libg.a(lib_a-sysisatty.o)
                0x0019d9f4                isatty
 .text          0x0019da14       0x24 c:/devkitpro/devkitarm/bin/../lib/gcc/arm-none-eabi/4.9.2/../../../../arm-none-eabi/lib\libg.a(lib_a-sysstat.o)
                0x0019da14                stat
 .text          0x0019da38        0x8 c:/devkitpro/devkitarm/bin/../lib/gcc/arm-none-eabi/4.9.2/../../../../arm-none-eabi/lib\libg.a(lib_a-u_strerr.o)
                0x0019da38                _user_strerror
 .text          0x0019da40     0x3c00 c:/devkitpro/devkitarm/bin/../lib/gcc/arm-none-eabi/4.9.2/../../../../arm-none-eabi/lib\libg.a(lib_a-vfiprintf.o)
                0x0019e34c                __sprint_r
                0x0019e364                _vfiprintf_r
                0x001a156c                vfiprintf
 .text          0x001a1640     0x4db8 c:/devkitpro/devkitarm/bin/../lib/gcc/arm-none-eabi/4.9.2/../../../../arm-none-eabi/lib\libg.a(lib_a-vfprintf.o)
                0x001a1ea0                _vfprintf_r
                0x001a6324                vfprintf
 .text          0x001a63f8     0x2ba0 c:/devkitpro/devkitarm/bin/../lib/gcc/arm-none-eabi/4.9.2/../../../../arm-none-eabi/lib\libg.a(lib_a-vfscanf.o)
                0x001a63f8                __svfscanf_r
                0x001a8eec                vfscanf
                0x001a8f38                __svfscanf
                0x001a8f60                _vfscanf_r
 .text          0x001a8f98       0xf8 c:/devkitpro/devkitarm/bin/../lib/gcc/arm-none-eabi/4.9.2/../../../../arm-none-eabi/lib\libg.a(lib_a-vsnprintf.o)
                0x001a8f98                _vsnprintf_r
                0x001a9050                vsnprintf
 .text          0x001a9090      0x140 c:/devkitpro/devkitarm/bin/../lib/gcc/arm-none-eabi/4.9.2/../../../../arm-none-eabi/lib\libg.a(lib_a-wbuf.o)
                0x001a9090                __swbuf_r
                0x001a91b8                __swbuf
 .text          0x001a91d0      0x138 c:/devkitpro/devkitarm/bin/../lib/gcc/arm-none-eabi/4.9.2/../../../../arm-none-eabi/lib\libg.a(lib_a-wcrtomb.o)
                0x001a91d0                _wcrtomb_r
                0x001a9268                wcrtomb
 .text          0x001a9308       0x60 c:/devkitpro/devkitarm/bin/../lib/gcc/arm-none-eabi/4.9.2/../../../../arm-none-eabi/lib\libg.a(lib_a-wcsrtombs.o)
                0x001a9308                _wcsrtombs_r
                0x001a932c                wcsrtombs
 .text          0x001a9368      0x3cc c:/devkitpro/devkitarm/bin/../lib/gcc/arm-none-eabi/4.9.2/../../../../arm-none-eabi/lib\libg.a(lib_a-wctomb_r.o)
                0x001a9368                __utf8_wctomb
                0x001a947c                _wctomb_r
                0x001a94cc                __ascii_wctomb
                0x001a94f4                __sjis_wctomb
                0x001a9580                __eucjp_wctomb
                0x001a9654                __jis_wctomb
 .text          0x001a9734      0x160 c:/devkitpro/devkitarm/bin/../lib/gcc/arm-none-eabi/4.9.2/../../../../arm-none-eabi/lib\libg.a(lib_a-wsetup.o)
                0x001a9734                __swsetup_r
 .text          0x001a9894       0x14 c:/devkitpro/devkitarm/bin/../lib/gcc/arm-none-eabi/4.9.2/../../../../arm-none-eabi/lib\libg.a(lib_a-abort.o)
                0x001a9894                abort
 .text          0x001a98a8       0xe0 c:/devkitpro/devkitarm/bin/../lib/gcc/arm-none-eabi/4.9.2/../../../../arm-none-eabi/lib\libg.a(lib_a-__atexit.o)
                0x001a98a8                __register_exitproc
 .text          0x001a9988      0x16c c:/devkitpro/devkitarm/bin/../lib/gcc/arm-none-eabi/4.9.2/../../../../arm-none-eabi/lib\libg.a(lib_a-__call_atexit.o)
                0x001a9988                __call_exitprocs
 *fill*         0x001a9af4        0x4 
 .text          0x001a9af8     0x1878 c:/devkitpro/devkitarm/bin/../lib/gcc/arm-none-eabi/4.9.2/../../../../arm-none-eabi/lib\libg.a(lib_a-dtoa.o)
                0x001a9cd0                _dtoa_r
 .text          0x001ab370        0x0 c:/devkitpro/devkitarm/bin/../lib/gcc/arm-none-eabi/4.9.2/../../../../arm-none-eabi/lib\libg.a(lib_a-environ.o)
 .text          0x001ab370        0x8 c:/devkitpro/devkitarm/bin/../lib/gcc/arm-none-eabi/4.9.2/../../../../arm-none-eabi/lib\libg.a(lib_a-envlock.o)
                0x001ab370                __env_lock
                0x001ab374                __env_unlock
 .text          0x001ab378       0xb8 c:/devkitpro/devkitarm/bin/../lib/gcc/arm-none-eabi/4.9.2/../../../../arm-none-eabi/lib\libg.a(lib_a-flags.o)
                0x001ab378                __sflags
 .text          0x001ab430      0x190 c:/devkitpro/devkitarm/bin/../lib/gcc/arm-none-eabi/4.9.2/../../../../arm-none-eabi/lib\libg.a(lib_a-fputwc.o)
                0x001ab430                _fputwc_r
                0x001ab57c                fputwc
 .text          0x001ab5c0      0x4ec c:/devkitpro/devkitarm/bin/../lib/gcc/arm-none-eabi/4.9.2/../../../../arm-none-eabi/lib\libg.a(lib_a-fvwrite.o)
                0x001ab5c0                __sfvwrite_r
 .text          0x001abaac       0x7c c:/devkitpro/devkitarm/bin/../lib/gcc/arm-none-eabi/4.9.2/../../../../arm-none-eabi/lib\libg.a(lib_a-iswspace.o)
                0x001abaac                iswspace
 .text          0x001abb28      0x280 c:/devkitpro/devkitarm/bin/../lib/gcc/arm-none-eabi/4.9.2/../../../../arm-none-eabi/lib\libg.a(lib_a-jp2uc.o)
                0x001abd2c                _jp2uc
 .text          0x001abda8      0xd40 c:/devkitpro/devkitarm/bin/../lib/gcc/arm-none-eabi/4.9.2/../../../../arm-none-eabi/lib\libg.a(lib_a-locale.o)
                0x001ac778                _setlocale_r
                0x001aca80                __locale_charset
                0x001aca8c                __locale_mb_cur_max
                0x001aca9c                __locale_msgcharset
                0x001acaa8                __locale_cjk_lang
                0x001acab8                _localeconv_r
                0x001acac4                setlocale
                0x001acadc                localeconv
 .text          0x001acae8      0x14c c:/devkitpro/devkitarm/bin/../lib/gcc/arm-none-eabi/4.9.2/../../../../arm-none-eabi/lib\libg.a(lib_a-mbrtowc.o)
                0x001acae8                _mbrtowc_r
                0x001acb8c                mbrtowc
 .text          0x001acc34      0x784 c:/devkitpro/devkitarm/bin/../lib/gcc/arm-none-eabi/4.9.2/../../../../arm-none-eabi/lib\libg.a(lib_a-mbtowc_r.o)
                0x001acc34                __utf8_mbtowc
                0x001acf38                _mbtowc_r
                0x001acf8c                __ascii_mbtowc
                0x001acfd8                __sjis_mbtowc
                0x001ad0b4                __eucjp_mbtowc
                0x001ad204                __jis_mbtowc
 .text          0x001ad3b8      0xd74 c:/devkitpro/devkitarm/bin/../lib/gcc/arm-none-eabi/4.9.2/../../../../arm-none-eabi/lib\libg.a(lib_a-mprec.o)
                0x001ad3b8                _Balloc
                0x001ad448                _Bfree
                0x001ad464                __multadd
                0x001ad540                __s2b
                0x001ad628                __hi0bits
                0x001ad684                __lo0bits
                0x001ad718                __i2b
                0x001ad73c                __multiply
                0x001ad92c                __pow5mult
                0x001ada30                __lshift
                0x001adb28                __mcmp
                0x001adb8c                __mdiff
                0x001adce0                __ulp
                0x001add44                __b2d
                0x001ade40                __d2b
                0x001adf4c                __ratio
                0x001adfe4                _mprec_log10
                0x001ae03c                __copybits
                0x001ae0ac                __any_on
 .text          0x001ae12c       0xdc c:/devkitpro/devkitarm/bin/../lib/gcc/arm-none-eabi/4.9.2/../../../../arm-none-eabi/lib\libg.a(lib_a-sccl.o)
                0x001ae12c                __sccl
 .text          0x001ae208        0xc c:/devkitpro/devkitarm/bin/../lib/gcc/arm-none-eabi/4.9.2/../../../../arm-none-eabi/lib\libg.a(lib_a-sf_nan.o)
                0x001ae208                nanf
 .text          0x001ae214       0xa8 c:/devkitpro/devkitarm/bin/../lib/gcc/arm-none-eabi/4.9.2/../../../../arm-none-eabi/lib\libg.a(lib_a-s_frexp.o)
                0x001ae214                frexp
 .text          0x001ae2bc      0x23c c:/devkitpro/devkitarm/bin/../lib/gcc/arm-none-eabi/4.9.2/../../../../arm-none-eabi/lib\libg.a(lib_a-signal.o)
                0x001ae2bc                _init_signal_r
                0x001ae31c                _signal_r
                0x001ae37c                _raise_r
                0x001ae414                __sigtramp_r
                0x001ae4a8                raise
                0x001ae4bc                signal
                0x001ae4d4                _init_signal
                0x001ae4e4                __sigtramp
 .text          0x001ae4f8      0x110 c:/devkitpro/devkitarm/bin/../lib/gcc/arm-none-eabi/4.9.2/../../../../arm-none-eabi/lib\libg.a(lib_a-stpncpy.o)
                0x001ae4f8                stpncpy
 .text          0x001ae608       0x48 c:/devkitpro/devkitarm/bin/../lib/gcc/arm-none-eabi/4.9.2/../../../../arm-none-eabi/lib\libg.a(lib_a-strlcpy.o)
                0x001ae608                strlcpy
 .text          0x001ae650     0x16a8 c:/devkitpro/devkitarm/bin/../lib/gcc/arm-none-eabi/4.9.2/../../../../arm-none-eabi/lib\libg.a(lib_a-strtod.o)
                0x001ae650                _strtod_r
                0x001afc8c                strtod
                0x001afca4                strtof
 .text          0x001afcf8      0x2c8 c:/devkitpro/devkitarm/bin/../lib/gcc/arm-none-eabi/4.9.2/../../../../arm-none-eabi/lib\libg.a(lib_a-strtoll_r.o)
                0x001afcf8                _strtoll_r
 .text          0x001affc0      0x270 c:/devkitpro/devkitarm/bin/../lib/gcc/arm-none-eabi/4.9.2/../../../../arm-none-eabi/lib\libg.a(lib_a-strtoull_r.o)
                0x001affc0                _strtoull_r
 .text          0x001b0230      0x1f4 c:/devkitpro/devkitarm/bin/../lib/gcc/arm-none-eabi/4.9.2/../../../../arm-none-eabi/lib\libg.a(lib_a-strtoul.o)
                0x001b0230                _strtoul_r
                0x001b03fc                strtoul
 .text          0x001b0424     0x38b4 c:/devkitpro/devkitarm/bin/../lib/gcc/arm-none-eabi/4.9.2/../../../../arm-none-eabi/lib\libg.a(lib_a-svfiprintf.o)
                0x001b0c84                __ssprint_r
                0x001b0e34                _svfiprintf_r
 .text          0x001b3cd8     0x237c c:/devkitpro/devkitarm/bin/../lib/gcc/arm-none-eabi/4.9.2/../../../../arm-none-eabi/lib\libg.a(lib_a-svfiscanf.o)
                0x001b3cd8                _sungetc_r
                0x001b3dcc                __ssrefill_r
                0x001b3e38                _sfread_r
                0x001b3f10                __ssvfiscanf_r
 .text          0x001b6054      0x24c c:/devkitpro/devkitarm/bin/../lib/gcc/arm-none-eabi/4.9.2/../../../../arm-none-eabi/lib\libg.a(lib_a-ungetc.o)
                0x001b6054                __submore
                0x001b6104                _ungetc_r
                0x001b6288                ungetc
 .text          0x001b62a0      0x1dc c:/devkitpro/devkitarm/bin/../lib/gcc/arm-none-eabi/4.9.2/../../../../arm-none-eabi/lib\libg.a(lib_a-wcsnrtombs.o)
                0x001b62a0                _wcsnrtombs_r
                0x001b6434                wcsnrtombs
 .text          0x001b647c       0x9c c:/devkitpro/devkitarm/bin/../lib/gcc/arm-none-eabi/4.9.2/../../../../arm-none-eabi/lib\libg.a(lib_a-callocr.o)
                0x001b647c                _calloc_r
 .text          0x001b6518      0x8e4 c:/devkitpro/devkitarm/bin/../lib/gcc/arm-none-eabi/4.9.2/../../../../arm-none-eabi/lib\libg.a(lib_a-gdtoa-gethex.o)
                0x001b660c                __gethex
 .text          0x001b6dfc      0x26c c:/devkitpro/devkitarm/bin/../lib/gcc/arm-none-eabi/4.9.2/../../../../arm-none-eabi/lib\libg.a(lib_a-gdtoa-hexnan.o)
                0x001b6dfc                __hexnan
 .text          0x001b7068      0x1c4 c:/devkitpro/devkitarm/bin/../lib/gcc/arm-none-eabi/4.9.2/../../../../arm-none-eabi/lib\libsysbase.a(iosupport.o)
                0x001b7068                setDefaultDevice
                0x001b7080                FindDevice
                0x001b7138                RemoveDevice
                0x001b7168                AddDevice
                0x001b7204                GetDeviceOpTab
 .text          0x001b722c       0x74 c:/devkitpro/devkitarm/bin/../lib/gcc/arm-none-eabi/4.9.2/../../../../arm-none-eabi/lib\libsysbase.a(close.o)
                0x001b722c                _close_r
 .text          0x001b72a0       0x80 c:/devkitpro/devkitarm/bin/../lib/gcc/arm-none-eabi/4.9.2/../../../../arm-none-eabi/lib\libsysbase.a(fstat.o)
                0x001b72a0                _fstat_r
 .text          0x001b7320       0x10 c:/devkitpro/devkitarm/bin/../lib/gcc/arm-none-eabi/4.9.2/../../../../arm-none-eabi/lib\libsysbase.a(getpid.o)
                0x001b7320                _getpid_r
 .text          0x001b7330        0x8 c:/devkitpro/devkitarm/bin/../lib/gcc/arm-none-eabi/4.9.2/../../../../arm-none-eabi/lib\libsysbase.a(isatty.o)
                0x001b7330                _isatty_r
 .text          0x001b7338       0x10 c:/devkitpro/devkitarm/bin/../lib/gcc/arm-none-eabi/4.9.2/../../../../arm-none-eabi/lib\libsysbase.a(kill.o)
                0x001b7338                _kill_r
 .text          0x001b7348       0x80 c:/devkitpro/devkitarm/bin/../lib/gcc/arm-none-eabi/4.9.2/../../../../arm-none-eabi/lib\libsysbase.a(lseek.o)
                0x001b7348                _lseek_r
 .text          0x001b73c8       0xd0 c:/devkitpro/devkitarm/bin/../lib/gcc/arm-none-eabi/4.9.2/../../../../arm-none-eabi/lib\libsysbase.a(open.o)
                0x001b73c8                _open_r
 .text          0x001b7498       0x80 c:/devkitpro/devkitarm/bin/../lib/gcc/arm-none-eabi/4.9.2/../../../../arm-none-eabi/lib\libsysbase.a(read.o)
                0x001b7498                _read_r
 .text          0x001b7518       0x70 c:/devkitpro/devkitarm/bin/../lib/gcc/arm-none-eabi/4.9.2/../../../../arm-none-eabi/lib\libsysbase.a(sbrk.o)
                0x001b7518                _sbrk_r
 .text          0x001b7588       0x60 c:/devkitpro/devkitarm/bin/../lib/gcc/arm-none-eabi/4.9.2/../../../../arm-none-eabi/lib\libsysbase.a(stat.o)
                0x001b7588                _stat_r
 .text          0x001b75e8       0x54 c:/devkitpro/devkitarm/bin/../lib/gcc/arm-none-eabi/4.9.2/../../../../arm-none-eabi/lib\libsysbase.a(unlink.o)
                0x001b75e8                _unlink_r
 .text          0x001b763c       0x84 c:/devkitpro/devkitarm/bin/../lib/gcc/arm-none-eabi/4.9.2/../../../../arm-none-eabi/lib\libsysbase.a(write.o)
                0x001b763c                _write_r
 .text          0x001b76c0       0x20 c:/devkitpro/devkitarm/bin/../lib/gcc/arm-none-eabi/4.9.2/../../../../arm-none-eabi/lib\libsysbase.a(_exit.o)
                0x001b76c0                _exit
 .text          0x001b76e0        0x0 c:/devkitpro/devkitarm/bin/../lib/gcc/arm-none-eabi/4.9.2/../../../../arm-none-eabi/lib\libsysbase.a(malloc_vars.o)
 .text          0x001b76e0      0x378 c:/devkitpro/devkitarm/bin/../lib/gcc/arm-none-eabi/4.9.2/../../../../arm-none-eabi/lib\libsysbase.a(chdir.o)
                0x001b76e0                _concatenate_path
                0x001b78a4                chdir
                0x001b79e8                getcwd
 .text          0x001b7a58        0x0 c:/devkitpro/devkitarm/bin/../lib/gcc/arm-none-eabi/4.9.2/../../../../arm-none-eabi/lib\libsysbase.a(syscall_support.o)
 .text          0x001b7a58       0xb0 c:/devkitpro/devkitarm/bin/../lib/gcc/arm-none-eabi/4.9.2/../../../../arm-none-eabi/lib\libsysbase.a(handle_manager.o)
                0x001b7a58                __release_handle
                0x001b7a90                __alloc_handle
                0x001b7aec                __get_handle
 .text          0x001b7b08       0x54 c:/devkitpro/devkitarm/bin/../lib/gcc/arm-none-eabi/4.9.2\libgcc.a(_arm_fixunsdfsi.o)
                0x001b7b08                __aeabi_d2uiz
                0x001b7b08                __fixunsdfsi
 .text          0x001b7b5c       0x5c c:/devkitpro/devkitarm/bin/../lib/gcc/arm-none-eabi/4.9.2/../../../../arm-none-eabi/lib\libg.a(lib_a-strnlen.o)
                0x001b7b5c                strnlen
 .text          0x001b7bb8       0x54 c:/devkitpro/devkitarm/bin/../lib/gcc/arm-none-eabi/4.9.2/../../../../arm-none-eabi/lib\libg.a(lib_a-strrchr.o)
                0x001b7bb8                strrchr
 .text          0x001b7c0c        0x0 c:/devkitpro/devkitarm/bin/../lib/gcc/arm-none-eabi/4.9.2/crtend.o
 .text          0x001b7c0c        0x0 c:/devkitpro/devkitarm/bin/../lib/gcc/arm-none-eabi/4.9.2/crtn.o
 *(.text.*)
 .text.unlikely
                0x001b7c0c       0x7c m_menu.o
 .text.startup  0x001b7c88      0x11c ds_main.o
                0x001b7c88                main
 .text.unlikely
                0x001b7da4       0x6c c:/devkitpro/devkitarm/bin/../lib/gcc/arm-none-eabi/4.9.2/../../../../arm-none-eabi/lib\libg.a(lib_a-strtod.o)
 *(.glue_7)
 .glue_7        0x00000000        0x0 linker stubs
 *(.glue_7t)
 .glue_7t       0x00000000        0x0 linker stubs
 *(.stub)
 *(.gnu.warning)
 *(.gnu.linkonce.t*)
                0x001b7e10                . = ALIGN (0x4)
 *(.fini)
 .fini          0x001b7e10        0xc c:/devkitpro/devkitarm/bin/../lib/gcc/arm-none-eabi/4.9.2/crti.o
                0x001b7e10                _fini
 .fini          0x001b7e1c        0xc c:/devkitpro/devkitarm/bin/../lib/gcc/arm-none-eabi/4.9.2/crtn.o
                0x001b7e28                . = ALIGN (0x4)

.vfp11_veneer   0x001b7e28        0x0
 .vfp11_veneer  0x00000000        0x0 linker stubs

.v4_bx          0x001b7e28        0x0
 .v4_bx         0x00000000        0x0 linker stubs

.iplt           0x001b7e28        0x0
 .iplt          0x00000000        0x0 c:/devkitpro/devkitarm/bin/../lib/gcc/arm-none-eabi/4.9.2/../../../../arm-none-eabi/lib/3dsx_crt0.o

.rodata         0x001b8000    0x12ca4
 *(.rodata)
 .rodata        0x001b8000      0x920 d_deh.o
                0x001b86e8                mapnamest
                0x001b8768                mapnamesp
                0x001b87e8                mapnames2
                0x001b8868                mapnames
 .rodata        0x001b8920      0x168 d_main.o
                0x001b8a40                standard_iwads
                0x001b8a64                standard_iwads_name
 .rodata        0x001b8a88       0x44 dstrings.o
                0x001b8a88                NUM_QUITMESSAGES
                0x001b8a8c                endmsg
 .rodata        0x001b8acc       0xa0 f_finale.o
 .rodata        0x001b8b6c       0x68 g_game.o
 .rodata        0x001b8bd4       0x80 hu_stuff.o
                0x001b8bd4                english_shiftxform
 .rodata        0x001b8c54       0x10 lprintf.o
 .rodata        0x001b8c64       0x44 m_menu.o
                0x001b8c94                skullName
 .rodata        0x001b8ca8      0x100 m_random.o
 .rodata        0x001b8da8       0x40 p_enemy.o
 .rodata        0x001b8de8        0xc p_genlin.o
 .rodata        0x001b8df4       0x18 p_inter.o
 .rodata        0x001b8e0c       0x24 p_pspr.o
 .rodata        0x001b8e30       0x20 p_setup.o
 .rodata        0x001b8e50       0xc0 r_bsp.o
 .rodata        0x001b8f10      0x708 r_draw.o
 .rodata        0x001b9618       0x28 r_patch.o
 .rodata        0x001b9640       0x80 v_video.o
 .rodata        0x001b96c0        0xc version.o
                0x001b96c0                version_date
 .rodata        0x001b96cc      0x1d8 wi_stuff.o
 .rodata        0x001b98a4        0x8 ds_main.o
 .rodata        0x001b98ac       0x24 3ds_sound.o
 .rodata        0x001b98d0       0x64 file.o
 .rodata        0x001b9934      0x15c c:/devkitPro/libctru/lib\libctru.a(console.o)
 .rodata        0x001b9a90       0x14 c:/devkitPro/libctru/lib\libctru.a(gfx.o)
 .rodata        0x001b9aa4       0x2c c:/devkitPro/libctru/lib\libctru.a(os.o)
 .rodata        0x001b9ad0        0xc c:/devkitPro/libctru/lib\libctru.a(apt.o)
 .rodata        0x001b9adc      0x804 c:/devkitPro/libctru/lib\libctru.a(default_font.bin.o)
                0x001b9adc                default_font_bin
                0x001ba2dc                default_font_bin_size
                0x001ba2dc                default_font_bin_end
 .rodata        0x001ba2e0       0x40 c:/devkitpro/devkitarm/bin/../lib/gcc/arm-none-eabi/4.9.2/../../../../arm-none-eabi/lib\libm.a(lib_a-s_atan.o)
 .rodata        0x001ba320      0x104 c:/devkitpro/devkitarm/bin/../lib/gcc/arm-none-eabi/4.9.2/../../../../arm-none-eabi/lib\libg.a(lib_a-ctype_.o)
                0x001ba320                _ctype_
 .rodata        0x001ba424        0x4 c:/devkitpro/devkitarm/bin/../lib/gcc/arm-none-eabi/4.9.2/../../../../arm-none-eabi/lib\libg.a(lib_a-impure.o)
                0x001ba424                _global_impure_ptr
 .rodata        0x001ba428       0x20 c:/devkitpro/devkitarm/bin/../lib/gcc/arm-none-eabi/4.9.2/../../../../arm-none-eabi/lib\libg.a(lib_a-svfprintf.o)
 .rodata        0x001ba448       0x24 c:/devkitpro/devkitarm/bin/../lib/gcc/arm-none-eabi/4.9.2/../../../../arm-none-eabi/lib\libg.a(lib_a-svfscanf.o)
 .rodata        0x001ba46c       0x20 c:/devkitpro/devkitarm/bin/../lib/gcc/arm-none-eabi/4.9.2/../../../../arm-none-eabi/lib\libg.a(lib_a-vfiprintf.o)
 .rodata        0x001ba48c       0x20 c:/devkitpro/devkitarm/bin/../lib/gcc/arm-none-eabi/4.9.2/../../../../arm-none-eabi/lib\libg.a(lib_a-vfprintf.o)
 .rodata        0x001ba4ac       0x24 c:/devkitpro/devkitarm/bin/../lib/gcc/arm-none-eabi/4.9.2/../../../../arm-none-eabi/lib\libg.a(lib_a-vfscanf.o)
 .rodata        0x001ba4d0     0x34d0 c:/devkitpro/devkitarm/bin/../lib/gcc/arm-none-eabi/4.9.2/../../../../arm-none-eabi/lib\libg.a(lib_a-jp2uc.o)
 .rodata        0x001bd9a0       0x1c c:/devkitpro/devkitarm/bin/../lib/gcc/arm-none-eabi/4.9.2/../../../../arm-none-eabi/lib\libg.a(lib_a-locale.o)
 .rodata        0x001bd9bc       0x90 c:/devkitpro/devkitarm/bin/../lib/gcc/arm-none-eabi/4.9.2/../../../../arm-none-eabi/lib\libg.a(lib_a-mbtowc_r.o)
 *fill*         0x001bda4c        0x4 
 .rodata        0x001bda50      0x128 c:/devkitpro/devkitarm/bin/../lib/gcc/arm-none-eabi/4.9.2/../../../../arm-none-eabi/lib\libg.a(lib_a-mprec.o)
                0x001bda60                __mprec_tens
                0x001bdb28                __mprec_tinytens
                0x001bdb50                __mprec_bigtens
 .rodata        0x001bdb78       0x50 c:/devkitpro/devkitarm/bin/../lib/gcc/arm-none-eabi/4.9.2/../../../../arm-none-eabi/lib\libg.a(lib_a-strtod.o)
 .rodata        0x001bdbc8      0x1f8 c:/devkitpro/devkitarm/bin/../lib/gcc/arm-none-eabi/4.9.2/../../../../arm-none-eabi/lib\libg.a(lib_a-svfiprintf.o)
                0x001bdbc8                __chclass
                0x001bdcc8                __state_table
                0x001bdd34                __action_table
 .rodata        0x001bddc0       0x24 c:/devkitpro/devkitarm/bin/../lib/gcc/arm-none-eabi/4.9.2/../../../../arm-none-eabi/lib\libg.a(lib_a-svfiscanf.o)
 .rodata        0x001bdde4      0x100 c:/devkitpro/devkitarm/bin/../lib/gcc/arm-none-eabi/4.9.2/../../../../arm-none-eabi/lib\libg.a(lib_a-gdtoa-gethex.o)
                0x001bdde4                __hexdig
 .rodata        0x001bdee4       0x64 c:/devkitpro/devkitarm/bin/../lib/gcc/arm-none-eabi/4.9.2/../../../../arm-none-eabi/lib\libsysbase.a(iosupport.o)
                0x001bdee4                dotab_stdnull
 .rodata        0x001bdf48        0xc c:/devkitpro/devkitarm/bin/../lib/gcc/arm-none-eabi/4.9.2/../../../../arm-none-eabi/lib\libsysbase.a(chdir.o)
                0x001bdf48                DIRECTORY_PARENT
                0x001bdf4c                DIRECTORY_THIS
                0x001bdf50                DIRECTORY_SEPARATOR
 *(.roda)
 *(.rodata.*)
 .rodata.str1.4
                0x001bdf54        0x6 am_map.o
                                  0x8 (size before relaxing)
 *fill*         0x001bdf5a        0x2 
 .rodata.str1.4
                0x001bdf5c       0x12 d_client.o
                                 0x14 (size before relaxing)
 *fill*         0x001bdf6e        0x2 
 .rodata.str1.4
                0x001bdf70     0x5cf2 d_deh.o
                               0x5d2c (size before relaxing)
 *fill*         0x001c3c62        0x2 
 .rodata.str1.4
                0x001c3c64      0xb9a d_main.o
                                0xbec (size before relaxing)
 *fill*         0x001c47fe        0x2 
 .rodata.str1.4
                0x001c4800      0x33f dstrings.o
                                0x370 (size before relaxing)
 *fill*         0x001c4b3f        0x1 
 .rodata.str1.4
                0x001c4b40       0x2b f_finale.o
                                 0x3c (size before relaxing)
 *fill*         0x001c4b6b        0x1 
 .rodata.str1.4
                0x001c4b6c      0x5ab g_game.o
                                0x5c8 (size before relaxing)
 *fill*         0x001c5117        0x1 
 .rodata.str1.4
                0x001c5118      0x13a hu_stuff.o
                                0x284 (size before relaxing)
 *fill*         0x001c5252        0x2 
 .rodata.str1.4
                0x001c5254      0x455 info.o
                                0x460 (size before relaxing)
 *fill*         0x001c56a9        0x3 
 .rodata.str1.4
                0x001c56ac       0x77 lprintf.o
                                 0x80 (size before relaxing)
 *fill*         0x001c5723        0x1 
 .rodata.str1.4
                0x001c5724      0x4f4 m_cheat.o
                                0x534 (size before relaxing)
 .rodata.str1.4
                0x001c5c18     0x1e32 m_menu.o
                               0x1ecc (size before relaxing)
 *fill*         0x001c7a4a        0x2 
 .rodata.str1.4
                0x001c7a4c      0xccf m_misc.o
                               0x1520 (size before relaxing)
 *fill*         0x001c871b        0x1 
 .rodata.str1.4
                0x001c871c       0x3c p_checksum.o
                                 0x4c (size before relaxing)
 .rodata.str1.4
                0x001c8758       0x4a p_doors.o
                                 0x4c (size before relaxing)
 *fill*         0x001c87a2        0x2 
 .rodata.str1.4
                0x001c87a4       0x27 p_inter.o
                                 0x28 (size before relaxing)
 *fill*         0x001c87cb        0x1 
 .rodata.str1.4
                0x001c87cc       0x91 p_map.o
                                 0x94 (size before relaxing)
 *fill*         0x001c885d        0x3 
 .rodata.str1.4
                0x001c8860       0xea p_mobj.o
                                 0xec (size before relaxing)
 *fill*         0x001c894a        0x2 
 .rodata.str1.4
                0x001c894c       0x9b p_saveg.o
                                 0x9c (size before relaxing)
 *fill*         0x001c89e7        0x1 
 .rodata.str1.4
                0x001c89e8      0x4c9 p_setup.o
                                0x4dc (size before relaxing)
 *fill*         0x001c8eb1        0x3 
 .rodata.str1.4
                0x001c8eb4       0x47 p_spec.o
                                 0x58 (size before relaxing)
 *fill*         0x001c8efb        0x1 
 .rodata.str1.4
                0x001c8efc       0x59 p_switch.o
                                 0x5c (size before relaxing)
 *fill*         0x001c8f55        0x3 
 .rodata.str1.4
                0x001c8f58      0x1c8 r_data.o
                                0x1dc (size before relaxing)
 .rodata.str1.4
                0x001c9120      0x15f r_draw.o
                                0x160 (size before relaxing)
 *fill*         0x001c927f        0x1 
 .rodata.str1.4
                0x001c9280       0xf4 r_main.o
 .rodata.str1.4
                0x001c9374      0x29d r_patch.o
                                0x2a0 (size before relaxing)
 *fill*         0x001c9611        0x3 
 .rodata.str1.4
                0x001c9614       0xd6 r_things.o
                                 0xd8 (size before relaxing)
 *fill*         0x001c96ea        0x2 
 .rodata.str1.4
                0x001c96ec      0x356 sounds.o
                                0x578 (size before relaxing)
 *fill*         0x001c9a42        0x2 
 .rodata.str1.4
                0x001c9a44        0x9 st_lib.o
                                  0xc (size before relaxing)
 *fill*         0x001c9a4d        0x3 
 .rodata.str1.4
                0x001c9a50       0xa1 st_stuff.o
                                 0xb0 (size before relaxing)
 *fill*         0x001c9af1        0x3 
 .rodata.str1.4
                0x001c9af4       0xcf tables.o
                                 0xd0 (size before relaxing)
 *fill*         0x001c9bc3        0x1 
 .rodata.str1.4
                0x001c9bc4      0x188 v_video.o
                                0x190 (size before relaxing)
 .rodata.str1.4
                0x001c9d4c       0x7c w_memcache.o
 .rodata.str1.4
                0x001c9dc8       0xf5 w_wad.o
                                0x148 (size before relaxing)
 *fill*         0x001c9ebd        0x3 
 .rodata.str1.4
                0x001c9ec0       0x7f wi_stuff.o
                                 0x80 (size before relaxing)
 *fill*         0x001c9f3f        0x1 
 .rodata.str1.4
                0x001c9f40       0x1d z_bmalloc.o
                                 0x20 (size before relaxing)
 *fill*         0x001c9f5d        0x3 
 .rodata.str1.4
                0x001c9f60       0x2f z_zone.o
                                 0x30 (size before relaxing)
 *fill*         0x001c9f8f        0x1 
 .rodata.str1.4
                0x001c9f90       0x39 ds_main.o
                                 0x3c (size before relaxing)
 *fill*         0x001c9fc9        0x3 
 .rodata.str1.4
                0x001c9fcc       0xbf ds_sys.o
                                 0xd4 (size before relaxing)
 *fill*         0x001ca08b        0x1 
 .rodata.str1.4
                0x001ca08c       0x7d ds_vid.o
                                 0xb4 (size before relaxing)
 *fill*         0x001ca109        0x3 
 .rodata.str1.4
                0x001ca10c       0x54 3ds_mix.o
 .rodata.str1.4
                0x001ca160       0x60 3ds_sound.o
 .rodata.str1.4
                0x001ca1c0      0x14c file.o
                                0x158 (size before relaxing)
 .rodata.str1.4
                0x001ca30c       0x68 c:/devkitPro/libctru/lib\libctru.a(console.o)
                                 0x70 (size before relaxing)
 .rodata.str1.4
                0x001ca374       0xc4 c:/devkitPro/libctru/lib\libctru.a(os.o)
 .rodata.str1.4
                0x001ca438        0xf c:/devkitPro/libctru/lib\libctru.a(srv.o)
                                 0x10 (size before relaxing)
 *fill*         0x001ca447        0x1 
 .rodata.str1.4
                0x001ca448       0x16 c:/devkitPro/libctru/lib\libctru.a(apt.o)
                                 0x18 (size before relaxing)
 *fill*         0x001ca45e        0x2 
 .rodata.str1.4
                0x001ca460        0x9 c:/devkitPro/libctru/lib\libctru.a(csnd.o)
                                  0xc (size before relaxing)
 *fill*         0x001ca469        0x3 
 .rodata.str1.4
                0x001ca46c        0x8 c:/devkitPro/libctru/lib\libctru.a(fs.o)
 .rodata.str1.4
                0x001ca474        0x9 c:/devkitPro/libctru/lib\libctru.a(gsp.o)
                                  0xc (size before relaxing)
 *fill*         0x001ca47d        0x3 
 .rodata.str1.4
                0x001ca480        0x9 c:/devkitPro/libctru/lib\libctru.a(hid.o)
                                  0xc (size before relaxing)
 *fill*         0x001ca489        0x3 
 .rodata.str1.4
                0x001ca48c        0x7 c:/devkitPro/libctru/lib\libctru.a(irrst.o)
                                  0x8 (size before relaxing)
 *fill*         0x001ca493        0x1 
 .rodata.str1.4
                0x001ca494        0x5 c:/devkitpro/devkitarm/bin/../lib/gcc/arm-none-eabi/4.9.2/../../../../arm-none-eabi/lib\libm.a(lib_a-w_sqrt.o)
                                  0x8 (size before relaxing)
 *fill*         0x001ca499        0x3 
 .rodata.str1.4
                0x001ca49c       0x3f c:/devkitpro/devkitarm/bin/../lib/gcc/arm-none-eabi/4.9.2/../../../../arm-none-eabi/lib\libg.a(lib_a-assert.o)
                                 0x44 (size before relaxing)
 *fill*         0x001ca4db        0x1 
 .rodata.str1.4
                0x001ca4dc        0x2 c:/devkitpro/devkitarm/bin/../lib/gcc/arm-none-eabi/4.9.2/../../../../arm-none-eabi/lib\libg.a(lib_a-impure.o)
                                  0x4 (size before relaxing)
 .rodata.str1.4
                0x00000000        0x4 c:/devkitpro/devkitarm/bin/../lib/gcc/arm-none-eabi/4.9.2/../../../../arm-none-eabi/lib\libg.a(lib_a-puts.o)
 *fill*         0x001ca4de        0x2 
 .rodata.str1.4
                0x001ca4e0      0x635 c:/devkitpro/devkitarm/bin/../lib/gcc/arm-none-eabi/4.9.2/../../../../arm-none-eabi/lib\libg.a(lib_a-strerror.o)
                                0x63c (size before relaxing)
 *fill*         0x001cab15        0x3 
 .rodata.str1.4
                0x001cab18       0x3f c:/devkitpro/devkitarm/bin/../lib/gcc/arm-none-eabi/4.9.2/../../../../arm-none-eabi/lib\libg.a(lib_a-svfprintf.o)
                                 0x44 (size before relaxing)
 *fill*         0x001cab57        0x1 
 .rodata.str1.4
                0x001cab58        0x5 c:/devkitpro/devkitarm/bin/../lib/gcc/arm-none-eabi/4.9.2/../../../../arm-none-eabi/lib\libg.a(lib_a-svfscanf.o)
                                  0x8 (size before relaxing)
 .rodata.str1.4
                0x00000000       0x30 c:/devkitpro/devkitarm/bin/../lib/gcc/arm-none-eabi/4.9.2/../../../../arm-none-eabi/lib\libg.a(lib_a-vfiprintf.o)
 .rodata.str1.4
                0x00000000       0x44 c:/devkitpro/devkitarm/bin/../lib/gcc/arm-none-eabi/4.9.2/../../../../arm-none-eabi/lib\libg.a(lib_a-vfprintf.o)
 .rodata.str1.4
                0x00000000        0x8 c:/devkitpro/devkitarm/bin/../lib/gcc/arm-none-eabi/4.9.2/../../../../arm-none-eabi/lib\libg.a(lib_a-vfscanf.o)
 *fill*         0x001cab5d        0x3 
 .rodata.str1.4
                0x001cab60       0x10 c:/devkitpro/devkitarm/bin/../lib/gcc/arm-none-eabi/4.9.2/../../../../arm-none-eabi/lib\libg.a(lib_a-dtoa.o)
                                 0x14 (size before relaxing)
 .rodata.str1.4
                0x001cab70       0x12 c:/devkitpro/devkitarm/bin/../lib/gcc/arm-none-eabi/4.9.2/../../../../arm-none-eabi/lib\libg.a(lib_a-jp2uc.o)
                                 0x14 (size before relaxing)
 *fill*         0x001cab82        0x2 
 .rodata.str1.4
                0x001cab84      0x10c c:/devkitpro/devkitarm/bin/../lib/gcc/arm-none-eabi/4.9.2/../../../../arm-none-eabi/lib\libg.a(lib_a-locale.o)
                                0x130 (size before relaxing)
 .rodata.str1.4
                0x00000000        0x4 c:/devkitpro/devkitarm/bin/../lib/gcc/arm-none-eabi/4.9.2/../../../../arm-none-eabi/lib\libg.a(lib_a-mbrtowc.o)
 .rodata.str1.4
                0x001cac90        0xa c:/devkitpro/devkitarm/bin/../lib/gcc/arm-none-eabi/4.9.2/../../../../arm-none-eabi/lib\libg.a(lib_a-strtod.o)
                                 0x10 (size before relaxing)
 .rodata.str1.4
                0x00000000       0x30 c:/devkitpro/devkitarm/bin/../lib/gcc/arm-none-eabi/4.9.2/../../../../arm-none-eabi/lib\libg.a(lib_a-svfiprintf.o)
 *fill*         0x001cac9a        0x2 
 .rodata.str1.4
                0x001cac9c        0x8 c:/devkitpro/devkitarm/bin/../lib/gcc/arm-none-eabi/4.9.2/../../../../arm-none-eabi/lib\libsysbase.a(iosupport.o)
 *all.rodata*(*)
 *(.gnu.linkonce.r*)
                0x001caca4                . = ALIGN (0x4)

.rel.dyn        0x001caca4        0x0
 .rel.iplt      0x00000000        0x0 c:/devkitpro/devkitarm/bin/../lib/gcc/arm-none-eabi/4.9.2/../../../../arm-none-eabi/lib/3dsx_crt0.o

.ARM.extab
 *(.ARM.extab* .gnu.linkonce.armextab.*)
                0x001caca4                __exidx_start = .

ARM.exidx
 *(.ARM.exidx* .gnu.linkonce.armexidx.*)
                0x001caca4                __exidx_end = .

.data           0x001cb000    0x16db4
 *(.data)
 .data          0x001cb000        0x0 c:/devkitpro/devkitarm/bin/../lib/gcc/arm-none-eabi/4.9.2/../../../../arm-none-eabi/lib/3dsx_crt0.o
 .data          0x001cb000        0x0 c:/devkitpro/devkitarm/bin/../lib/gcc/arm-none-eabi/4.9.2/crti.o
 .data          0x001cb000        0x4 c:/devkitpro/devkitarm/bin/../lib/gcc/arm-none-eabi/4.9.2/crtbegin.o
                0x001cb000                __dso_handle
 .data          0x001cb004      0x214 am_map.o
                0x001cb038                cheat_player_arrow
                0x001cb118                player_arrow
                0x001cb188                mapcolor_plyr
                0x001cb198                cross_mark
                0x001cb1b8                thintriangle_guy
                0x001cb1e8                triangle_guy
 .data          0x001cb218        0x4 d_client.o
                0x001cb218                ticdup
 .data          0x001cb21c     0x1350 d_deh.o
                0x001cc078                HelperThing
                0x001cc080                deh_newlevel
                0x001cc084                savegamename
                0x001cc088                startup5
                0x001cc08c                startup4
                0x001cc090                startup3
                0x001cc094                startup2
                0x001cc098                startup1
                0x001cc09c                bgcastcall
                0x001cc0a0                bgflat31
                0x001cc0a4                bgflat15
                0x001cc0a8                bgflat30
                0x001cc0ac                bgflat20
                0x001cc0b0                bgflat11
                0x001cc0b4                bgflat06
                0x001cc0b8                bgflatE4
                0x001cc0bc                bgflatE3
                0x001cc0c0                bgflatE2
                0x001cc0c4                bgflatE1
                0x001cc0c8                s_CC_HERO
                0x001cc0cc                s_CC_CYBER
                0x001cc0d0                s_CC_SPIDER
                0x001cc0d4                s_CC_ARCH
                0x001cc0d8                s_CC_MANCU
                0x001cc0dc                s_CC_REVEN
                0x001cc0e0                s_CC_PAIN
                0x001cc0e4                s_CC_ARACH
                0x001cc0e8                s_CC_BARON
                0x001cc0ec                s_CC_HELL
                0x001cc0f0                s_CC_CACO
                0x001cc0f4                s_CC_LOST
                0x001cc0f8                s_CC_DEMON
                0x001cc0fc                s_CC_IMP
                0x001cc100                s_CC_HEAVY
                0x001cc104                s_CC_SHOTGUN
                0x001cc108                s_CC_ZOMBIE
                0x001cc10c                s_T6TEXT
                0x001cc110                s_T5TEXT
                0x001cc114                s_T4TEXT
                0x001cc118                s_T3TEXT
                0x001cc11c                s_T2TEXT
                0x001cc120                s_T1TEXT
                0x001cc124                s_P6TEXT
                0x001cc128                s_P5TEXT
                0x001cc12c                s_P4TEXT
                0x001cc130                s_P3TEXT
                0x001cc134                s_P2TEXT
                0x001cc138                s_P1TEXT
                0x001cc13c                s_C6TEXT
                0x001cc140                s_C5TEXT
                0x001cc144                s_C4TEXT
                0x001cc148                s_C3TEXT
                0x001cc14c                s_C2TEXT
                0x001cc150                s_C1TEXT
                0x001cc154                s_E4TEXT
                0x001cc158                s_E3TEXT
                0x001cc15c                s_E2TEXT
                0x001cc160                s_E1TEXT
                0x001cc164                s_STSTR_COMPOFF
                0x001cc168                s_STSTR_COMPON
                0x001cc16c                s_STSTR_CLEV
                0x001cc170                s_STSTR_CHOPPERS
                0x001cc174                s_STSTR_BEHOLDX
                0x001cc178                s_STSTR_BEHOLD
                0x001cc17c                s_STSTR_NCOFF
                0x001cc180                s_STSTR_NCON
                0x001cc184                s_STSTR_FAADDED
                0x001cc188                s_STSTR_KFAADDED
                0x001cc18c                s_STSTR_DQDOFF
                0x001cc190                s_STSTR_DQDON
                0x001cc194                s_STSTR_NOMUS
                0x001cc198                s_STSTR_MUS
                0x001cc19c                s_AMSTR_OVERLAYOFF
                0x001cc1a0                s_AMSTR_OVERLAYON
                0x001cc1a4                s_AMSTR_ROTATEOFF
                0x001cc1a8                s_AMSTR_ROTATEON
                0x001cc1ac                s_AMSTR_MARKSCLEARED
                0x001cc1b0                s_AMSTR_MARKEDSPOT
                0x001cc1b4                s_AMSTR_GRIDOFF
                0x001cc1b8                s_AMSTR_GRIDON
                0x001cc1bc                s_AMSTR_FOLLOWOFF
                0x001cc1c0                s_AMSTR_FOLLOWON
                0x001cc1c4                s_HUSTR_PLRRED
                0x001cc1c8                s_HUSTR_PLRBROWN
                0x001cc1cc                s_HUSTR_PLRINDIGO
                0x001cc1d0                s_HUSTR_PLRGREEN
                0x001cc1d4                s_HUSTR_MESSAGESENT
                0x001cc1d8                s_HUSTR_TALKTOSELF5
                0x001cc1dc                s_HUSTR_TALKTOSELF4
                0x001cc1e0                s_HUSTR_TALKTOSELF3
                0x001cc1e4                s_HUSTR_TALKTOSELF2
                0x001cc1e8                s_HUSTR_TALKTOSELF1
                0x001cc1ec                s_HUSTR_CHATMACRO0
                0x001cc1f0                s_HUSTR_CHATMACRO9
                0x001cc1f4                s_HUSTR_CHATMACRO8
                0x001cc1f8                s_HUSTR_CHATMACRO7
                0x001cc1fc                s_HUSTR_CHATMACRO6
                0x001cc200                s_HUSTR_CHATMACRO5
                0x001cc204                s_HUSTR_CHATMACRO4
                0x001cc208                s_HUSTR_CHATMACRO3
                0x001cc20c                s_HUSTR_CHATMACRO2
                0x001cc210                s_HUSTR_CHATMACRO1
                0x001cc214                s_THUSTR_32
                0x001cc218                s_THUSTR_31
                0x001cc21c                s_THUSTR_30
                0x001cc220                s_THUSTR_29
                0x001cc224                s_THUSTR_28
                0x001cc228                s_THUSTR_27
                0x001cc22c                s_THUSTR_26
                0x001cc230                s_THUSTR_25
                0x001cc234                s_THUSTR_24
                0x001cc238                s_THUSTR_23
                0x001cc23c                s_THUSTR_22
                0x001cc240                s_THUSTR_21
                0x001cc244                s_THUSTR_20
                0x001cc248                s_THUSTR_19
                0x001cc24c                s_THUSTR_18
                0x001cc250                s_THUSTR_17
                0x001cc254                s_THUSTR_16
                0x001cc258                s_THUSTR_15
                0x001cc25c                s_THUSTR_14
                0x001cc260                s_THUSTR_13
                0x001cc264                s_THUSTR_12
                0x001cc268                s_THUSTR_11
                0x001cc26c                s_THUSTR_10
                0x001cc270                s_THUSTR_9
                0x001cc274                s_THUSTR_8
                0x001cc278                s_THUSTR_7
                0x001cc27c                s_THUSTR_6
                0x001cc280                s_THUSTR_5
                0x001cc284                s_THUSTR_4
                0x001cc288                s_THUSTR_3
                0x001cc28c                s_THUSTR_2
                0x001cc290                s_THUSTR_1
                0x001cc294                s_PHUSTR_32
                0x001cc298                s_PHUSTR_31
                0x001cc29c                s_PHUSTR_30
                0x001cc2a0                s_PHUSTR_29
                0x001cc2a4                s_PHUSTR_28
                0x001cc2a8                s_PHUSTR_27
                0x001cc2ac                s_PHUSTR_26
                0x001cc2b0                s_PHUSTR_25
                0x001cc2b4                s_PHUSTR_24
                0x001cc2b8                s_PHUSTR_23
                0x001cc2bc                s_PHUSTR_22
                0x001cc2c0                s_PHUSTR_21
                0x001cc2c4                s_PHUSTR_20
                0x001cc2c8                s_PHUSTR_19
                0x001cc2cc                s_PHUSTR_18
                0x001cc2d0                s_PHUSTR_17
                0x001cc2d4                s_PHUSTR_16
                0x001cc2d8                s_PHUSTR_15
                0x001cc2dc                s_PHUSTR_14
                0x001cc2e0                s_PHUSTR_13
                0x001cc2e4                s_PHUSTR_12
                0x001cc2e8                s_PHUSTR_11
                0x001cc2ec                s_PHUSTR_10
                0x001cc2f0                s_PHUSTR_9
                0x001cc2f4                s_PHUSTR_8
                0x001cc2f8                s_PHUSTR_7
                0x001cc2fc                s_PHUSTR_6
                0x001cc300                s_PHUSTR_5
                0x001cc304                s_PHUSTR_4
                0x001cc308                s_PHUSTR_3
                0x001cc30c                s_PHUSTR_2
                0x001cc310                s_PHUSTR_1
                0x001cc314                s_HUSTR_32
                0x001cc318                s_HUSTR_31
                0x001cc31c                s_HUSTR_30
                0x001cc320                s_HUSTR_29
                0x001cc324                s_HUSTR_28
                0x001cc328                s_HUSTR_27
                0x001cc32c                s_HUSTR_26
                0x001cc330                s_HUSTR_25
                0x001cc334                s_HUSTR_24
                0x001cc338                s_HUSTR_23
                0x001cc33c                s_HUSTR_22
                0x001cc340                s_HUSTR_21
                0x001cc344                s_HUSTR_20
                0x001cc348                s_HUSTR_19
                0x001cc34c                s_HUSTR_18
                0x001cc350                s_HUSTR_17
                0x001cc354                s_HUSTR_16
                0x001cc358                s_HUSTR_15
                0x001cc35c                s_HUSTR_14
                0x001cc360                s_HUSTR_13
                0x001cc364                s_HUSTR_12
                0x001cc368                s_HUSTR_11
                0x001cc36c                s_HUSTR_10
                0x001cc370                s_HUSTR_9
                0x001cc374                s_HUSTR_8
                0x001cc378                s_HUSTR_7
                0x001cc37c                s_HUSTR_6
                0x001cc380                s_HUSTR_5
                0x001cc384                s_HUSTR_4
                0x001cc388                s_HUSTR_3
                0x001cc38c                s_HUSTR_2
                0x001cc390                s_HUSTR_1
                0x001cc394                s_HUSTR_E4M9
                0x001cc398                s_HUSTR_E4M8
                0x001cc39c                s_HUSTR_E4M7
                0x001cc3a0                s_HUSTR_E4M6
                0x001cc3a4                s_HUSTR_E4M5
                0x001cc3a8                s_HUSTR_E4M4
                0x001cc3ac                s_HUSTR_E4M3
                0x001cc3b0                s_HUSTR_E4M2
                0x001cc3b4                s_HUSTR_E4M1
                0x001cc3b8                s_HUSTR_E3M9
                0x001cc3bc                s_HUSTR_E3M8
                0x001cc3c0                s_HUSTR_E3M7
                0x001cc3c4                s_HUSTR_E3M6
                0x001cc3c8                s_HUSTR_E3M5
                0x001cc3cc                s_HUSTR_E3M4
                0x001cc3d0                s_HUSTR_E3M3
                0x001cc3d4                s_HUSTR_E3M2
                0x001cc3d8                s_HUSTR_E3M1
                0x001cc3dc                s_HUSTR_E2M9
                0x001cc3e0                s_HUSTR_E2M8
                0x001cc3e4                s_HUSTR_E2M7
                0x001cc3e8                s_HUSTR_E2M6
                0x001cc3ec                s_HUSTR_E2M5
                0x001cc3f0                s_HUSTR_E2M4
                0x001cc3f4                s_HUSTR_E2M3
                0x001cc3f8                s_HUSTR_E2M2
                0x001cc3fc                s_HUSTR_E2M1
                0x001cc400                s_HUSTR_E1M9
                0x001cc404                s_HUSTR_E1M8
                0x001cc408                s_HUSTR_E1M7
                0x001cc40c                s_HUSTR_E1M6
                0x001cc410                s_HUSTR_E1M5
                0x001cc414                s_HUSTR_E1M4
                0x001cc418                s_HUSTR_E1M3
                0x001cc41c                s_HUSTR_E1M2
                0x001cc420                s_HUSTR_E1M1
                0x001cc424                s_HUSTR_MSGU
                0x001cc428                s_GGSAVED
                0x001cc42c                s_PD_ALL6
                0x001cc430                s_PD_ALL3
                0x001cc434                s_PD_ANY
                0x001cc438                s_PD_YELLOWS
                0x001cc43c                s_PD_REDS
                0x001cc440                s_PD_BLUES
                0x001cc444                s_PD_YELLOWC
                0x001cc448                s_PD_REDC
                0x001cc44c                s_PD_BLUEC
                0x001cc450                s_PD_YELLOWK
                0x001cc454                s_PD_REDK
                0x001cc458                s_PD_BLUEK
                0x001cc45c                s_PD_YELLOWO
                0x001cc460                s_PD_REDO
                0x001cc464                s_PD_BLUEO
                0x001cc468                s_GOTSHOTGUN2
                0x001cc46c                s_GOTSHOTGUN
                0x001cc470                s_GOTPLASMA
                0x001cc474                s_GOTLAUNCHER
                0x001cc478                s_GOTCHAINSAW
                0x001cc47c                s_GOTCHAINGUN
                0x001cc480                s_GOTBFG9000
                0x001cc484                s_GOTBACKPACK
                0x001cc488                s_GOTSHELLBOX
                0x001cc48c                s_GOTSHELLS
                0x001cc490                s_GOTCELLBOX
                0x001cc494                s_GOTCELL
                0x001cc498                s_GOTROCKBOX
                0x001cc49c                s_GOTROCKET
                0x001cc4a0                s_GOTCLIPBOX
                0x001cc4a4                s_GOTCLIP
                0x001cc4a8                s_GOTMSPHERE
                0x001cc4ac                s_GOTVISOR
                0x001cc4b0                s_GOTMAP
                0x001cc4b4                s_GOTSUIT
                0x001cc4b8                s_GOTINVIS
                0x001cc4bc                s_GOTBERSERK
                0x001cc4c0                s_GOTINVUL
                0x001cc4c4                s_GOTREDSKULL
                0x001cc4c8                s_GOTYELWSKUL
                0x001cc4cc                s_GOTBLUESKUL
                0x001cc4d0                s_GOTREDCARD
                0x001cc4d4                s_GOTYELWCARD
                0x001cc4d8                s_GOTBLUECARD
                0x001cc4dc                s_GOTSUPER
                0x001cc4e0                s_GOTMEDIKIT
                0x001cc4e4                s_GOTMEDINEED
                0x001cc4e8                s_GOTSTIM
                0x001cc4ec                s_GOTARMBONUS
                0x001cc4f0                s_GOTHTHBONUS
                0x001cc4f4                s_GOTMEGA
                0x001cc4f8                s_GOTARMOR
                0x001cc4fc                s_EMPTYSTRING
                0x001cc500                s_GAMMALVL4
                0x001cc504                s_GAMMALVL3
                0x001cc508                s_GAMMALVL2
                0x001cc50c                s_GAMMALVL1
                0x001cc510                s_GAMMALVL0
                0x001cc514                s_DETAILLO
                0x001cc518                s_DETAILHI
                0x001cc51c                s_DOSY
                0x001cc520                s_ENDGAME
                0x001cc524                s_NETEND
                0x001cc528                s_SAVING
                0x001cc52c                s_LOADING
                0x001cc530                s_MSGON
                0x001cc534                s_MSGOFF
                0x001cc538                s_SWSTRING
                0x001cc53c                s_NIGHTMARE
                0x001cc540                s_RESTARTLEVEL
                0x001cc544                s_NEWGAME
                0x001cc548                s_QLPROMPT
                0x001cc54c                s_QSPROMPT
                0x001cc550                s_SAVEDEAD
                0x001cc554                s_QSAVESPOT
                0x001cc558                s_QUITMSG
                0x001cc55c                s_PRESSYN
                0x001cc560                s_PRESSKEY
                0x001cc564                s_D_CDROM
                0x001cc568                s_D_DEVSTR
 .data          0x001cc56c       0xd8 d_items.o
                0x001cc56c                weaponinfo
 .data          0x001cc644       0x28 d_main.o
                0x001cc644                wipegamestate
                0x001cc648                wads_found
 .data          0x001cc66c        0xc doomdef.o
                0x001cc66c                SCREENPITCH
                0x001cc670                SCREENHEIGHT
                0x001cc674                SCREENWIDTH
 .data          0x001cc678       0x24 doomstat.o
                0x001cc678                default_distfriend
                0x001cc67c                distfriend
                0x001cc680                default_monster_friction
                0x001cc684                monster_friction
                0x001cc688                default_monster_infighting
                0x001cc68c                monster_infighting
                0x001cc690                variable_friction
                0x001cc694                allow_pushers
                0x001cc698                gamemode
 .data          0x001cc69c        0x0 dstrings.o
 .data          0x001cc69c        0x0 f_finale.o
 .data          0x001cc69c        0x0 f_wipe.o
 .data          0x001cc69c      0x194 g_game.o
                0x001cc69c                angleturn
                0x001cc6a8                forwardmove
                0x001cc6b0                sidemove
                0x001cc6b8                cpars
                0x001cc738                pars
                0x001cc7dc                comp_lev_str
                0x001cc828                key_help
                0x001cc82c                key_escape
 .data          0x001cc830        0x0 hu_lib.o
 .data          0x001cc830       0x50 hu_stuff.o
                0x001cc834                hud_graph_keys
                0x001cc838                plyrcoltran
                0x001cc848                player_names
                0x001cc858                chat_macros
 .data          0x001cc880     0xb5a8 info.o
                0x001cc880                mobjinfo
                0x001d0640                states
                0x001d7bf0                sprnames
 .data          0x001d7e28        0xc lprintf.o
                0x001d7e2c                cons_output_mask
                0x001d7e30                cons_error_mask
 .data          0x001d7e34        0x0 m_argv.o
 .data          0x001d7e34        0x0 m_bbox.o
 *fill*         0x001d7e34        0x4 
 .data          0x001d7e38      0x780 m_cheat.o
                0x001d7e38                cheat
 .data          0x001d85b8     0x35c0 m_menu.o
                0x001d85b8                ReadDef1
                0x001d85d0                ReadDef2
                0x001d85e8                MainDef
                0x001d8600                OptionsDef
                0x001d8618                SoundDef
                0x001d8630                MouseDef
                0x001d8648                SetupDef
                0x001d8660                KeybndDef
                0x001d8678                keys_settings
                0x001d868c                WeaponDef
                0x001d86a4                weap_settings
                0x001d86ac                StatusHUDDef
                0x001d86c4                stat_settings
                0x001d86cc                AutoMapDef
                0x001d86e4                auto_settings
                0x001d86f0                EnemyDef
                0x001d8708                enem_settings
                0x001d8710                GeneralDef
                0x001d8728                gen_settings
                0x001d8738                CompatDef
                0x001d8750                comp_settings
                0x001d8760                MessageDef
                0x001d8778                mess_settings
                0x001d8780                ChatStrDef
                0x001d8798                chat_settings
                0x001d87a0                ExtHelpDef
                0x001d87b8                gen_settings2
                0x001d8a1c                quitsounds2
                0x001d8a3c                quitsounds
                0x001d8a5c                NewDef
                0x001d8a74                EpiDef
                0x001d8a8c                LoadMenue
                0x001d8b4c                LoadDef
                0x001d8b64                SaveDef
                0x001d8b7c                ReadMenu1
                0x001d8b94                ReadMenu2
                0x001d8bac                ResetButtonName
                0x001d8bbc                menu_background
                0x001d8bc0                helpstrings
                0x001d9358                msgNames
                0x001d936c                HelpDef
                0x001d9384                cred_settings
                0x001d95a0                MainMenu
                0x001d9630                ExtHelpMenu
                0x001d9648                chat_settings1
                0x001d97f8                mess_settings1
                0x001d98f4                comp_settings3
                0x001d99cc                comp_settings2
                0x001d9ba0                comp_settings1
                0x001d9dc0                gen_settings3
                0x001d9f4c                gen_settings1
                0x001da0fc                enem_settings1
                0x001da2ac                auto_settings2
                0x001da4a4                auto_settings1
                0x001da750                stat_settings1
                0x001da990                weap_settings1
                0x001dab88                keys_settings4
                0x001daea0                keys_settings3
                0x001db0bc                keys_settings2
                0x001db41c                keys_settings1
                0x001db758                Generic_Setup
                0x001db770                SetupMenu
                0x001db830                MouseMenu
                0x001db890                SoundMenu
                0x001db8f0                detailNames
                0x001db904                OptionsMenu
                0x001db9c4                SaveMenu
                0x001dba84                NewGameMenu
                0x001dbafc                EpisodeMenu
                0x001dbb5c                HelpMenu
                0x001dbb74                hide_setup
 .data          0x001dbb78     0x3444 m_misc.o
                0x001dbb78                defaults
                0x001defb8                precache
 .data          0x001defbc        0x4 m_random.o
                0x001defbc                rngseed
 .data          0x001defc0        0x0 md5.o
 .data          0x001defc0        0x0 p_ceilng.o
 .data          0x001defc0        0x4 p_checksum.o
                0x001defc0                P_Checksum
 .data          0x001defc4        0x0 p_doors.o
 .data          0x001defc4        0x4 p_enemy.o
                0x001defc4                TRACEANGLE
 .data          0x001defc8        0x0 p_floor.o
 .data          0x001defc8        0x0 p_genlin.o
 .data          0x001defc8       0x5c p_inter.o
                0x001defc8                clipammo
                0x001defd8                maxhealth
                0x001defdc                green_armor_class
                0x001defe0                blue_armor_class
                0x001defe4                max_armor
                0x001defe8                soul_health
                0x001defec                max_soul
                0x001deff0                mega_health
                0x001deff4                maxammo
                0x001df004                bfgcells
                0x001df008                idkfa_armor_class
                0x001df00c                idkfa_armor
                0x001df010                idfa_armor_class
                0x001df014                idfa_armor
                0x001df018                god_health
                0x001df01c                initial_bullets
                0x001df020                initial_health
 .data          0x001df024        0x0 p_lights.o
 .data          0x001df024       0x14 p_map.o
                0x001df024                secnodezone
 .data          0x001df038        0x0 p_maputl.o
 .data          0x001df038        0x0 p_mobj.o
 .data          0x001df038        0x0 p_plats.o
 .data          0x001df038       0x50 p_pspr.o
                0x001df038                weapon_preferences
 .data          0x001df088        0x0 p_saveg.o
 .data          0x001df088        0x4 p_setup.o
 .data          0x001df08c        0x0 p_sight.o
 .data          0x001df08c        0x0 p_spec.o
 .data          0x001df08c        0x0 p_switch.o
 .data          0x001df08c        0x0 p_telept.o
 .data          0x001df08c        0x0 p_tick.o
 .data          0x001df08c        0x0 p_user.o
 .data          0x001df08c        0x0 r_bsp.o
 .data          0x001df08c        0x4 r_data.o
                0x001df08c                tran_filter_pct
 .data          0x001df090        0x4 r_demo.o
                0x001df090                demo_smoothturnsfactor
 .data          0x001df094       0x44 r_draw.o
                0x001df0a0                drawvars
 .data          0x001df0d8       0x10 r_filter.o
                0x001df0d8                filter_ditherMatrix
 .data          0x001df0e8        0x0 r_fps.o
 .data          0x001df0e8        0x4 r_main.o
                0x001df0e8                validcount
 .data          0x001df0ec        0x0 r_patch.o
 .data          0x001df0ec        0x4 r_plane.o
 .data          0x001df0f0        0x0 r_segs.o
 .data          0x001df0f0        0x0 r_sky.o
 .data          0x001df0f0        0x0 r_things.o
 .data          0x001df0f0     0x1394 sounds.o
                0x001df0f0                S_sfx
                0x001e0044                S_music
 .data          0x001e0484        0x0 st_lib.o
 .data          0x001e0484       0x18 st_stuff.o
 .data          0x001e049c        0x0 tables.o
 .data          0x001e049c       0x1c v_video.o
                0x001e049c                V_PlotPixel
                0x001e04a0                V_CopyRect
                0x001e04a8                V_FillRect
                0x001e04ac                V_DrawNumPatch
                0x001e04b0                V_DrawBackground
                0x001e04b4                V_DrawLine
 .data          0x001e04b8        0x0 version.o
 .data          0x001e04b8        0x0 w_memcache.o
 .data          0x001e04b8        0x0 w_wad.o
 .data          0x001e04b8      0xa34 wi_stuff.o
 .data          0x001e0eec        0x0 z_bmalloc.o
 .data          0x001e0eec        0x0 z_zone.o
 .data          0x001e0eec        0x8 ds_main.o
                0x001e0eec                gen_console_enable
                0x001e0ef0                DS_USERNAME
 .data          0x001e0ef4        0x0 ds_render.o
 *fill*         0x001e0ef4        0x4 
 .data          0x001e0ef8       0x10 ds_sys.o
                0x001e0f00                I_GetTime
                0x001e0f04                realtic_clock_rate
 .data          0x001e0f08        0x0 ds_textures.o
 .data          0x001e0f08       0x14 ds_vid.o
                0x001e0f08                weapons
                0x001e0f18                use_doublebuffer
 .data          0x001e0f1c        0x0 ds_vram.o
 .data          0x001e0f1c        0x0 geometry.o
 .data          0x001e0f1c        0x4 musplay.o
                0x001e0f1c                OPLchannels
 .data          0x001e0f20        0x0 polylib.o
 .data          0x001e0f20        0x4 3ds_mix.o
                0x001e0f20                snd_Channels
 .data          0x001e0f24       0x18 3ds_sound.o
                0x001e0f24                snd_MaxVolume
                0x001e0f28                mus_card
                0x001e0f2c                snd_MusicVolume
                0x001e0f30                snd_samplerate
                0x001e0f34                snd_SfxVolume
                0x001e0f38                snd_card
 .data          0x001e0f3c        0x0 console.o
 .data          0x001e0f3c        0x0 file.o
 .data          0x001e0f3c        0x0 c:/devkitPro/libctru/lib\libctru.a(linear.o)
 .data          0x001e0f3c        0x0 c:/devkitPro/libctru/lib\libctru.a(mem_pool.o)
 .data          0x001e0f3c       0x54 c:/devkitPro/libctru/lib\libctru.a(console.o)
                0x001e0f3c                defaultConsole
                0x001e0f88                currentConsole
 .data          0x001e0f90        0xc c:/devkitPro/libctru/lib\libctru.a(gfx.o)
 .data          0x001e0f9c        0x0 c:/devkitPro/libctru/lib\libctru.a(initSystem.o)
 .data          0x001e0f9c        0x0 c:/devkitPro/libctru/lib\libctru.a(os.o)
 .data          0x001e0f9c        0x0 c:/devkitPro/libctru/lib\libctru.a(srv.o)
 .data          0x001e0f9c        0x0 c:/devkitPro/libctru/lib\libctru.a(apt.o)
 .data          0x001e0f9c        0x0 c:/devkitPro/libctru/lib\libctru.a(csnd.o)
 .data          0x001e0f9c        0x0 c:/devkitPro/libctru/lib\libctru.a(fs.o)
 .data          0x001e0f9c        0x0 c:/devkitPro/libctru/lib\libctru.a(gsp.o)
 .data          0x001e0f9c        0x0 c:/devkitPro/libctru/lib\libctru.a(gx.o)
 .data          0x001e0f9c        0x0 c:/devkitPro/libctru/lib\libctru.a(hid.o)
 .data          0x001e0f9c        0x0 c:/devkitPro/libctru/lib\libctru.a(irrst.o)
 .data          0x001e0f9c        0x0 c:/devkitPro/libctru/lib\libctru.a(rbtree_find.o)
 .data          0x001e0f9c        0x0 c:/devkitPro/libctru/lib\libctru.a(rbtree_init.o)
 .data          0x001e0f9c        0x0 c:/devkitPro/libctru/lib\libctru.a(rbtree_insert.o)
 .data          0x001e0f9c        0x0 c:/devkitPro/libctru/lib\libctru.a(rbtree_remove.o)
 .data          0x001e0f9c        0x0 c:/devkitPro/libctru/lib\libctru.a(rbtree_rotate.o)
 .data          0x001e0f9c        0x0 c:/devkitPro/libctru/lib\libctru.a(svc.o)
 .data          0x001e0f9c        0x0 c:/devkitPro/libctru/lib\libctru.a(default_font.bin.o)
 .data          0x001e0f9c        0x0 c:/devkitPro/libctru/lib\libctru.a(rbtree_iterator.o)
 .data          0x001e0f9c        0x0 c:/devkitpro/devkitarm/bin/../lib/gcc/arm-none-eabi/4.9.2/../../../../arm-none-eabi/lib\libm.a(lib_a-w_atan2.o)
 .data          0x001e0f9c        0x0 c:/devkitpro/devkitarm/bin/../lib/gcc/arm-none-eabi/4.9.2/../../../../arm-none-eabi/lib\libm.a(lib_a-w_sqrt.o)
 .data          0x001e0f9c        0x0 c:/devkitpro/devkitarm/bin/../lib/gcc/arm-none-eabi/4.9.2/../../../../arm-none-eabi/lib\libm.a(lib_a-e_atan2.o)
 .data          0x001e0f9c        0x0 c:/devkitpro/devkitarm/bin/../lib/gcc/arm-none-eabi/4.9.2/../../../../arm-none-eabi/lib\libm.a(lib_a-e_sqrt.o)
 .data          0x001e0f9c        0x0 c:/devkitpro/devkitarm/bin/../lib/gcc/arm-none-eabi/4.9.2/../../../../arm-none-eabi/lib\libm.a(lib_a-s_atan.o)
 .data          0x001e0f9c        0x0 c:/devkitpro/devkitarm/bin/../lib/gcc/arm-none-eabi/4.9.2/../../../../arm-none-eabi/lib\libm.a(lib_a-s_fabs.o)
 .data          0x001e0f9c        0x0 c:/devkitpro/devkitarm/bin/../lib/gcc/arm-none-eabi/4.9.2/../../../../arm-none-eabi/lib\libm.a(lib_a-s_fpclassify.o)
 .data          0x001e0f9c        0x1 c:/devkitpro/devkitarm/bin/../lib/gcc/arm-none-eabi/4.9.2/../../../../arm-none-eabi/lib\libm.a(lib_a-s_lib_ver.o)
                0x001e0f9c                __fdlib_version
 .data          0x001e0f9d        0x0 c:/devkitpro/devkitarm/bin/../lib/gcc/arm-none-eabi/4.9.2/../../../../arm-none-eabi/lib\libm.a(lib_a-s_matherr.o)
 .data          0x001e0f9d        0x0 c:/devkitpro/devkitarm/bin/../lib/gcc/arm-none-eabi/4.9.2\libgcc.a(_udivsi3.o)
 .data          0x001e0f9d        0x0 c:/devkitpro/devkitarm/bin/../lib/gcc/arm-none-eabi/4.9.2\libgcc.a(_divsi3.o)
 .data          0x001e0f9d        0x0 c:/devkitpro/devkitarm/bin/../lib/gcc/arm-none-eabi/4.9.2\libgcc.a(_dvmd_tls.o)
 .data          0x001e0f9d        0x0 c:/devkitpro/devkitarm/bin/../lib/gcc/arm-none-eabi/4.9.2\libgcc.a(_arm_addsubdf3.o)
 .data          0x001e0f9d        0x0 c:/devkitpro/devkitarm/bin/../lib/gcc/arm-none-eabi/4.9.2\libgcc.a(_arm_muldivdf3.o)
 .data          0x001e0f9d        0x0 c:/devkitpro/devkitarm/bin/../lib/gcc/arm-none-eabi/4.9.2\libgcc.a(_arm_cmpdf2.o)
 .data          0x001e0f9d        0x0 c:/devkitpro/devkitarm/bin/../lib/gcc/arm-none-eabi/4.9.2\libgcc.a(_arm_fixdfsi.o)
 .data          0x001e0f9d        0x0 c:/devkitpro/devkitarm/bin/../lib/gcc/arm-none-eabi/4.9.2\libgcc.a(_arm_truncdfsf2.o)
 .data          0x001e0f9d        0x0 c:/devkitpro/devkitarm/bin/../lib/gcc/arm-none-eabi/4.9.2\libgcc.a(_arm_addsubsf3.o)
 .data          0x001e0f9d        0x0 c:/devkitpro/devkitarm/bin/../lib/gcc/arm-none-eabi/4.9.2\libgcc.a(_arm_muldivsf3.o)
 .data          0x001e0f9d        0x0 c:/devkitpro/devkitarm/bin/../lib/gcc/arm-none-eabi/4.9.2\libgcc.a(_arm_cmpsf2.o)
 .data          0x001e0f9d        0x0 c:/devkitpro/devkitarm/bin/../lib/gcc/arm-none-eabi/4.9.2\libgcc.a(_arm_fixsfsi.o)
 .data          0x001e0f9d        0x0 c:/devkitpro/devkitarm/bin/../lib/gcc/arm-none-eabi/4.9.2\libgcc.a(_arm_fixunssfsi.o)
 .data          0x001e0f9d        0x0 c:/devkitpro/devkitarm/bin/../lib/gcc/arm-none-eabi/4.9.2\libgcc.a(_aeabi_ldivmod.o)
 .data          0x001e0f9d        0x0 c:/devkitpro/devkitarm/bin/../lib/gcc/arm-none-eabi/4.9.2\libgcc.a(_aeabi_uldivmod.o)
 .data          0x001e0f9d        0x0 c:/devkitpro/devkitarm/bin/../lib/gcc/arm-none-eabi/4.9.2\libgcc.a(bpabi.o)
 .data          0x001e0f9d        0x0 c:/devkitpro/devkitarm/bin/../lib/gcc/arm-none-eabi/4.9.2\libgcc.a(_divdi3.o)
 .data          0x001e0f9d        0x0 c:/devkitpro/devkitarm/bin/../lib/gcc/arm-none-eabi/4.9.2\libgcc.a(_udivdi3.o)
 .data          0x001e0f9d        0x0 c:/devkitpro/devkitarm/bin/../lib/gcc/arm-none-eabi/4.9.2\libgcc.a(_clzdi2.o)
 .data          0x001e0f9d        0x0 c:/devkitpro/devkitarm/bin/../lib/gcc/arm-none-eabi/4.9.2\libgcc.a(_clzsi2.o)
 .data          0x001e0f9d        0x0 c:/devkitpro/devkitarm/bin/../lib/gcc/arm-none-eabi/4.9.2/../../../../arm-none-eabi/lib\libg.a(lib_a-access.o)
 .data          0x001e0f9d        0x0 c:/devkitpro/devkitarm/bin/../lib/gcc/arm-none-eabi/4.9.2/../../../../arm-none-eabi/lib\libg.a(lib_a-assert.o)
 .data          0x001e0f9d        0x0 c:/devkitpro/devkitarm/bin/../lib/gcc/arm-none-eabi/4.9.2/../../../../arm-none-eabi/lib\libg.a(lib_a-atexit.o)
 .data          0x001e0f9d        0x0 c:/devkitpro/devkitarm/bin/../lib/gcc/arm-none-eabi/4.9.2/../../../../arm-none-eabi/lib\libg.a(lib_a-atoi.o)
 *fill*         0x001e0f9d        0x3 
 .data          0x001e0fa0        0x4 c:/devkitpro/devkitarm/bin/../lib/gcc/arm-none-eabi/4.9.2/../../../../arm-none-eabi/lib\libg.a(lib_a-ctype_.o)
                0x001e0fa0                __ctype_ptr__
 .data          0x001e0fa4        0x0 c:/devkitpro/devkitarm/bin/../lib/gcc/arm-none-eabi/4.9.2/../../../../arm-none-eabi/lib\libg.a(lib_a-errno.o)
 .data          0x001e0fa4        0x0 c:/devkitpro/devkitarm/bin/../lib/gcc/arm-none-eabi/4.9.2/../../../../arm-none-eabi/lib\libg.a(lib_a-exit.o)
 .data          0x001e0fa4        0x0 c:/devkitpro/devkitarm/bin/../lib/gcc/arm-none-eabi/4.9.2/../../../../arm-none-eabi/lib\libg.a(lib_a-fclose.o)
 .data          0x001e0fa4        0x0 c:/devkitpro/devkitarm/bin/../lib/gcc/arm-none-eabi/4.9.2/../../../../arm-none-eabi/lib\libg.a(lib_a-fflush.o)
 .data          0x001e0fa4        0x0 c:/devkitpro/devkitarm/bin/../lib/gcc/arm-none-eabi/4.9.2/../../../../arm-none-eabi/lib\libg.a(lib_a-fgetc.o)
 .data          0x001e0fa4        0x0 c:/devkitpro/devkitarm/bin/../lib/gcc/arm-none-eabi/4.9.2/../../../../arm-none-eabi/lib\libg.a(lib_a-fgets.o)
 .data          0x001e0fa4        0x0 c:/devkitpro/devkitarm/bin/../lib/gcc/arm-none-eabi/4.9.2/../../../../arm-none-eabi/lib\libg.a(lib_a-findfp.o)
 .data          0x001e0fa4        0x0 c:/devkitpro/devkitarm/bin/../lib/gcc/arm-none-eabi/4.9.2/../../../../arm-none-eabi/lib\libg.a(lib_a-fini.o)
 .data          0x001e0fa4        0x0 c:/devkitpro/devkitarm/bin/../lib/gcc/arm-none-eabi/4.9.2/../../../../arm-none-eabi/lib\libg.a(lib_a-fiprintf.o)
 .data          0x001e0fa4        0x0 c:/devkitpro/devkitarm/bin/../lib/gcc/arm-none-eabi/4.9.2/../../../../arm-none-eabi/lib\libg.a(lib_a-fopen.o)
 .data          0x001e0fa4        0x0 c:/devkitpro/devkitarm/bin/../lib/gcc/arm-none-eabi/4.9.2/../../../../arm-none-eabi/lib\libg.a(lib_a-fprintf.o)
 .data          0x001e0fa4        0x0 c:/devkitpro/devkitarm/bin/../lib/gcc/arm-none-eabi/4.9.2/../../../../arm-none-eabi/lib\libg.a(lib_a-fputc.o)
 .data          0x001e0fa4        0x0 c:/devkitpro/devkitarm/bin/../lib/gcc/arm-none-eabi/4.9.2/../../../../arm-none-eabi/lib\libg.a(lib_a-fread.o)
 .data          0x001e0fa4        0x0 c:/devkitpro/devkitarm/bin/../lib/gcc/arm-none-eabi/4.9.2/../../../../arm-none-eabi/lib\libg.a(lib_a-freer.o)
 .data          0x001e0fa4        0x0 c:/devkitpro/devkitarm/bin/../lib/gcc/arm-none-eabi/4.9.2/../../../../arm-none-eabi/lib\libg.a(lib_a-fscanf.o)
 .data          0x001e0fa4        0x0 c:/devkitpro/devkitarm/bin/../lib/gcc/arm-none-eabi/4.9.2/../../../../arm-none-eabi/lib\libg.a(lib_a-fseek.o)
 .data          0x001e0fa4        0x0 c:/devkitpro/devkitarm/bin/../lib/gcc/arm-none-eabi/4.9.2/../../../../arm-none-eabi/lib\libg.a(lib_a-fseeko.o)
 .data          0x001e0fa4        0x0 c:/devkitpro/devkitarm/bin/../lib/gcc/arm-none-eabi/4.9.2/../../../../arm-none-eabi/lib\libg.a(lib_a-ftell.o)
 .data          0x001e0fa4        0x0 c:/devkitpro/devkitarm/bin/../lib/gcc/arm-none-eabi/4.9.2/../../../../arm-none-eabi/lib\libg.a(lib_a-ftello.o)
 .data          0x001e0fa4        0x0 c:/devkitpro/devkitarm/bin/../lib/gcc/arm-none-eabi/4.9.2/../../../../arm-none-eabi/lib\libg.a(lib_a-fwalk.o)
 .data          0x001e0fa4        0x0 c:/devkitpro/devkitarm/bin/../lib/gcc/arm-none-eabi/4.9.2/../../../../arm-none-eabi/lib\libg.a(lib_a-fwrite.o)
 .data          0x001e0fa4        0x0 c:/devkitpro/devkitarm/bin/../lib/gcc/arm-none-eabi/4.9.2/../../../../arm-none-eabi/lib\libg.a(lib_a-getenv.o)
 .data          0x001e0fa4        0x0 c:/devkitpro/devkitarm/bin/../lib/gcc/arm-none-eabi/4.9.2/../../../../arm-none-eabi/lib\libg.a(lib_a-getenv_r.o)
 *fill*         0x001e0fa4        0x4 
 .data          0x001e0fa8      0x430 c:/devkitpro/devkitarm/bin/../lib/gcc/arm-none-eabi/4.9.2/../../../../arm-none-eabi/lib\libg.a(lib_a-impure.o)
                0x001e0fa8                _impure_ptr
 .data          0x001e13d8        0x0 c:/devkitpro/devkitarm/bin/../lib/gcc/arm-none-eabi/4.9.2/../../../../arm-none-eabi/lib\libg.a(lib_a-init.o)
 .data          0x001e13d8        0x0 c:/devkitpro/devkitarm/bin/../lib/gcc/arm-none-eabi/4.9.2/../../../../arm-none-eabi/lib\libg.a(lib_a-iprintf.o)
 .data          0x001e13d8        0x0 c:/devkitpro/devkitarm/bin/../lib/gcc/arm-none-eabi/4.9.2/../../../../arm-none-eabi/lib\libg.a(lib_a-makebuf.o)
 .data          0x001e13d8        0x0 c:/devkitpro/devkitarm/bin/../lib/gcc/arm-none-eabi/4.9.2/../../../../arm-none-eabi/lib\libg.a(lib_a-malloc.o)
 .data          0x001e13d8      0x410 c:/devkitpro/devkitarm/bin/../lib/gcc/arm-none-eabi/4.9.2/../../../../arm-none-eabi/lib\libg.a(lib_a-mallocr.o)
                0x001e13d8                __malloc_av_
                0x001e17e0                __malloc_sbrk_base
                0x001e17e4                __malloc_trim_threshold
 .data          0x001e17e8        0x0 c:/devkitpro/devkitarm/bin/../lib/gcc/arm-none-eabi/4.9.2/../../../../arm-none-eabi/lib\libg.a(lib_a-memchr-stub.o)
 .data          0x001e17e8        0x0 c:/devkitpro/devkitarm/bin/../lib/gcc/arm-none-eabi/4.9.2/../../../../arm-none-eabi/lib\libg.a(lib_a-memcmp.o)
 .data          0x001e17e8        0x0 c:/devkitpro/devkitarm/bin/../lib/gcc/arm-none-eabi/4.9.2/../../../../arm-none-eabi/lib\libg.a(lib_a-memcpy-stub.o)
 .data          0x001e17e8        0x0 c:/devkitpro/devkitarm/bin/../lib/gcc/arm-none-eabi/4.9.2/../../../../arm-none-eabi/lib\libg.a(lib_a-memmove.o)
 .data          0x001e17e8        0x0 c:/devkitpro/devkitarm/bin/../lib/gcc/arm-none-eabi/4.9.2/../../../../arm-none-eabi/lib\libg.a(lib_a-memset.o)
 .data          0x001e17e8        0x0 c:/devkitpro/devkitarm/bin/../lib/gcc/arm-none-eabi/4.9.2/../../../../arm-none-eabi/lib\libg.a(lib_a-mlock.o)
 .data          0x001e17e8        0x0 c:/devkitpro/devkitarm/bin/../lib/gcc/arm-none-eabi/4.9.2/../../../../arm-none-eabi/lib\libg.a(lib_a-printf.o)
 .data          0x001e17e8        0x0 c:/devkitpro/devkitarm/bin/../lib/gcc/arm-none-eabi/4.9.2/../../../../arm-none-eabi/lib\libg.a(lib_a-putc.o)
 .data          0x001e17e8        0x0 c:/devkitpro/devkitarm/bin/../lib/gcc/arm-none-eabi/4.9.2/../../../../arm-none-eabi/lib\libg.a(lib_a-puts.o)
 .data          0x001e17e8        0x0 c:/devkitpro/devkitarm/bin/../lib/gcc/arm-none-eabi/4.9.2/../../../../arm-none-eabi/lib\libg.a(lib_a-rand.o)
 .data          0x001e17e8        0x0 c:/devkitpro/devkitarm/bin/../lib/gcc/arm-none-eabi/4.9.2/../../../../arm-none-eabi/lib\libg.a(lib_a-realloc.o)
 .data          0x001e17e8        0x0 c:/devkitpro/devkitarm/bin/../lib/gcc/arm-none-eabi/4.9.2/../../../../arm-none-eabi/lib\libg.a(lib_a-reallocr.o)
 .data          0x001e17e8        0x0 c:/devkitpro/devkitarm/bin/../lib/gcc/arm-none-eabi/4.9.2/../../../../arm-none-eabi/lib\libg.a(lib_a-refill.o)
 .data          0x001e17e8        0x0 c:/devkitpro/devkitarm/bin/../lib/gcc/arm-none-eabi/4.9.2/../../../../arm-none-eabi/lib\libg.a(lib_a-remove.o)
 .data          0x001e17e8        0x0 c:/devkitpro/devkitarm/bin/../lib/gcc/arm-none-eabi/4.9.2/../../../../arm-none-eabi/lib\libg.a(lib_a-rget.o)
 .data          0x001e17e8        0x0 c:/devkitpro/devkitarm/bin/../lib/gcc/arm-none-eabi/4.9.2/../../../../arm-none-eabi/lib\libg.a(lib_a-setbuf.o)
 .data          0x001e17e8        0x0 c:/devkitpro/devkitarm/bin/../lib/gcc/arm-none-eabi/4.9.2/../../../../arm-none-eabi/lib\libg.a(lib_a-setvbuf.o)
 .data          0x001e17e8        0x0 c:/devkitpro/devkitarm/bin/../lib/gcc/arm-none-eabi/4.9.2/../../../../arm-none-eabi/lib\libg.a(lib_a-sprintf.o)
 .data          0x001e17e8        0x0 c:/devkitpro/devkitarm/bin/../lib/gcc/arm-none-eabi/4.9.2/../../../../arm-none-eabi/lib\libg.a(lib_a-sscanf.o)
 .data          0x001e17e8        0x0 c:/devkitpro/devkitarm/bin/../lib/gcc/arm-none-eabi/4.9.2/../../../../arm-none-eabi/lib\libg.a(lib_a-stdio.o)
 .data          0x001e17e8        0x0 c:/devkitpro/devkitarm/bin/../lib/gcc/arm-none-eabi/4.9.2/../../../../arm-none-eabi/lib\libg.a(lib_a-strcasecmp.o)
 .data          0x001e17e8        0x0 c:/devkitpro/devkitarm/bin/../lib/gcc/arm-none-eabi/4.9.2/../../../../arm-none-eabi/lib\libg.a(lib_a-strcat.o)
 .data          0x001e17e8        0x0 c:/devkitpro/devkitarm/bin/../lib/gcc/arm-none-eabi/4.9.2/../../../../arm-none-eabi/lib\libg.a(lib_a-strchr.o)
 .data          0x001e17e8        0x0 c:/devkitpro/devkitarm/bin/../lib/gcc/arm-none-eabi/4.9.2/../../../../arm-none-eabi/lib\libg.a(lib_a-strcmp.o)
 .data          0x001e17e8        0x0 c:/devkitpro/devkitarm/bin/../lib/gcc/arm-none-eabi/4.9.2/../../../../arm-none-eabi/lib\libg.a(lib_a-strcpy.o)
 .data          0x001e17e8        0x0 c:/devkitpro/devkitarm/bin/../lib/gcc/arm-none-eabi/4.9.2/../../../../arm-none-eabi/lib\libg.a(lib_a-strerror.o)
 .data          0x001e17e8        0x0 c:/devkitpro/devkitarm/bin/../lib/gcc/arm-none-eabi/4.9.2/../../../../arm-none-eabi/lib\libg.a(lib_a-strlen.o)
 .data          0x001e17e8        0x0 c:/devkitpro/devkitarm/bin/../lib/gcc/arm-none-eabi/4.9.2/../../../../arm-none-eabi/lib\libg.a(lib_a-strlwr.o)
 .data          0x001e17e8        0x0 c:/devkitpro/devkitarm/bin/../lib/gcc/arm-none-eabi/4.9.2/../../../../arm-none-eabi/lib\libg.a(lib_a-strncasecmp.o)
 .data          0x001e17e8        0x0 c:/devkitpro/devkitarm/bin/../lib/gcc/arm-none-eabi/4.9.2/../../../../arm-none-eabi/lib\libg.a(lib_a-strncmp.o)
 .data          0x001e17e8        0x0 c:/devkitpro/devkitarm/bin/../lib/gcc/arm-none-eabi/4.9.2/../../../../arm-none-eabi/lib\libg.a(lib_a-strncpy.o)
 .data          0x001e17e8        0x0 c:/devkitpro/devkitarm/bin/../lib/gcc/arm-none-eabi/4.9.2/../../../../arm-none-eabi/lib\libg.a(lib_a-strtok.o)
 .data          0x001e17e8        0x0 c:/devkitpro/devkitarm/bin/../lib/gcc/arm-none-eabi/4.9.2/../../../../arm-none-eabi/lib\libg.a(lib_a-strtok_r.o)
 .data          0x001e17e8        0x0 c:/devkitpro/devkitarm/bin/../lib/gcc/arm-none-eabi/4.9.2/../../../../arm-none-eabi/lib\libg.a(lib_a-strtol.o)
 .data          0x001e17e8        0x0 c:/devkitpro/devkitarm/bin/../lib/gcc/arm-none-eabi/4.9.2/../../../../arm-none-eabi/lib\libg.a(lib_a-svfprintf.o)
 .data          0x001e17e8        0x0 c:/devkitpro/devkitarm/bin/../lib/gcc/arm-none-eabi/4.9.2/../../../../arm-none-eabi/lib\libg.a(lib_a-svfscanf.o)
 .data          0x001e17e8        0x0 c:/devkitpro/devkitarm/bin/../lib/gcc/arm-none-eabi/4.9.2/../../../../arm-none-eabi/lib\libg.a(lib_a-sysfstat.o)
 .data          0x001e17e8        0x0 c:/devkitpro/devkitarm/bin/../lib/gcc/arm-none-eabi/4.9.2/../../../../arm-none-eabi/lib\libg.a(lib_a-sysisatty.o)
 .data          0x001e17e8        0x0 c:/devkitpro/devkitarm/bin/../lib/gcc/arm-none-eabi/4.9.2/../../../../arm-none-eabi/lib\libg.a(lib_a-sysstat.o)
 .data          0x001e17e8        0x0 c:/devkitpro/devkitarm/bin/../lib/gcc/arm-none-eabi/4.9.2/../../../../arm-none-eabi/lib\libg.a(lib_a-u_strerr.o)
 .data          0x001e17e8        0x0 c:/devkitpro/devkitarm/bin/../lib/gcc/arm-none-eabi/4.9.2/../../../../arm-none-eabi/lib\libg.a(lib_a-vfiprintf.o)
 .data          0x001e17e8        0x0 c:/devkitpro/devkitarm/bin/../lib/gcc/arm-none-eabi/4.9.2/../../../../arm-none-eabi/lib\libg.a(lib_a-vfprintf.o)
 .data          0x001e17e8        0x0 c:/devkitpro/devkitarm/bin/../lib/gcc/arm-none-eabi/4.9.2/../../../../arm-none-eabi/lib\libg.a(lib_a-vfscanf.o)
 .data          0x001e17e8        0x0 c:/devkitpro/devkitarm/bin/../lib/gcc/arm-none-eabi/4.9.2/../../../../arm-none-eabi/lib\libg.a(lib_a-vsnprintf.o)
 .data          0x001e17e8        0x0 c:/devkitpro/devkitarm/bin/../lib/gcc/arm-none-eabi/4.9.2/../../../../arm-none-eabi/lib\libg.a(lib_a-wbuf.o)
 .data          0x001e17e8        0x0 c:/devkitpro/devkitarm/bin/../lib/gcc/arm-none-eabi/4.9.2/../../../../arm-none-eabi/lib\libg.a(lib_a-wcrtomb.o)
 .data          0x001e17e8        0x0 c:/devkitpro/devkitarm/bin/../lib/gcc/arm-none-eabi/4.9.2/../../../../arm-none-eabi/lib\libg.a(lib_a-wcsrtombs.o)
 .data          0x001e17e8        0x4 c:/devkitpro/devkitarm/bin/../lib/gcc/arm-none-eabi/4.9.2/../../../../arm-none-eabi/lib\libg.a(lib_a-wctomb_r.o)
                0x001e17e8                __wctomb
 .data          0x001e17ec        0x0 c:/devkitpro/devkitarm/bin/../lib/gcc/arm-none-eabi/4.9.2/../../../../arm-none-eabi/lib\libg.a(lib_a-wsetup.o)
 .data          0x001e17ec        0x0 c:/devkitpro/devkitarm/bin/../lib/gcc/arm-none-eabi/4.9.2/../../../../arm-none-eabi/lib\libg.a(lib_a-abort.o)
 .data          0x001e17ec        0x0 c:/devkitpro/devkitarm/bin/../lib/gcc/arm-none-eabi/4.9.2/../../../../arm-none-eabi/lib\libg.a(lib_a-__atexit.o)
 .data          0x001e17ec        0x0 c:/devkitpro/devkitarm/bin/../lib/gcc/arm-none-eabi/4.9.2/../../../../arm-none-eabi/lib\libg.a(lib_a-__call_atexit.o)
 .data          0x001e17ec        0x0 c:/devkitpro/devkitarm/bin/../lib/gcc/arm-none-eabi/4.9.2/../../../../arm-none-eabi/lib\libg.a(lib_a-dtoa.o)
 .data          0x001e17ec        0x4 c:/devkitpro/devkitarm/bin/../lib/gcc/arm-none-eabi/4.9.2/../../../../arm-none-eabi/lib\libg.a(lib_a-environ.o)
                0x001e17ec                environ
 .data          0x001e17f0        0x0 c:/devkitpro/devkitarm/bin/../lib/gcc/arm-none-eabi/4.9.2/../../../../arm-none-eabi/lib\libg.a(lib_a-envlock.o)
 .data          0x001e17f0        0x0 c:/devkitpro/devkitarm/bin/../lib/gcc/arm-none-eabi/4.9.2/../../../../arm-none-eabi/lib\libg.a(lib_a-flags.o)
 .data          0x001e17f0        0x0 c:/devkitpro/devkitarm/bin/../lib/gcc/arm-none-eabi/4.9.2/../../../../arm-none-eabi/lib\libg.a(lib_a-fputwc.o)
 .data          0x001e17f0        0x0 c:/devkitpro/devkitarm/bin/../lib/gcc/arm-none-eabi/4.9.2/../../../../arm-none-eabi/lib\libg.a(lib_a-fvwrite.o)
 .data          0x001e17f0        0x0 c:/devkitpro/devkitarm/bin/../lib/gcc/arm-none-eabi/4.9.2/../../../../arm-none-eabi/lib\libg.a(lib_a-iswspace.o)
 .data          0x001e17f0        0x0 c:/devkitpro/devkitarm/bin/../lib/gcc/arm-none-eabi/4.9.2/../../../../arm-none-eabi/lib\libg.a(lib_a-jp2uc.o)
 .data          0x001e17f0      0x17c c:/devkitpro/devkitarm/bin/../lib/gcc/arm-none-eabi/4.9.2/../../../../arm-none-eabi/lib\libg.a(lib_a-locale.o)
                0x001e17f0                __default_locale
                0x001e1910                __mb_cur_max
 .data          0x001e196c        0x0 c:/devkitpro/devkitarm/bin/../lib/gcc/arm-none-eabi/4.9.2/../../../../arm-none-eabi/lib\libg.a(lib_a-mbrtowc.o)
 .data          0x001e196c        0x4 c:/devkitpro/devkitarm/bin/../lib/gcc/arm-none-eabi/4.9.2/../../../../arm-none-eabi/lib\libg.a(lib_a-mbtowc_r.o)
                0x001e196c                __mbtowc
 .data          0x001e1970        0x0 c:/devkitpro/devkitarm/bin/../lib/gcc/arm-none-eabi/4.9.2/../../../../arm-none-eabi/lib\libg.a(lib_a-mprec.o)
 .data          0x001e1970        0x0 c:/devkitpro/devkitarm/bin/../lib/gcc/arm-none-eabi/4.9.2/../../../../arm-none-eabi/lib\libg.a(lib_a-sccl.o)
 .data          0x001e1970        0x0 c:/devkitpro/devkitarm/bin/../lib/gcc/arm-none-eabi/4.9.2/../../../../arm-none-eabi/lib\libg.a(lib_a-sf_nan.o)
 .data          0x001e1970        0x0 c:/devkitpro/devkitarm/bin/../lib/gcc/arm-none-eabi/4.9.2/../../../../arm-none-eabi/lib\libg.a(lib_a-s_frexp.o)
 .data          0x001e1970        0x0 c:/devkitpro/devkitarm/bin/../lib/gcc/arm-none-eabi/4.9.2/../../../../arm-none-eabi/lib\libg.a(lib_a-signal.o)
 .data          0x001e1970        0x0 c:/devkitpro/devkitarm/bin/../lib/gcc/arm-none-eabi/4.9.2/../../../../arm-none-eabi/lib\libg.a(lib_a-stpncpy.o)
 .data          0x001e1970        0x0 c:/devkitpro/devkitarm/bin/../lib/gcc/arm-none-eabi/4.9.2/../../../../arm-none-eabi/lib\libg.a(lib_a-strlcpy.o)
 .data          0x001e1970        0x0 c:/devkitpro/devkitarm/bin/../lib/gcc/arm-none-eabi/4.9.2/../../../../arm-none-eabi/lib\libg.a(lib_a-strtod.o)
 .data          0x001e1970        0x0 c:/devkitpro/devkitarm/bin/../lib/gcc/arm-none-eabi/4.9.2/../../../../arm-none-eabi/lib\libg.a(lib_a-strtoll_r.o)
 .data          0x001e1970        0x0 c:/devkitpro/devkitarm/bin/../lib/gcc/arm-none-eabi/4.9.2/../../../../arm-none-eabi/lib\libg.a(lib_a-strtoull_r.o)
 .data          0x001e1970        0x0 c:/devkitpro/devkitarm/bin/../lib/gcc/arm-none-eabi/4.9.2/../../../../arm-none-eabi/lib\libg.a(lib_a-strtoul.o)
 .data          0x001e1970        0x0 c:/devkitpro/devkitarm/bin/../lib/gcc/arm-none-eabi/4.9.2/../../../../arm-none-eabi/lib\libg.a(lib_a-svfiprintf.o)
 .data          0x001e1970        0x0 c:/devkitpro/devkitarm/bin/../lib/gcc/arm-none-eabi/4.9.2/../../../../arm-none-eabi/lib\libg.a(lib_a-svfiscanf.o)
 .data          0x001e1970        0x0 c:/devkitpro/devkitarm/bin/../lib/gcc/arm-none-eabi/4.9.2/../../../../arm-none-eabi/lib\libg.a(lib_a-ungetc.o)
 .data          0x001e1970        0x0 c:/devkitpro/devkitarm/bin/../lib/gcc/arm-none-eabi/4.9.2/../../../../arm-none-eabi/lib\libg.a(lib_a-wcsnrtombs.o)
 .data          0x001e1970        0x0 c:/devkitpro/devkitarm/bin/../lib/gcc/arm-none-eabi/4.9.2/../../../../arm-none-eabi/lib\libg.a(lib_a-callocr.o)
 .data          0x001e1970        0x0 c:/devkitpro/devkitarm/bin/../lib/gcc/arm-none-eabi/4.9.2/../../../../arm-none-eabi/lib\libg.a(lib_a-gdtoa-gethex.o)
 .data          0x001e1970        0x0 c:/devkitpro/devkitarm/bin/../lib/gcc/arm-none-eabi/4.9.2/../../../../arm-none-eabi/lib\libg.a(lib_a-gdtoa-hexnan.o)
 .data          0x001e1970       0x44 c:/devkitpro/devkitarm/bin/../lib/gcc/arm-none-eabi/4.9.2/../../../../arm-none-eabi/lib\libsysbase.a(iosupport.o)
                0x001e1974                devoptab_list
 .data          0x001e19b4        0x0 c:/devkitpro/devkitarm/bin/../lib/gcc/arm-none-eabi/4.9.2/../../../../arm-none-eabi/lib\libsysbase.a(close.o)
 .data          0x001e19b4        0x0 c:/devkitpro/devkitarm/bin/../lib/gcc/arm-none-eabi/4.9.2/../../../../arm-none-eabi/lib\libsysbase.a(fstat.o)
 .data          0x001e19b4        0x0 c:/devkitpro/devkitarm/bin/../lib/gcc/arm-none-eabi/4.9.2/../../../../arm-none-eabi/lib\libsysbase.a(getpid.o)
 .data          0x001e19b4        0x0 c:/devkitpro/devkitarm/bin/../lib/gcc/arm-none-eabi/4.9.2/../../../../arm-none-eabi/lib\libsysbase.a(isatty.o)
 .data          0x001e19b4        0x0 c:/devkitpro/devkitarm/bin/../lib/gcc/arm-none-eabi/4.9.2/../../../../arm-none-eabi/lib\libsysbase.a(kill.o)
 .data          0x001e19b4        0x0 c:/devkitpro/devkitarm/bin/../lib/gcc/arm-none-eabi/4.9.2/../../../../arm-none-eabi/lib\libsysbase.a(lseek.o)
 .data          0x001e19b4        0x0 c:/devkitpro/devkitarm/bin/../lib/gcc/arm-none-eabi/4.9.2/../../../../arm-none-eabi/lib\libsysbase.a(open.o)
 .data          0x001e19b4        0x0 c:/devkitpro/devkitarm/bin/../lib/gcc/arm-none-eabi/4.9.2/../../../../arm-none-eabi/lib\libsysbase.a(read.o)
 .data          0x001e19b4        0x0 c:/devkitpro/devkitarm/bin/../lib/gcc/arm-none-eabi/4.9.2/../../../../arm-none-eabi/lib\libsysbase.a(sbrk.o)
 .data          0x001e19b4        0x0 c:/devkitpro/devkitarm/bin/../lib/gcc/arm-none-eabi/4.9.2/../../../../arm-none-eabi/lib\libsysbase.a(stat.o)
 .data          0x001e19b4        0x0 c:/devkitpro/devkitarm/bin/../lib/gcc/arm-none-eabi/4.9.2/../../../../arm-none-eabi/lib\libsysbase.a(unlink.o)
 .data          0x001e19b4        0x0 c:/devkitpro/devkitarm/bin/../lib/gcc/arm-none-eabi/4.9.2/../../../../arm-none-eabi/lib\libsysbase.a(write.o)
 .data          0x001e19b4        0x0 c:/devkitpro/devkitarm/bin/../lib/gcc/arm-none-eabi/4.9.2/../../../../arm-none-eabi/lib\libsysbase.a(_exit.o)
 .data          0x001e19b4        0x0 c:/devkitpro/devkitarm/bin/../lib/gcc/arm-none-eabi/4.9.2/../../../../arm-none-eabi/lib\libsysbase.a(malloc_vars.o)
 .data          0x001e19b4      0x400 c:/devkitpro/devkitarm/bin/../lib/gcc/arm-none-eabi/4.9.2/../../../../arm-none-eabi/lib\libsysbase.a(chdir.o)
 .data          0x001e1db4        0x0 c:/devkitpro/devkitarm/bin/../lib/gcc/arm-none-eabi/4.9.2/../../../../arm-none-eabi/lib\libsysbase.a(syscall_support.o)
 .data          0x001e1db4        0x0 c:/devkitpro/devkitarm/bin/../lib/gcc/arm-none-eabi/4.9.2/../../../../arm-none-eabi/lib\libsysbase.a(handle_manager.o)
 .data          0x001e1db4        0x0 c:/devkitpro/devkitarm/bin/../lib/gcc/arm-none-eabi/4.9.2\libgcc.a(_arm_fixunsdfsi.o)
 .data          0x001e1db4        0x0 c:/devkitpro/devkitarm/bin/../lib/gcc/arm-none-eabi/4.9.2/../../../../arm-none-eabi/lib\libg.a(lib_a-strnlen.o)
 .data          0x001e1db4        0x0 c:/devkitpro/devkitarm/bin/../lib/gcc/arm-none-eabi/4.9.2/../../../../arm-none-eabi/lib\libg.a(lib_a-strrchr.o)
 .data          0x001e1db4        0x0 c:/devkitpro/devkitarm/bin/../lib/gcc/arm-none-eabi/4.9.2/crtend.o
 .data          0x001e1db4        0x0 c:/devkitpro/devkitarm/bin/../lib/gcc/arm-none-eabi/4.9.2/crtn.o
 *(.data.*)
 *(.gnu.linkonce.d*)
                0x001e1db4                . = ALIGN (0x4)

.igot.plt       0x001e1db4        0x0
 .igot.plt      0x00000000        0x0 c:/devkitpro/devkitarm/bin/../lib/gcc/arm-none-eabi/4.9.2/../../../../arm-none-eabi/lib/3dsx_crt0.o

.eh_frame       0x001e1db4        0x4
 .eh_frame      0x001e1db4        0x0 c:/devkitpro/devkitarm/bin/../lib/gcc/arm-none-eabi/4.9.2/crtbegin.o
 .eh_frame      0x001e1db4        0x4 c:/devkitpro/devkitarm/bin/../lib/gcc/arm-none-eabi/4.9.2/crtend.o

.jcr            0x001e1db8        0x4
 .jcr           0x001e1db8        0x0 c:/devkitpro/devkitarm/bin/../lib/gcc/arm-none-eabi/4.9.2/crtbegin.o
 .jcr           0x001e1db8        0x4 c:/devkitpro/devkitarm/bin/../lib/gcc/arm-none-eabi/4.9.2/crtend.o

.tm_clone_table
                0x001e1dbc        0x0
 .tm_clone_table
                0x001e1dbc        0x0 c:/devkitpro/devkitarm/bin/../lib/gcc/arm-none-eabi/4.9.2/crtbegin.o
 .tm_clone_table
                0x001e1dbc        0x0 c:/devkitpro/devkitarm/bin/../lib/gcc/arm-none-eabi/4.9.2/crtend.o
                0x001e1dbc                __TMC_END__

.preinit_array  0x001e1dbc        0x0
                0x001e1dbc                PROVIDE (__preinit_array_start, .)
 *(.preinit_array)
                0x001e1dbc                PROVIDE (__preinit_array_end, .)

.init_array     0x001e1dbc        0x4
                0x001e1dbc                PROVIDE (__init_array_start, .)
 *(SORT(.init_array.*))
 *(.init_array)
 .init_array    0x001e1dbc        0x4 c:/devkitpro/devkitarm/bin/../lib/gcc/arm-none-eabi/4.9.2/crtbegin.o
                0x001e1dc0                PROVIDE (__init_array_end, .)

.fini_array     0x001e1dc0        0x4
                0x001e1dc0                PROVIDE (__fini_array_start, .)
 *(.fini_array)
 .fini_array    0x001e1dc0        0x4 c:/devkitpro/devkitarm/bin/../lib/gcc/arm-none-eabi/4.9.2/crtbegin.o
 *(SORT(.fini_array.*))
                0x001e1dc4                PROVIDE (__fini_array_end, .)

.ctors
 *crtbegin.o(.ctors)
 *(EXCLUDE_FILE(*crtend.o) .ctors)
 *(SORT(.ctors.*))
 *(.ctors)

.dtors
 *crtbegin.o(.dtors)
 *(EXCLUDE_FILE(*crtend.o) .dtors)
 *(SORT(.dtors.*))
 *(.dtors)
                0x001e1dc4                __bss_start__ = .

.bss            0x001e1dc4    0x43060
 *(.dynbss)
 *(.bss)
 .bss           0x001e1dc4        0x0 c:/devkitpro/devkitarm/bin/../lib/gcc/arm-none-eabi/4.9.2/../../../../arm-none-eabi/lib/3dsx_crt0.o
 .bss           0x001e1dc4        0x0 c:/devkitpro/devkitarm/bin/../lib/gcc/arm-none-eabi/4.9.2/crti.o
 .bss           0x001e1dc4       0x1c c:/devkitpro/devkitarm/bin/../lib/gcc/arm-none-eabi/4.9.2/crtbegin.o
 .bss           0x001e1de0       0xb8 am_map.o
                0x001e1e44                markpointnum
                0x001e1e78                markpointnum_max
                0x001e1e7c                markpoints
                0x001e1e94                ddt_cheating
 .bss           0x001e1e98        0xc d_client.o
 .bss           0x001e1ea4     0x19ec d_deh.o
                0x001e3884                deh_pars
 .bss           0x001e3890        0x0 d_items.o
 .bss           0x001e3890       0x4c d_main.o
                0x001e38a4                wads_found_path
                0x001e38c8                wads_found_cnt
                0x001e38d8                singletics
 .bss           0x001e38dc        0x0 doomdef.o
 .bss           0x001e38dc        0x2 doomstat.o
                0x001e38dc                language
                0x001e38dd                gamemission
 .bss           0x001e38de        0x0 dstrings.o
 *fill*         0x001e38de        0x2 
 .bss           0x001e38e0       0x18 f_finale.o
 .bss           0x001e38f8      0x698 f_wipe.o
 .bss           0x001e3f90      0xd10 g_game.o
                0x001e47cc                haswolflevels
                0x001e47dc                bodyque
                0x001e4848                autorun
 .bss           0x001e4ca0        0x0 hu_lib.o
 .bss           0x001e4ca0    0x12264 hu_stuff.o
 .bss           0x001f6f04        0x0 info.o
 .bss           0x001f6f04        0x4 lprintf.o
 .bss           0x001f6f08        0x0 m_argv.o
 .bss           0x001f6f08        0x0 m_bbox.o
 .bss           0x001f6f08       0x28 m_cheat.o
 .bss           0x001f6f30      0x130 m_menu.o
                0x001f6f30                setup_active
                0x001f6f34                set_keybnd_active
                0x001f6f38                setup_select
                0x001f6f3c                default_verify
                0x001f6f40                setup_gather
                0x001f6f48                set_weapon_active
                0x001f6f4c                set_status_active
                0x001f6f50                set_auto_active
                0x001f6f54                colorbox_active
                0x001f6f58                set_enemy_active
                0x001f6f5c                set_general_active
                0x001f6f60                set_mess_active
                0x001f6f64                set_chat_active
                0x001f705c                set_compat_active
 .bss           0x001f7060        0x8 m_misc.o
 .bss           0x001f7068        0x0 m_random.o
 .bss           0x001f7068        0x0 md5.o
 .bss           0x001f7068        0x0 p_ceilng.o
 .bss           0x001f7068       0x5c p_checksum.o
 .bss           0x001f70c4        0x0 p_doors.o
 .bss           0x001f70c4       0x90 p_enemy.o
 .bss           0x001f7154        0x0 p_floor.o
 .bss           0x001f7154        0x0 p_genlin.o
 .bss           0x001f7154        0x4 p_inter.o
                0x001f7154                monsters_infight
 .bss           0x001f7158        0x0 p_lights.o
 .bss           0x001f7158       0x70 p_map.o
                0x001f71c4                sector_list
 .bss           0x001f71c8        0xc p_maputl.o
 .bss           0x001f71d4      0xf70 p_mobj.o
 .bss           0x001f8144        0x0 p_plats.o
 .bss           0x001f8144        0x4 p_pspr.o
 .bss           0x001f8148        0x4 p_saveg.o
 .bss           0x001f814c        0x8 p_setup.o
                0x001f814c                forceOldBsp
                0x001f8150                firstglvertex
 .bss           0x001f8154       0x3c p_sight.o
 .bss           0x001f8190       0x14 p_spec.o
 .bss           0x001f81a4        0xc p_switch.o
 .bss           0x001f81b0        0x0 p_telept.o
 .bss           0x001f81b0        0x8 p_tick.o
 .bss           0x001f81b8        0x0 p_user.o
 .bss           0x001f81b8       0xc4 r_bsp.o
 .bss           0x001f827c        0x0 r_data.o
 *fill*         0x001f827c        0x4 
 .bss           0x001f8280       0x58 r_demo.o
                0x001f8280                demo_smoothturns
 .bss           0x001f82d8     0x1b48 r_draw.o
 .bss           0x001f9e20        0xc r_filter.o
 .bss           0x001f9e2c       0x20 r_fps.o
                0x001f9e3c                interpolations_max
                0x001f9e40                movement_smooth
 .bss           0x001f9e4c       0x44 r_main.o
                0x001f9e58                autodetect_hom
                0x001f9e5c                renderframe
 .bss           0x001f9e90        0x8 r_patch.o
 .bss           0x001f9e98     0x14dc r_plane.o
 .bss           0x001fb374       0x88 r_segs.o
 .bss           0x001fb3fc        0x0 r_sky.o
 .bss           0x001fb3fc      0x344 r_things.o
 .bss           0x001fb740        0x0 sounds.o
 .bss           0x001fb740        0x0 st_lib.o
 .bss           0x001fb740      0xa08 st_stuff.o
                0x001fba54                st_palette
 .bss           0x001fc148        0x0 tables.o
 .bss           0x001fc148       0x20 v_video.o
                0x001fc148                V_Palette15
                0x001fc14c                V_Palette16
                0x001fc150                V_Palette32
 .bss           0x001fc168        0x0 version.o
 .bss           0x001fc168        0x4 w_memcache.o
 .bss           0x001fc16c        0xc w_wad.o
                0x001fc16c                numlumps
                0x001fc170                numwadfiles
                0x001fc174                wadfiles
 .bss           0x001fc178      0x120 wi_stuff.o
 .bss           0x001fc298        0x0 z_bmalloc.o
 .bss           0x001fc298       0x24 z_zone.o
 .bss           0x001fc2bc        0x4 ds_main.o
                0x001fc2bc                gen_screen_swap
 .bss           0x001fc2c0        0x0 ds_render.o
 .bss           0x001fc2c0       0x14 ds_sys.o
 .bss           0x001fc2d4        0x0 ds_textures.o
 .bss           0x001fc2d4       0x24 ds_vid.o
                0x001fc2d4                weapon_index
                0x001fc2d8                weapon_shotgun_cycled
                0x001fc2dc                g_lastTouch
                0x001fc2e0                g_currentTouch
                0x001fc2f4                out_buffer
 .bss           0x001fc2f8        0x0 ds_vram.o
 .bss           0x001fc2f8        0x0 geometry.o
 .bss           0x001fc2f8        0x4 musplay.o
                0x001fc2f8                playingChannels
 .bss           0x001fc2fc        0x0 polylib.o
 *fill*         0x001fc2fc        0x4 
 .bss           0x001fc300     0x8210 3ds_mix.o
 .bss           0x00204510        0x4 3ds_sound.o
 .bss           0x00204514        0x0 console.o
 .bss           0x00204514      0x418 file.o
 .bss           0x0020492c       0x14 c:/devkitPro/libctru/lib\libctru.a(linear.o)
 .bss           0x00204940        0x0 c:/devkitPro/libctru/lib\libctru.a(mem_pool.o)
 .bss           0x00204940        0x0 c:/devkitPro/libctru/lib\libctru.a(console.o)
 .bss           0x00204940        0x8 c:/devkitPro/libctru/lib\libctru.a(gfx.o)
 .bss           0x00204948        0x4 c:/devkitPro/libctru/lib\libctru.a(initSystem.o)
 .bss           0x0020494c        0x0 c:/devkitPro/libctru/lib\libctru.a(os.o)
 .bss           0x0020494c        0x4 c:/devkitPro/libctru/lib\libctru.a(srv.o)
 .bss           0x00204950       0x4c c:/devkitPro/libctru/lib\libctru.a(apt.o)
                0x00204954                aptStatusEvent
                0x00204958                aptStatus
                0x0020495c                aptStatusPower
                0x00204960                aptSleepSync
                0x00204984                aptStatusBeforeSleep
 .bss           0x0020499c       0x1c c:/devkitPro/libctru/lib\libctru.a(csnd.o)
                0x0020499c                CSND_handle
                0x002049a0                CSND_sharedmem
                0x002049a4                CSND_mutexhandle
                0x002049a8                CSND_sharedmemhandle
 .bss           0x002049b8        0x4 c:/devkitPro/libctru/lib\libctru.a(fs.o)
 .bss           0x002049bc        0xc c:/devkitPro/libctru/lib\libctru.a(gsp.o)
                0x002049c4                gspGpuHandle
 .bss           0x002049c8        0x0 c:/devkitPro/libctru/lib\libctru.a(gx.o)
 .bss           0x002049c8       0x28 c:/devkitPro/libctru/lib\libctru.a(hid.o)
 .bss           0x002049f0        0xc c:/devkitPro/libctru/lib\libctru.a(irrst.o)
 .bss           0x002049fc        0x0 c:/devkitPro/libctru/lib\libctru.a(rbtree_find.o)
 .bss           0x002049fc        0x0 c:/devkitPro/libctru/lib\libctru.a(rbtree_init.o)
 .bss           0x002049fc        0x0 c:/devkitPro/libctru/lib\libctru.a(rbtree_insert.o)
 .bss           0x002049fc        0x0 c:/devkitPro/libctru/lib\libctru.a(rbtree_remove.o)
 .bss           0x002049fc        0x0 c:/devkitPro/libctru/lib\libctru.a(rbtree_rotate.o)
 .bss           0x002049fc        0x0 c:/devkitPro/libctru/lib\libctru.a(svc.o)
 .bss           0x002049fc        0x0 c:/devkitPro/libctru/lib\libctru.a(default_font.bin.o)
 .bss           0x002049fc        0x0 c:/devkitPro/libctru/lib\libctru.a(rbtree_iterator.o)
 .bss           0x002049fc        0x0 c:/devkitpro/devkitarm/bin/../lib/gcc/arm-none-eabi/4.9.2/../../../../arm-none-eabi/lib\libm.a(lib_a-w_atan2.o)
 .bss           0x002049fc        0x0 c:/devkitpro/devkitarm/bin/../lib/gcc/arm-none-eabi/4.9.2/../../../../arm-none-eabi/lib\libm.a(lib_a-w_sqrt.o)
 .bss           0x002049fc        0x0 c:/devkitpro/devkitarm/bin/../lib/gcc/arm-none-eabi/4.9.2/../../../../arm-none-eabi/lib\libm.a(lib_a-e_atan2.o)
 .bss           0x002049fc        0x0 c:/devkitpro/devkitarm/bin/../lib/gcc/arm-none-eabi/4.9.2/../../../../arm-none-eabi/lib\libm.a(lib_a-e_sqrt.o)
 .bss           0x002049fc        0x0 c:/devkitpro/devkitarm/bin/../lib/gcc/arm-none-eabi/4.9.2/../../../../arm-none-eabi/lib\libm.a(lib_a-s_atan.o)
 .bss           0x002049fc        0x0 c:/devkitpro/devkitarm/bin/../lib/gcc/arm-none-eabi/4.9.2/../../../../arm-none-eabi/lib\libm.a(lib_a-s_fabs.o)
 .bss           0x002049fc        0x0 c:/devkitpro/devkitarm/bin/../lib/gcc/arm-none-eabi/4.9.2/../../../../arm-none-eabi/lib\libm.a(lib_a-s_fpclassify.o)
 .bss           0x002049fc        0x0 c:/devkitpro/devkitarm/bin/../lib/gcc/arm-none-eabi/4.9.2/../../../../arm-none-eabi/lib\libm.a(lib_a-s_lib_ver.o)
 .bss           0x002049fc        0x0 c:/devkitpro/devkitarm/bin/../lib/gcc/arm-none-eabi/4.9.2/../../../../arm-none-eabi/lib\libm.a(lib_a-s_matherr.o)
 .bss           0x002049fc        0x0 c:/devkitpro/devkitarm/bin/../lib/gcc/arm-none-eabi/4.9.2\libgcc.a(_udivsi3.o)
 .bss           0x002049fc        0x0 c:/devkitpro/devkitarm/bin/../lib/gcc/arm-none-eabi/4.9.2\libgcc.a(_divsi3.o)
 .bss           0x002049fc        0x0 c:/devkitpro/devkitarm/bin/../lib/gcc/arm-none-eabi/4.9.2\libgcc.a(_dvmd_tls.o)
 .bss           0x002049fc        0x0 c:/devkitpro/devkitarm/bin/../lib/gcc/arm-none-eabi/4.9.2\libgcc.a(_arm_addsubdf3.o)
 .bss           0x002049fc        0x0 c:/devkitpro/devkitarm/bin/../lib/gcc/arm-none-eabi/4.9.2\libgcc.a(_arm_muldivdf3.o)
 .bss           0x002049fc        0x0 c:/devkitpro/devkitarm/bin/../lib/gcc/arm-none-eabi/4.9.2\libgcc.a(_arm_cmpdf2.o)
 .bss           0x002049fc        0x0 c:/devkitpro/devkitarm/bin/../lib/gcc/arm-none-eabi/4.9.2\libgcc.a(_arm_fixdfsi.o)
 .bss           0x002049fc        0x0 c:/devkitpro/devkitarm/bin/../lib/gcc/arm-none-eabi/4.9.2\libgcc.a(_arm_truncdfsf2.o)
 .bss           0x002049fc        0x0 c:/devkitpro/devkitarm/bin/../lib/gcc/arm-none-eabi/4.9.2\libgcc.a(_arm_addsubsf3.o)
 .bss           0x002049fc        0x0 c:/devkitpro/devkitarm/bin/../lib/gcc/arm-none-eabi/4.9.2\libgcc.a(_arm_muldivsf3.o)
 .bss           0x002049fc        0x0 c:/devkitpro/devkitarm/bin/../lib/gcc/arm-none-eabi/4.9.2\libgcc.a(_arm_cmpsf2.o)
 .bss           0x002049fc        0x0 c:/devkitpro/devkitarm/bin/../lib/gcc/arm-none-eabi/4.9.2\libgcc.a(_arm_fixsfsi.o)
 .bss           0x002049fc        0x0 c:/devkitpro/devkitarm/bin/../lib/gcc/arm-none-eabi/4.9.2\libgcc.a(_arm_fixunssfsi.o)
 .bss           0x002049fc        0x0 c:/devkitpro/devkitarm/bin/../lib/gcc/arm-none-eabi/4.9.2\libgcc.a(_aeabi_ldivmod.o)
 .bss           0x002049fc        0x0 c:/devkitpro/devkitarm/bin/../lib/gcc/arm-none-eabi/4.9.2\libgcc.a(_aeabi_uldivmod.o)
 .bss           0x002049fc        0x0 c:/devkitpro/devkitarm/bin/../lib/gcc/arm-none-eabi/4.9.2\libgcc.a(bpabi.o)
 .bss           0x002049fc        0x0 c:/devkitpro/devkitarm/bin/../lib/gcc/arm-none-eabi/4.9.2\libgcc.a(_divdi3.o)
 .bss           0x002049fc        0x0 c:/devkitpro/devkitarm/bin/../lib/gcc/arm-none-eabi/4.9.2\libgcc.a(_udivdi3.o)
 .bss           0x002049fc        0x0 c:/devkitpro/devkitarm/bin/../lib/gcc/arm-none-eabi/4.9.2\libgcc.a(_clzdi2.o)
 .bss           0x002049fc        0x0 c:/devkitpro/devkitarm/bin/../lib/gcc/arm-none-eabi/4.9.2\libgcc.a(_clzsi2.o)
 .bss           0x002049fc        0x0 c:/devkitpro/devkitarm/bin/../lib/gcc/arm-none-eabi/4.9.2/../../../../arm-none-eabi/lib\libg.a(lib_a-access.o)
 .bss           0x002049fc        0x0 c:/devkitpro/devkitarm/bin/../lib/gcc/arm-none-eabi/4.9.2/../../../../arm-none-eabi/lib\libg.a(lib_a-assert.o)
 .bss           0x002049fc        0x0 c:/devkitpro/devkitarm/bin/../lib/gcc/arm-none-eabi/4.9.2/../../../../arm-none-eabi/lib\libg.a(lib_a-atexit.o)
 .bss           0x002049fc        0x0 c:/devkitpro/devkitarm/bin/../lib/gcc/arm-none-eabi/4.9.2/../../../../arm-none-eabi/lib\libg.a(lib_a-atoi.o)
 .bss           0x002049fc        0x0 c:/devkitpro/devkitarm/bin/../lib/gcc/arm-none-eabi/4.9.2/../../../../arm-none-eabi/lib\libg.a(lib_a-ctype_.o)
 .bss           0x002049fc        0x0 c:/devkitpro/devkitarm/bin/../lib/gcc/arm-none-eabi/4.9.2/../../../../arm-none-eabi/lib\libg.a(lib_a-errno.o)
 .bss           0x002049fc        0x0 c:/devkitpro/devkitarm/bin/../lib/gcc/arm-none-eabi/4.9.2/../../../../arm-none-eabi/lib\libg.a(lib_a-exit.o)
 .bss           0x002049fc        0x0 c:/devkitpro/devkitarm/bin/../lib/gcc/arm-none-eabi/4.9.2/../../../../arm-none-eabi/lib\libg.a(lib_a-fclose.o)
 .bss           0x002049fc        0x0 c:/devkitpro/devkitarm/bin/../lib/gcc/arm-none-eabi/4.9.2/../../../../arm-none-eabi/lib\libg.a(lib_a-fflush.o)
 .bss           0x002049fc        0x0 c:/devkitpro/devkitarm/bin/../lib/gcc/arm-none-eabi/4.9.2/../../../../arm-none-eabi/lib\libg.a(lib_a-fgetc.o)
 .bss           0x002049fc        0x0 c:/devkitpro/devkitarm/bin/../lib/gcc/arm-none-eabi/4.9.2/../../../../arm-none-eabi/lib\libg.a(lib_a-fgets.o)
 .bss           0x002049fc        0x0 c:/devkitpro/devkitarm/bin/../lib/gcc/arm-none-eabi/4.9.2/../../../../arm-none-eabi/lib\libg.a(lib_a-findfp.o)
 .bss           0x002049fc        0x0 c:/devkitpro/devkitarm/bin/../lib/gcc/arm-none-eabi/4.9.2/../../../../arm-none-eabi/lib\libg.a(lib_a-fini.o)
 .bss           0x002049fc        0x0 c:/devkitpro/devkitarm/bin/../lib/gcc/arm-none-eabi/4.9.2/../../../../arm-none-eabi/lib\libg.a(lib_a-fiprintf.o)
 .bss           0x002049fc        0x0 c:/devkitpro/devkitarm/bin/../lib/gcc/arm-none-eabi/4.9.2/../../../../arm-none-eabi/lib\libg.a(lib_a-fopen.o)
 .bss           0x002049fc        0x0 c:/devkitpro/devkitarm/bin/../lib/gcc/arm-none-eabi/4.9.2/../../../../arm-none-eabi/lib\libg.a(lib_a-fprintf.o)
 .bss           0x002049fc        0x0 c:/devkitpro/devkitarm/bin/../lib/gcc/arm-none-eabi/4.9.2/../../../../arm-none-eabi/lib\libg.a(lib_a-fputc.o)
 .bss           0x002049fc        0x0 c:/devkitpro/devkitarm/bin/../lib/gcc/arm-none-eabi/4.9.2/../../../../arm-none-eabi/lib\libg.a(lib_a-fread.o)
 .bss           0x002049fc        0x0 c:/devkitpro/devkitarm/bin/../lib/gcc/arm-none-eabi/4.9.2/../../../../arm-none-eabi/lib\libg.a(lib_a-freer.o)
 .bss           0x002049fc        0x0 c:/devkitpro/devkitarm/bin/../lib/gcc/arm-none-eabi/4.9.2/../../../../arm-none-eabi/lib\libg.a(lib_a-fscanf.o)
 .bss           0x002049fc        0x0 c:/devkitpro/devkitarm/bin/../lib/gcc/arm-none-eabi/4.9.2/../../../../arm-none-eabi/lib\libg.a(lib_a-fseek.o)
 .bss           0x002049fc        0x0 c:/devkitpro/devkitarm/bin/../lib/gcc/arm-none-eabi/4.9.2/../../../../arm-none-eabi/lib\libg.a(lib_a-fseeko.o)
 .bss           0x002049fc        0x0 c:/devkitpro/devkitarm/bin/../lib/gcc/arm-none-eabi/4.9.2/../../../../arm-none-eabi/lib\libg.a(lib_a-ftell.o)
 .bss           0x002049fc        0x0 c:/devkitpro/devkitarm/bin/../lib/gcc/arm-none-eabi/4.9.2/../../../../arm-none-eabi/lib\libg.a(lib_a-ftello.o)
 .bss           0x002049fc        0x0 c:/devkitpro/devkitarm/bin/../lib/gcc/arm-none-eabi/4.9.2/../../../../arm-none-eabi/lib\libg.a(lib_a-fwalk.o)
 .bss           0x002049fc        0x0 c:/devkitpro/devkitarm/bin/../lib/gcc/arm-none-eabi/4.9.2/../../../../arm-none-eabi/lib\libg.a(lib_a-fwrite.o)
 .bss           0x002049fc        0x0 c:/devkitpro/devkitarm/bin/../lib/gcc/arm-none-eabi/4.9.2/../../../../arm-none-eabi/lib\libg.a(lib_a-getenv.o)
 .bss           0x002049fc        0x0 c:/devkitpro/devkitarm/bin/../lib/gcc/arm-none-eabi/4.9.2/../../../../arm-none-eabi/lib\libg.a(lib_a-getenv_r.o)
 .bss           0x002049fc        0x0 c:/devkitpro/devkitarm/bin/../lib/gcc/arm-none-eabi/4.9.2/../../../../arm-none-eabi/lib\libg.a(lib_a-impure.o)
 .bss           0x002049fc        0x0 c:/devkitpro/devkitarm/bin/../lib/gcc/arm-none-eabi/4.9.2/../../../../arm-none-eabi/lib\libg.a(lib_a-init.o)
 .bss           0x002049fc        0x0 c:/devkitpro/devkitarm/bin/../lib/gcc/arm-none-eabi/4.9.2/../../../../arm-none-eabi/lib\libg.a(lib_a-iprintf.o)
 .bss           0x002049fc        0x0 c:/devkitpro/devkitarm/bin/../lib/gcc/arm-none-eabi/4.9.2/../../../../arm-none-eabi/lib\libg.a(lib_a-makebuf.o)
 .bss           0x002049fc        0x0 c:/devkitpro/devkitarm/bin/../lib/gcc/arm-none-eabi/4.9.2/../../../../arm-none-eabi/lib\libg.a(lib_a-malloc.o)
 .bss           0x002049fc       0x34 c:/devkitpro/devkitarm/bin/../lib/gcc/arm-none-eabi/4.9.2/../../../../arm-none-eabi/lib\libg.a(lib_a-mallocr.o)
                0x002049fc                __malloc_top_pad
                0x00204a00                __malloc_current_mallinfo
                0x00204a28                __malloc_max_sbrked_mem
                0x00204a2c                __malloc_max_total_mem
 .bss           0x00204a30        0x0 c:/devkitpro/devkitarm/bin/../lib/gcc/arm-none-eabi/4.9.2/../../../../arm-none-eabi/lib\libg.a(lib_a-memchr-stub.o)
 .bss           0x00204a30        0x0 c:/devkitpro/devkitarm/bin/../lib/gcc/arm-none-eabi/4.9.2/../../../../arm-none-eabi/lib\libg.a(lib_a-memcmp.o)
 .bss           0x00204a30        0x0 c:/devkitpro/devkitarm/bin/../lib/gcc/arm-none-eabi/4.9.2/../../../../arm-none-eabi/lib\libg.a(lib_a-memcpy-stub.o)
 .bss           0x00204a30        0x0 c:/devkitpro/devkitarm/bin/../lib/gcc/arm-none-eabi/4.9.2/../../../../arm-none-eabi/lib\libg.a(lib_a-memmove.o)
 .bss           0x00204a30        0x0 c:/devkitpro/devkitarm/bin/../lib/gcc/arm-none-eabi/4.9.2/../../../../arm-none-eabi/lib\libg.a(lib_a-memset.o)
 .bss           0x00204a30        0x0 c:/devkitpro/devkitarm/bin/../lib/gcc/arm-none-eabi/4.9.2/../../../../arm-none-eabi/lib\libg.a(lib_a-mlock.o)
 .bss           0x00204a30        0x0 c:/devkitpro/devkitarm/bin/../lib/gcc/arm-none-eabi/4.9.2/../../../../arm-none-eabi/lib\libg.a(lib_a-printf.o)
 .bss           0x00204a30        0x0 c:/devkitpro/devkitarm/bin/../lib/gcc/arm-none-eabi/4.9.2/../../../../arm-none-eabi/lib\libg.a(lib_a-putc.o)
 .bss           0x00204a30        0x0 c:/devkitpro/devkitarm/bin/../lib/gcc/arm-none-eabi/4.9.2/../../../../arm-none-eabi/lib\libg.a(lib_a-puts.o)
 .bss           0x00204a30        0x0 c:/devkitpro/devkitarm/bin/../lib/gcc/arm-none-eabi/4.9.2/../../../../arm-none-eabi/lib\libg.a(lib_a-rand.o)
 .bss           0x00204a30        0x0 c:/devkitpro/devkitarm/bin/../lib/gcc/arm-none-eabi/4.9.2/../../../../arm-none-eabi/lib\libg.a(lib_a-realloc.o)
 .bss           0x00204a30        0x0 c:/devkitpro/devkitarm/bin/../lib/gcc/arm-none-eabi/4.9.2/../../../../arm-none-eabi/lib\libg.a(lib_a-reallocr.o)
 .bss           0x00204a30        0x0 c:/devkitpro/devkitarm/bin/../lib/gcc/arm-none-eabi/4.9.2/../../../../arm-none-eabi/lib\libg.a(lib_a-refill.o)
 .bss           0x00204a30        0x0 c:/devkitpro/devkitarm/bin/../lib/gcc/arm-none-eabi/4.9.2/../../../../arm-none-eabi/lib\libg.a(lib_a-remove.o)
 .bss           0x00204a30        0x0 c:/devkitpro/devkitarm/bin/../lib/gcc/arm-none-eabi/4.9.2/../../../../arm-none-eabi/lib\libg.a(lib_a-rget.o)
 .bss           0x00204a30        0x0 c:/devkitpro/devkitarm/bin/../lib/gcc/arm-none-eabi/4.9.2/../../../../arm-none-eabi/lib\libg.a(lib_a-setbuf.o)
 .bss           0x00204a30        0x0 c:/devkitpro/devkitarm/bin/../lib/gcc/arm-none-eabi/4.9.2/../../../../arm-none-eabi/lib\libg.a(lib_a-setvbuf.o)
 .bss           0x00204a30        0x0 c:/devkitpro/devkitarm/bin/../lib/gcc/arm-none-eabi/4.9.2/../../../../arm-none-eabi/lib\libg.a(lib_a-sprintf.o)
 .bss           0x00204a30        0x0 c:/devkitpro/devkitarm/bin/../lib/gcc/arm-none-eabi/4.9.2/../../../../arm-none-eabi/lib\libg.a(lib_a-sscanf.o)
 .bss           0x00204a30        0x0 c:/devkitpro/devkitarm/bin/../lib/gcc/arm-none-eabi/4.9.2/../../../../arm-none-eabi/lib\libg.a(lib_a-stdio.o)
 .bss           0x00204a30        0x0 c:/devkitpro/devkitarm/bin/../lib/gcc/arm-none-eabi/4.9.2/../../../../arm-none-eabi/lib\libg.a(lib_a-strcasecmp.o)
 .bss           0x00204a30        0x0 c:/devkitpro/devkitarm/bin/../lib/gcc/arm-none-eabi/4.9.2/../../../../arm-none-eabi/lib\libg.a(lib_a-strcat.o)
 .bss           0x00204a30        0x0 c:/devkitpro/devkitarm/bin/../lib/gcc/arm-none-eabi/4.9.2/../../../../arm-none-eabi/lib\libg.a(lib_a-strchr.o)
 .bss           0x00204a30        0x0 c:/devkitpro/devkitarm/bin/../lib/gcc/arm-none-eabi/4.9.2/../../../../arm-none-eabi/lib\libg.a(lib_a-strcmp.o)
 .bss           0x00204a30        0x0 c:/devkitpro/devkitarm/bin/../lib/gcc/arm-none-eabi/4.9.2/../../../../arm-none-eabi/lib\libg.a(lib_a-strcpy.o)
 .bss           0x00204a30        0x0 c:/devkitpro/devkitarm/bin/../lib/gcc/arm-none-eabi/4.9.2/../../../../arm-none-eabi/lib\libg.a(lib_a-strerror.o)
 .bss           0x00204a30        0x0 c:/devkitpro/devkitarm/bin/../lib/gcc/arm-none-eabi/4.9.2/../../../../arm-none-eabi/lib\libg.a(lib_a-strlen.o)
 .bss           0x00204a30        0x0 c:/devkitpro/devkitarm/bin/../lib/gcc/arm-none-eabi/4.9.2/../../../../arm-none-eabi/lib\libg.a(lib_a-strlwr.o)
 .bss           0x00204a30        0x0 c:/devkitpro/devkitarm/bin/../lib/gcc/arm-none-eabi/4.9.2/../../../../arm-none-eabi/lib\libg.a(lib_a-strncasecmp.o)
 .bss           0x00204a30        0x0 c:/devkitpro/devkitarm/bin/../lib/gcc/arm-none-eabi/4.9.2/../../../../arm-none-eabi/lib\libg.a(lib_a-strncmp.o)
 .bss           0x00204a30        0x0 c:/devkitpro/devkitarm/bin/../lib/gcc/arm-none-eabi/4.9.2/../../../../arm-none-eabi/lib\libg.a(lib_a-strncpy.o)
 .bss           0x00204a30        0x0 c:/devkitpro/devkitarm/bin/../lib/gcc/arm-none-eabi/4.9.2/../../../../arm-none-eabi/lib\libg.a(lib_a-strtok.o)
 .bss           0x00204a30        0x0 c:/devkitpro/devkitarm/bin/../lib/gcc/arm-none-eabi/4.9.2/../../../../arm-none-eabi/lib\libg.a(lib_a-strtok_r.o)
 .bss           0x00204a30        0x0 c:/devkitpro/devkitarm/bin/../lib/gcc/arm-none-eabi/4.9.2/../../../../arm-none-eabi/lib\libg.a(lib_a-strtol.o)
 .bss           0x00204a30        0x0 c:/devkitpro/devkitarm/bin/../lib/gcc/arm-none-eabi/4.9.2/../../../../arm-none-eabi/lib\libg.a(lib_a-svfprintf.o)
 .bss           0x00204a30        0x0 c:/devkitpro/devkitarm/bin/../lib/gcc/arm-none-eabi/4.9.2/../../../../arm-none-eabi/lib\libg.a(lib_a-svfscanf.o)
 .bss           0x00204a30        0x0 c:/devkitpro/devkitarm/bin/../lib/gcc/arm-none-eabi/4.9.2/../../../../arm-none-eabi/lib\libg.a(lib_a-sysfstat.o)
 .bss           0x00204a30        0x0 c:/devkitpro/devkitarm/bin/../lib/gcc/arm-none-eabi/4.9.2/../../../../arm-none-eabi/lib\libg.a(lib_a-sysisatty.o)
 .bss           0x00204a30        0x0 c:/devkitpro/devkitarm/bin/../lib/gcc/arm-none-eabi/4.9.2/../../../../arm-none-eabi/lib\libg.a(lib_a-sysstat.o)
 .bss           0x00204a30        0x0 c:/devkitpro/devkitarm/bin/../lib/gcc/arm-none-eabi/4.9.2/../../../../arm-none-eabi/lib\libg.a(lib_a-u_strerr.o)
 .bss           0x00204a30        0x0 c:/devkitpro/devkitarm/bin/../lib/gcc/arm-none-eabi/4.9.2/../../../../arm-none-eabi/lib\libg.a(lib_a-vfiprintf.o)
 .bss           0x00204a30        0x0 c:/devkitpro/devkitarm/bin/../lib/gcc/arm-none-eabi/4.9.2/../../../../arm-none-eabi/lib\libg.a(lib_a-vfprintf.o)
 .bss           0x00204a30        0x0 c:/devkitpro/devkitarm/bin/../lib/gcc/arm-none-eabi/4.9.2/../../../../arm-none-eabi/lib\libg.a(lib_a-vfscanf.o)
 .bss           0x00204a30        0x0 c:/devkitpro/devkitarm/bin/../lib/gcc/arm-none-eabi/4.9.2/../../../../arm-none-eabi/lib\libg.a(lib_a-vsnprintf.o)
 .bss           0x00204a30        0x0 c:/devkitpro/devkitarm/bin/../lib/gcc/arm-none-eabi/4.9.2/../../../../arm-none-eabi/lib\libg.a(lib_a-wbuf.o)
 .bss           0x00204a30        0x0 c:/devkitpro/devkitarm/bin/../lib/gcc/arm-none-eabi/4.9.2/../../../../arm-none-eabi/lib\libg.a(lib_a-wcrtomb.o)
 .bss           0x00204a30        0x0 c:/devkitpro/devkitarm/bin/../lib/gcc/arm-none-eabi/4.9.2/../../../../arm-none-eabi/lib\libg.a(lib_a-wcsrtombs.o)
 .bss           0x00204a30        0x0 c:/devkitpro/devkitarm/bin/../lib/gcc/arm-none-eabi/4.9.2/../../../../arm-none-eabi/lib\libg.a(lib_a-wctomb_r.o)
 .bss           0x00204a30        0x0 c:/devkitpro/devkitarm/bin/../lib/gcc/arm-none-eabi/4.9.2/../../../../arm-none-eabi/lib\libg.a(lib_a-wsetup.o)
 .bss           0x00204a30        0x0 c:/devkitpro/devkitarm/bin/../lib/gcc/arm-none-eabi/4.9.2/../../../../arm-none-eabi/lib\libg.a(lib_a-abort.o)
 .bss           0x00204a30        0x0 c:/devkitpro/devkitarm/bin/../lib/gcc/arm-none-eabi/4.9.2/../../../../arm-none-eabi/lib\libg.a(lib_a-__atexit.o)
 .bss           0x00204a30        0x0 c:/devkitpro/devkitarm/bin/../lib/gcc/arm-none-eabi/4.9.2/../../../../arm-none-eabi/lib\libg.a(lib_a-__call_atexit.o)
 .bss           0x00204a30        0x0 c:/devkitpro/devkitarm/bin/../lib/gcc/arm-none-eabi/4.9.2/../../../../arm-none-eabi/lib\libg.a(lib_a-dtoa.o)
 .bss           0x00204a30        0x4 c:/devkitpro/devkitarm/bin/../lib/gcc/arm-none-eabi/4.9.2/../../../../arm-none-eabi/lib\libg.a(lib_a-environ.o)
 .bss           0x00204a34        0x0 c:/devkitpro/devkitarm/bin/../lib/gcc/arm-none-eabi/4.9.2/../../../../arm-none-eabi/lib\libg.a(lib_a-envlock.o)
 .bss           0x00204a34        0x0 c:/devkitpro/devkitarm/bin/../lib/gcc/arm-none-eabi/4.9.2/../../../../arm-none-eabi/lib\libg.a(lib_a-flags.o)
 .bss           0x00204a34        0x0 c:/devkitpro/devkitarm/bin/../lib/gcc/arm-none-eabi/4.9.2/../../../../arm-none-eabi/lib\libg.a(lib_a-fputwc.o)
 .bss           0x00204a34        0x0 c:/devkitpro/devkitarm/bin/../lib/gcc/arm-none-eabi/4.9.2/../../../../arm-none-eabi/lib\libg.a(lib_a-fvwrite.o)
 .bss           0x00204a34        0x0 c:/devkitpro/devkitarm/bin/../lib/gcc/arm-none-eabi/4.9.2/../../../../arm-none-eabi/lib\libg.a(lib_a-iswspace.o)
 .bss           0x00204a34        0x0 c:/devkitpro/devkitarm/bin/../lib/gcc/arm-none-eabi/4.9.2/../../../../arm-none-eabi/lib\libg.a(lib_a-jp2uc.o)
 .bss           0x00204a34      0x2b8 c:/devkitpro/devkitarm/bin/../lib/gcc/arm-none-eabi/4.9.2/../../../../arm-none-eabi/lib\libg.a(lib_a-locale.o)
                0x00204ce0                _PathLocale
                0x00204ce4                __mlocale_changed
                0x00204ce8                __nlocale_changed
 .bss           0x00204cec        0x0 c:/devkitpro/devkitarm/bin/../lib/gcc/arm-none-eabi/4.9.2/../../../../arm-none-eabi/lib\libg.a(lib_a-mbrtowc.o)
 .bss           0x00204cec        0x0 c:/devkitpro/devkitarm/bin/../lib/gcc/arm-none-eabi/4.9.2/../../../../arm-none-eabi/lib\libg.a(lib_a-mbtowc_r.o)
 .bss           0x00204cec        0x0 c:/devkitpro/devkitarm/bin/../lib/gcc/arm-none-eabi/4.9.2/../../../../arm-none-eabi/lib\libg.a(lib_a-mprec.o)
 .bss           0x00204cec        0x0 c:/devkitpro/devkitarm/bin/../lib/gcc/arm-none-eabi/4.9.2/../../../../arm-none-eabi/lib\libg.a(lib_a-sccl.o)
 .bss           0x00204cec        0x0 c:/devkitpro/devkitarm/bin/../lib/gcc/arm-none-eabi/4.9.2/../../../../arm-none-eabi/lib\libg.a(lib_a-sf_nan.o)
 .bss           0x00204cec        0x0 c:/devkitpro/devkitarm/bin/../lib/gcc/arm-none-eabi/4.9.2/../../../../arm-none-eabi/lib\libg.a(lib_a-s_frexp.o)
 .bss           0x00204cec        0x0 c:/devkitpro/devkitarm/bin/../lib/gcc/arm-none-eabi/4.9.2/../../../../arm-none-eabi/lib\libg.a(lib_a-signal.o)
 .bss           0x00204cec        0x0 c:/devkitpro/devkitarm/bin/../lib/gcc/arm-none-eabi/4.9.2/../../../../arm-none-eabi/lib\libg.a(lib_a-stpncpy.o)
 .bss           0x00204cec        0x0 c:/devkitpro/devkitarm/bin/../lib/gcc/arm-none-eabi/4.9.2/../../../../arm-none-eabi/lib\libg.a(lib_a-strlcpy.o)
 .bss           0x00204cec        0x0 c:/devkitpro/devkitarm/bin/../lib/gcc/arm-none-eabi/4.9.2/../../../../arm-none-eabi/lib\libg.a(lib_a-strtod.o)
 .bss           0x00204cec        0x0 c:/devkitpro/devkitarm/bin/../lib/gcc/arm-none-eabi/4.9.2/../../../../arm-none-eabi/lib\libg.a(lib_a-strtoll_r.o)
 .bss           0x00204cec        0x0 c:/devkitpro/devkitarm/bin/../lib/gcc/arm-none-eabi/4.9.2/../../../../arm-none-eabi/lib\libg.a(lib_a-strtoull_r.o)
 .bss           0x00204cec        0x0 c:/devkitpro/devkitarm/bin/../lib/gcc/arm-none-eabi/4.9.2/../../../../arm-none-eabi/lib\libg.a(lib_a-strtoul.o)
 .bss           0x00204cec        0x0 c:/devkitpro/devkitarm/bin/../lib/gcc/arm-none-eabi/4.9.2/../../../../arm-none-eabi/lib\libg.a(lib_a-svfiprintf.o)
 .bss           0x00204cec        0x0 c:/devkitpro/devkitarm/bin/../lib/gcc/arm-none-eabi/4.9.2/../../../../arm-none-eabi/lib\libg.a(lib_a-svfiscanf.o)
 .bss           0x00204cec        0x0 c:/devkitpro/devkitarm/bin/../lib/gcc/arm-none-eabi/4.9.2/../../../../arm-none-eabi/lib\libg.a(lib_a-ungetc.o)
 .bss           0x00204cec        0x0 c:/devkitpro/devkitarm/bin/../lib/gcc/arm-none-eabi/4.9.2/../../../../arm-none-eabi/lib\libg.a(lib_a-wcsnrtombs.o)
 .bss           0x00204cec        0x0 c:/devkitpro/devkitarm/bin/../lib/gcc/arm-none-eabi/4.9.2/../../../../arm-none-eabi/lib\libg.a(lib_a-callocr.o)
 .bss           0x00204cec        0x0 c:/devkitpro/devkitarm/bin/../lib/gcc/arm-none-eabi/4.9.2/../../../../arm-none-eabi/lib\libg.a(lib_a-gdtoa-gethex.o)
 .bss           0x00204cec        0x0 c:/devkitpro/devkitarm/bin/../lib/gcc/arm-none-eabi/4.9.2/../../../../arm-none-eabi/lib\libg.a(lib_a-gdtoa-hexnan.o)
 .bss           0x00204cec        0x0 c:/devkitpro/devkitarm/bin/../lib/gcc/arm-none-eabi/4.9.2/../../../../arm-none-eabi/lib\libsysbase.a(iosupport.o)
 .bss           0x00204cec        0x0 c:/devkitpro/devkitarm/bin/../lib/gcc/arm-none-eabi/4.9.2/../../../../arm-none-eabi/lib\libsysbase.a(close.o)
 .bss           0x00204cec        0x0 c:/devkitpro/devkitarm/bin/../lib/gcc/arm-none-eabi/4.9.2/../../../../arm-none-eabi/lib\libsysbase.a(fstat.o)
 .bss           0x00204cec        0x0 c:/devkitpro/devkitarm/bin/../lib/gcc/arm-none-eabi/4.9.2/../../../../arm-none-eabi/lib\libsysbase.a(getpid.o)
 .bss           0x00204cec        0x0 c:/devkitpro/devkitarm/bin/../lib/gcc/arm-none-eabi/4.9.2/../../../../arm-none-eabi/lib\libsysbase.a(isatty.o)
 .bss           0x00204cec        0x0 c:/devkitpro/devkitarm/bin/../lib/gcc/arm-none-eabi/4.9.2/../../../../arm-none-eabi/lib\libsysbase.a(kill.o)
 .bss           0x00204cec        0x0 c:/devkitpro/devkitarm/bin/../lib/gcc/arm-none-eabi/4.9.2/../../../../arm-none-eabi/lib\libsysbase.a(lseek.o)
 .bss           0x00204cec        0x0 c:/devkitpro/devkitarm/bin/../lib/gcc/arm-none-eabi/4.9.2/../../../../arm-none-eabi/lib\libsysbase.a(open.o)
 .bss           0x00204cec        0x0 c:/devkitpro/devkitarm/bin/../lib/gcc/arm-none-eabi/4.9.2/../../../../arm-none-eabi/lib\libsysbase.a(read.o)
 .bss           0x00204cec        0x4 c:/devkitpro/devkitarm/bin/../lib/gcc/arm-none-eabi/4.9.2/../../../../arm-none-eabi/lib\libsysbase.a(sbrk.o)
 .bss           0x00204cf0        0x0 c:/devkitpro/devkitarm/bin/../lib/gcc/arm-none-eabi/4.9.2/../../../../arm-none-eabi/lib\libsysbase.a(stat.o)
 .bss           0x00204cf0        0x0 c:/devkitpro/devkitarm/bin/../lib/gcc/arm-none-eabi/4.9.2/../../../../arm-none-eabi/lib\libsysbase.a(unlink.o)
 .bss           0x00204cf0        0x0 c:/devkitpro/devkitarm/bin/../lib/gcc/arm-none-eabi/4.9.2/../../../../arm-none-eabi/lib\libsysbase.a(write.o)
 .bss           0x00204cf0        0x0 c:/devkitpro/devkitarm/bin/../lib/gcc/arm-none-eabi/4.9.2/../../../../arm-none-eabi/lib\libsysbase.a(_exit.o)
 .bss           0x00204cf0        0x8 c:/devkitpro/devkitarm/bin/../lib/gcc/arm-none-eabi/4.9.2/../../../../arm-none-eabi/lib\libsysbase.a(malloc_vars.o)
                0x00204cf0                fake_heap_start
                0x00204cf4                fake_heap_end
 .bss           0x00204cf8        0x0 c:/devkitpro/devkitarm/bin/../lib/gcc/arm-none-eabi/4.9.2/../../../../arm-none-eabi/lib\libsysbase.a(chdir.o)
 .bss           0x00204cf8        0x8 c:/devkitpro/devkitarm/bin/../lib/gcc/arm-none-eabi/4.9.2/../../../../arm-none-eabi/lib\libsysbase.a(syscall_support.o)
                0x00204cf8                __syscalls
 .bss           0x00204d00     0x1000 c:/devkitpro/devkitarm/bin/../lib/gcc/arm-none-eabi/4.9.2/../../../../arm-none-eabi/lib\libsysbase.a(handle_manager.o)
 .bss           0x00205d00        0x0 c:/devkitpro/devkitarm/bin/../lib/gcc/arm-none-eabi/4.9.2\libgcc.a(_arm_fixunsdfsi.o)
 .bss           0x00205d00        0x0 c:/devkitpro/devkitarm/bin/../lib/gcc/arm-none-eabi/4.9.2/../../../../arm-none-eabi/lib\libg.a(lib_a-strnlen.o)
 .bss           0x00205d00        0x0 c:/devkitpro/devkitarm/bin/../lib/gcc/arm-none-eabi/4.9.2/../../../../arm-none-eabi/lib\libg.a(lib_a-strrchr.o)
 .bss           0x00205d00        0x0 c:/devkitpro/devkitarm/bin/../lib/gcc/arm-none-eabi/4.9.2/crtend.o
 .bss           0x00205d00        0x0 c:/devkitpro/devkitarm/bin/../lib/gcc/arm-none-eabi/4.9.2/crtn.o
 *(.bss.*)
 *(.gnu.linkonce.b*)
 *(COMMON)
 COMMON         0x00205d00       0x64 am_map.o
                0x00205d00                mapcolor_fchg
                0x00205d04                mapcolor_unsn
                0x00205d08                mapcolor_rdor
                0x00205d0c                mapcolor_ykey
                0x00205d10                mapcolor_flat
                0x00205d14                mapcolor_ydor
                0x00205d18                mapcolor_rkey
                0x00205d1c                mapcolor_wall
                0x00205d20                mapcolor_secr
                0x00205d24                mapcolor_clsd
                0x00205d28                mapcolor_cchg
                0x00205d2c                mapcolor_frnd
                0x00205d30                mapcolor_item
                0x00205d34                automapmode
                0x00205d38                mapcolor_enemy
                0x00205d3c                mapcolor_hair
                0x00205d40                mapcolor_sngl
                0x00205d44                mapcolor_sprt
                0x00205d48                mapcolor_grid
                0x00205d4c                mapcolor_bkey
                0x00205d50                map_secret_after
                0x00205d54                mapcolor_tele
                0x00205d58                mapcolor_exit
                0x00205d5c                mapcolor_bdor
                0x00205d60                mapcolor_back
 COMMON         0x00205d64      0x18c d_client.o
                0x00205d64                wanted_player_number
                0x00205d68                maketic
                0x00205d6c                netcmds
                0x00205eec                doomcom
 COMMON         0x00205ef0      0x514 d_deh.o
                0x00205ef0                deh_soundnames
                0x002060bc                deh_musicnames
                0x002061d0                deh_spritenames
 COMMON         0x00206404       0x5c d_main.o
                0x00206404                debugfile
                0x00206408                startmap
                0x0020640c                deh_files
                0x00206414                basesavegame
                0x00206418                nomusicparm
                0x0020641c                ffmap
                0x00206420                nosfxparm
                0x00206424                startskill
                0x00206428                respawnparm
                0x0020642c                clrespawnparm
                0x00206430                nomonsters
                0x00206434                clnomonsters
                0x00206438                devparm
                0x0020643c                fastparm
                0x00206440                clfastparm
                0x00206444                autostart
                0x00206448                advancedemo
                0x0020644c                startepisode
                0x00206450                wad_files
                0x00206458                desired_screenheight
                0x0020645c                desired_screenwidth
 COMMON         0x00206460      0x178 doomstat.o
                0x00206460                default_help_friends
                0x00206464                dog_jumping
                0x00206468                default_monkeys
                0x0020646c                compatibility_level
                0x00206470                default_translucency
                0x00206474                weapon_recoil
                0x00206478                general_translucency
                0x0020647c                monster_avoid_hazards
                0x00206480                flashing_hom
                0x00206484                comp
                0x00206504                demo_insurance
                0x00206508                default_monster_avoid_hazards
                0x0020650c                monsters_remember
                0x00206510                default_compatibility_level
                0x00206514                default_monsters_remember
                0x00206518                default_dogs
                0x0020651c                default_variable_friction
                0x00206520                doom_weapon_toggles
                0x00206524                default_player_bobbing
                0x00206528                modifiedgame
                0x0020652c                default_allow_pushers
                0x00206530                default_demo_insurance
                0x00206534                monster_backing
                0x00206538                monkeys
                0x0020653c                default_dog_jumping
                0x00206540                default_monster_backing
                0x00206544                default_comp
                0x002065c4                pitched_sounds
                0x002065c8                default_weapon_recoil
                0x002065cc                dogs
                0x002065d0                player_bobbing
                0x002065d4                help_friends
 COMMON         0x002065d8       0x1c f_finale.o
                0x002065d8                castonmelee
                0x002065dc                castnum
                0x002065e0                casttics
                0x002065e4                castattacking
                0x002065e8                caststate
                0x002065ec                castframes
                0x002065f0                castdeath
 COMMON         0x002065f4      0x71c g_game.o
                0x002065f4                timingdemo
                0x002065f8                paused
                0x002065fc                key_spy
                0x00206600                totalitems
                0x00206604                key_menu_enter
                0x00206608                key_quicksave
                0x0020660c                key_backspace
                0x00206610                mouse_double_click_use
                0x00206614                key_weapontoggle
                0x00206618                key_quickload
                0x0020661c                starttime
                0x00206620                key_loadgame
                0x00206624                key_zoomout
                0x00206628                defaultskill
                0x0020662c                key_weapon4
                0x00206630                mousebstrafe
                0x00206634                key_menu_left
                0x00206638                key_hud
                0x0020663c                usergame
                0x00206640                respawnmonsters
                0x00206644                key_weapon1
                0x00206648                key_use
                0x0020664c                joybfire
                0x00206650                consoleplayer
                0x00206654                key_strafeleft
                0x00206658                mousebuse
                0x0020665c                key_map_grid
                0x00206660                key_map_down
                0x00206664                key_menu_down
                0x00206668                players
                0x00206ad8                key_quit
                0x00206adc                key_weapon7
                0x00206ae0                demover
                0x00206ae4                totalsecret
                0x00206ae8                key_map_up
                0x00206aec                key_messages
                0x00206af0                gamestate
                0x00206af4                key_reverse
                0x00206af8                key_endgame
                0x00206afc                netgame
                0x00206b00                bodyquesize
                0x00206b04                totallive
                0x00206b08                key_setup
                0x00206b0c                key_straferight
                0x00206b10                singledemo
                0x00206b14                key_map_follow
                0x00206b18                wminfo
                0x00206be4                joybspeed
                0x00206be8                noblit
                0x00206bec                key_menu_right
                0x00206bf0                key_map_clear
                0x00206bf4                mousebfire
                0x00206bf8                key_map_right
                0x00206bfc                key_weapon9
                0x00206c00                key_soundvolume
                0x00206c04                key_weapon3
                0x00206c08                key_enter
                0x00206c0c                demoplayback
                0x00206c10                totalkills
                0x00206c14                gameskill
                0x00206c18                playeringame
                0x00206c28                key_zoomin
                0x00206c2c                gameepisode
                0x00206c30                key_map
                0x00206c34                joybstrafe
                0x00206c38                destination_keys
                0x00206c48                key_fire
                0x00206c4c                key_menu_escape
                0x00206c50                key_menu_up
                0x00206c54                gametic
                0x00206c58                joybuse
                0x00206c5c                key_weapon8
                0x00206c60                key_savegame
                0x00206c64                key_right
                0x00206c68                key_map_overlay
                0x00206c6c                key_autorun
                0x00206c70                key_map_mark
                0x00206c74                fastdemo
                0x00206c78                demorecording
                0x00206c7c                totalleveltimes
                0x00206c80                key_menu_backspace
                0x00206c84                nodrawers
                0x00206c88                deathmatch
                0x00206c8c                key_map_zoomout
                0x00206c90                displayplayer
                0x00206c94                key_map_left
                0x00206c98                key_weapon2
                0x00206c9c                key_left
                0x00206ca0                key_strafe
                0x00206ca4                key_chat
                0x00206ca8                longtics
                0x00206cac                key_pause
                0x00206cb0                key_map_gobig
                0x00206cb4                key_down
                0x00206cb8                key_up
                0x00206cbc                mousebforward
                0x00206cc0                gamemap
                0x00206cc4                gameaction
                0x00206cc8                mousebbackward
                0x00206ccc                key_weapon5
                0x00206cd0                key_weapon6
                0x00206cd4                key_gamma
                0x00206cd8                key_map_zoomin
                0x00206cdc                savedescription
                0x00206cfc                key_screenshot
                0x00206d00                basetic
                0x00206d04                key_speed
                0x00206d08                key_map_rotate
                0x00206d0c                bodyqueslot
 COMMON         0x00206d10     0x1734 hu_stuff.o
                0x00206d10                hudcolor_list
                0x00206d14                hu_font
                0x00207480                shiftxform
                0x00207484                hud_displayed
                0x00207488                hu_msgbg
                0x0020753c                hudcolor_titl
                0x00207540                hudcolor_mesg
                0x00207544                hud_distributed
                0x00207548                hu_fontk
                0x00207cb4                chat_on
                0x00207cb8                hud_list_bgon
                0x00207cbc                hud_nosecrets
                0x00207cc0                hud_msg_lines
                0x00207cc4                hudcolor_xyco
                0x00207cc8                hu_font2
                0x00208434                message_dontfuckwithme
                0x00208438                hud_active
                0x0020843c                chat_char
                0x00208440                hudcolor_chat
 COMMON         0x00208444        0x8 m_argv.o
                0x00208444                myargv
                0x00208448                myargc
 COMMON         0x0020844c      0x28c m_menu.o
                0x0020844c                whichSkull
                0x00208450                saveOldString
                0x00208468                skullAnimCounter
                0x0020846c                extended_help_count
                0x00208470                quickSaveSlot
                0x00208474                screenblocks
                0x00208478                read_e2
                0x0020847c                color_palette_y
                0x00208480                setup_screen
                0x00208484                current_setup_menu
                0x00208488                saveSlot
                0x0020848c                gather_buffer
                0x00208492                newgame_e
                0x00208494                messageNeedsInput
                0x00208498                mult_screens_index
                0x0020849c                chat_index
                0x002084a0                extended_help_index
                0x002084a4                messy
                0x002084a8                episodes_e
                0x002084ac                gather_count
                0x002084b0                messageRoutine
                0x002084b4                load_e
                0x002084b8                messageLastMenuActive
                0x002084bc                mouseSensitivity_horiz
                0x002084c0                mouseSensitivity_vert
                0x002084c4                currentMenu
                0x002084c8                print_warning_about_changes
                0x002084cc                help_e
                0x002084cd                menuactive
                0x002084ce                mouse_e
                0x002084cf                generic_setup_e
                0x002084d0                main_e
                0x002084d4                palette_background
                0x0020855c                read_e
                0x0020855d                sound_e
                0x0020855e                setup_e
                0x00208560                color_palette_x
                0x00208564                options_e
                0x00208568                messx
                0x0020856c                screenSize
                0x00208570                saveStringEnter
                0x00208574                itemOn
                0x00208578                saveCharIndex
                0x0020857c                epi
                0x00208580                tempstring
                0x002085d0                chat_string_buffer
                0x002085d4                warning_about_changes
                0x002085d8                savegamestrings
                0x002086c8                inhelpscreens
                0x002086cc                showMessages
                0x002086d0                messageToPrint
                0x002086d4                mapcolor_me
 COMMON         0x002086d8       0x10 m_misc.o
                0x002086d8                usemouse
                0x002086dc                numdefaults
                0x002086e0                mus_pause_opt
                0x002086e4                map_point_coordinates
 COMMON         0x002086e8      0x100 m_random.o
                0x002086e8                rng
 COMMON         0x002087e8        0x4 p_ceilng.o
                0x002087e8                activeceilings
 COMMON         0x002087ec       0x24 p_enemy.o
                0x002087ec                brain
                0x002087f4                numbraintargets
                0x002087f8                viletryx
                0x002087fc                corpsehit
                0x00208800                viletryy
                0x00208804                vileobj
                0x00208808                numbraintargets_alloc
                0x0020880c                braintargets
 COMMON         0x00208810       0x4c p_map.o
                0x00208810                tmceilingz
                0x00208814                blockline
                0x00208818                ceilingline
                0x0020881c                tmfloorz
                0x00208820                attackrange
                0x00208824                usething
                0x00208828                shootz
                0x0020882c                tmbbox
                0x0020883c                linetarget
                0x00208840                tmdropoffz
                0x00208844                felldown
                0x00208848                numspechit
                0x0020884c                floatok
                0x00208850                floorline
                0x00208854                la_damage
                0x00208858                spechit
 COMMON         0x0020885c       0x28 p_maputl.o
                0x0020885c                openbacksector
                0x00208860                openbottom
                0x00208864                openrange
                0x00208868                trace
                0x00208878                opentop
                0x0020887c                openfrontsector
                0x00208880                lowfloor
 COMMON         0x00208884        0x8 p_mobj.o
                0x00208884                iquehead
                0x00208888                iquetail
 COMMON         0x0020888c        0x4 p_plats.o
                0x0020888c                activeplats
 COMMON         0x00208890        0x8 p_saveg.o
                0x00208890                specials_e
                0x00208894                save_p
 COMMON         0x00208898       0x94 p_setup.o
                0x00208898                sectors
                0x0020889c                bmapwidth
                0x002088a0                vertexes
                0x002088a4                deathmatch_p
                0x002088a8                bmaporgy
                0x002088ac                numsides
                0x002088b0                blockmaplump
                0x002088b4                rejectmatrix
                0x002088b8                numvertexes
                0x002088bc                playerstarts
                0x002088e4                numsectors
                0x002088e8                num_deathmatchstarts
                0x002088ec                deathmatchstarts
                0x002088f0                bmaporgx
                0x002088f4                subsectors
                0x002088f8                segs
                0x002088fc                numsegs
                0x00208900                bmapheight
                0x00208904                numlines
                0x00208908                nodes
                0x0020890c                numnodes
                0x00208910                sides
                0x00208914                blockmap
                0x00208918                nodes_zdbsp
                0x0020891c                blocklinks
                0x00208920                nodes_glbsp
                0x00208924                numsubsectors
                0x00208928                lines
 COMMON         0x0020892c        0xc p_spec.o
                0x0020892c                levelFragLimit
                0x00208930                tmpusher
                0x00208934                levelFragLimitCount
 COMMON         0x00208938      0x140 p_switch.o
                0x00208938                buttonlist
 COMMON         0x00208a78       0x7c p_tick.o
                0x00208a78                thinkerclasscap
                0x00208af0                leveltime
 COMMON         0x00208af4        0x4 p_user.o
                0x00208af4                onground
 COMMON         0x00208af8      0x1b0 r_bsp.o
                0x00208af8                sidedef
                0x00208afc                maxdrawsegs
                0x00208b00                linedef
                0x00208b04                frontsector
                0x00208b08                ds_p
                0x00208b0c                backsector
                0x00208b10                solidcol
                0x00208ca0                curline
                0x00208ca4                drawsegs
 COMMON         0x00208ca8       0x34 r_data.o
                0x00208ca8                numflats
                0x00208cac                textureheight
                0x00208cb0                firstflat
                0x00208cb4                flattranslation
                0x00208cb8                lastspritelump
                0x00208cbc                lastflat
                0x00208cc0                texturetranslation
                0x00208cc4                numtextures
                0x00208cc8                firstcolormaplump
                0x00208ccc                firstspritelump
                0x00208cd0                lastcolormaplump
                0x00208cd4                textures
                0x00208cd8                numspritelumps
 COMMON         0x00208cdc       0x28 r_draw.o
                0x00208cdc                viewwidth
                0x00208ce0                playernumtotrans
                0x00208ce4                main_tranmap
                0x00208ce8                viewimage
                0x00208cec                translationtables
                0x00208cf0                viewheight
                0x00208cf4                tranmap
                0x00208cf8                scaledviewwidth
                0x00208cfc                viewwindowy
                0x00208d00                viewwindowx
 COMMON         0x00208d04     0x1040 r_filter.o
                0x00208d04                filter_roundedUVMap
                0x00209d04                filter_roundedRowMap
 COMMON         0x00209d44       0x2c r_fps.o
                0x00209d44                WasRenderedInTryRunTics
                0x00209d48                tic_vars
                0x00209d5c                original_view_vars
 COMMON         0x00209d70     0x46b8 r_main.o
                0x00209d70                centery
                0x00209d74                projection
                0x00209d78                viewcos
                0x00209d7c                fixedcolormap
                0x00209d80                zlight
                0x00209d84                extralight
                0x00209d88                viewheightfrac
                0x00209d8c                viewy
                0x00209d90                rendered_visplanes
                0x00209d94                viewangletox
                0x0020dd94                setsizeneeded
                0x0020dd98                xtoviewangle
                0x0020e3dc                rendering_stats
                0x0020e3e0                clipangle
                0x0020e3e4                c_zlight
                0x0020e3e8                projectiony
                0x0020e3ec                fullcolormap
                0x0020e3f0                viewsin
                0x0020e3f4                centerx
                0x0020e3f8                viewplayer
                0x0020e3fc                viewz
                0x0020e400                numcolormaps
                0x0020e404                rendered_vissprites
                0x0020e408                colormaps
                0x0020e40c                viewangleoffset
                0x0020e410                setblocks
                0x0020e414                rendered_segs
                0x0020e418                centeryfrac
                0x0020e41c                viewangle
                0x0020e420                viewx
                0x0020e424                centerxfrac
 COMMON         0x0020e428     0x1694 r_plane.o
                0x0020e428                ceilingplane
                0x0020e42c                lastopening
                0x0020e430                distscale
                0x0020ea70                openings
                0x0020ea74                floorclip
                0x0020f0b4                ceilingclip
                0x0020f6f4                yslope
                0x0020fab4                maxopenings
                0x0020fab8                floorplane
 COMMON         0x0020fabc        0xc r_segs.o
                0x0020fabc                rw_normalangle
                0x0020fac0                rw_distance
                0x0020fac4                rw_angle1
 COMMON         0x0020fac8        0xc r_sky.o
                0x0020fac8                skytexture
                0x0020facc                skyflatnum
                0x0020fad0                skytexturemid
 COMMON         0x0020fad4      0xca4 r_things.o
                0x0020fad4                pspritescale
                0x0020fad8                sprites
                0x0020fadc                spryscale
                0x0020fae0                screenheightarray
                0x00210120                mceilingclip
                0x00210124                pspriteyscale
                0x00210128                numsprites
                0x0021012c                pspriteiscale
                0x00210130                sprtopscreen
                0x00210134                mfloorclip
                0x00210138                negonearray
 COMMON         0x00210778        0x8 st_lib.o
                0x00210778                sts_pct_always_gray
                0x0021077c                sts_always_red
 COMMON         0x00210780       0x24 st_stuff.o
                0x00210780                ammo_yellow
                0x00210784                armor_red
                0x00210788                health_green
                0x0021078c                armor_yellow
                0x00210790                health_yellow
                0x00210794                health_red
                0x00210798                sts_traditional_keys
                0x0021079c                armor_green
                0x002107a0                ammo_red
 COMMON         0x002107a4    0x10004 tables.o
                0x002107a4                finesine
                0x0021a7a4                tantoangle
                0x0021c7a8                finetangent
 COMMON         0x002207a8       0xdc v_video.o
                0x002207a8                default_videomode
                0x002207ac                colrngs
                0x002207d8                screens
                0x00220880                usegamma
 COMMON         0x00220884        0x4 w_wad.o
                0x00220884                lumpinfo
 COMMON         0x00220888        0x4 wi_stuff.o
                0x00220888                acceleratestage
 COMMON         0x0022088c        0x4 ds_sys.o
                0x0022088c                ms_to_next_tick
 COMMON         0x00220890      0x308 ds_vid.o
                0x00220890                use_fullscreen
                0x00220894                desired_fullscreen
                0x00220898                pal3ds
 COMMON         0x00220b98        0x4 musplay.o
                0x00220b98                MLtime
 COMMON         0x00220b9c     0x1018 3ds_mix.o
                0x00220b9c                snd_Samples
                0x00220ba0                snd_Speed
                0x00220ba4                c_snd_Buffer_left
                0x00220ba8                soundtime
                0x00220bac                paintbuffer
                0x00221bac                paintedtime
                0x00221bb0                c_snd_Buffer_right
 COMMON         0x00221bb4      0x118 3ds_sound.o
                0x00221bb4                idmusnum
                0x00221bb8                default_numChannels
                0x00221bbc                S_music_files
 COMMON         0x00221ccc       0x4c c:/devkitPro/libctru/lib\libctru.a(console.o)
                0x00221ccc                currentCopy
 COMMON         0x00221d18       0x60 c:/devkitPro/libctru/lib\libctru.a(gfx.o)
                0x00221d18                gfxBottomFramebuffers
                0x00221d20                gspSharedMemHandle
                0x00221d24                bottomFramebufferInfo
                0x00221d40                gspEvent
                0x00221d44                gfxTopLeftFramebuffers
                0x00221d4c                gfxTopRightFramebuffers
                0x00221d54                topFramebufferInfo
                0x00221d70                gfxThreadID
                0x00221d74                gfxSharedMemory
 COMMON         0x00221d78       0x10 c:/devkitPro/libctru/lib\libctru.a(initSystem.o)
                0x00221d78                __system_argv
                0x00221d7c                __system_argc
                0x00221d80                __linear_heap
                0x00221d84                __system_retAddr
 COMMON         0x00221d88     0x2022 c:/devkitPro/libctru/lib\libctru.a(apt.o)
                0x00221d88                aptEventHandlerThread
                0x00221d8c                aptParameters
                0x00222d90                aptEventHandlerStack
                0x00223d90                aptuHandle
                0x00223d94                aptEvents
                0x00223da0                aptStatusMutex
                0x00223da4                aptLockHandle
                0x00223da8                currentAppId
 *fill*         0x00223daa        0x6 
 COMMON         0x00223db0     0x103d c:/devkitPro/libctru/lib\libctru.a(gsp.o)
                0x00223db0                gspEventStack
                0x00224db0                gspEventThread
                0x00224db4                gspEventCounts
                0x00224dd0                gspEvents
                0x00224dec                gspRunEvents
 *fill*         0x00224ded        0x3 
 COMMON         0x00224df0        0x4 c:/devkitPro/libctru/lib\libctru.a(gx.o)
                0x00224df0                gxCmdBuf
 COMMON         0x00224df4       0x20 c:/devkitPro/libctru/lib\libctru.a(hid.o)
                0x00224df4                hidMemHandle
                0x00224df8                hidHandle
                0x00224dfc                hidSharedMem
                0x00224e00                hidEvents
 COMMON         0x00224e14       0x10 c:/devkitPro/libctru/lib\libctru.a(irrst.o)
                0x00224e14                irrstHandle
                0x00224e18                irrstEvent
                0x00224e1c                irrstMemHandle
                0x00224e20                irrstSharedMem
                0x00224e24                . = ALIGN (0x4)
                0x00224e24                __bss_end__ = .
                0x00224e24                __end__ = ABSOLUTE (.)

/DISCARD/
 *(.group .comment .note)

.stab
 *(.stab)

.stabstr
 *(.stabstr)

.stab.excl
 *(.stab.excl)

.stab.exclstr
 *(.stab.exclstr)

.stab.index
 *(.stab.index)

.stab.indexstr
 *(.stab.indexstr)

.debug
 *(.debug)

.line
 *(.line)

.debug_srcinfo
 *(.debug_srcinfo)

.debug_sfnames
 *(.debug_sfnames)

.debug_aranges  0x00000000      0xb98
 *(.debug_aranges)
 .debug_aranges
                0x00000000       0x20 am_map.o
 .debug_aranges
                0x00000020       0x20 d_client.o
 .debug_aranges
                0x00000040       0x20 d_deh.o
 .debug_aranges
                0x00000060       0x18 d_items.o
 .debug_aranges
                0x00000078       0x20 d_main.o
 .debug_aranges
                0x00000098       0x18 doomdef.o
 .debug_aranges
                0x000000b0       0x18 doomstat.o
 .debug_aranges
                0x000000c8       0x18 dstrings.o
 .debug_aranges
                0x000000e0       0x20 f_finale.o
 .debug_aranges
                0x00000100       0x20 f_wipe.o
 .debug_aranges
                0x00000120       0x20 g_game.o
 .debug_aranges
                0x00000140       0x20 hu_lib.o
 .debug_aranges
                0x00000160       0x20 hu_stuff.o
 .debug_aranges
                0x00000180       0x18 info.o
 .debug_aranges
                0x00000198       0x20 lprintf.o
 .debug_aranges
                0x000001b8       0x20 m_argv.o
 .debug_aranges
                0x000001d8       0x20 m_bbox.o
 .debug_aranges
                0x000001f8       0x20 m_cheat.o
 .debug_aranges
                0x00000218       0x28 m_menu.o
 .debug_aranges
                0x00000240       0x20 m_misc.o
 .debug_aranges
                0x00000260       0x20 m_random.o
 .debug_aranges
                0x00000280       0x20 md5.o
 .debug_aranges
                0x000002a0       0x20 p_ceilng.o
 .debug_aranges
                0x000002c0       0x20 p_checksum.o
 .debug_aranges
                0x000002e0       0x20 p_doors.o
 .debug_aranges
                0x00000300       0x20 p_enemy.o
 .debug_aranges
                0x00000320       0x20 p_floor.o
 .debug_aranges
                0x00000340       0x20 p_genlin.o
 .debug_aranges
                0x00000360       0x20 p_inter.o
 .debug_aranges
                0x00000380       0x20 p_lights.o
 .debug_aranges
                0x000003a0       0x20 p_map.o
 .debug_aranges
                0x000003c0       0x20 p_maputl.o
 .debug_aranges
                0x000003e0       0x20 p_mobj.o
 .debug_aranges
                0x00000400       0x20 p_plats.o
 .debug_aranges
                0x00000420       0x20 p_pspr.o
 .debug_aranges
                0x00000440       0x20 p_saveg.o
 .debug_aranges
                0x00000460       0x20 p_setup.o
 .debug_aranges
                0x00000480       0x20 p_sight.o
 .debug_aranges
                0x000004a0       0x20 p_spec.o
 .debug_aranges
                0x000004c0       0x20 p_switch.o
 .debug_aranges
                0x000004e0       0x20 p_telept.o
 .debug_aranges
                0x00000500       0x20 p_tick.o
 .debug_aranges
                0x00000520       0x20 p_user.o
 .debug_aranges
                0x00000540       0x20 r_bsp.o
 .debug_aranges
                0x00000560       0x20 r_data.o
 .debug_aranges
                0x00000580       0x20 r_demo.o
 .debug_aranges
                0x000005a0       0x20 r_draw.o
 .debug_aranges
                0x000005c0       0x20 r_filter.o
 .debug_aranges
                0x000005e0       0x20 r_fps.o
 .debug_aranges
                0x00000600       0x20 r_main.o
 .debug_aranges
                0x00000620       0x20 r_patch.o
 .debug_aranges
                0x00000640       0x20 r_plane.o
 .debug_aranges
                0x00000660       0x20 r_segs.o
 .debug_aranges
                0x00000680       0x20 r_sky.o
 .debug_aranges
                0x000006a0       0x20 r_things.o
 .debug_aranges
                0x000006c0       0x18 sounds.o
 .debug_aranges
                0x000006d8       0x20 st_lib.o
 .debug_aranges
                0x000006f8       0x20 st_stuff.o
 .debug_aranges
                0x00000718       0x20 tables.o
 .debug_aranges
                0x00000738       0x20 v_video.o
 .debug_aranges
                0x00000758       0x18 version.o
 .debug_aranges
                0x00000770       0x20 w_memcache.o
 .debug_aranges
                0x00000790       0x20 w_wad.o
 .debug_aranges
                0x000007b0       0x20 wi_stuff.o
 .debug_aranges
                0x000007d0       0x20 z_bmalloc.o
 .debug_aranges
                0x000007f0       0x20 z_zone.o
 .debug_aranges
                0x00000810       0x28 ds_main.o
 .debug_aranges
                0x00000838       0x20 ds_sys.o
 .debug_aranges
                0x00000858       0x20 ds_vid.o
 .debug_aranges
                0x00000878       0x20 musplay.o
 .debug_aranges
                0x00000898       0x20 3ds_mix.o
 .debug_aranges
                0x000008b8       0x20 3ds_sound.o
 .debug_aranges
                0x000008d8       0x20 file.o
 .debug_aranges
                0x000008f8       0x20 c:/devkitPro/libctru/lib\libctru.a(linear.o)
 .debug_aranges
                0x00000918       0x20 c:/devkitPro/libctru/lib\libctru.a(mem_pool.o)
 .debug_aranges
                0x00000938       0x20 c:/devkitPro/libctru/lib\libctru.a(console.o)
 .debug_aranges
                0x00000958       0x20 c:/devkitPro/libctru/lib\libctru.a(gfx.o)
 .debug_aranges
                0x00000978       0x20 c:/devkitPro/libctru/lib\libctru.a(initSystem.o)
 .debug_aranges
                0x00000998       0x20 c:/devkitPro/libctru/lib\libctru.a(os.o)
 .debug_aranges
                0x000009b8       0x20 c:/devkitPro/libctru/lib\libctru.a(srv.o)
 .debug_aranges
                0x000009d8       0x20 c:/devkitPro/libctru/lib\libctru.a(apt.o)
 .debug_aranges
                0x000009f8       0x20 c:/devkitPro/libctru/lib\libctru.a(csnd.o)
 .debug_aranges
                0x00000a18       0x20 c:/devkitPro/libctru/lib\libctru.a(fs.o)
 .debug_aranges
                0x00000a38       0x20 c:/devkitPro/libctru/lib\libctru.a(gsp.o)
 .debug_aranges
                0x00000a58       0x20 c:/devkitPro/libctru/lib\libctru.a(gx.o)
 .debug_aranges
                0x00000a78       0x20 c:/devkitPro/libctru/lib\libctru.a(hid.o)
 .debug_aranges
                0x00000a98       0x20 c:/devkitPro/libctru/lib\libctru.a(irrst.o)
 .debug_aranges
                0x00000ab8       0x20 c:/devkitPro/libctru/lib\libctru.a(rbtree_find.o)
 .debug_aranges
                0x00000ad8       0x20 c:/devkitPro/libctru/lib\libctru.a(rbtree_init.o)
 .debug_aranges
                0x00000af8       0x20 c:/devkitPro/libctru/lib\libctru.a(rbtree_insert.o)
 .debug_aranges
                0x00000b18       0x20 c:/devkitPro/libctru/lib\libctru.a(rbtree_remove.o)
 .debug_aranges
                0x00000b38       0x20 c:/devkitPro/libctru/lib\libctru.a(rbtree_rotate.o)
 .debug_aranges
                0x00000b58       0x20 c:/devkitPro/libctru/lib\libctru.a(svc.o)
 .debug_aranges
                0x00000b78       0x20 c:/devkitPro/libctru/lib\libctru.a(rbtree_iterator.o)

.debug_pubnames
 *(.debug_pubnames)

.debug_info     0x00000000   0x12a8fd
 *(.debug_info)
 .debug_info    0x00000000     0x52e2 am_map.o
 .debug_info    0x000052e2      0x71a d_client.o
 .debug_info    0x000059fc     0x934b d_deh.o
 .debug_info    0x0000ed47     0x218f d_items.o
 .debug_info    0x00010ed6     0x80e2 d_main.o
 .debug_info    0x00018fb8       0xa5 doomdef.o
 .debug_info    0x0001905d     0x268f doomstat.o
 .debug_info    0x0001b6ec       0x88 dstrings.o
 .debug_info    0x0001b774     0x493b f_finale.o
 .debug_info    0x000200af     0x285c f_wipe.o
 .debug_info    0x0002290b     0x8346 g_game.o
 .debug_info    0x0002ac51     0x11cf hu_lib.o
 .debug_info    0x0002be20     0x5726 hu_stuff.o
 .debug_info    0x00031546     0x2a0c info.o
 .debug_info    0x00033f52      0xdea lprintf.o
 .debug_info    0x00034d3c      0x10f m_argv.o
 .debug_info    0x00034e4b       0xf9 m_bbox.o
 .debug_info    0x00034f44     0x41e0 m_cheat.o
 .debug_info    0x00039124     0xa67e m_menu.o
 .debug_info    0x000437a2     0x4867 m_misc.o
 .debug_info    0x00048009     0x25d5 m_random.o
 .debug_info    0x0004a5de      0x34a md5.o
 .debug_info    0x0004a928     0x3da7 p_ceilng.o
 .debug_info    0x0004e6cf     0x3c4d p_checksum.o
 .debug_info    0x0005231c     0x43f8 p_doors.o
 .debug_info    0x00056714     0x7f2f p_enemy.o
 .debug_info    0x0005e643     0x47ef p_floor.o
 .debug_info    0x00062e32     0x506b p_genlin.o
 .debug_info    0x00067e9d     0x49f5 p_inter.o
 .debug_info    0x0006c892     0x3e3d p_lights.o
 .debug_info    0x000706cf     0x6973 p_map.o
 .debug_info    0x00077042     0x47b1 p_maputl.o
 .debug_info    0x0007b7f3     0x543b p_mobj.o
 .debug_info    0x00080c2e     0x4123 p_plats.o
 .debug_info    0x00084d51     0x4cd7 p_pspr.o
 .debug_info    0x00089a28     0x520c p_saveg.o
 .debug_info    0x0008ec34     0x7715 p_setup.o
 .debug_info    0x00096349     0x3f07 p_sight.o
 .debug_info    0x0009a250     0x789c p_spec.o
 .debug_info    0x000a1aec     0x4e84 p_switch.o
 .debug_info    0x000a6970     0x4092 p_telept.o
 .debug_info    0x000aaa02     0x37b4 p_tick.o
 .debug_info    0x000ae1b6     0x3b99 p_user.o
 .debug_info    0x000b1d4f     0x4093 r_bsp.o
 .debug_info    0x000b5de2     0x5a28 r_data.o
 .debug_info    0x000bb80a     0x308c r_demo.o
 .debug_info    0x000be896    0x144a8 r_draw.o
 .debug_info    0x000d2d3e      0x1e2 r_filter.o
 .debug_info    0x000d2f20     0x4524 r_fps.o
 .debug_info    0x000d7444     0x4999 r_main.o
 .debug_info    0x000dbddd     0x4109 r_patch.o
 .debug_info    0x000dfee6     0x47a7 r_plane.o
 .debug_info    0x000e468d     0x4da1 r_segs.o
 .debug_info    0x000e942e       0xb3 r_sky.o
 .debug_info    0x000e94e1     0x5d38 r_things.o
 .debug_info    0x000ef219      0x464 sounds.o
 .debug_info    0x000ef67d     0x2b37 st_lib.o
 .debug_info    0x000f21b4     0x5019 st_stuff.o
 .debug_info    0x000f71cd      0x4e7 tables.o
 .debug_info    0x000f76b4     0x4511 v_video.o
 .debug_info    0x000fbbc5       0x4e version.o
 .debug_info    0x000fbc13     0x2ee9 w_memcache.o
 .debug_info    0x000feafc     0x39c4 w_wad.o
 .debug_info    0x001024c0     0x66d5 wi_stuff.o
 .debug_info    0x00108b95      0x42c z_bmalloc.o
 .debug_info    0x00108fc1      0x677 z_zone.o
 .debug_info    0x00109638      0x743 ds_main.o
 .debug_info    0x00109d7b     0x36ba ds_sys.o
 .debug_info    0x0010d435     0x49d5 ds_vid.o
 .debug_info    0x00111e0a      0x498 musplay.o
 .debug_info    0x001122a2     0x4aae 3ds_mix.o
 .debug_info    0x00116d50     0x36ea 3ds_sound.o
 .debug_info    0x0011a43a     0x2243 file.o
 .debug_info    0x0011c67d      0x974 c:/devkitPro/libctru/lib\libctru.a(linear.o)
 .debug_info    0x0011cff1      0x8dc c:/devkitPro/libctru/lib\libctru.a(mem_pool.o)
 .debug_info    0x0011d8cd     0x1bdf c:/devkitPro/libctru/lib\libctru.a(console.o)
 .debug_info    0x0011f4ac      0xc72 c:/devkitPro/libctru/lib\libctru.a(gfx.o)
 .debug_info    0x0012011e      0xc3b c:/devkitPro/libctru/lib\libctru.a(initSystem.o)
 .debug_info    0x00120d59      0x26d c:/devkitPro/libctru/lib\libctru.a(os.o)
 .debug_info    0x00120fc6      0x693 c:/devkitPro/libctru/lib\libctru.a(srv.o)
 .debug_info    0x00121659     0x2d05 c:/devkitPro/libctru/lib\libctru.a(apt.o)
 .debug_info    0x0012435e      0xdec c:/devkitPro/libctru/lib\libctru.a(csnd.o)
 .debug_info    0x0012514a     0x1581 c:/devkitPro/libctru/lib\libctru.a(fs.o)
 .debug_info    0x001266cb     0x10db c:/devkitPro/libctru/lib\libctru.a(gsp.o)
 .debug_info    0x001277a6      0x4e7 c:/devkitPro/libctru/lib\libctru.a(gx.o)
 .debug_info    0x00127c8d      0xdf7 c:/devkitPro/libctru/lib\libctru.a(hid.o)
 .debug_info    0x00128a84      0x719 c:/devkitPro/libctru/lib\libctru.a(irrst.o)
 .debug_info    0x0012919d      0x1c9 c:/devkitPro/libctru/lib\libctru.a(rbtree_find.o)
 .debug_info    0x00129366      0x178 c:/devkitPro/libctru/lib\libctru.a(rbtree_init.o)
 .debug_info    0x001294de      0x60c c:/devkitPro/libctru/lib\libctru.a(rbtree_insert.o)
 .debug_info    0x00129aea      0x81b c:/devkitPro/libctru/lib\libctru.a(rbtree_remove.o)
 .debug_info    0x0012a305      0x2ec c:/devkitPro/libctru/lib\libctru.a(rbtree_rotate.o)
 .debug_info    0x0012a5f1       0x69 c:/devkitPro/libctru/lib\libctru.a(svc.o)
 .debug_info    0x0012a65a      0x2a3 c:/devkitPro/libctru/lib\libctru.a(rbtree_iterator.o)

.debug_abbrev   0x00000000    0x12bf8
 *(.debug_abbrev)
 .debug_abbrev  0x00000000      0x55b am_map.o
 .debug_abbrev  0x0000055b      0x20b d_client.o
 .debug_abbrev  0x00000766      0x4e7 d_deh.o
 .debug_abbrev  0x00000c4d       0x95 d_items.o
 .debug_abbrev  0x00000ce2      0x679 d_main.o
 .debug_abbrev  0x0000135b       0x37 doomdef.o
 .debug_abbrev  0x00001392       0xb0 doomstat.o
 .debug_abbrev  0x00001442       0x64 dstrings.o
 .debug_abbrev  0x000014a6      0x4e5 f_finale.o
 .debug_abbrev  0x0000198b      0x26c f_wipe.o
 .debug_abbrev  0x00001bf7      0x61d g_game.o
 .debug_abbrev  0x00002214      0x370 hu_lib.o
 .debug_abbrev  0x00002584      0x371 hu_stuff.o
 .debug_abbrev  0x000028f5       0xf6 info.o
 .debug_abbrev  0x000029eb      0x2f4 lprintf.o
 .debug_abbrev  0x00002cdf       0xb4 m_argv.o
 .debug_abbrev  0x00002d93       0x95 m_bbox.o
 .debug_abbrev  0x00002e28      0x3ea m_cheat.o
 .debug_abbrev  0x00003212      0x697 m_menu.o
 .debug_abbrev  0x000038a9      0x3c7 m_misc.o
 .debug_abbrev  0x00003c70      0x153 m_random.o
 .debug_abbrev  0x00003dc3      0x162 md5.o
 .debug_abbrev  0x00003f25      0x332 p_ceilng.o
 .debug_abbrev  0x00004257      0x329 p_checksum.o
 .debug_abbrev  0x00004580      0x34a p_doors.o
 .debug_abbrev  0x000048ca      0x571 p_enemy.o
 .debug_abbrev  0x00004e3b      0x3c2 p_floor.o
 .debug_abbrev  0x000051fd      0x307 p_genlin.o
 .debug_abbrev  0x00005504      0x419 p_inter.o
 .debug_abbrev  0x0000591d      0x322 p_lights.o
 .debug_abbrev  0x00005c3f      0x5be p_map.o
 .debug_abbrev  0x000061fd      0x538 p_maputl.o
 .debug_abbrev  0x00006735      0x540 p_mobj.o
 .debug_abbrev  0x00006c75      0x344 p_plats.o
 .debug_abbrev  0x00006fb9      0x48e p_pspr.o
 .debug_abbrev  0x00007447      0x418 p_saveg.o
 .debug_abbrev  0x0000785f      0x56f p_setup.o
 .debug_abbrev  0x00007dce      0x35b p_sight.o
 .debug_abbrev  0x00008129      0x5dc p_spec.o
 .debug_abbrev  0x00008705      0x34e p_switch.o
 .debug_abbrev  0x00008a53      0x351 p_telept.o
 .debug_abbrev  0x00008da4      0x394 p_tick.o
 .debug_abbrev  0x00009138      0x3d2 p_user.o
 .debug_abbrev  0x0000950a      0x42f r_bsp.o
 .debug_abbrev  0x00009939      0x564 r_data.o
 .debug_abbrev  0x00009e9d      0x26b r_demo.o
 .debug_abbrev  0x0000a108      0x411 r_draw.o
 .debug_abbrev  0x0000a519       0xf8 r_filter.o
 .debug_abbrev  0x0000a611      0x45f r_fps.o
 .debug_abbrev  0x0000aa70      0x542 r_main.o
 .debug_abbrev  0x0000afb2      0x4ed r_patch.o
 .debug_abbrev  0x0000b49f      0x512 r_plane.o
 .debug_abbrev  0x0000b9b1      0x466 r_segs.o
 .debug_abbrev  0x0000be17       0x51 r_sky.o
 .debug_abbrev  0x0000be68      0x533 r_things.o
 .debug_abbrev  0x0000c39b       0xb1 sounds.o
 .debug_abbrev  0x0000c44c      0x2fc st_lib.o
 .debug_abbrev  0x0000c748      0x3e2 st_stuff.o
 .debug_abbrev  0x0000cb2a      0x1ed tables.o
 .debug_abbrev  0x0000cd17      0x54a v_video.o
 .debug_abbrev  0x0000d261       0x43 version.o
 .debug_abbrev  0x0000d2a4      0x2b9 w_memcache.o
 .debug_abbrev  0x0000d55d      0x485 w_wad.o
 .debug_abbrev  0x0000d9e2      0x4a8 wi_stuff.o
 .debug_abbrev  0x0000de8a      0x243 z_bmalloc.o
 .debug_abbrev  0x0000e0cd      0x235 z_zone.o
 .debug_abbrev  0x0000e302      0x25f ds_main.o
 .debug_abbrev  0x0000e561      0x46f ds_sys.o
 .debug_abbrev  0x0000e9d0      0x4c1 ds_vid.o
 .debug_abbrev  0x0000ee91       0xee musplay.o
 .debug_abbrev  0x0000ef7f      0x4f9 3ds_mix.o
 .debug_abbrev  0x0000f478      0x353 3ds_sound.o
 .debug_abbrev  0x0000f7cb      0x3f5 file.o
 .debug_abbrev  0x0000fbc0      0x30f c:/devkitPro/libctru/lib\libctru.a(linear.o)
 .debug_abbrev  0x0000fecf      0x292 c:/devkitPro/libctru/lib\libctru.a(mem_pool.o)
 .debug_abbrev  0x00010161      0x49f c:/devkitPro/libctru/lib\libctru.a(console.o)
 .debug_abbrev  0x00010600      0x2fb c:/devkitPro/libctru/lib\libctru.a(gfx.o)
 .debug_abbrev  0x000108fb      0x2d9 c:/devkitPro/libctru/lib\libctru.a(initSystem.o)
 .debug_abbrev  0x00010bd4      0x120 c:/devkitPro/libctru/lib\libctru.a(os.o)
 .debug_abbrev  0x00010cf4      0x240 c:/devkitPro/libctru/lib\libctru.a(srv.o)
 .debug_abbrev  0x00010f34      0x3ef c:/devkitPro/libctru/lib\libctru.a(apt.o)
 .debug_abbrev  0x00011323      0x364 c:/devkitPro/libctru/lib\libctru.a(csnd.o)
 .debug_abbrev  0x00011687      0x2c0 c:/devkitPro/libctru/lib\libctru.a(fs.o)
 .debug_abbrev  0x00011947      0x334 c:/devkitPro/libctru/lib\libctru.a(gsp.o)
 .debug_abbrev  0x00011c7b       0xf9 c:/devkitPro/libctru/lib\libctru.a(gx.o)
 .debug_abbrev  0x00011d74      0x34a c:/devkitPro/libctru/lib\libctru.a(hid.o)
 .debug_abbrev  0x000120be      0x295 c:/devkitPro/libctru/lib\libctru.a(irrst.o)
 .debug_abbrev  0x00012353       0xec c:/devkitPro/libctru/lib\libctru.a(rbtree_find.o)
 .debug_abbrev  0x0001243f       0xb0 c:/devkitPro/libctru/lib\libctru.a(rbtree_init.o)
 .debug_abbrev  0x000124ef      0x21d c:/devkitPro/libctru/lib\libctru.a(rbtree_insert.o)
 .debug_abbrev  0x0001270c      0x205 c:/devkitPro/libctru/lib\libctru.a(rbtree_remove.o)
 .debug_abbrev  0x00012911      0x170 c:/devkitPro/libctru/lib\libctru.a(rbtree_rotate.o)
 .debug_abbrev  0x00012a81       0x14 c:/devkitPro/libctru/lib\libctru.a(svc.o)
 .debug_abbrev  0x00012a95      0x163 c:/devkitPro/libctru/lib\libctru.a(rbtree_iterator.o)

.debug_line     0x00000000    0x24b63
 *(.debug_line)
 .debug_line    0x00000000      0xa93 am_map.o
 .debug_line    0x00000a93      0x233 d_client.o
 .debug_line    0x00000cc6      0xbe3 d_deh.o
 .debug_line    0x000018a9       0x64 d_items.o
 .debug_line    0x0000190d      0xb27 d_main.o
 .debug_line    0x00002434       0x40 doomdef.o
 .debug_line    0x00002474       0x99 doomstat.o
 .debug_line    0x0000250d       0x88 dstrings.o
 .debug_line    0x00002595      0x4c8 f_finale.o
 .debug_line    0x00002a5d      0x186 f_wipe.o
 .debug_line    0x00002be3     0x1526 g_game.o
 .debug_line    0x00004109      0x5cb hu_lib.o
 .debug_line    0x000046d4      0x8c8 hu_stuff.o
 .debug_line    0x00004f9c       0x94 info.o
 .debug_line    0x00005030      0x1e2 lprintf.o
 .debug_line    0x00005212       0x91 m_argv.o
 .debug_line    0x000052a3       0x76 m_bbox.o
 .debug_line    0x00005319      0x47c m_cheat.o
 .debug_line    0x00005795     0x18ab m_menu.o
 .debug_line    0x00007040      0x3ee m_misc.o
 .debug_line    0x0000742e      0x11b m_random.o
 .debug_line    0x00007549      0x1d9 md5.o
 .debug_line    0x00007722      0x2e2 p_ceilng.o
 .debug_line    0x00007a04      0x2c3 p_checksum.o
 .debug_line    0x00007cc7      0x4b8 p_doors.o
 .debug_line    0x0000817f      0xfdf p_enemy.o
 .debug_line    0x0000915e      0x5f4 p_floor.o
 .debug_line    0x00009752      0x7ac p_genlin.o
 .debug_line    0x00009efe      0x680 p_inter.o
 .debug_line    0x0000a57e      0x2aa p_lights.o
 .debug_line    0x0000a828     0x103e p_map.o
 .debug_line    0x0000b866      0x5d2 p_maputl.o
 .debug_line    0x0000be38      0x90a p_mobj.o
 .debug_line    0x0000c742      0x303 p_plats.o
 .debug_line    0x0000ca45      0x573 p_pspr.o
 .debug_line    0x0000cfb8      0x833 p_saveg.o
 .debug_line    0x0000d7eb      0xb6f p_setup.o
 .debug_line    0x0000e35a      0x3dd p_sight.o
 .debug_line    0x0000e737     0x127e p_spec.o
 .debug_line    0x0000f9b5      0x4e4 p_switch.o
 .debug_line    0x0000fe99      0x451 p_telept.o
 .debug_line    0x000102ea      0x1e6 p_tick.o
 .debug_line    0x000104d0      0x3b0 p_user.o
 .debug_line    0x00010880      0x396 r_bsp.o
 .debug_line    0x00010c16      0x638 r_data.o
 .debug_line    0x0001124e      0x139 r_demo.o
 .debug_line    0x00011387     0x9f46 r_draw.o
 .debug_line    0x0001b2cd       0xd5 r_filter.o
 .debug_line    0x0001b3a2      0x359 r_fps.o
 .debug_line    0x0001b6fb      0x6ff r_main.o
 .debug_line    0x0001bdfa      0x581 r_patch.o
 .debug_line    0x0001c37b      0x44e r_plane.o
 .debug_line    0x0001c7c9      0x7d9 r_segs.o
 .debug_line    0x0001cfa2       0x4e r_sky.o
 .debug_line    0x0001cff0      0x87e r_things.o
 .debug_line    0x0001d86e       0x4b sounds.o
 .debug_line    0x0001d8b9      0x211 st_lib.o
 .debug_line    0x0001daca      0x559 st_stuff.o
 .debug_line    0x0001e023      0x146 tables.o
 .debug_line    0x0001e169      0x827 v_video.o
 .debug_line    0x0001e990       0x40 version.o
 .debug_line    0x0001e9d0      0x1ce w_memcache.o
 .debug_line    0x0001eb9e      0x3db w_wad.o
 .debug_line    0x0001ef79      0x993 wi_stuff.o
 .debug_line    0x0001f90c      0x158 z_bmalloc.o
 .debug_line    0x0001fa64      0x1f2 z_zone.o
 .debug_line    0x0001fc56      0x223 ds_main.o
 .debug_line    0x0001fe79        0x0 ds_render.o
 .debug_line    0x0001fe79      0x3ba ds_sys.o
 .debug_line    0x00020233        0x0 ds_textures.o
 .debug_line    0x00020233      0x516 ds_vid.o
 .debug_line    0x00020749        0x0 ds_vram.o
 .debug_line    0x00020749        0x0 geometry.o
 .debug_line    0x00020749      0x116 musplay.o
 .debug_line    0x0002085f        0x0 polylib.o
 .debug_line    0x0002085f      0x623 3ds_mix.o
 .debug_line    0x00020e82      0x1e7 3ds_sound.o
 .debug_line    0x00021069        0x0 console.o
 .debug_line    0x00021069      0x426 file.o
 .debug_line    0x0002148f      0x23c c:/devkitPro/libctru/lib\libctru.a(linear.o)
 .debug_line    0x000216cb      0x2c1 c:/devkitPro/libctru/lib\libctru.a(mem_pool.o)
 .debug_line    0x0002198c      0x5e2 c:/devkitPro/libctru/lib\libctru.a(console.o)
 .debug_line    0x00021f6e      0x287 c:/devkitPro/libctru/lib\libctru.a(gfx.o)
 .debug_line    0x000221f5      0x221 c:/devkitPro/libctru/lib\libctru.a(initSystem.o)
 .debug_line    0x00022416      0x143 c:/devkitPro/libctru/lib\libctru.a(os.o)
 .debug_line    0x00022559      0x221 c:/devkitPro/libctru/lib\libctru.a(srv.o)
 .debug_line    0x0002277a      0x66d c:/devkitPro/libctru/lib\libctru.a(apt.o)
 .debug_line    0x00022de7      0x271 c:/devkitPro/libctru/lib\libctru.a(csnd.o)
 .debug_line    0x00023058      0x527 c:/devkitPro/libctru/lib\libctru.a(fs.o)
 .debug_line    0x0002357f      0x390 c:/devkitPro/libctru/lib\libctru.a(gsp.o)
 .debug_line    0x0002390f      0x1e6 c:/devkitPro/libctru/lib\libctru.a(gx.o)
 .debug_line    0x00023af5      0x2b2 c:/devkitPro/libctru/lib\libctru.a(hid.o)
 .debug_line    0x00023da7      0x20a c:/devkitPro/libctru/lib\libctru.a(irrst.o)
 .debug_line    0x00023fb1      0x173 c:/devkitPro/libctru/lib\libctru.a(rbtree_find.o)
 .debug_line    0x00024124      0x161 c:/devkitPro/libctru/lib\libctru.a(rbtree_init.o)
 .debug_line    0x00024285      0x22b c:/devkitPro/libctru/lib\libctru.a(rbtree_insert.o)
 .debug_line    0x000244b0      0x2ba c:/devkitPro/libctru/lib\libctru.a(rbtree_remove.o)
 .debug_line    0x0002476a      0x1bc c:/devkitPro/libctru/lib\libctru.a(rbtree_rotate.o)
 .debug_line    0x00024926       0xe5 c:/devkitPro/libctru/lib\libctru.a(svc.o)
 .debug_line    0x00024a0b      0x158 c:/devkitPro/libctru/lib\libctru.a(rbtree_iterator.o)

.debug_frame    0x00000000     0xcfb4
 *(.debug_frame)
 .debug_frame   0x00000000      0x1ec am_map.o
 .debug_frame   0x000001ec       0x88 d_client.o
 .debug_frame   0x00000274      0x4c4 d_deh.o
 .debug_frame   0x00000738      0x20c d_main.o
 .debug_frame   0x00000944      0x168 f_finale.o
 .debug_frame   0x00000aac       0x90 f_wipe.o
 .debug_frame   0x00000b3c      0x6c8 g_game.o
 .debug_frame   0x00001204      0x2a0 hu_lib.o
 .debug_frame   0x000014a4      0x164 hu_stuff.o
 .debug_frame   0x00001608       0xe4 lprintf.o
 .debug_frame   0x000016ec       0x2c m_argv.o
 .debug_frame   0x00001718       0x30 m_bbox.o
 .debug_frame   0x00001748      0x300 m_cheat.o
 .debug_frame   0x00001a48      0xce4 m_menu.o
 .debug_frame   0x0000272c      0x12c m_misc.o
 .debug_frame   0x00002858       0x38 m_random.o
 .debug_frame   0x00002890       0xb4 md5.o
 .debug_frame   0x00002944       0xf0 p_ceilng.o
 .debug_frame   0x00002a34       0x98 p_checksum.o
 .debug_frame   0x00002acc       0xfc p_doors.o
 .debug_frame   0x00002bc8      0xaa8 p_enemy.o
 .debug_frame   0x00003670      0x170 p_floor.o
 .debug_frame   0x000037e0      0x158 p_genlin.o
 .debug_frame   0x00003938       0xbc p_inter.o
 .debug_frame   0x000039f4      0x178 p_lights.o
 .debug_frame   0x00003b6c      0x548 p_map.o
 .debug_frame   0x000040b4      0x26c p_maputl.o
 .debug_frame   0x00004320      0x2d8 p_mobj.o
 .debug_frame   0x000045f8       0xfc p_plats.o
 .debug_frame   0x000046f4      0x3c8 p_pspr.o
 .debug_frame   0x00004abc      0x210 p_saveg.o
 .debug_frame   0x00004ccc      0x184 p_setup.o
 .debug_frame   0x00004e50       0xec p_sight.o
 .debug_frame   0x00004f3c      0x7ac p_spec.o
 .debug_frame   0x000056e8       0xac p_switch.o
 .debug_frame   0x00005794      0x120 p_telept.o
 .debug_frame   0x000058b4       0xcc p_tick.o
 .debug_frame   0x00005980       0xc4 p_user.o
 .debug_frame   0x00005a44       0x94 r_bsp.o
 .debug_frame   0x00005ad8      0x1a0 r_data.o
 .debug_frame   0x00005c78       0x74 r_demo.o
 .debug_frame   0x00005cec     0x34cc r_draw.o
 .debug_frame   0x000091b8       0x50 r_filter.o
 .debug_frame   0x00009208      0x194 r_fps.o
 .debug_frame   0x0000939c      0x17c r_main.o
 .debug_frame   0x00009518      0x1c0 r_patch.o
 .debug_frame   0x000096d8      0x12c r_plane.o
 .debug_frame   0x00009804       0x98 r_segs.o
 .debug_frame   0x0000989c       0x20 r_sky.o
 .debug_frame   0x000098bc      0x1f4 r_things.o
 .debug_frame   0x00009ab0      0x144 st_lib.o
 .debug_frame   0x00009bf4      0x108 st_stuff.o
 .debug_frame   0x00009cfc       0x50 tables.o
 .debug_frame   0x00009d4c      0x3a4 v_video.o
 .debug_frame   0x0000a0f0       0xa8 w_memcache.o
 .debug_frame   0x0000a198      0x1d0 w_wad.o
 .debug_frame   0x0000a368      0x5fc wi_stuff.o
 .debug_frame   0x0000a964       0x70 z_bmalloc.o
 .debug_frame   0x0000a9d4      0x130 z_zone.o
 .debug_frame   0x0000ab04       0x78 ds_main.o
 .debug_frame   0x0000ab7c      0x200 ds_sys.o
 .debug_frame   0x0000ad7c      0x17c ds_vid.o
 .debug_frame   0x0000aef8       0x50 musplay.o
 .debug_frame   0x0000af48      0x2a0 3ds_mix.o
 .debug_frame   0x0000b1e8      0x10c 3ds_sound.o
 .debug_frame   0x0000b2f4      0x2ac file.o
 .debug_frame   0x0000b5a0       0xc0 c:/devkitPro/libctru/lib\libctru.a(linear.o)
 .debug_frame   0x0000b660       0x9c c:/devkitPro/libctru/lib\libctru.a(mem_pool.o)
 .debug_frame   0x0000b6fc      0x190 c:/devkitPro/libctru/lib\libctru.a(console.o)
 .debug_frame   0x0000b88c      0x15c c:/devkitPro/libctru/lib\libctru.a(gfx.o)
 .debug_frame   0x0000b9e8       0x54 c:/devkitPro/libctru/lib\libctru.a(initSystem.o)
 .debug_frame   0x0000ba3c       0x8c c:/devkitPro/libctru/lib\libctru.a(os.o)
 .debug_frame   0x0000bac8      0x10c c:/devkitPro/libctru/lib\libctru.a(srv.o)
 .debug_frame   0x0000bbd4      0x5c8 c:/devkitPro/libctru/lib\libctru.a(apt.o)
 .debug_frame   0x0000c19c      0x258 c:/devkitPro/libctru/lib\libctru.a(csnd.o)
 .debug_frame   0x0000c3f4      0x410 c:/devkitPro/libctru/lib\libctru.a(fs.o)
 .debug_frame   0x0000c804      0x27c c:/devkitPro/libctru/lib\libctru.a(gsp.o)
 .debug_frame   0x0000ca80       0xf0 c:/devkitPro/libctru/lib\libctru.a(gx.o)
 .debug_frame   0x0000cb70      0x1f0 c:/devkitPro/libctru/lib\libctru.a(hid.o)
 .debug_frame   0x0000cd60      0x11c c:/devkitPro/libctru/lib\libctru.a(irrst.o)
 .debug_frame   0x0000ce7c       0x30 c:/devkitPro/libctru/lib\libctru.a(rbtree_find.o)
 .debug_frame   0x0000ceac       0x20 c:/devkitPro/libctru/lib\libctru.a(rbtree_init.o)
 .debug_frame   0x0000cecc       0x54 c:/devkitPro/libctru/lib\libctru.a(rbtree_insert.o)
 .debug_frame   0x0000cf20       0x38 c:/devkitPro/libctru/lib\libctru.a(rbtree_remove.o)
 .debug_frame   0x0000cf58       0x2c c:/devkitPro/libctru/lib\libctru.a(rbtree_rotate.o)
 .debug_frame   0x0000cf84       0x30 c:/devkitPro/libctru/lib\libctru.a(rbtree_iterator.o)

.debug_str      0x00000000    0x16285
 *(.debug_str)
 .debug_str     0x00000000     0x4d5a am_map.o
                               0x4fd0 (size before relaxing)
 .debug_str     0x00004d5a      0x306 d_client.o
                                0x58f (size before relaxing)
 .debug_str     0x00005060     0x219c d_deh.o
                               0x638f (size before relaxing)
 .debug_str     0x000071fc       0x20 d_items.o
                               0x377a (size before relaxing)
 .debug_str     0x0000721c      0xe6b d_main.o
                               0x61ba (size before relaxing)
 .debug_str     0x00008087       0x2c doomdef.o
                                0x164 (size before relaxing)
 .debug_str     0x000080b3      0x3b6 doomstat.o
                               0x3ede (size before relaxing)
 .debug_str     0x00008469       0x39 dstrings.o
                                 0xcd (size before relaxing)
 .debug_str     0x000084a2      0x24b f_finale.o
                               0x5724 (size before relaxing)
 .debug_str     0x000086ed      0x401 f_wipe.o
                               0x3cbf (size before relaxing)
 .debug_str     0x00008aee      0xde4 g_game.o
                               0x6d88 (size before relaxing)
 .debug_str     0x000098d2      0x2a7 hu_lib.o
                                0x585 (size before relaxing)
 .debug_str     0x00009b79      0x41d hu_stuff.o
                               0x54ee (size before relaxing)
 .debug_str     0x00009f96       0x1d info.o
                               0x4232 (size before relaxing)
 .debug_str     0x00009fb3       0x7f lprintf.o
                                0x64b (size before relaxing)
 .debug_str     0x0000a032       0x1f m_argv.o
                                0x154 (size before relaxing)
 .debug_str     0x0000a051       0x57 m_bbox.o
                                0x15b (size before relaxing)
 .debug_str     0x0000a0a8      0x2bb m_cheat.o
                               0x5114 (size before relaxing)
 .debug_str     0x0000a363     0x1719 m_menu.o
                               0x747f (size before relaxing)
 .debug_str     0x0000ba7c      0x2fc m_misc.o
                               0x5792 (size before relaxing)
 .debug_str     0x0000bd78       0x43 m_random.o
                               0x3edf (size before relaxing)
 .debug_str     0x0000bdbb       0x5c md5.o
                                0x188 (size before relaxing)
 .debug_str     0x0000be17      0x2f1 p_ceilng.o
                               0x4e71 (size before relaxing)
 .debug_str     0x0000c108       0x91 p_checksum.o
                               0x486f (size before relaxing)
 .debug_str     0x0000c199      0x28b p_doors.o
                               0x5118 (size before relaxing)
 .debug_str     0x0000c424      0x973 p_enemy.o
                               0x5f66 (size before relaxing)
 .debug_str     0x0000cd97      0x244 p_floor.o
                               0x51bc (size before relaxing)
 .debug_str     0x0000cfdb      0x322 p_genlin.o
                               0x5870 (size before relaxing)
 .debug_str     0x0000d2fd      0x12f p_inter.o
                               0x5664 (size before relaxing)
 .debug_str     0x0000d42c      0x178 p_lights.o
                               0x4abf (size before relaxing)
 .debug_str     0x0000d5a4      0x492 p_map.o
                               0x58db (size before relaxing)
 .debug_str     0x0000da36      0x18a p_maputl.o
                               0x4bd5 (size before relaxing)
 .debug_str     0x0000dbc0      0x195 p_mobj.o
                               0x5658 (size before relaxing)
 .debug_str     0x0000dd55       0x83 p_plats.o
                               0x5174 (size before relaxing)
 .debug_str     0x0000ddd8      0x1a0 p_pspr.o
                               0x543e (size before relaxing)
 .debug_str     0x0000df78      0x1b9 p_saveg.o
                               0x5484 (size before relaxing)
 .debug_str     0x0000e131      0x58c p_setup.o
                               0x58a9 (size before relaxing)
 .debug_str     0x0000e6bd       0xbd p_sight.o
                               0x4a68 (size before relaxing)
 .debug_str     0x0000e77a      0x31c p_spec.o
                               0x5fe6 (size before relaxing)
 .debug_str     0x0000ea96       0x91 p_switch.o
                               0x5575 (size before relaxing)
 .debug_str     0x0000eb27       0x6d p_telept.o
                               0x4cb8 (size before relaxing)
 .debug_str     0x0000eb94       0xa0 p_tick.o
                               0x488b (size before relaxing)
 .debug_str     0x0000ec34       0xa6 p_user.o
                               0x4aea (size before relaxing)
 .debug_str     0x0000ecda      0x245 r_bsp.o
                               0x4a36 (size before relaxing)
 .debug_str     0x0000ef1f      0x3f8 r_data.o
                               0x52b0 (size before relaxing)
 .debug_str     0x0000f317       0x93 r_demo.o
                               0x4462 (size before relaxing)
 .debug_str     0x0000f3aa     0x1bd3 r_draw.o
                               0x5b7a (size before relaxing)
 .debug_str     0x00010f7d       0x52 r_filter.o
                                0x1a5 (size before relaxing)
 .debug_str     0x00010fcf      0x239 r_fps.o
                               0x4fb8 (size before relaxing)
 .debug_str     0x00011208      0x25f r_main.o
                               0x4df7 (size before relaxing)
 .debug_str     0x00011467      0x2bf r_patch.o
                               0x4424 (size before relaxing)
 .debug_str     0x00011726      0x141 r_plane.o
                               0x4f81 (size before relaxing)
 .debug_str     0x00011867      0x25f r_segs.o
                               0x5104 (size before relaxing)
 .debug_str     0x00011ac6       0x1e r_sky.o
                                0x14b (size before relaxing)
 .debug_str     0x00011ae4      0x1c7 r_things.o
                               0x5680 (size before relaxing)
 .debug_str     0x00011cab       0x1f sounds.o
                                0x638 (size before relaxing)
 .debug_str     0x00011cca      0x11e st_lib.o
                               0x3bc9 (size before relaxing)
 .debug_str     0x00011de8      0x308 st_stuff.o
                               0x5106 (size before relaxing)
 .debug_str     0x000120f0       0x2a tables.o
                                0x281 (size before relaxing)
 .debug_str     0x0001211a      0x363 v_video.o
                               0x44b1 (size before relaxing)
 .debug_str     0x0001247d       0x20 version.o
                                 0xad (size before relaxing)
 .debug_str     0x0001249d       0x62 w_memcache.o
                               0x3f85 (size before relaxing)
 .debug_str     0x000124ff       0xe8 w_wad.o
                               0x4169 (size before relaxing)
 .debug_str     0x000125e7      0x46e wi_stuff.o
                               0x5d95 (size before relaxing)
 .debug_str     0x00012a55       0x73 z_bmalloc.o
                                0x222 (size before relaxing)
 .debug_str     0x00012ac8       0x9d z_zone.o
                                0x2d3 (size before relaxing)
 .debug_str     0x00012b65      0x202 ds_main.o
                                0x43c (size before relaxing)
 .debug_str     0x00012d67       0x2a ds_render.o
                                 0x9c (size before relaxing)
 .debug_str     0x00012d91       0xfc ds_sys.o
                               0x417f (size before relaxing)
 .debug_str     0x00012e8d       0x2c ds_textures.o
                                 0x9e (size before relaxing)
 .debug_str     0x00012eb9      0x17c ds_vid.o
                               0x4e18 (size before relaxing)
 .debug_str     0x00013035       0x28 ds_vram.o
                                 0x9a (size before relaxing)
 .debug_str     0x0001305d       0x29 geometry.o
                                 0x9b (size before relaxing)
 .debug_str     0x00013086      0x24a musplay.o
                                0x3cb (size before relaxing)
 .debug_str     0x000132d0       0x28 polylib.o
                                 0x9a (size before relaxing)
 .debug_str     0x000132f8      0x354 3ds_mix.o
                               0x5549 (size before relaxing)
 .debug_str     0x0001364c       0x9c 3ds_sound.o
                               0x487a (size before relaxing)
 .debug_str     0x000136e8       0x29 console.o
                                 0x9b (size before relaxing)
 .debug_str     0x00013711      0x45d file.o
                                0xbf1 (size before relaxing)
 .debug_str     0x00013b6e      0x451 c:/devkitPro/libctru/lib\libctru.a(linear.o)
                                0x58f (size before relaxing)
 .debug_str     0x00013fbf       0x71 c:/devkitPro/libctru/lib\libctru.a(mem_pool.o)
                                0x420 (size before relaxing)
 .debug_str     0x00014030      0x379 c:/devkitPro/libctru/lib\libctru.a(console.o)
                                0xc2e (size before relaxing)
 .debug_str     0x000143a9      0x383 c:/devkitPro/libctru/lib\libctru.a(gfx.o)
                                0x702 (size before relaxing)
 .debug_str     0x0001472c      0x1c1 c:/devkitPro/libctru/lib\libctru.a(initSystem.o)
                                0x72f (size before relaxing)
 .debug_str     0x000148ed       0xcf c:/devkitPro/libctru/lib\libctru.a(os.o)
                                0x236 (size before relaxing)
 .debug_str     0x000149bc      0x14b c:/devkitPro/libctru/lib\libctru.a(srv.o)
                                0x303 (size before relaxing)
 .debug_str     0x00014b07      0x8d3 c:/devkitPro/libctru/lib\libctru.a(apt.o)
                                0xc87 (size before relaxing)
 .debug_str     0x000153da      0x2f2 c:/devkitPro/libctru/lib\libctru.a(csnd.o)
                                0x60b (size before relaxing)
 .debug_str     0x000156cc      0x2b0 c:/devkitPro/libctru/lib\libctru.a(fs.o)
                                0x655 (size before relaxing)
 .debug_str     0x0001597c      0x228 c:/devkitPro/libctru/lib\libctru.a(gsp.o)
                                0x714 (size before relaxing)
 .debug_str     0x00015ba4      0x10d c:/devkitPro/libctru/lib\libctru.a(gx.o)
                                0x2ab (size before relaxing)
 .debug_str     0x00015cb1      0x2b3 c:/devkitPro/libctru/lib\libctru.a(hid.o)
                                0x715 (size before relaxing)
 .debug_str     0x00015f64       0xf8 c:/devkitPro/libctru/lib\libctru.a(irrst.o)
                                0x42a (size before relaxing)
 .debug_str     0x0001605c       0x32 c:/devkitPro/libctru/lib\libctru.a(rbtree_find.o)
                                0x1d8 (size before relaxing)
 .debug_str     0x0001608e       0x32 c:/devkitPro/libctru/lib\libctru.a(rbtree_init.o)
                                0x1ce (size before relaxing)
 .debug_str     0x000160c0       0xd6 c:/devkitPro/libctru/lib\libctru.a(rbtree_insert.o)
                                0x290 (size before relaxing)
 .debug_str     0x00016196       0x69 c:/devkitPro/libctru/lib\libctru.a(rbtree_remove.o)
                                0x2ae (size before relaxing)
 .debug_str     0x000161ff       0x34 c:/devkitPro/libctru/lib\libctru.a(rbtree_rotate.o)
                                0x225 (size before relaxing)
 .debug_str     0x00016233       0x52 c:/devkitPro/libctru/lib\libctru.a(rbtree_iterator.o)
                                0x1d8 (size before relaxing)

.debug_loc      0x00000000    0x77d68
 *(.debug_loc)
 .debug_loc     0x00000000     0x184b am_map.o
 .debug_loc     0x0000184b      0x113 d_client.o
 .debug_loc     0x0000195e     0x19c7 d_deh.o
 .debug_loc     0x00003325     0x1a08 d_main.o
 .debug_loc     0x00004d2d      0x5ce f_finale.o
 .debug_loc     0x000052fb      0x23c f_wipe.o
 .debug_loc     0x00005537     0x27df g_game.o
 .debug_loc     0x00007d16      0xcb1 hu_lib.o
 .debug_loc     0x000089c7     0x11da hu_stuff.o
 .debug_loc     0x00009ba1      0x292 lprintf.o
 .debug_loc     0x00009e33       0x1e m_argv.o
 .debug_loc     0x00009e51      0x660 m_cheat.o
 .debug_loc     0x0000a4b1     0x318e m_menu.o
 .debug_loc     0x0000d63f      0x514 m_misc.o
 .debug_loc     0x0000db53       0xa5 m_random.o
 .debug_loc     0x0000dbf8      0xb4a md5.o
 .debug_loc     0x0000e742      0x358 p_ceilng.o
 .debug_loc     0x0000ea9a      0x100 p_checksum.o
 .debug_loc     0x0000eb9a      0x723 p_doors.o
 .debug_loc     0x0000f2bd     0x3144 p_enemy.o
 .debug_loc     0x00012401      0xea0 p_floor.o
 .debug_loc     0x000132a1     0x10c3 p_genlin.o
 .debug_loc     0x00014364     0x17bc p_inter.o
 .debug_loc     0x00015b20      0x5d2 p_lights.o
 .debug_loc     0x000160f2     0x3312 p_map.o
 .debug_loc     0x00019404     0x1ac9 p_maputl.o
 .debug_loc     0x0001aecd     0x16c9 p_mobj.o
 .debug_loc     0x0001c596      0x396 p_plats.o
 .debug_loc     0x0001c92c      0xeaf p_pspr.o
 .debug_loc     0x0001d7db      0xc75 p_saveg.o
 .debug_loc     0x0001e450     0x339f p_setup.o
 .debug_loc     0x000217ef     0x15aa p_sight.o
 .debug_loc     0x00022d99     0x472b p_spec.o
 .debug_loc     0x000274c4      0x6a3 p_switch.o
 .debug_loc     0x00027b67      0xb95 p_telept.o
 .debug_loc     0x000286fc      0x1cf p_tick.o
 .debug_loc     0x000288cb      0x610 p_user.o
 .debug_loc     0x00028edb      0x5b1 r_bsp.o
 .debug_loc     0x0002948c     0x1130 r_data.o
 .debug_loc     0x0002a5bc       0xaa r_demo.o
 .debug_loc     0x0002a666    0x38d21 r_draw.o
 .debug_loc     0x00063387      0x13f r_filter.o
 .debug_loc     0x000634c6      0x841 r_fps.o
 .debug_loc     0x00063d07     0x106a r_main.o
 .debug_loc     0x00064d71     0x1463 r_patch.o
 .debug_loc     0x000661d4      0xa22 r_plane.o
 .debug_loc     0x00066bf6      0xd0b r_segs.o
 .debug_loc     0x00067901     0x1a6f r_things.o
 .debug_loc     0x00069370      0x5b2 st_lib.o
 .debug_loc     0x00069922      0x643 st_stuff.o
 .debug_loc     0x00069f65      0x128 tables.o
 .debug_loc     0x0006a08d     0x1e10 v_video.o
 .debug_loc     0x0006be9d       0xc9 w_memcache.o
 .debug_loc     0x0006bf66      0xa7b w_wad.o
 .debug_loc     0x0006c9e1     0x14d7 wi_stuff.o
 .debug_loc     0x0006deb8      0x20f z_bmalloc.o
 .debug_loc     0x0006e0c7      0x405 z_zone.o
 .debug_loc     0x0006e4cc       0x68 ds_main.o
 .debug_loc     0x0006e534      0x347 ds_sys.o
 .debug_loc     0x0006e87b      0x3df ds_vid.o
 .debug_loc     0x0006ec5a      0xd59 3ds_mix.o
 .debug_loc     0x0006f9b3      0x1bc 3ds_sound.o
 .debug_loc     0x0006fb6f      0xbfb file.o
 .debug_loc     0x0007076a      0x309 c:/devkitPro/libctru/lib\libctru.a(linear.o)
 .debug_loc     0x00070a73      0x8fb c:/devkitPro/libctru/lib\libctru.a(mem_pool.o)
 .debug_loc     0x0007136e      0xda5 c:/devkitPro/libctru/lib\libctru.a(console.o)
 .debug_loc     0x00072113      0x35a c:/devkitPro/libctru/lib\libctru.a(gfx.o)
 .debug_loc     0x0007246d      0x13d c:/devkitPro/libctru/lib\libctru.a(initSystem.o)
 .debug_loc     0x000725aa      0x1ab c:/devkitPro/libctru/lib\libctru.a(os.o)
 .debug_loc     0x00072755      0x375 c:/devkitPro/libctru/lib\libctru.a(srv.o)
 .debug_loc     0x00072aca     0x13e9 c:/devkitPro/libctru/lib\libctru.a(apt.o)
 .debug_loc     0x00073eb3      0x74f c:/devkitPro/libctru/lib\libctru.a(csnd.o)
 .debug_loc     0x00074602      0xf1e c:/devkitPro/libctru/lib\libctru.a(fs.o)
 .debug_loc     0x00075520      0xd25 c:/devkitPro/libctru/lib\libctru.a(gsp.o)
 .debug_loc     0x00076245      0x38a c:/devkitPro/libctru/lib\libctru.a(gx.o)
 .debug_loc     0x000765cf      0x74f c:/devkitPro/libctru/lib\libctru.a(hid.o)
 .debug_loc     0x00076d1e      0x3a8 c:/devkitPro/libctru/lib\libctru.a(irrst.o)
 .debug_loc     0x000770c6      0x10d c:/devkitPro/libctru/lib\libctru.a(rbtree_find.o)
 .debug_loc     0x000771d3      0x382 c:/devkitPro/libctru/lib\libctru.a(rbtree_insert.o)
 .debug_loc     0x00077555      0x4d3 c:/devkitPro/libctru/lib\libctru.a(rbtree_remove.o)
 .debug_loc     0x00077a28       0x8e c:/devkitPro/libctru/lib\libctru.a(rbtree_rotate.o)
 .debug_loc     0x00077ab6      0x2b2 c:/devkitPro/libctru/lib\libctru.a(rbtree_iterator.o)

.debug_macinfo
 *(.debug_macinfo)
LOAD c:/devkitpro/devkitarm/bin/../lib/gcc/arm-none-eabi/4.9.2/../../../../arm-none-eabi/lib/3dsx_crt0.o
LOAD c:/devkitpro/devkitarm/bin/../lib/gcc/arm-none-eabi/4.9.2/crti.o
LOAD c:/devkitpro/devkitarm/bin/../lib/gcc/arm-none-eabi/4.9.2/crtbegin.o
LOAD am_map.o
LOAD d_client.o
LOAD d_deh.o
LOAD d_items.o
LOAD d_main.o
LOAD doomdef.o
LOAD doomstat.o
LOAD dstrings.o
LOAD f_finale.o
LOAD f_wipe.o
LOAD g_game.o
LOAD hu_lib.o
LOAD hu_stuff.o
LOAD info.o
LOAD lprintf.o
LOAD m_argv.o
LOAD m_bbox.o
LOAD m_cheat.o
LOAD m_menu.o
LOAD m_misc.o
LOAD m_random.o
LOAD md5.o
LOAD p_ceilng.o
LOAD p_checksum.o
LOAD p_doors.o
LOAD p_enemy.o
LOAD p_floor.o
LOAD p_genlin.o
LOAD p_inter.o
LOAD p_lights.o
LOAD p_map.o
LOAD p_maputl.o
LOAD p_mobj.o
LOAD p_plats.o
LOAD p_pspr.o
LOAD p_saveg.o
LOAD p_setup.o
LOAD p_sight.o
LOAD p_spec.o
LOAD p_switch.o
LOAD p_telept.o
LOAD p_tick.o
LOAD p_user.o
LOAD r_bsp.o
LOAD r_data.o
LOAD r_demo.o
LOAD r_draw.o
LOAD r_filter.o
LOAD r_fps.o
LOAD r_main.o
LOAD r_patch.o
LOAD r_plane.o
LOAD r_segs.o
LOAD r_sky.o
LOAD r_things.o
LOAD sounds.o
LOAD st_lib.o
LOAD st_stuff.o
LOAD tables.o
LOAD v_video.o
LOAD version.o
LOAD w_memcache.o
LOAD w_wad.o
LOAD wi_stuff.o
LOAD z_bmalloc.o
LOAD z_zone.o
LOAD ds_main.o
LOAD ds_render.o
LOAD ds_sys.o
LOAD ds_textures.o
LOAD ds_vid.o
LOAD ds_vram.o
LOAD geometry.o
LOAD musplay.o
LOAD polylib.o
LOAD 3ds_mix.o
LOAD 3ds_sound.o
LOAD console.o
LOAD file.o
LOAD c:/devkitPro/libctru/lib\libctru.a
LOAD c:/devkitpro/devkitarm/bin/../lib/gcc/arm-none-eabi/4.9.2/../../../../arm-none-eabi/lib\libm.a
START GROUP
LOAD c:/devkitpro/devkitarm/bin/../lib/gcc/arm-none-eabi/4.9.2\libgcc.a
LOAD c:/devkitpro/devkitarm/bin/../lib/gcc/arm-none-eabi/4.9.2/../../../../arm-none-eabi/lib\libg.a
LOAD c:/devkitpro/devkitarm/bin/../lib/gcc/arm-none-eabi/4.9.2/../../../../arm-none-eabi/lib\libc.a
LOAD c:/devkitpro/devkitarm/bin/../lib/gcc/arm-none-eabi/4.9.2/../../../../arm-none-eabi/lib\libsysbase.a
END GROUP
LOAD c:/devkitpro/devkitarm/bin/../lib/gcc/arm-none-eabi/4.9.2/crtend.o
LOAD c:/devkitpro/devkitarm/bin/../lib/gcc/arm-none-eabi/4.9.2/crtn.o
OUTPUT(c:/devl/prboom3ds/prboom3ds.elf elf32-littlearm)

.ARM.attributes
                0x00000000       0x30
 .ARM.attributes
                0x00000000       0x1e c:/devkitpro/devkitarm/bin/../lib/gcc/arm-none-eabi/4.9.2/../../../../arm-none-eabi/lib/3dsx_crt0.o
 .ARM.attributes
                0x0000001e       0x16 c:/devkitpro/devkitarm/bin/../lib/gcc/arm-none-eabi/4.9.2/crti.o
 .ARM.attributes
                0x00000034       0x30 c:/devkitpro/devkitarm/bin/../lib/gcc/arm-none-eabi/4.9.2/crtbegin.o
 .ARM.attributes
                0x00000064       0x28 am_map.o
 .ARM.attributes
                0x0000008c       0x28 d_client.o
 .ARM.attributes
                0x000000b4       0x28 d_deh.o
 .ARM.attributes
                0x000000dc       0x28 d_items.o
 .ARM.attributes
                0x00000104       0x28 d_main.o
 .ARM.attributes
                0x0000012c       0x28 doomdef.o
 .ARM.attributes
                0x00000154       0x28 doomstat.o
 .ARM.attributes
                0x0000017c       0x28 dstrings.o
 .ARM.attributes
                0x000001a4       0x28 f_finale.o
 .ARM.attributes
                0x000001cc       0x28 f_wipe.o
 .ARM.attributes
                0x000001f4       0x28 g_game.o
 .ARM.attributes
                0x0000021c       0x28 hu_lib.o
 .ARM.attributes
                0x00000244       0x28 hu_stuff.o
 .ARM.attributes
                0x0000026c       0x28 info.o
 .ARM.attributes
                0x00000294       0x28 lprintf.o
 .ARM.attributes
                0x000002bc       0x28 m_argv.o
 .ARM.attributes
                0x000002e4       0x28 m_bbox.o
 .ARM.attributes
                0x0000030c       0x28 m_cheat.o
 .ARM.attributes
                0x00000334       0x28 m_menu.o
 .ARM.attributes
                0x0000035c       0x28 m_misc.o
 .ARM.attributes
                0x00000384       0x28 m_random.o
 .ARM.attributes
                0x000003ac       0x28 md5.o
 .ARM.attributes
                0x000003d4       0x28 p_ceilng.o
 .ARM.attributes
                0x000003fc       0x28 p_checksum.o
 .ARM.attributes
                0x00000424       0x28 p_doors.o
 .ARM.attributes
                0x0000044c       0x28 p_enemy.o
 .ARM.attributes
                0x00000474       0x28 p_floor.o
 .ARM.attributes
                0x0000049c       0x28 p_genlin.o
 .ARM.attributes
                0x000004c4       0x28 p_inter.o
 .ARM.attributes
                0x000004ec       0x28 p_lights.o
 .ARM.attributes
                0x00000514       0x28 p_map.o
 .ARM.attributes
                0x0000053c       0x28 p_maputl.o
 .ARM.attributes
                0x00000564       0x28 p_mobj.o
 .ARM.attributes
                0x0000058c       0x28 p_plats.o
 .ARM.attributes
                0x000005b4       0x28 p_pspr.o
 .ARM.attributes
                0x000005dc       0x28 p_saveg.o
 .ARM.attributes
                0x00000604       0x28 p_setup.o
 .ARM.attributes
                0x0000062c       0x28 p_sight.o
 .ARM.attributes
                0x00000654       0x28 p_spec.o
 .ARM.attributes
                0x0000067c       0x28 p_switch.o
 .ARM.attributes
                0x000006a4       0x28 p_telept.o
 .ARM.attributes
                0x000006cc       0x28 p_tick.o
 .ARM.attributes
                0x000006f4       0x28 p_user.o
 .ARM.attributes
                0x0000071c       0x28 r_bsp.o
 .ARM.attributes
                0x00000744       0x28 r_data.o
 .ARM.attributes
                0x0000076c       0x28 r_demo.o
 .ARM.attributes
                0x00000794       0x28 r_draw.o
 .ARM.attributes
                0x000007bc       0x28 r_filter.o
 .ARM.attributes
                0x000007e4       0x28 r_fps.o
 .ARM.attributes
                0x0000080c       0x28 r_main.o
 .ARM.attributes
                0x00000834       0x28 r_patch.o
 .ARM.attributes
                0x0000085c       0x28 r_plane.o
 .ARM.attributes
                0x00000884       0x28 r_segs.o
 .ARM.attributes
                0x000008ac       0x28 r_sky.o
 .ARM.attributes
                0x000008d4       0x28 r_things.o
 .ARM.attributes
                0x000008fc       0x28 sounds.o
 .ARM.attributes
                0x00000924       0x28 st_lib.o
 .ARM.attributes
                0x0000094c       0x28 st_stuff.o
 .ARM.attributes
                0x00000974       0x28 tables.o
 .ARM.attributes
                0x0000099c       0x28 v_video.o
 .ARM.attributes
                0x000009c4       0x28 version.o
 .ARM.attributes
                0x000009ec       0x28 w_memcache.o
 .ARM.attributes
                0x00000a14       0x28 w_wad.o
 .ARM.attributes
                0x00000a3c       0x28 wi_stuff.o
 .ARM.attributes
                0x00000a64       0x28 z_bmalloc.o
 .ARM.attributes
                0x00000a8c       0x28 z_zone.o
 .ARM.attributes
                0x00000ab4       0x28 ds_main.o
 .ARM.attributes
                0x00000adc       0x28 ds_render.o
 .ARM.attributes
                0x00000b04       0x28 ds_sys.o
 .ARM.attributes
                0x00000b2c       0x28 ds_textures.o
 .ARM.attributes
                0x00000b54       0x28 ds_vid.o
 .ARM.attributes
                0x00000b7c       0x28 ds_vram.o
 .ARM.attributes
                0x00000ba4       0x28 geometry.o
 .ARM.attributes
                0x00000bcc       0x28 musplay.o
 .ARM.attributes
                0x00000bf4       0x28 polylib.o
 .ARM.attributes
                0x00000c1c       0x28 3ds_mix.o
 .ARM.attributes
                0x00000c44       0x28 3ds_sound.o
 .ARM.attributes
                0x00000c6c       0x28 console.o
 .ARM.attributes
                0x00000c94       0x28 file.o
 .ARM.attributes
                0x00000cbc       0x2c c:/devkitPro/libctru/lib\libctru.a(linear.o)
 .ARM.attributes
                0x00000ce8       0x2c c:/devkitPro/libctru/lib\libctru.a(mem_pool.o)
 .ARM.attributes
                0x00000d14       0x2c c:/devkitPro/libctru/lib\libctru.a(console.o)
 .ARM.attributes
                0x00000d40       0x2c c:/devkitPro/libctru/lib\libctru.a(gfx.o)
 .ARM.attributes
                0x00000d6c       0x2c c:/devkitPro/libctru/lib\libctru.a(initSystem.o)
 .ARM.attributes
                0x00000d98       0x2c c:/devkitPro/libctru/lib\libctru.a(os.o)
 .ARM.attributes
                0x00000dc4       0x2c c:/devkitPro/libctru/lib\libctru.a(srv.o)
 .ARM.attributes
                0x00000df0       0x2c c:/devkitPro/libctru/lib\libctru.a(apt.o)
 .ARM.attributes
                0x00000e1c       0x2c c:/devkitPro/libctru/lib\libctru.a(csnd.o)
 .ARM.attributes
                0x00000e48       0x2c c:/devkitPro/libctru/lib\libctru.a(fs.o)
 .ARM.attributes
                0x00000e74       0x2c c:/devkitPro/libctru/lib\libctru.a(gsp.o)
 .ARM.attributes
                0x00000ea0       0x2c c:/devkitPro/libctru/lib\libctru.a(gx.o)
 .ARM.attributes
                0x00000ecc       0x2c c:/devkitPro/libctru/lib\libctru.a(hid.o)
 .ARM.attributes
                0x00000ef8       0x2c c:/devkitPro/libctru/lib\libctru.a(irrst.o)
 .ARM.attributes
                0x00000f24       0x2c c:/devkitPro/libctru/lib\libctru.a(rbtree_find.o)
 .ARM.attributes
                0x00000f50       0x2c c:/devkitPro/libctru/lib\libctru.a(rbtree_init.o)
 .ARM.attributes
                0x00000f7c       0x2c c:/devkitPro/libctru/lib\libctru.a(rbtree_insert.o)
 .ARM.attributes
                0x00000fa8       0x2c c:/devkitPro/libctru/lib\libctru.a(rbtree_remove.o)
 .ARM.attributes
                0x00000fd4       0x2c c:/devkitPro/libctru/lib\libctru.a(rbtree_rotate.o)
 .ARM.attributes
                0x00001000       0x1a c:/devkitPro/libctru/lib\libctru.a(svc.o)
 .ARM.attributes
                0x0000101a       0x14 c:/devkitPro/libctru/lib\libctru.a(default_font.bin.o)
 .ARM.attributes
                0x0000102e       0x2c c:/devkitPro/libctru/lib\libctru.a(rbtree_iterator.o)
 .ARM.attributes
                0x0000105a       0x30 c:/devkitpro/devkitarm/bin/../lib/gcc/arm-none-eabi/4.9.2/../../../../arm-none-eabi/lib\libm.a(lib_a-w_atan2.o)
 .ARM.attributes
                0x0000108a       0x30 c:/devkitpro/devkitarm/bin/../lib/gcc/arm-none-eabi/4.9.2/../../../../arm-none-eabi/lib\libm.a(lib_a-w_sqrt.o)
 .ARM.attributes
                0x000010ba       0x30 c:/devkitpro/devkitarm/bin/../lib/gcc/arm-none-eabi/4.9.2/../../../../arm-none-eabi/lib\libm.a(lib_a-e_atan2.o)
 .ARM.attributes
                0x000010ea       0x30 c:/devkitpro/devkitarm/bin/../lib/gcc/arm-none-eabi/4.9.2/../../../../arm-none-eabi/lib\libm.a(lib_a-e_sqrt.o)
 .ARM.attributes
                0x0000111a       0x30 c:/devkitpro/devkitarm/bin/../lib/gcc/arm-none-eabi/4.9.2/../../../../arm-none-eabi/lib\libm.a(lib_a-s_atan.o)
 .ARM.attributes
                0x0000114a       0x30 c:/devkitpro/devkitarm/bin/../lib/gcc/arm-none-eabi/4.9.2/../../../../arm-none-eabi/lib\libm.a(lib_a-s_fabs.o)
 .ARM.attributes
                0x0000117a       0x30 c:/devkitpro/devkitarm/bin/../lib/gcc/arm-none-eabi/4.9.2/../../../../arm-none-eabi/lib\libm.a(lib_a-s_fpclassify.o)
 .ARM.attributes
                0x000011aa       0x30 c:/devkitpro/devkitarm/bin/../lib/gcc/arm-none-eabi/4.9.2/../../../../arm-none-eabi/lib\libm.a(lib_a-s_lib_ver.o)
 .ARM.attributes
                0x000011da       0x30 c:/devkitpro/devkitarm/bin/../lib/gcc/arm-none-eabi/4.9.2/../../../../arm-none-eabi/lib\libm.a(lib_a-s_matherr.o)
 .ARM.attributes
                0x0000120a       0x18 c:/devkitpro/devkitarm/bin/../lib/gcc/arm-none-eabi/4.9.2\libgcc.a(_udivsi3.o)
 .ARM.attributes
                0x00001222       0x18 c:/devkitpro/devkitarm/bin/../lib/gcc/arm-none-eabi/4.9.2\libgcc.a(_divsi3.o)
 .ARM.attributes
                0x0000123a       0x18 c:/devkitpro/devkitarm/bin/../lib/gcc/arm-none-eabi/4.9.2\libgcc.a(_dvmd_tls.o)
 .ARM.attributes
                0x00001252       0x18 c:/devkitpro/devkitarm/bin/../lib/gcc/arm-none-eabi/4.9.2\libgcc.a(_arm_addsubdf3.o)
 .ARM.attributes
                0x0000126a       0x18 c:/devkitpro/devkitarm/bin/../lib/gcc/arm-none-eabi/4.9.2\libgcc.a(_arm_muldivdf3.o)
 .ARM.attributes
                0x00001282       0x18 c:/devkitpro/devkitarm/bin/../lib/gcc/arm-none-eabi/4.9.2\libgcc.a(_arm_cmpdf2.o)
 .ARM.attributes
                0x0000129a       0x18 c:/devkitpro/devkitarm/bin/../lib/gcc/arm-none-eabi/4.9.2\libgcc.a(_arm_fixdfsi.o)
 .ARM.attributes
                0x000012b2       0x18 c:/devkitpro/devkitarm/bin/../lib/gcc/arm-none-eabi/4.9.2\libgcc.a(_arm_truncdfsf2.o)
 .ARM.attributes
                0x000012ca       0x18 c:/devkitpro/devkitarm/bin/../lib/gcc/arm-none-eabi/4.9.2\libgcc.a(_arm_addsubsf3.o)
 .ARM.attributes
                0x000012e2       0x18 c:/devkitpro/devkitarm/bin/../lib/gcc/arm-none-eabi/4.9.2\libgcc.a(_arm_muldivsf3.o)
 .ARM.attributes
                0x000012fa       0x18 c:/devkitpro/devkitarm/bin/../lib/gcc/arm-none-eabi/4.9.2\libgcc.a(_arm_cmpsf2.o)
 .ARM.attributes
                0x00001312       0x18 c:/devkitpro/devkitarm/bin/../lib/gcc/arm-none-eabi/4.9.2\libgcc.a(_arm_fixsfsi.o)
 .ARM.attributes
                0x0000132a       0x18 c:/devkitpro/devkitarm/bin/../lib/gcc/arm-none-eabi/4.9.2\libgcc.a(_arm_fixunssfsi.o)
 .ARM.attributes
                0x00001342       0x18 c:/devkitpro/devkitarm/bin/../lib/gcc/arm-none-eabi/4.9.2\libgcc.a(_aeabi_ldivmod.o)
 .ARM.attributes
                0x0000135a       0x18 c:/devkitpro/devkitarm/bin/../lib/gcc/arm-none-eabi/4.9.2\libgcc.a(_aeabi_uldivmod.o)
 .ARM.attributes
                0x00001372       0x30 c:/devkitpro/devkitarm/bin/../lib/gcc/arm-none-eabi/4.9.2\libgcc.a(bpabi.o)
 .ARM.attributes
                0x000013a2       0x30 c:/devkitpro/devkitarm/bin/../lib/gcc/arm-none-eabi/4.9.2\libgcc.a(_divdi3.o)
 .ARM.attributes
                0x000013d2       0x30 c:/devkitpro/devkitarm/bin/../lib/gcc/arm-none-eabi/4.9.2\libgcc.a(_udivdi3.o)
 .ARM.attributes
                0x00001402       0x18 c:/devkitpro/devkitarm/bin/../lib/gcc/arm-none-eabi/4.9.2\libgcc.a(_clzdi2.o)
 .ARM.attributes
                0x0000141a       0x18 c:/devkitpro/devkitarm/bin/../lib/gcc/arm-none-eabi/4.9.2\libgcc.a(_clzsi2.o)
 .ARM.attributes
                0x00001432       0x30 c:/devkitpro/devkitarm/bin/../lib/gcc/arm-none-eabi/4.9.2/../../../../arm-none-eabi/lib\libg.a(lib_a-access.o)
 .ARM.attributes
                0x00001462       0x30 c:/devkitpro/devkitarm/bin/../lib/gcc/arm-none-eabi/4.9.2/../../../../arm-none-eabi/lib\libg.a(lib_a-assert.o)
 .ARM.attributes
                0x00001492       0x30 c:/devkitpro/devkitarm/bin/../lib/gcc/arm-none-eabi/4.9.2/../../../../arm-none-eabi/lib\libg.a(lib_a-atexit.o)
 .ARM.attributes
                0x000014c2       0x30 c:/devkitpro/devkitarm/bin/../lib/gcc/arm-none-eabi/4.9.2/../../../../arm-none-eabi/lib\libg.a(lib_a-atoi.o)
 .ARM.attributes
                0x000014f2       0x30 c:/devkitpro/devkitarm/bin/../lib/gcc/arm-none-eabi/4.9.2/../../../../arm-none-eabi/lib\libg.a(lib_a-ctype_.o)
 .ARM.attributes
                0x00001522       0x30 c:/devkitpro/devkitarm/bin/../lib/gcc/arm-none-eabi/4.9.2/../../../../arm-none-eabi/lib\libg.a(lib_a-errno.o)
 .ARM.attributes
                0x00001552       0x30 c:/devkitpro/devkitarm/bin/../lib/gcc/arm-none-eabi/4.9.2/../../../../arm-none-eabi/lib\libg.a(lib_a-exit.o)
 .ARM.attributes
                0x00001582       0x30 c:/devkitpro/devkitarm/bin/../lib/gcc/arm-none-eabi/4.9.2/../../../../arm-none-eabi/lib\libg.a(lib_a-fclose.o)
 .ARM.attributes
                0x000015b2       0x30 c:/devkitpro/devkitarm/bin/../lib/gcc/arm-none-eabi/4.9.2/../../../../arm-none-eabi/lib\libg.a(lib_a-fflush.o)
 .ARM.attributes
                0x000015e2       0x30 c:/devkitpro/devkitarm/bin/../lib/gcc/arm-none-eabi/4.9.2/../../../../arm-none-eabi/lib\libg.a(lib_a-fgetc.o)
 .ARM.attributes
                0x00001612       0x30 c:/devkitpro/devkitarm/bin/../lib/gcc/arm-none-eabi/4.9.2/../../../../arm-none-eabi/lib\libg.a(lib_a-fgets.o)
 .ARM.attributes
                0x00001642       0x30 c:/devkitpro/devkitarm/bin/../lib/gcc/arm-none-eabi/4.9.2/../../../../arm-none-eabi/lib\libg.a(lib_a-findfp.o)
 .ARM.attributes
                0x00001672       0x30 c:/devkitpro/devkitarm/bin/../lib/gcc/arm-none-eabi/4.9.2/../../../../arm-none-eabi/lib\libg.a(lib_a-fini.o)
 .ARM.attributes
                0x000016a2       0x30 c:/devkitpro/devkitarm/bin/../lib/gcc/arm-none-eabi/4.9.2/../../../../arm-none-eabi/lib\libg.a(lib_a-fiprintf.o)
 .ARM.attributes
                0x000016d2       0x30 c:/devkitpro/devkitarm/bin/../lib/gcc/arm-none-eabi/4.9.2/../../../../arm-none-eabi/lib\libg.a(lib_a-fopen.o)
 .ARM.attributes
                0x00001702       0x30 c:/devkitpro/devkitarm/bin/../lib/gcc/arm-none-eabi/4.9.2/../../../../arm-none-eabi/lib\libg.a(lib_a-fprintf.o)
 .ARM.attributes
                0x00001732       0x30 c:/devkitpro/devkitarm/bin/../lib/gcc/arm-none-eabi/4.9.2/../../../../arm-none-eabi/lib\libg.a(lib_a-fputc.o)
 .ARM.attributes
                0x00001762       0x30 c:/devkitpro/devkitarm/bin/../lib/gcc/arm-none-eabi/4.9.2/../../../../arm-none-eabi/lib\libg.a(lib_a-fread.o)
 .ARM.attributes
                0x00001792       0x30 c:/devkitpro/devkitarm/bin/../lib/gcc/arm-none-eabi/4.9.2/../../../../arm-none-eabi/lib\libg.a(lib_a-freer.o)
 .ARM.attributes
                0x000017c2       0x30 c:/devkitpro/devkitarm/bin/../lib/gcc/arm-none-eabi/4.9.2/../../../../arm-none-eabi/lib\libg.a(lib_a-fscanf.o)
 .ARM.attributes
                0x000017f2       0x30 c:/devkitpro/devkitarm/bin/../lib/gcc/arm-none-eabi/4.9.2/../../../../arm-none-eabi/lib\libg.a(lib_a-fseek.o)
 .ARM.attributes
                0x00001822       0x30 c:/devkitpro/devkitarm/bin/../lib/gcc/arm-none-eabi/4.9.2/../../../../arm-none-eabi/lib\libg.a(lib_a-fseeko.o)
 .ARM.attributes
                0x00001852       0x30 c:/devkitpro/devkitarm/bin/../lib/gcc/arm-none-eabi/4.9.2/../../../../arm-none-eabi/lib\libg.a(lib_a-ftell.o)
 .ARM.attributes
                0x00001882       0x30 c:/devkitpro/devkitarm/bin/../lib/gcc/arm-none-eabi/4.9.2/../../../../arm-none-eabi/lib\libg.a(lib_a-ftello.o)
 .ARM.attributes
                0x000018b2       0x30 c:/devkitpro/devkitarm/bin/../lib/gcc/arm-none-eabi/4.9.2/../../../../arm-none-eabi/lib\libg.a(lib_a-fwalk.o)
 .ARM.attributes
                0x000018e2       0x30 c:/devkitpro/devkitarm/bin/../lib/gcc/arm-none-eabi/4.9.2/../../../../arm-none-eabi/lib\libg.a(lib_a-fwrite.o)
 .ARM.attributes
                0x00001912       0x30 c:/devkitpro/devkitarm/bin/../lib/gcc/arm-none-eabi/4.9.2/../../../../arm-none-eabi/lib\libg.a(lib_a-getenv.o)
 .ARM.attributes
                0x00001942       0x30 c:/devkitpro/devkitarm/bin/../lib/gcc/arm-none-eabi/4.9.2/../../../../arm-none-eabi/lib\libg.a(lib_a-getenv_r.o)
 .ARM.attributes
                0x00001972       0x30 c:/devkitpro/devkitarm/bin/../lib/gcc/arm-none-eabi/4.9.2/../../../../arm-none-eabi/lib\libg.a(lib_a-impure.o)
 .ARM.attributes
                0x000019a2       0x30 c:/devkitpro/devkitarm/bin/../lib/gcc/arm-none-eabi/4.9.2/../../../../arm-none-eabi/lib\libg.a(lib_a-init.o)
 .ARM.attributes
                0x000019d2       0x30 c:/devkitpro/devkitarm/bin/../lib/gcc/arm-none-eabi/4.9.2/../../../../arm-none-eabi/lib\libg.a(lib_a-iprintf.o)
 .ARM.attributes
                0x00001a02       0x30 c:/devkitpro/devkitarm/bin/../lib/gcc/arm-none-eabi/4.9.2/../../../../arm-none-eabi/lib\libg.a(lib_a-makebuf.o)
 .ARM.attributes
                0x00001a32       0x30 c:/devkitpro/devkitarm/bin/../lib/gcc/arm-none-eabi/4.9.2/../../../../arm-none-eabi/lib\libg.a(lib_a-malloc.o)
 .ARM.attributes
                0x00001a62       0x30 c:/devkitpro/devkitarm/bin/../lib/gcc/arm-none-eabi/4.9.2/../../../../arm-none-eabi/lib\libg.a(lib_a-mallocr.o)
 .ARM.attributes
                0x00001a92       0x30 c:/devkitpro/devkitarm/bin/../lib/gcc/arm-none-eabi/4.9.2/../../../../arm-none-eabi/lib\libg.a(lib_a-memchr-stub.o)
 .ARM.attributes
                0x00001ac2       0x30 c:/devkitpro/devkitarm/bin/../lib/gcc/arm-none-eabi/4.9.2/../../../../arm-none-eabi/lib\libg.a(lib_a-memcmp.o)
 .ARM.attributes
                0x00001af2       0x30 c:/devkitpro/devkitarm/bin/../lib/gcc/arm-none-eabi/4.9.2/../../../../arm-none-eabi/lib\libg.a(lib_a-memcpy-stub.o)
 .ARM.attributes
                0x00001b22       0x30 c:/devkitpro/devkitarm/bin/../lib/gcc/arm-none-eabi/4.9.2/../../../../arm-none-eabi/lib\libg.a(lib_a-memmove.o)
 .ARM.attributes
                0x00001b52       0x30 c:/devkitpro/devkitarm/bin/../lib/gcc/arm-none-eabi/4.9.2/../../../../arm-none-eabi/lib\libg.a(lib_a-memset.o)
 .ARM.attributes
                0x00001b82       0x30 c:/devkitpro/devkitarm/bin/../lib/gcc/arm-none-eabi/4.9.2/../../../../arm-none-eabi/lib\libg.a(lib_a-mlock.o)
 .ARM.attributes
                0x00001bb2       0x30 c:/devkitpro/devkitarm/bin/../lib/gcc/arm-none-eabi/4.9.2/../../../../arm-none-eabi/lib\libg.a(lib_a-printf.o)
 .ARM.attributes
                0x00001be2       0x30 c:/devkitpro/devkitarm/bin/../lib/gcc/arm-none-eabi/4.9.2/../../../../arm-none-eabi/lib\libg.a(lib_a-putc.o)
 .ARM.attributes
                0x00001c12       0x30 c:/devkitpro/devkitarm/bin/../lib/gcc/arm-none-eabi/4.9.2/../../../../arm-none-eabi/lib\libg.a(lib_a-puts.o)
 .ARM.attributes
                0x00001c42       0x30 c:/devkitpro/devkitarm/bin/../lib/gcc/arm-none-eabi/4.9.2/../../../../arm-none-eabi/lib\libg.a(lib_a-rand.o)
 .ARM.attributes
                0x00001c72       0x30 c:/devkitpro/devkitarm/bin/../lib/gcc/arm-none-eabi/4.9.2/../../../../arm-none-eabi/lib\libg.a(lib_a-realloc.o)
 .ARM.attributes
                0x00001ca2       0x30 c:/devkitpro/devkitarm/bin/../lib/gcc/arm-none-eabi/4.9.2/../../../../arm-none-eabi/lib\libg.a(lib_a-reallocr.o)
 .ARM.attributes
                0x00001cd2       0x30 c:/devkitpro/devkitarm/bin/../lib/gcc/arm-none-eabi/4.9.2/../../../../arm-none-eabi/lib\libg.a(lib_a-refill.o)
 .ARM.attributes
                0x00001d02       0x30 c:/devkitpro/devkitarm/bin/../lib/gcc/arm-none-eabi/4.9.2/../../../../arm-none-eabi/lib\libg.a(lib_a-remove.o)
 .ARM.attributes
                0x00001d32       0x30 c:/devkitpro/devkitarm/bin/../lib/gcc/arm-none-eabi/4.9.2/../../../../arm-none-eabi/lib\libg.a(lib_a-rget.o)
 .ARM.attributes
                0x00001d62       0x30 c:/devkitpro/devkitarm/bin/../lib/gcc/arm-none-eabi/4.9.2/../../../../arm-none-eabi/lib\libg.a(lib_a-setbuf.o)
 .ARM.attributes
                0x00001d92       0x30 c:/devkitpro/devkitarm/bin/../lib/gcc/arm-none-eabi/4.9.2/../../../../arm-none-eabi/lib\libg.a(lib_a-setvbuf.o)
 .ARM.attributes
                0x00001dc2       0x30 c:/devkitpro/devkitarm/bin/../lib/gcc/arm-none-eabi/4.9.2/../../../../arm-none-eabi/lib\libg.a(lib_a-sprintf.o)
 .ARM.attributes
                0x00001df2       0x30 c:/devkitpro/devkitarm/bin/../lib/gcc/arm-none-eabi/4.9.2/../../../../arm-none-eabi/lib\libg.a(lib_a-sscanf.o)
 .ARM.attributes
                0x00001e22       0x30 c:/devkitpro/devkitarm/bin/../lib/gcc/arm-none-eabi/4.9.2/../../../../arm-none-eabi/lib\libg.a(lib_a-stdio.o)
 .ARM.attributes
                0x00001e52       0x30 c:/devkitpro/devkitarm/bin/../lib/gcc/arm-none-eabi/4.9.2/../../../../arm-none-eabi/lib\libg.a(lib_a-strcasecmp.o)
 .ARM.attributes
                0x00001e82       0x30 c:/devkitpro/devkitarm/bin/../lib/gcc/arm-none-eabi/4.9.2/../../../../arm-none-eabi/lib\libg.a(lib_a-strcat.o)
 .ARM.attributes
                0x00001eb2       0x30 c:/devkitpro/devkitarm/bin/../lib/gcc/arm-none-eabi/4.9.2/../../../../arm-none-eabi/lib\libg.a(lib_a-strchr.o)
 .ARM.attributes
                0x00001ee2       0x16 c:/devkitpro/devkitarm/bin/../lib/gcc/arm-none-eabi/4.9.2/../../../../arm-none-eabi/lib\libg.a(lib_a-strcmp.o)
 .ARM.attributes
                0x00001ef8       0x30 c:/devkitpro/devkitarm/bin/../lib/gcc/arm-none-eabi/4.9.2/../../../../arm-none-eabi/lib\libg.a(lib_a-strcpy.o)
 .ARM.attributes
                0x00001f28       0x30 c:/devkitpro/devkitarm/bin/../lib/gcc/arm-none-eabi/4.9.2/../../../../arm-none-eabi/lib\libg.a(lib_a-strerror.o)
 .ARM.attributes
                0x00001f58       0x30 c:/devkitpro/devkitarm/bin/../lib/gcc/arm-none-eabi/4.9.2/../../../../arm-none-eabi/lib\libg.a(lib_a-strlen.o)
 .ARM.attributes
                0x00001f88       0x30 c:/devkitpro/devkitarm/bin/../lib/gcc/arm-none-eabi/4.9.2/../../../../arm-none-eabi/lib\libg.a(lib_a-strlwr.o)
 .ARM.attributes
                0x00001fb8       0x30 c:/devkitpro/devkitarm/bin/../lib/gcc/arm-none-eabi/4.9.2/../../../../arm-none-eabi/lib\libg.a(lib_a-strncasecmp.o)
 .ARM.attributes
                0x00001fe8       0x30 c:/devkitpro/devkitarm/bin/../lib/gcc/arm-none-eabi/4.9.2/../../../../arm-none-eabi/lib\libg.a(lib_a-strncmp.o)
 .ARM.attributes
                0x00002018       0x30 c:/devkitpro/devkitarm/bin/../lib/gcc/arm-none-eabi/4.9.2/../../../../arm-none-eabi/lib\libg.a(lib_a-strncpy.o)
 .ARM.attributes
                0x00002048       0x30 c:/devkitpro/devkitarm/bin/../lib/gcc/arm-none-eabi/4.9.2/../../../../arm-none-eabi/lib\libg.a(lib_a-strtok.o)
 .ARM.attributes
                0x00002078       0x30 c:/devkitpro/devkitarm/bin/../lib/gcc/arm-none-eabi/4.9.2/../../../../arm-none-eabi/lib\libg.a(lib_a-strtok_r.o)
 .ARM.attributes
                0x000020a8       0x30 c:/devkitpro/devkitarm/bin/../lib/gcc/arm-none-eabi/4.9.2/../../../../arm-none-eabi/lib\libg.a(lib_a-strtol.o)
 .ARM.attributes
                0x000020d8       0x30 c:/devkitpro/devkitarm/bin/../lib/gcc/arm-none-eabi/4.9.2/../../../../arm-none-eabi/lib\libg.a(lib_a-svfprintf.o)
 .ARM.attributes
                0x00002108       0x30 c:/devkitpro/devkitarm/bin/../lib/gcc/arm-none-eabi/4.9.2/../../../../arm-none-eabi/lib\libg.a(lib_a-svfscanf.o)
 .ARM.attributes
                0x00002138       0x30 c:/devkitpro/devkitarm/bin/../lib/gcc/arm-none-eabi/4.9.2/../../../../arm-none-eabi/lib\libg.a(lib_a-sysfstat.o)
 .ARM.attributes
                0x00002168       0x30 c:/devkitpro/devkitarm/bin/../lib/gcc/arm-none-eabi/4.9.2/../../../../arm-none-eabi/lib\libg.a(lib_a-sysisatty.o)
 .ARM.attributes
                0x00002198       0x30 c:/devkitpro/devkitarm/bin/../lib/gcc/arm-none-eabi/4.9.2/../../../../arm-none-eabi/lib\libg.a(lib_a-sysstat.o)
 .ARM.attributes
                0x000021c8       0x30 c:/devkitpro/devkitarm/bin/../lib/gcc/arm-none-eabi/4.9.2/../../../../arm-none-eabi/lib\libg.a(lib_a-u_strerr.o)
 .ARM.attributes
                0x000021f8       0x30 c:/devkitpro/devkitarm/bin/../lib/gcc/arm-none-eabi/4.9.2/../../../../arm-none-eabi/lib\libg.a(lib_a-vfiprintf.o)
 .ARM.attributes
                0x00002228       0x30 c:/devkitpro/devkitarm/bin/../lib/gcc/arm-none-eabi/4.9.2/../../../../arm-none-eabi/lib\libg.a(lib_a-vfprintf.o)
 .ARM.attributes
                0x00002258       0x30 c:/devkitpro/devkitarm/bin/../lib/gcc/arm-none-eabi/4.9.2/../../../../arm-none-eabi/lib\libg.a(lib_a-vfscanf.o)
 .ARM.attributes
                0x00002288       0x30 c:/devkitpro/devkitarm/bin/../lib/gcc/arm-none-eabi/4.9.2/../../../../arm-none-eabi/lib\libg.a(lib_a-vsnprintf.o)
 .ARM.attributes
                0x000022b8       0x30 c:/devkitpro/devkitarm/bin/../lib/gcc/arm-none-eabi/4.9.2/../../../../arm-none-eabi/lib\libg.a(lib_a-wbuf.o)
 .ARM.attributes
                0x000022e8       0x30 c:/devkitpro/devkitarm/bin/../lib/gcc/arm-none-eabi/4.9.2/../../../../arm-none-eabi/lib\libg.a(lib_a-wcrtomb.o)
 .ARM.attributes
                0x00002318       0x30 c:/devkitpro/devkitarm/bin/../lib/gcc/arm-none-eabi/4.9.2/../../../../arm-none-eabi/lib\libg.a(lib_a-wcsrtombs.o)
 .ARM.attributes
                0x00002348       0x30 c:/devkitpro/devkitarm/bin/../lib/gcc/arm-none-eabi/4.9.2/../../../../arm-none-eabi/lib\libg.a(lib_a-wctomb_r.o)
 .ARM.attributes
                0x00002378       0x30 c:/devkitpro/devkitarm/bin/../lib/gcc/arm-none-eabi/4.9.2/../../../../arm-none-eabi/lib\libg.a(lib_a-wsetup.o)
 .ARM.attributes
                0x000023a8       0x30 c:/devkitpro/devkitarm/bin/../lib/gcc/arm-none-eabi/4.9.2/../../../../arm-none-eabi/lib\libg.a(lib_a-abort.o)
 .ARM.attributes
                0x000023d8       0x30 c:/devkitpro/devkitarm/bin/../lib/gcc/arm-none-eabi/4.9.2/../../../../arm-none-eabi/lib\libg.a(lib_a-__atexit.o)
 .ARM.attributes
                0x00002408       0x30 c:/devkitpro/devkitarm/bin/../lib/gcc/arm-none-eabi/4.9.2/../../../../arm-none-eabi/lib\libg.a(lib_a-__call_atexit.o)
 .ARM.attributes
                0x00002438       0x30 c:/devkitpro/devkitarm/bin/../lib/gcc/arm-none-eabi/4.9.2/../../../../arm-none-eabi/lib\libg.a(lib_a-dtoa.o)
 .ARM.attributes
                0x00002468       0x30 c:/devkitpro/devkitarm/bin/../lib/gcc/arm-none-eabi/4.9.2/../../../../arm-none-eabi/lib\libg.a(lib_a-environ.o)
 .ARM.attributes
                0x00002498       0x30 c:/devkitpro/devkitarm/bin/../lib/gcc/arm-none-eabi/4.9.2/../../../../arm-none-eabi/lib\libg.a(lib_a-envlock.o)
 .ARM.attributes
                0x000024c8       0x30 c:/devkitpro/devkitarm/bin/../lib/gcc/arm-none-eabi/4.9.2/../../../../arm-none-eabi/lib\libg.a(lib_a-flags.o)
 .ARM.attributes
                0x000024f8       0x30 c:/devkitpro/devkitarm/bin/../lib/gcc/arm-none-eabi/4.9.2/../../../../arm-none-eabi/lib\libg.a(lib_a-fputwc.o)
 .ARM.attributes
                0x00002528       0x30 c:/devkitpro/devkitarm/bin/../lib/gcc/arm-none-eabi/4.9.2/../../../../arm-none-eabi/lib\libg.a(lib_a-fvwrite.o)
 .ARM.attributes
                0x00002558       0x30 c:/devkitpro/devkitarm/bin/../lib/gcc/arm-none-eabi/4.9.2/../../../../arm-none-eabi/lib\libg.a(lib_a-iswspace.o)
 .ARM.attributes
                0x00002588       0x30 c:/devkitpro/devkitarm/bin/../lib/gcc/arm-none-eabi/4.9.2/../../../../arm-none-eabi/lib\libg.a(lib_a-jp2uc.o)
 .ARM.attributes
                0x000025b8       0x30 c:/devkitpro/devkitarm/bin/../lib/gcc/arm-none-eabi/4.9.2/../../../../arm-none-eabi/lib\libg.a(lib_a-locale.o)
 .ARM.attributes
                0x000025e8       0x30 c:/devkitpro/devkitarm/bin/../lib/gcc/arm-none-eabi/4.9.2/../../../../arm-none-eabi/lib\libg.a(lib_a-mbrtowc.o)
 .ARM.attributes
                0x00002618       0x30 c:/devkitpro/devkitarm/bin/../lib/gcc/arm-none-eabi/4.9.2/../../../../arm-none-eabi/lib\libg.a(lib_a-mbtowc_r.o)
 .ARM.attributes
                0x00002648       0x30 c:/devkitpro/devkitarm/bin/../lib/gcc/arm-none-eabi/4.9.2/../../../../arm-none-eabi/lib\libg.a(lib_a-mprec.o)
 .ARM.attributes
                0x00002678       0x30 c:/devkitpro/devkitarm/bin/../lib/gcc/arm-none-eabi/4.9.2/../../../../arm-none-eabi/lib\libg.a(lib_a-sccl.o)
 .ARM.attributes
                0x000026a8       0x30 c:/devkitpro/devkitarm/bin/../lib/gcc/arm-none-eabi/4.9.2/../../../../arm-none-eabi/lib\libg.a(lib_a-sf_nan.o)
 .ARM.attributes
                0x000026d8       0x30 c:/devkitpro/devkitarm/bin/../lib/gcc/arm-none-eabi/4.9.2/../../../../arm-none-eabi/lib\libg.a(lib_a-s_frexp.o)
 .ARM.attributes
                0x00002708       0x30 c:/devkitpro/devkitarm/bin/../lib/gcc/arm-none-eabi/4.9.2/../../../../arm-none-eabi/lib\libg.a(lib_a-signal.o)
 .ARM.attributes
                0x00002738       0x30 c:/devkitpro/devkitarm/bin/../lib/gcc/arm-none-eabi/4.9.2/../../../../arm-none-eabi/lib\libg.a(lib_a-stpncpy.o)
 .ARM.attributes
                0x00002768       0x30 c:/devkitpro/devkitarm/bin/../lib/gcc/arm-none-eabi/4.9.2/../../../../arm-none-eabi/lib\libg.a(lib_a-strlcpy.o)
 .ARM.attributes
                0x00002798       0x30 c:/devkitpro/devkitarm/bin/../lib/gcc/arm-none-eabi/4.9.2/../../../../arm-none-eabi/lib\libg.a(lib_a-strtod.o)
 .ARM.attributes
                0x000027c8       0x30 c:/devkitpro/devkitarm/bin/../lib/gcc/arm-none-eabi/4.9.2/../../../../arm-none-eabi/lib\libg.a(lib_a-strtoll_r.o)
 .ARM.attributes
                0x000027f8       0x30 c:/devkitpro/devkitarm/bin/../lib/gcc/arm-none-eabi/4.9.2/../../../../arm-none-eabi/lib\libg.a(lib_a-strtoull_r.o)
 .ARM.attributes
                0x00002828       0x30 c:/devkitpro/devkitarm/bin/../lib/gcc/arm-none-eabi/4.9.2/../../../../arm-none-eabi/lib\libg.a(lib_a-strtoul.o)
 .ARM.attributes
                0x00002858       0x30 c:/devkitpro/devkitarm/bin/../lib/gcc/arm-none-eabi/4.9.2/../../../../arm-none-eabi/lib\libg.a(lib_a-svfiprintf.o)
 .ARM.attributes
                0x00002888       0x30 c:/devkitpro/devkitarm/bin/../lib/gcc/arm-none-eabi/4.9.2/../../../../arm-none-eabi/lib\libg.a(lib_a-svfiscanf.o)
 .ARM.attributes
                0x000028b8       0x30 c:/devkitpro/devkitarm/bin/../lib/gcc/arm-none-eabi/4.9.2/../../../../arm-none-eabi/lib\libg.a(lib_a-ungetc.o)
 .ARM.attributes
                0x000028e8       0x30 c:/devkitpro/devkitarm/bin/../lib/gcc/arm-none-eabi/4.9.2/../../../../arm-none-eabi/lib\libg.a(lib_a-wcsnrtombs.o)
 .ARM.attributes
                0x00002918       0x30 c:/devkitpro/devkitarm/bin/../lib/gcc/arm-none-eabi/4.9.2/../../../../arm-none-eabi/lib\libg.a(lib_a-callocr.o)
 .ARM.attributes
                0x00002948       0x30 c:/devkitpro/devkitarm/bin/../lib/gcc/arm-none-eabi/4.9.2/../../../../arm-none-eabi/lib\libg.a(lib_a-gdtoa-gethex.o)
 .ARM.attributes
                0x00002978       0x30 c:/devkitpro/devkitarm/bin/../lib/gcc/arm-none-eabi/4.9.2/../../../../arm-none-eabi/lib\libg.a(lib_a-gdtoa-hexnan.o)
 .ARM.attributes
                0x000029a8       0x30 c:/devkitpro/devkitarm/bin/../lib/gcc/arm-none-eabi/4.9.2/../../../../arm-none-eabi/lib\libsysbase.a(iosupport.o)
 .ARM.attributes
                0x000029d8       0x30 c:/devkitpro/devkitarm/bin/../lib/gcc/arm-none-eabi/4.9.2/../../../../arm-none-eabi/lib\libsysbase.a(close.o)
 .ARM.attributes
                0x00002a08       0x30 c:/devkitpro/devkitarm/bin/../lib/gcc/arm-none-eabi/4.9.2/../../../../arm-none-eabi/lib\libsysbase.a(fstat.o)
 .ARM.attributes
                0x00002a38       0x30 c:/devkitpro/devkitarm/bin/../lib/gcc/arm-none-eabi/4.9.2/../../../../arm-none-eabi/lib\libsysbase.a(getpid.o)
 .ARM.attributes
                0x00002a68       0x30 c:/devkitpro/devkitarm/bin/../lib/gcc/arm-none-eabi/4.9.2/../../../../arm-none-eabi/lib\libsysbase.a(isatty.o)
 .ARM.attributes
                0x00002a98       0x30 c:/devkitpro/devkitarm/bin/../lib/gcc/arm-none-eabi/4.9.2/../../../../arm-none-eabi/lib\libsysbase.a(kill.o)
 .ARM.attributes
                0x00002ac8       0x30 c:/devkitpro/devkitarm/bin/../lib/gcc/arm-none-eabi/4.9.2/../../../../arm-none-eabi/lib\libsysbase.a(lseek.o)
 .ARM.attributes
                0x00002af8       0x30 c:/devkitpro/devkitarm/bin/../lib/gcc/arm-none-eabi/4.9.2/../../../../arm-none-eabi/lib\libsysbase.a(open.o)
 .ARM.attributes
                0x00002b28       0x30 c:/devkitpro/devkitarm/bin/../lib/gcc/arm-none-eabi/4.9.2/../../../../arm-none-eabi/lib\libsysbase.a(read.o)
 .ARM.attributes
                0x00002b58       0x30 c:/devkitpro/devkitarm/bin/../lib/gcc/arm-none-eabi/4.9.2/../../../../arm-none-eabi/lib\libsysbase.a(sbrk.o)
 .ARM.attributes
                0x00002b88       0x30 c:/devkitpro/devkitarm/bin/../lib/gcc/arm-none-eabi/4.9.2/../../../../arm-none-eabi/lib\libsysbase.a(stat.o)
 .ARM.attributes
                0x00002bb8       0x30 c:/devkitpro/devkitarm/bin/../lib/gcc/arm-none-eabi/4.9.2/../../../../arm-none-eabi/lib\libsysbase.a(unlink.o)
 .ARM.attributes
                0x00002be8       0x30 c:/devkitpro/devkitarm/bin/../lib/gcc/arm-none-eabi/4.9.2/../../../../arm-none-eabi/lib\libsysbase.a(write.o)
 .ARM.attributes
                0x00002c18       0x30 c:/devkitpro/devkitarm/bin/../lib/gcc/arm-none-eabi/4.9.2/../../../../arm-none-eabi/lib\libsysbase.a(_exit.o)
 .ARM.attributes
                0x00002c48       0x30 c:/devkitpro/devkitarm/bin/../lib/gcc/arm-none-eabi/4.9.2/../../../../arm-none-eabi/lib\libsysbase.a(malloc_vars.o)
 .ARM.attributes
                0x00002c78       0x30 c:/devkitpro/devkitarm/bin/../lib/gcc/arm-none-eabi/4.9.2/../../../../arm-none-eabi/lib\libsysbase.a(chdir.o)
 .ARM.attributes
                0x00002ca8       0x30 c:/devkitpro/devkitarm/bin/../lib/gcc/arm-none-eabi/4.9.2/../../../../arm-none-eabi/lib\libsysbase.a(syscall_support.o)
 .ARM.attributes
                0x00002cd8       0x30 c:/devkitpro/devkitarm/bin/../lib/gcc/arm-none-eabi/4.9.2/../../../../arm-none-eabi/lib\libsysbase.a(handle_manager.o)
 .ARM.attributes
                0x00002d08       0x18 c:/devkitpro/devkitarm/bin/../lib/gcc/arm-none-eabi/4.9.2\libgcc.a(_arm_fixunsdfsi.o)
 .ARM.attributes
                0x00002d20       0x30 c:/devkitpro/devkitarm/bin/../lib/gcc/arm-none-eabi/4.9.2/../../../../arm-none-eabi/lib\libg.a(lib_a-strnlen.o)
 .ARM.attributes
                0x00002d50       0x30 c:/devkitpro/devkitarm/bin/../lib/gcc/arm-none-eabi/4.9.2/../../../../arm-none-eabi/lib\libg.a(lib_a-strrchr.o)
 .ARM.attributes
                0x00002d80       0x30 c:/devkitpro/devkitarm/bin/../lib/gcc/arm-none-eabi/4.9.2/crtend.o
 .ARM.attributes
                0x00002db0       0x18 c:/devkitpro/devkitarm/bin/../lib/gcc/arm-none-eabi/4.9.2/crtn.o

.debug_ranges   0x00000000     0xb3e0
 .debug_ranges  0x00000000      0x7d8 am_map.o
 .debug_ranges  0x000007d8      0x268 d_deh.o
 .debug_ranges  0x00000a40      0x508 d_main.o
 .debug_ranges  0x00000f48       0xf8 f_finale.o
 .debug_ranges  0x00001040       0x70 f_wipe.o
 .debug_ranges  0x000010b0      0x4e0 g_game.o
 .debug_ranges  0x00001590      0x280 hu_lib.o
 .debug_ranges  0x00001810      0x248 hu_stuff.o
 .debug_ranges  0x00001a58       0x40 m_cheat.o
 .debug_ranges  0x00001a98      0xbe0 m_menu.o
 .debug_ranges  0x00002678       0x28 m_misc.o
 .debug_ranges  0x000026a0       0x38 p_ceilng.o
 .debug_ranges  0x000026d8       0xf0 p_doors.o
 .debug_ranges  0x000027c8      0x570 p_enemy.o
 .debug_ranges  0x00002d38      0x130 p_floor.o
 .debug_ranges  0x00002e68       0x30 p_genlin.o
 .debug_ranges  0x00002e98      0x208 p_inter.o
 .debug_ranges  0x000030a0       0x70 p_lights.o
 .debug_ranges  0x00003110      0x9d0 p_map.o
 .debug_ranges  0x00003ae0      0x3d0 p_maputl.o
 .debug_ranges  0x00003eb0      0x418 p_mobj.o
 .debug_ranges  0x000042c8       0x40 p_plats.o
 .debug_ranges  0x00004308       0x78 p_pspr.o
 .debug_ranges  0x00004380      0x370 p_saveg.o
 .debug_ranges  0x000046f0      0x678 p_setup.o
 .debug_ranges  0x00004d68      0x3b8 p_sight.o
 .debug_ranges  0x00005120      0x680 p_spec.o
 .debug_ranges  0x000057a0       0x80 p_switch.o
 .debug_ranges  0x00005820      0x2d8 p_telept.o
 .debug_ranges  0x00005af8       0x60 p_tick.o
 .debug_ranges  0x00005b58      0x128 p_user.o
 .debug_ranges  0x00005c80      0x120 r_bsp.o
 .debug_ranges  0x00005da0      0x1c8 r_data.o
 .debug_ranges  0x00005f68     0x3318 r_draw.o
 .debug_ranges  0x00009280       0xa8 r_fps.o
 .debug_ranges  0x00009328      0x288 r_main.o
 .debug_ranges  0x000095b0      0x218 r_patch.o
 .debug_ranges  0x000097c8      0x190 r_plane.o
 .debug_ranges  0x00009958      0x470 r_segs.o
 .debug_ranges  0x00009dc8      0x498 r_things.o
 .debug_ranges  0x0000a260       0x30 st_lib.o
 .debug_ranges  0x0000a290      0x218 st_stuff.o
 .debug_ranges  0x0000a4a8       0x68 tables.o
 .debug_ranges  0x0000a510      0x248 v_video.o
 .debug_ranges  0x0000a758      0x180 w_wad.o
 .debug_ranges  0x0000a8d8       0xb0 wi_stuff.o
 .debug_ranges  0x0000a988       0x58 z_bmalloc.o
 .debug_ranges  0x0000a9e0       0x30 ds_main.o
 .debug_ranges  0x0000aa10       0x98 ds_sys.o
 .debug_ranges  0x0000aaa8       0x90 ds_vid.o
 .debug_ranges  0x0000ab38       0xe8 3ds_mix.o
 .debug_ranges  0x0000ac20       0x30 file.o
 .debug_ranges  0x0000ac50       0x70 c:/devkitPro/libctru/lib\libctru.a(linear.o)
 .debug_ranges  0x0000acc0      0x230 c:/devkitPro/libctru/lib\libctru.a(mem_pool.o)
 .debug_ranges  0x0000aef0       0xb8 c:/devkitPro/libctru/lib\libctru.a(console.o)
 .debug_ranges  0x0000afa8       0x78 c:/devkitPro/libctru/lib\libctru.a(gfx.o)
 .debug_ranges  0x0000b020       0x28 c:/devkitPro/libctru/lib\libctru.a(initSystem.o)
 .debug_ranges  0x0000b048       0x80 c:/devkitPro/libctru/lib\libctru.a(apt.o)
 .debug_ranges  0x0000b0c8       0x38 c:/devkitPro/libctru/lib\libctru.a(csnd.o)
 .debug_ranges  0x0000b100       0x40 c:/devkitPro/libctru/lib\libctru.a(gsp.o)
 .debug_ranges  0x0000b140       0x18 c:/devkitPro/libctru/lib\libctru.a(irrst.o)
 .debug_ranges  0x0000b158       0x20 c:/devkitPro/libctru/lib\libctru.a(rbtree_find.o)
 .debug_ranges  0x0000b178      0x110 c:/devkitPro/libctru/lib\libctru.a(rbtree_insert.o)
 .debug_ranges  0x0000b288       0xf8 c:/devkitPro/libctru/lib\libctru.a(rbtree_remove.o)
 .debug_ranges  0x0000b380       0x30 c:/devkitPro/libctru/lib\libctru.a(rbtree_rotate.o)
 .debug_ranges  0x0000b3b0       0x30 c:/devkitPro/libctru/lib\libctru.a(rbtree_iterator.o)
