	.arch armv6k
	.fpu softvfp
	.eabi_attribute 23, 1
	.eabi_attribute 24, 1
	.eabi_attribute 25, 1
	.eabi_attribute 26, 1
	.eabi_attribute 30, 2
	.eabi_attribute 34, 1
	.eabi_attribute 18, 4
	.file	"d_client.c"
	.text
.Ltext0:
	.cfi_sections	.debug_frame
	.align	2
	.global	D_InitNetGame
	.type	D_InitNetGame, %function
D_InitNetGame:
.LFB8:
	.file 1 "c:/devl/prboom3ds/src/d_client.c"
	.loc 1 167 0
	.cfi_startproc
	@ args = 0, pretend = 0, frame = 0
	@ frame_needed = 0, uses_anonymous_args = 0
	stmfd	sp!, {r4, r5, r6, lr}
	.cfi_def_cfa_offset 16
	.cfi_offset 4, -16
	.cfi_offset 5, -12
	.cfi_offset 6, -8
	.cfi_offset 14, -4
	.loc 1 170 0
	mov	r1, #1
	mov	r2, #0
	mov	r0, #140
	bl	Z_Malloc
.LVL0:
	.loc 1 172 0
	mov	r4, #1
	.loc 1 170 0
	mov	r3, r0
	.loc 1 171 0
	mov	r0, #0
	.loc 1 173 0
	ldr	r5, .L15
	ldr	r1, .L15+4
	ldr	r2, [r5]
	ldr	ip, .L15+8
	add	r2, r2, r2, asl #1
	.loc 1 170 0
	ldr	r6, .L15+12
	.loc 1 173 0
	add	r2, r1, r2, asl #5
	.loc 1 171 0
	strh	r0, [r3, #28]	@ movhi
	.loc 1 172 0
	strh	r0, [r3, #12]	@ movhi
	strh	r4, [r3, #30]	@ movhi
	.loc 1 174 0
	ldr	r0, .L15+16
	.loc 1 173 0
	str	r2, [ip]
	.loc 1 170 0
	str	r3, [r6]
	.loc 1 174 0
	bl	M_CheckParm
.LVL1:
	cmp	r0, #0
	movne	r0, r4
	beq	.L14
.L2:
	.loc 1 176 0 discriminator 6
	ldr	lr, [r6]
	.loc 1 174 0 discriminator 6
	ldr	r3, .L15+20
	.loc 1 176 0 discriminator 6
	ldrsh	ip, [lr, #30]
	.loc 1 174 0 discriminator 6
	str	r0, [r3]
.LVL2:
	.loc 1 176 0 discriminator 6
	cmp	ip, #0
	ble	.L8
	ldr	r3, .L15+24
	mov	r4, ip
	mov	r2, r3
	.loc 1 177 0
	mov	r0, #1
	add	r1, r3, ip, asl #2
.LVL3:
.L4:
	.loc 1 177 0 is_stmt 0 discriminator 3
	str	r0, [r2], #4
	.loc 1 176 0 is_stmt 1 discriminator 3
	cmp	r2, r1
	bne	.L4
.LVL4:
	.loc 1 178 0
	cmp	ip, #4
	beq	.L6
.LVL5:
.L3:
	.loc 1 179 0 discriminator 2
	mov	r1, #0
	ldr	r2, .L15+28
	add	r3, r3, r4, asl #2
.LVL6:
.L5:
	str	r1, [r3], #4
	.loc 1 178 0 discriminator 2
	cmp	r3, r2
	bne	.L5
.L6:
	.loc 1 181 0
	ldrsh	r3, [lr, #28]
	ldr	r2, .L15+32
	str	r3, [r5]
	str	r3, [r2]
	ldmfd	sp!, {r4, r5, r6, pc}
.L14:
	.loc 1 174 0 discriminator 2
	ldr	r0, .L15+36
	bl	M_CheckParm
.LVL7:
	adds	r0, r0, #0
	movne	r0, #1
	b	.L2
.LVL8:
.L8:
	.loc 1 176 0
	mov	r4, #0
	ldr	r3, .L15+24
	b	.L3
.L16:
	.align	2
.L15:
	.word	consoleplayer
	.word	netcmds
	.word	.LANCHOR0
	.word	doomcom
	.word	.LC0
	.word	netgame
	.word	playeringame
	.word	playeringame+16
	.word	displayplayer
	.word	.LC1
	.cfi_endproc
.LFE8:
	.size	D_InitNetGame, .-D_InitNetGame
	.align	2
	.global	D_BuildNewTiccmds
	.type	D_BuildNewTiccmds, %function
D_BuildNewTiccmds:
.LFB9:
	.loc 1 373 0
	.cfi_startproc
	@ args = 0, pretend = 0, frame = 0
	@ frame_needed = 0, uses_anonymous_args = 0
	stmfd	sp!, {r3, r4, r5, r6, r7, r8, r9, lr}
	.cfi_def_cfa_offset 32
	.cfi_offset 3, -32
	.cfi_offset 4, -28
	.cfi_offset 5, -24
	.cfi_offset 6, -20
	.cfi_offset 7, -16
	.cfi_offset 8, -12
	.cfi_offset 9, -8
	.cfi_offset 14, -4
	.loc 1 375 0
	ldr	r3, .L23
	ldr	r6, .L23+4
	ldr	r3, [r3]
	blx	r3
.LVL9:
	ldr	r4, [r6, #4]
.LVL10:
	.loc 1 376 0
	str	r0, [r6, #4]
.LVL11:
	.loc 1 377 0
	subs	r4, r0, r4
.LVL12:
	ldmeqfd	sp!, {r3, r4, r5, r6, r7, r8, r9, pc}
	ldr	r7, .L23+8
	ldr	r8, .L23+12
	.loc 1 380 0
	mov	r5, r7
	.loc 1 381 0
	ldr	r9, .L23+16
.LVL13:
.L20:
	.loc 1 379 0
	bl	I_StartTic
.LVL14:
	.loc 1 380 0
	ldr	r3, [r7]
	ldr	r1, [r8]
	.loc 1 381 0
	mov	r2, r3, asr #31
	.loc 1 380 0
	rsb	r1, r1, r3
	cmp	r1, #6
	ldmgtfd	sp!, {r3, r4, r5, r6, r7, r8, r9, pc}
	.loc 1 381 0
	smull	r1, r0, r9, r3
	rsb	r0, r2, r0, asr #1
	add	r0, r0, r0, asl #1
	ldr	r2, [r6]
	sub	r0, r3, r0, asl #2
	add	r0, r2, r0, asl #3
	bl	G_BuildTiccmd
.LVL15:
	.loc 1 382 0
	ldr	r3, [r5]
	.loc 1 377 0
	subs	r4, r4, #1
.LVL16:
	.loc 1 382 0
	add	r3, r3, #1
	str	r3, [r5]
.LVL17:
	.loc 1 377 0
	bne	.L20
	ldmfd	sp!, {r3, r4, r5, r6, r7, r8, r9, pc}
.L24:
	.align	2
.L23:
	.word	I_GetTime
	.word	.LANCHOR0
	.word	maketic
	.word	gametic
	.word	715827883
	.cfi_endproc
.LFE9:
	.size	D_BuildNewTiccmds, .-D_BuildNewTiccmds
	.align	2
	.global	TryRunTics
	.type	TryRunTics, %function
TryRunTics:
.LFB10:
	.loc 1 458 0
	.cfi_startproc
	@ args = 0, pretend = 0, frame = 0
	@ frame_needed = 0, uses_anonymous_args = 0
	stmfd	sp!, {r3, r4, r5, r6, r7, r8, r9, r10, fp, lr}
	.cfi_def_cfa_offset 40
	.cfi_offset 3, -40
	.cfi_offset 4, -36
	.cfi_offset 5, -32
	.cfi_offset 6, -28
	.cfi_offset 7, -24
	.cfi_offset 8, -20
	.cfi_offset 9, -16
	.cfi_offset 10, -12
	.cfi_offset 11, -8
	.cfi_offset 14, -4
	.loc 1 460 0
	ldr	r6, .L51
	ldr	r7, .L51+4
	ldr	r3, [r6]
	blx	r3
.LVL18:
	ldr	r5, .L51+8
	mov	r8, r0
.LVL19:
	.loc 1 471 0
	ldr	r4, .L51+12
	.loc 1 477 0
	ldr	fp, .L51+16
	.loc 1 493 0
	ldr	r9, .L51+20
	.loc 1 496 0
	ldr	r10, .L51+24
	b	.L33
.LVL20:
.L28:
	.loc 1 479 0
	ldr	r3, [r6]
	blx	r3
.LVL21:
	rsb	r0, r8, r0
	cmp	r0, #10
	bgt	.L46
	.loc 1 493 0
	mov	r3, #1
	str	r3, [r9]
	.loc 1 494 0
	bl	V_GetMode
.LVL22:
	cmp	r0, #4
	ldr	r3, [r4]
	beq	.L47
	.loc 1 496 0
	cmp	r3, #0
	beq	.L33
	.loc 1 496 0 is_stmt 0 discriminator 1
	ldr	r2, .L51+28
	ldrb	r3, [r10]	@ zero_extendqisi2
	ldrb	r2, [r2]	@ zero_extendqisi2
	rsb	r3, r2, r3
	clz	r3, r3
	mov	r3, r3, lsr #5
	.loc 1 494 0 is_stmt 1 discriminator 1
	cmp	r3, #0
	bne	.L48
.L33:
	.loc 1 467 0
	bl	D_BuildNewTiccmds
.LVL23:
	.loc 1 469 0
	ldr	r3, [r7]
	ldr	r2, [r5]
.LVL24:
	.loc 1 470 0
	subs	r3, r3, r2
.LVL25:
	bne	.L49
	.loc 1 471 0
	ldr	r3, [r4]
.LVL26:
	cmp	r3, #0
	bne	.L28
	.loc 1 477 0
	mov	r3, #1000
	ldr	r0, [fp]
	mul	r0, r3, r0
	bl	I_uSleep
.LVL27:
	b	.L28
.L47:
	.loc 1 494 0 discriminator 1
	adds	r3, r3, #0
	movne	r3, #1
	cmp	r3, #0
	beq	.L33
.L48:
	.loc 1 498 0
	mov	r3, #1
	ldr	r2, .L51+32
	str	r3, [r2, #8]
	.loc 1 499 0
	bl	D_Display
.LVL28:
	.loc 1 500 0
	mov	r3, #0
	ldr	r2, .L51+32
	str	r3, [r2, #8]
	b	.L33
.LVL29:
.L49:
	mov	r4, r3
	ldr	r7, .L51+36
	ldr	r6, .L51+40
	b	.L27
.LVL30:
.L35:
	.loc 1 512 0
	bl	M_Ticker
.LVL31:
	.loc 1 513 0
	bl	I_GetTime_SaveMS
.LVL32:
	.loc 1 514 0
	bl	G_Ticker
.LVL33:
	.loc 1 515 0
	ldr	r3, [r6]
	ldr	r0, [r5]
	blx	r3
.LVL34:
	.loc 1 516 0
	ldr	r3, [r5]
	.loc 1 506 0
	subs	r4, r4, #1
.LVL35:
	.loc 1 516 0
	add	r3, r3, #1
	str	r3, [r5]
.LVL36:
	.loc 1 506 0
	beq	.L50
.L27:
.LVL37:
	.loc 1 510 0
	ldr	r3, [r7]
	cmp	r3, #0
	beq	.L35
	.loc 1 511 0
	bl	D_DoAdvanceDemo
.LVL38:
	b	.L35
.LVL39:
.L46:
	.loc 1 521 0
	ldmfd	sp!, {r3, r4, r5, r6, r7, r8, r9, r10, fp, lr}
	.cfi_remember_state
	.cfi_restore 14
	.cfi_restore 11
	.cfi_restore 10
	.cfi_restore 9
	.cfi_restore 8
	.cfi_restore 7
	.cfi_restore 6
	.cfi_restore 5
	.cfi_restore 4
	.cfi_restore 3
	.cfi_def_cfa_offset 0
.LVL40:
	.loc 1 489 0
	b	M_Ticker
.LVL41:
.L50:
	.cfi_restore_state
	.loc 1 521 0
	ldmfd	sp!, {r3, r4, r5, r6, r7, r8, r9, r10, fp, pc}
.L52:
	.align	2
.L51:
	.word	I_GetTime
	.word	maketic
	.word	gametic
	.word	movement_smooth
	.word	ms_to_next_tick
	.word	WasRenderedInTryRunTics
	.word	gamestate
	.word	wipegamestate
	.word	.LANCHOR0
	.word	advancedemo
	.word	P_Checksum
	.cfi_endproc
.LFE10:
	.size	TryRunTics, .-TryRunTics
	.comm	doomcom,4,4
	.comm	wanted_player_number,4,4
	.global	ticdup
	.comm	maketic,4,4
	.comm	netcmds,384,4
	.data
	.align	2
	.type	ticdup, %object
	.size	ticdup, 4
ticdup:
	.word	1
	.section	.rodata.str1.4,"aMS",%progbits,1
	.align	2
.LC0:
	.ascii	"-solo-net\000"
	.space	2
.LC1:
	.ascii	"-net1\000"
	.bss
	.align	2
	.set	.LANCHOR0,. + 0
	.type	localcmds, %object
	.size	localcmds, 4
localcmds:
	.space	4
	.type	lastmadetic.8808, %object
	.size	lastmadetic.8808, 4
lastmadetic.8808:
	.space	4
	.type	isExtraDDisplay, %object
	.size	isExtraDDisplay, 4
isExtraDDisplay:
	.space	4
	.text
.Letext0:
	.file 2 "c:\\devkitpro\\devkitarm\\lib\\gcc\\arm-none-eabi\\4.9.2\\include\\stddef.h"
	.file 3 "c:/devl/prboom3ds/src/doomtype.h"
	.file 4 "c:/devl/prboom3ds/src/z_zone.h"
	.file 5 "c:/devl/prboom3ds/src/doomdef.h"
	.file 6 "c:/devl/prboom3ds/src/m_fixed.h"
	.file 7 "c:/devl/prboom3ds/src/d_ticcmd.h"
	.file 8 "c:/devl/prboom3ds/src/d_net.h"
	.file 9 "c:/devl/prboom3ds/src/protocol.h"
	.file 10 "c:/devl/prboom3ds/src/v_video.h"
	.file 11 "c:/devl/prboom3ds/src/tables.h"
	.file 12 "c:/devl/prboom3ds/src/doomstat.h"
	.file 13 "c:/devl/prboom3ds/src/d_main.h"
	.file 14 "c:/devl/prboom3ds/src/p_checksum.h"
	.file 15 "c:/devl/prboom3ds/src/i_system.h"
	.file 16 "c:/devl/prboom3ds/src/i_main.h"
	.file 17 "c:/devl/prboom3ds/src/r_fps.h"
	.file 18 "c:/devl/prboom3ds/src/m_argv.h"
	.file 19 "c:/devl/prboom3ds/src/g_game.h"
	.file 20 "c:/devl/prboom3ds/src/i_video.h"
	.file 21 "c:/devl/prboom3ds/src/m_menu.h"