	.arch armv6k
	.fpu softvfp
	.eabi_attribute 23, 1
	.eabi_attribute 24, 1
	.eabi_attribute 25, 1
	.eabi_attribute 26, 1
	.eabi_attribute 30, 2
	.eabi_attribute 34, 1
	.eabi_attribute 18, 4
	.file	"d_deh.c"
	.text
.Ltext0:
	.cfi_sections	.debug_frame
	.align	2
	.type	deh_procError, %function
deh_procError:
.LFB24:
	.file 1 "c:/devl/prboom3ds/src/d_deh.c"
	.loc 1 2603 0
	.cfi_startproc
	@ args = 0, pretend = 0, frame = 1024
	@ frame_needed = 0, uses_anonymous_args = 0
.LVL0:
	stmfd	sp!, {r4, lr}
	.cfi_def_cfa_offset 8
	.cfi_offset 4, -8
	.cfi_offset 14, -4
	mov	r4, r1
	sub	sp, sp, #1024
	.cfi_def_cfa_offset 1032
	.loc 1 2606 0
	mov	r1, r2
.LVL1:
	mov	r0, sp
.LVL2:
	mov	r2, #1024
.LVL3:
	bl	strncpy
.LVL4:
	.loc 1 2607 0
	cmp	r4, #0
	beq	.L1
	.loc 1 2607 0 is_stmt 0 discriminator 1
	mov	r0, r4
	mov	r2, sp
	ldr	r1, .L8
	bl	fprintf
.LVL5:
.L1:
	.loc 1 2609 0 is_stmt 1
	add	sp, sp, #1024
	.cfi_def_cfa_offset 8
	@ sp needed
	ldmfd	sp!, {r4, pc}
.LVL6:
.L9:
	.align	2
.L8:
	.word	.LC0
	.cfi_endproc
.LFE24:
	.size	deh_procError, .-deh_procError
	.align	2
	.type	dehfgets, %function
dehfgets:
.LFB5:
	.loc 1 84 0
	.cfi_startproc
	@ args = 0, pretend = 0, frame = 0
	@ frame_needed = 0, uses_anonymous_args = 0
.LVL7:
	.loc 1 85 0
	ldr	r3, [r2, #4]
	cmp	r3, #0
	beq	.L29
	.loc 1 87 0
	cmp	r1, #0
	.loc 1 84 0
	stmfd	sp!, {r4, r5, lr}
	.cfi_def_cfa_offset 12
	.cfi_offset 4, -12
	.cfi_offset 5, -8
	.cfi_offset 14, -4
	mov	lr, r1
	.loc 1 87 0
	beq	.L17
	.loc 1 87 0 is_stmt 0 discriminator 1
	ldr	ip, [r2]
	mov	r5, r0
	ldrb	r0, [ip]	@ zero_extendqisi2
.LVL8:
	cmp	r0, #0
	ldmeqfd	sp!, {r4, r5, pc}
	.loc 1 87 0 discriminator 2
	ldr	r3, [r2, #8]
	cmp	r3, #0
	ble	.L19
	.loc 1 89 0 is_stmt 1
	cmp	r1, #1
	movne	r1, r5
.LVL9:
	bne	.L15
	b	.L30
.LVL10:
.L31:
.LBB31:
	.loc 1 94 0 discriminator 1
	ldr	ip, [r2]
	ldrb	r3, [ip]	@ zero_extendqisi2
	cmp	r3, #0
	beq	.L14
	ldr	r3, [r2, #8]
	.loc 1 94 0 is_stmt 0
	cmp	r3, #0
	beq	.L14
.LVL11:
.L15:
	.loc 1 95 0 is_stmt 1 discriminator 3
	sub	r3, r3, #1
	add	r4, ip, #1
	str	r3, [r2, #8]
	str	r4, [r2]
	ldrb	r3, [ip]	@ zero_extendqisi2
	sub	lr, lr, #1
.LVL12:
	.loc 1 94 0 discriminator 3
	cmp	r3, #10
	.loc 1 95 0 discriminator 3
	strb	r3, [r1], #1
.LVL13:
	.loc 1 94 0 discriminator 3
	beq	.L14
	.loc 1 94 0 is_stmt 0 discriminator 4
	cmp	lr, #1
	bne	.L31
.L14:
	.loc 1 97 0 is_stmt 1
	mov	r3, #0
	mov	r0, r5
	strb	r3, [r1]
	ldmfd	sp!, {r4, r5, pc}
.LVL14:
.L30:
.LBE31:
	.loc 1 90 0
	sub	r3, r3, #1
	add	r1, ip, #1
	str	r3, [r2, #8]
	str	r1, [r2]
	ldrb	r3, [ip]	@ zero_extendqisi2
	mov	r0, r5
	strb	r3, [r5]
	ldmfd	sp!, {r4, r5, pc}
.LVL15:
.L17:
	.loc 1 88 0
	mov	r0, r1
.LVL16:
	ldmfd	sp!, {r4, r5, pc}
.LVL17:
.L29:
	.cfi_def_cfa_offset 0
	.cfi_restore 4
	.cfi_restore 5
	.cfi_restore 14
	.loc 1 86 0
	ldr	r2, [r2, #12]
.LVL18:
	b	fgets
.LVL19:
.L19:
	.cfi_def_cfa_offset 12
	.cfi_offset 4, -12
	.cfi_offset 5, -8
	.cfi_offset 14, -4
	.loc 1 88 0
	mov	r0, #0
	.loc 1 100 0
	ldmfd	sp!, {r4, r5, pc}
	.cfi_endproc
.LFE5:
	.size	dehfgets, .-dehfgets
	.align	2
	.type	dehfeof, %function
dehfeof:
.LFB6:
	.loc 1 103 0
	.cfi_startproc
	@ args = 0, pretend = 0, frame = 0
	@ frame_needed = 0, uses_anonymous_args = 0
	@ link register save eliminated.
.LVL20:
	.loc 1 104 0
	ldr	r3, [r0, #4]
	cmp	r3, #0
	beq	.L36
	.loc 1 104 0 is_stmt 0 discriminator 2
	ldr	r3, [r0]
	ldrb	r3, [r3]	@ zero_extendqisi2
	cmp	r3, #0
	bne	.L37
	.loc 1 104 0
	mov	r0, #1
.LVL21:
	.loc 1 105 0 is_stmt 1
	bx	lr
.LVL22:
.L37:
	.loc 1 104 0 discriminator 5
	ldr	r0, [r0, #8]
.LVL23:
	cmp	r0, #0
	movgt	r0, #0
	movle	r0, #1
	bx	lr
.LVL24:
.L36:
.LBB34:
.LBB35:
	.loc 1 104 0 is_stmt 0
	ldr	r3, [r0, #12]
	ldrh	r0, [r3, #12]
.LVL25:
	mov	r0, r0, lsr #5
	and	r0, r0, #1
	bx	lr
.LBE35:
.LBE34:
	.cfi_endproc
.LFE6:
	.size	dehfeof, .-dehfeof
	.align	2
	.global	D_BuildBEXTables
	.type	D_BuildBEXTables, %function
D_BuildBEXTables:
.LFB8:
	.loc 1 1367 0 is_stmt 1
	.cfi_startproc
	@ args = 0, pretend = 0, frame = 0
	@ frame_needed = 0, uses_anonymous_args = 0
	stmfd	sp!, {r3, r4, r5, r6, r7, lr}
	.cfi_def_cfa_offset 24
	.cfi_offset 3, -24
	.cfi_offset 4, -20
	.cfi_offset 5, -16
	.cfi_offset 6, -12
	.cfi_offset 7, -8
	.cfi_offset 14, -4
	.loc 1 1370 0
	ldr	r0, .L50
	bl	puts
.LVL26:
	ldr	r2, .L50+4
	ldr	r3, .L50+8
	ldr	r0, .L50+12
.LVL27:
.L39:
	.loc 1 1373 0 discriminator 3
	ldr	r1, [r2, #12]
	add	r2, r2, #28
	str	r1, [r3, #4]!
	.loc 1 1372 0 discriminator 3
	cmp	r3, r0
	bne	.L39
	.loc 1 1375 0
	ldr	r0, .L50+16
	bl	puts
.LVL28:
	ldr	r4, .L50+20
	ldr	r5, .L50+24
	add	r6, r4, #560
.LVL29:
.L40:
	.loc 1 1377 0 discriminator 3
	ldr	r0, [r4, #4]!
	mov	r1, #1
	mov	r2, #0
	bl	Z_Strdup
.LVL30:
	.loc 1 1376 0 discriminator 3
	cmp	r4, r6
	.loc 1 1377 0 discriminator 3
	str	r0, [r5, #4]!
	.loc 1 1376 0 discriminator 3
	bne	.L40
	.loc 1 1378 0
	mov	r2, #0
	ldr	r3, .L50+28
	ldr	r7, .L50+32
	.loc 1 1380 0
	ldr	r0, .L50+36
	.loc 1 1378 0
	str	r2, [r3, #560]
	mov	r4, r7
	.loc 1 1380 0
	bl	puts
.LVL31:
	ldr	r5, .L50+40
	add	r6, r7, #268
.LVL32:
.L41:
	.loc 1 1382 0 discriminator 3
	ldr	r0, [r5, #16]!
	mov	r1, #1
	mov	r2, #0
	bl	Z_Strdup
.LVL33:
	str	r0, [r4, #4]!
	.loc 1 1381 0 discriminator 3
	cmp	r4, r6
	bne	.L41
	.loc 1 1383 0
	mov	r3, #0
	.loc 1 1385 0
	ldr	r0, .L50+44
	mov	r1, #114
	.loc 1 1383 0
	str	r3, [r7, #272]
	str	r3, [r7]
	.loc 1 1386 0
	mov	r5, #1
	.loc 1 1385 0
	bl	printf
.LVL34:
	ldr	r4, .L50+48
	ldr	r6, .L50+52
.LVL35:
.L44:
	.loc 1 1387 0
	ldr	r0, .L50+56
	mov	r1, r5
	ldr	r2, [r4, #36]
	bl	printf
.LVL36:
	.loc 1 1388 0
	ldr	r0, [r4, #36]
	cmp	r0, #0
	.loc 1 1391 0
	streq	r0, [r6]
	.loc 1 1388 0
	beq	.L43
	.loc 1 1389 0
	mov	r1, #1
	mov	r2, #0
	bl	Z_Strdup
.LVL37:
	str	r0, [r6]
.L43:
	.loc 1 1386 0 discriminator 2
	add	r5, r5, #1
.LVL38:
	cmp	r5, #114
	add	r4, r4, #36
	add	r6, r6, #4
	bne	.L44
	.loc 1 1393 0
	mov	r2, #0
	ldr	r3, .L50+60
	.loc 1 1395 0
	ldr	r0, .L50+64
	.loc 1 1393 0
	str	r2, [r3, #456]
	str	r2, [r3]
	.loc 1 1396 0
	ldmfd	sp!, {r3, r4, r5, r6, r7, lr}
	.cfi_restore 14
	.cfi_restore 7
	.cfi_restore 6
	.cfi_restore 5
	.cfi_restore 4
	.cfi_restore 3
	.cfi_def_cfa_offset 0
.LVL39:
	.loc 1 1395 0
	b	puts
.LVL40:
.L51:
	.align	2
.L50:
	.word	.LC1
	.word	states
	.word	.LANCHOR0-4
	.word	.LANCHOR0+4300
	.word	.LC2
	.word	sprnames-4
	.word	deh_spritenames-4
	.word	deh_spritenames
	.word	deh_musicnames
	.word	.LC3
	.word	S_music
	.word	.LC4
	.word	S_sfx
	.word	deh_soundnames+4
	.word	.LC5
	.word	deh_soundnames
	.word	.LC6
	.cfi_endproc
.LFE8:
	.size	D_BuildBEXTables, .-D_BuildBEXTables
	.align	2
	.global	deh_procStringSub
	.type	deh_procStringSub, %function
deh_procStringSub:
.LFB26:
	.loc 1 2700 0
	.cfi_startproc
	@ args = 0, pretend = 0, frame = 8
	@ frame_needed = 0, uses_anonymous_args = 0
.LVL41:
	stmfd	sp!, {r4, r5, r6, r7, r8, r9, r10, fp, lr}
	.cfi_def_cfa_offset 36
	.cfi_offset 4, -36
	.cfi_offset 5, -32
	.cfi_offset 6, -28
	.cfi_offset 7, -24
	.cfi_offset 8, -20
	.cfi_offset 9, -16
	.cfi_offset 10, -12
	.cfi_offset 11, -8
	.cfi_offset 14, -4
	ldr	r10, .L92
	sub	sp, sp, #28
	.cfi_def_cfa_offset 64
	.loc 1 2700 0
	mov	r8, r0
	mov	r6, r1
	mov	r9, r2
	mov	fp, r3
	mov	r4, r10
	.loc 1 2705 0
	mov	r5, #0
	ldr	r7, .L92+4
	b	.L70
.LVL42:
.L56:
	.loc 1 2705 0 is_stmt 0 discriminator 2
	cmp	r4, r7
	add	r5, r5, #1
.LVL43:
	beq	.L91
.LVL44:
.L70:
	.loc 1 2707 0 is_stmt 1
	ldr	r3, [r4, #8]
	add	r4, r4, #12
	cmp	r3, #0
	.loc 1 2708 0
	ldreq	r3, [r4, #-12]
	ldreq	r3, [r3]
	streq	r3, [r4, #-4]
	.loc 1 2711 0
	cmp	r6, #0
	ldrne	r0, [r4, #-4]
	.loc 1 2712 0
	ldreq	r0, [r4, #-8]
	.loc 1 2711 0
	movne	r1, r6
	.loc 1 2712 0
	moveq	r1, r8
	bl	strcasecmp
.LVL45:
	clz	r3, r0
	mov	r3, r3, lsr #5
.LVL46:
	.loc 1 2714 0
	cmp	r3, #0
	beq	.L56
.LBB36:
	.loc 1 2717 0
	mov	r4, r5, asl #1
	add	r7, r4, r5
	mov	r7, r7, asl #2
	ldr	r3, [r10, r7]
.LVL47:
	mov	r1, #1
	mov	r0, r9
.LVL48:
	mov	r2, #0
	str	r3, [sp, #20]
	bl	Z_Strdup
.LVL49:
	ldr	r3, [sp, #20]
	str	r0, [r3]
.LVL50:
.LBB37:
	.loc 1 2722 0
	ldr	r3, [r10, r7]
	ldr	r1, [r3]
.LVL51:
	ldrb	r3, [r1]	@ zero_extendqisi2
	cmp	r3, #0
	beq	.L57
	.loc 1 2725 0
	mov	lr, #10
	b	.L60
.LVL52:
.L58:
	.loc 1 2727 0
	mov	r2, r1
	strb	r3, [r0]
.L59:
.LVL53:
	.loc 1 2722 0 discriminator 2
	ldrb	r3, [r2, #1]	@ zero_extendqisi2
	add	r0, r0, #1
.LVL54:
	cmp	r3, #0
	add	r1, r2, #1
.LVL55:
	beq	.L57
.L60:
	.loc 1 2724 0
	cmp	r3, #92
	bne	.L58
	.loc 1 2724 0 is_stmt 0 discriminator 1
	ldrb	ip, [r1, #1]	@ zero_extendqisi2
	.loc 1 2725 0 is_stmt 1 discriminator 1
	add	r2, r1, #1
.LVL56:
	.loc 1 2724 0 discriminator 1
	and	ip, ip, #223
	cmp	ip, #78
	.loc 1 2725 0 discriminator 1
	streqb	lr, [r0]
	.loc 1 2724 0 discriminator 1
	beq	.L59
	b	.L58
.LVL57:
.L91:
.LBE37:
.LBE36:
	.loc 1 2753 0
	cmp	fp, #0
	beq	.L88
	.loc 1 2753 0 is_stmt 0 discriminator 1
	cmp	r8, #0
	mov	r0, fp
	movne	r2, r8
	moveq	r2, r6
	ldr	r1, .L92+8
	str	r3, [sp, #20]
	bl	fprintf
.LVL58:
	ldr	r3, [sp, #20]
.L88:
	.loc 1 2757 0 is_stmt 1
	mov	r0, r3
	add	sp, sp, #28
	.cfi_remember_state
	.cfi_def_cfa_offset 36
	@ sp needed
	ldmfd	sp!, {r4, r5, r6, r7, r8, r9, r10, fp, pc}
.LVL59:
.L57:
	.cfi_restore_state
.LBB44:
.LBB38:
	.loc 1 2729 0
	mov	r3, #0
.LBE38:
	.loc 1 2732 0
	cmp	r8, r3
.LBB39:
	.loc 1 2729 0
	strb	r3, [r0]
.LBE39:
	.loc 1 2732 0
	beq	.L61
	.loc 1 2733 0
	cmp	fp, r3
	beq	.L69
	.loc 1 2733 0 is_stmt 0 discriminator 1
	mov	r0, fp
.LVL60:
	mov	r2, r8
	mov	r3, r9
	ldr	r1, .L92+12
.LVL61:
	bl	fprintf
.LVL62:
.L69:
.LBE44:
	.loc 1 2753 0 is_stmt 1
	mov	r3, #1
	.loc 1 2757 0
	mov	r0, r3
	add	sp, sp, #28
	.cfi_remember_state
	.cfi_def_cfa_offset 36
	@ sp needed
	ldmfd	sp!, {r4, r5, r6, r7, r8, r9, r10, fp, pc}
.LVL63:
.L61:
	.cfi_restore_state
.LBB45:
	.loc 1 2737 0
	cmp	fp, #0
	beq	.L69
	.loc 1 2739 0 discriminator 1
	mov	r0, r6
.LVL64:
	bl	strlen
.LVL65:
	.loc 1 2737 0 discriminator 1
	ldr	r7, .L92+16
	ldr	r8, .L92+20
.LVL66:
	cmp	r0, #12
	movhi	r3, r7
	movls	r3, r8
	.loc 1 2740 0 discriminator 1
	mov	r0, r9
	.loc 1 2737 0 discriminator 1
	str	r3, [sp, #20]
	.loc 1 2740 0 discriminator 1
	bl	strlen
.LVL67:
	.loc 1 2737 0 discriminator 1
	cmp	r0, #12
	movhi	r0, r7
	movls	r0, r8
	add	r4, r4, r5
	add	r10, r10, r4, asl #2
	ldr	r1, [r10, #4]
	ldr	r3, [sp, #20]
	str	r0, [sp, #4]
	mov	r2, r6
	str	r1, [sp, #8]
	str	r9, [sp]
	ldr	r1, .L92+24
	mov	r0, fp
	bl	fprintf
.LVL68:
	.loc 1 2744 0 discriminator 1
	ldr	r2, [r10, #4]
.LVL69:
.LBB40:
.LBB41:
	.loc 1 2997 0 discriminator 1
	ldr	lr, .L92+28
	.loc 1 3003 0 discriminator 1
	mov	r3, #92
	mov	r1, #110
	b	.L65
.LVL70:
.L68:
	.loc 1 3002 0
	cmp	ip, #10
	.loc 1 3003 0
	streqb	r3, [lr]
.LVL71:
	streqb	r1, [lr, #1]
.LVL72:
	streqb	r3, [lr, #2]
	streqb	ip, [lr, #3]
	.loc 1 3005 0
	strneb	ip, [lr]
	.loc 1 3003 0
	addeq	lr, lr, #4
.LVL73:
	.loc 1 3005 0
	addne	lr, lr, #1
.L65:
.LVL74:
	.loc 1 3000 0
	ldrb	ip, [r9], #1	@ zero_extendqisi2
.LVL75:
	cmp	ip, #0
	bne	.L68
.LBE41:
.LBE40:
	.loc 1 2744 0
	mov	r0, fp
	ldr	r1, .L92+32
	ldr	r3, .L92+28
.LBB43:
.LBB42:
	.loc 1 3007 0
	strb	ip, [lr]
.LBE42:
.LBE43:
	.loc 1 2744 0
	bl	fprintf
.LVL76:
	b	.L69
.L93:
	.align	2
.L92:
	.word	.LANCHOR2
	.word	.LANCHOR2+3672
	.word	.LC12
	.word	.LC9
	.word	.LC7
	.word	.LC8
	.word	.LC10
	.word	.LANCHOR1-3880
	.word	.LC11
.LBE45:
	.cfi_endproc
.LFE26:
	.size	deh_procStringSub, .-deh_procStringSub
	.align	2
	.type	deh_procText, %function
deh_procText:
.LFB23:
	.loc 1 2454 0
	.cfi_startproc
	@ args = 0, pretend = 0, frame = 2096
	@ frame_needed = 0, uses_anonymous_args = 0
.LVL77:
	stmfd	sp!, {r4, r5, r6, r7, r8, r9, r10, fp, lr}
	.cfi_def_cfa_offset 36
	.cfi_offset 4, -36
	.cfi_offset 5, -32
	.cfi_offset 6, -28
	.cfi_offset 7, -24
	.cfi_offset 8, -20
	.cfi_offset 9, -16
	.cfi_offset 10, -12
	.cfi_offset 11, -8
	.cfi_offset 14, -4
	.loc 1 2474 0
	ldr	r9, .L166
	.loc 1 2454 0
	sub	sp, sp, #2096
	.cfi_def_cfa_offset 2132
	.loc 1 2474 0
	ldr	r3, [r9, #-2856]
	.loc 1 2454 0
	sub	sp, sp, #12
	.cfi_def_cfa_offset 2144
	.loc 1 2474 0
	cmp	r3, #0
	.loc 1 2454 0
	mov	r4, r0
	mov	r8, r1
	mov	r6, r2
	.loc 1 2474 0
	beq	.L95
	.loc 1 2476 0
	cmp	r1, #0
	beq	.L96
	.loc 1 2476 0 is_stmt 0 discriminator 1
	mov	r3, r1
	ldr	r0, .L166+4
.LVL78:
	mov	r1, #1
.LVL79:
	mov	r2, #47
.LVL80:
	bl	fwrite
.LVL81:
.L96:
	.loc 1 2478 0 is_stmt 1
	add	r5, sp, #56
	mov	r1, r6
	mov	r0, r5
	bl	strcpy
.LVL82:
	.loc 1 2479 0
	b	.L97
.L157:
	.loc 1 2479 0 is_stmt 0 discriminator 1
	ldrb	r3, [sp, #56]	@ zero_extendqisi2
	tst	r3, #223
	beq	.L94
	.loc 1 2480 0 is_stmt 1
	mov	r0, r5
	mov	r1, #2048
	mov	r2, r4
	bl	dehfgets
.LVL83:
.L97:
	.loc 1 2479 0
	mov	r0, r4
	bl	dehfeof
.LVL84:
	cmp	r0, #0
	beq	.L157
.L94:
	.loc 1 2600 0
	add	sp, sp, #2096
	add	sp, sp, #12
	.cfi_remember_state
	.cfi_def_cfa_offset 36
	@ sp needed
	ldmfd	sp!, {r4, r5, r6, r7, r8, r9, r10, fp, pc}
.LVL85:
.L95:
	.cfi_restore_state
.LBB52:
.LBB53:
	.loc 1 2486 0
	add	r3, sp, #20
	mov	r0, r2
.LVL86:
	add	r2, sp, #24
.LVL87:
	str	r3, [sp]
	ldr	r1, .L166+8
.LVL88:
	sub	r3, r2, #8
	bl	sscanf
.LVL89:
	.loc 1 2487 0
	cmp	r8, #0
	beq	.L100
	ldr	r1, [sp, #20]
	ldr	r3, [sp, #16]
	str	r1, [sp]
	add	r2, sp, #24
	mov	r0, r8
	ldr	r1, .L166+12
	bl	fprintf
.LVL90:
.L100:
	add	r5, sp, #56
.LBE53:
.LBE52:
	.loc 1 2454 0
	mov	r10, r5
	ldr	r6, [sp, #16]
.LVL91:
	ldr	r1, [sp, #20]
	add	r1, r1, r6
.L101:
	rsb	r7, r5, r10
	b	.L102
.LVL92:
.L160:
.LBB66:
.LBB64:
.LBB54:
.LBB55:
.LBB56:
	.loc 1 110 0
	ldr	r3, [r4]
	str	r2, [r4, #8]
	add	r2, r3, #1
	str	r2, [r4]
	ldrb	r0, [r3]	@ zero_extendqisi2
.LBE56:
.LBE55:
	.loc 1 2495 0
	cmp	r0, #13
	bne	.L158
.LVL93:
.L102:
	.loc 1 2494 0
	cmp	r1, r7
	ble	.L103
.LBB59:
.LBB57:
	.loc 1 109 0
	ldr	r3, [r4, #4]
	cmp	r3, #0
	beq	.L159
	ldr	r3, [r4, #8]
	.loc 1 110 0
	cmp	r3, #0
	sub	r2, r3, #1
	bgt	.L160
.L103:
.LBE57:
.LBE59:
	.loc 1 2497 0
	mov	r4, #0
.LVL94:
	add	r3, sp, #2096
	add	r3, r3, #8
	add	r7, r3, r7
.LVL95:
.LBE54:
	.loc 1 2504 0
	cmp	r6, #4
.LBB61:
	.loc 1 2497 0
	strb	r4, [r7, #-2048]
.LBE61:
	.loc 1 2504 0
	beq	.L161
	.loc 1 2535 0
	cmp	r6, #6
	ble	.L162
.LVL96:
.L109:
	.loc 1 2589 0
	cmp	r8, #0
	beq	.L125
	mov	r0, r5
	bl	strlen
.LVL97:
	ldr	r2, [sp, #20]
	ldr	r1, .L166+16
	cmp	r0, #12
	ldr	r3, .L166+20
	str	r6, [sp]
	movls	r3, r1
	str	r2, [sp, #4]
	mov	r0, r8
	ldr	r1, .L166+24
	mov	r2, r5
	bl	fprintf
.LVL98:
	ldr	r6, [sp, #16]
.L125:
	.loc 1 2590 0
	mov	r0, r5
	bl	strlen
.LVL99:
	cmp	r6, r0
	.loc 1 2461 0
	movhi	r4, #0
	.loc 1 2590 0
	bls	.L163
.L122:
.LVL100:
	.loc 1 2596 0
	mov	r1, r5
	mov	r3, r8
	mov	r0, #0
	mov	r2, r4
	bl	deh_procStringSub
.LVL101:
.L123:
	.loc 1 2598 0
	mov	r0, r4
	bl	Z_Free
.LVL102:
.LBE64:
.LBE66:
	.loc 1 2600 0
	add	sp, sp, #2096
	add	sp, sp, #12
	.cfi_remember_state
	.cfi_def_cfa_offset 36
	@ sp needed
	ldmfd	sp!, {r4, r5, r6, r7, r8, r9, r10, fp, pc}
.LVL103:
.L159:
	.cfi_restore_state
.LBB67:
.LBB65:
.LBB62:
.LBB60:
.LBB58:
	.loc 1 109 0
	ldr	r0, [r4, #12]
	bl	fgetc
.LVL104:
.LBE58:
.LBE60:
	.loc 1 2494 0
	cmn	r0, #1
	ldr	r6, [sp, #16]
	beq	.L103
	ldr	r1, [sp, #20]
	.loc 1 2495 0
	cmp	r0, #13
	add	r1, r1, r6
	beq	.L102
.L158:
.LVL105:
	.loc 1 2496 0
	strb	r0, [r10], #1
.LVL106:
	b	.L101
.LVL107:
.L162:
	ldr	r3, [sp, #20]
.L108:
.LBE62:
	.loc 1 2535 0
	cmp	r3, #6
	bgt	.L109
	.loc 1 2537 0
	cmp	r3, r6
	movlt	r2, r3
	movge	r2, r6
	.loc 1 2539 0
	adds	r1, r8, #0
	movne	r1, #1
	cmp	r6, r3
	cmpne	r8, #0
	.loc 1 2537 0
	str	r2, [sp, #12]
.LVL108:
	.loc 1 2539 0
	str	r1, [sp, #8]
	beq	.L114
	str	r2, [sp]
	mov	r0, r8
	mov	r2, r6
.LVL109:
	ldr	r1, .L166+28
	bl	fprintf
.LVL110:
	ldr	r6, [sp, #16]
.L114:
.LVL111:
	.loc 1 2507 0
	mov	r4, #1
	ldr	fp, .L166+32
	.loc 1 2547 0
	ldr	r10, .L166+36
.LVL112:
	b	.L117
.LVL113:
.L115:
	.loc 1 2543 0
	add	r4, r4, #1
.LVL114:
	cmp	r4, #114
	beq	.L164
.LVL115:
.L117:
	.loc 1 2546 0
	ldr	r7, [fp, #36]
	add	fp, fp, #36
	mov	r0, r7
	bl	strlen
.LVL116:
	cmp	r0, r6
	bne	.L115
	.loc 1 2547 0
	mov	r0, r7
	mov	r1, r5
	mov	r2, r6
	bl	strncasecmp
.LVL117:
	cmp	r0, #0
	bne	.L115
	ldr	r3, [r10, r4, asl #2]
	mov	ip, r4, asl #2
	cmp	r3, #0
	bne	.L115
	.loc 1 2549 0
	ldr	r3, [sp, #8]
	cmp	r3, #0
	beq	.L116
	add	r6, r5, r6
	str	r6, [sp]
	mov	r0, r8
	mov	r2, r7
	ldr	r3, [sp, #12]
	ldr	r1, .L166+40
	str	ip, [sp, #8]
	bl	fprintf
.LVL118:
	ldr	r6, [sp, #16]
	ldr	ip, [sp, #8]
.L116:
	.loc 1 2553 0
	mov	r2, #0
	add	r0, r5, r6
	mov	r1, #1
	str	ip, [sp, #8]
	bl	Z_Strdup
.LVL119:
	.loc 1 2556 0
	mov	r3, #1
	ldr	ip, [sp, #8]
	.loc 1 2553 0
	ldr	r2, .L166+32
	add	r4, r4, r4, asl #3
.LVL120:
	.loc 1 2556 0
	add	ip, r9, ip
	.loc 1 2553 0
	str	r0, [r2, r4, asl #2]
	.loc 1 2556 0
	str	r3, [ip, #-2288]
.LVL121:
.L112:
	.loc 1 2461 0
	mov	r4, #0
	b	.L123
.LVL122:
.L161:
	.loc 1 2504 0
	ldr	r3, [sp, #20]
	cmp	r3, #4
	bne	.L108
.LVL123:
	.loc 1 2507 0
	ldr	r7, .L166+44
	ldr	r10, [r7]
.LVL124:
	cmp	r10, r4
	beq	.L109
	mov	r6, r7
	.loc 1 2509 0
	ldr	fp, .L166+48
.LVL125:
.L113:
	mov	r0, r10
	mov	r1, r5
	mov	r2, #4
	bl	strncasecmp
.LVL126:
	cmp	r0, #0
	bne	.L110
	ldr	r3, [fp, r4, asl #2]
	mov	ip, r4, asl #2
	cmp	r3, #0
	beq	.L165
.L110:
	.loc 1 2507 0
	ldr	r10, [r6, #4]!
	.loc 1 2531 0
	add	r4, r4, #1
.LVL127:
	.loc 1 2507 0
	cmp	r10, #0
	bne	.L113
	mov	r6, #4
	b	.L109
.LVL128:
.L163:
	.loc 1 2592 0
	mov	r1, #1
	mov	r2, #0
	add	r0, r5, r6
	bl	Z_Strdup
.LVL129:
	.loc 1 2593 0
	mov	r2, #0
	ldr	r3, [sp, #16]
	add	r1, sp, #2096
	add	r1, r1, #8
	add	r3, r1, r3
	.loc 1 2592 0
	mov	r4, r0
.LVL130:
	.loc 1 2593 0
	strb	r2, [r3, #-2048]
	b	.L122
.LVL131:
.L164:
	.loc 1 2543 0
	mov	r4, #1
.LVL132:
	ldr	r10, .L166+52
	.loc 1 2569 0
	ldr	fp, .L166+56
	b	.L120
.LVL133:
.L118:
	.loc 1 2565 0
	add	r4, r4, #1
.LVL134:
	cmp	r4, #68
	beq	.L109
.LVL135:
.L120:
	.loc 1 2568 0
	ldr	r7, [r10, r4, asl #4]
	mov	r0, r7
	bl	strlen
.LVL136:
	cmp	r0, r6
	bne	.L118
	.loc 1 2569 0
	mov	r0, r7
	mov	r1, r5
	mov	r2, r6
	bl	strncasecmp
.LVL137:
	cmp	r0, #0
	bne	.L118
	ldr	r3, [fp, r4, asl #2]
	mov	ip, r4, asl #2
	cmp	r3, #0
	bne	.L118
	.loc 1 2571 0
	ldr	r3, [sp, #8]
	cmp	r3, #0
	beq	.L119
	add	r6, r5, r6
	str	r6, [sp]
	mov	r0, r8
	mov	r2, r7
	ldr	r3, [sp, #12]
	ldr	r1, .L166+60
	str	ip, [sp, #8]
	bl	fprintf
.LVL138:
	ldr	r6, [sp, #16]
	ldr	ip, [sp, #8]
.L119:
	.loc 1 2575 0
	add	r0, r5, r6
	mov	r1, #1
	mov	r2, #0
	str	ip, [sp, #8]
	bl	Z_Strdup
.LVL139:
	.loc 1 2578 0
	mov	r3, #1
	ldr	ip, [sp, #8]
	.loc 1 2575 0
	str	r0, [r10, r4, asl #4]
	.loc 1 2578 0
	add	ip, r9, ip
	str	r3, [ip, #-1832]
.LVL140:
	b	.L112
.LVL141:
.L165:
	.loc 1 2511 0
	cmp	r8, #0
	beq	.L111
	mov	r1, #4
	add	r2, r5, r1
	stmia	sp, {r1, r2}
	mov	r0, r8
	mov	r3, r10
	ldr	r1, .L166+64
	mov	r2, r4
	str	ip, [sp, #8]
	bl	fprintf
.LVL142:
	ldr	ip, [sp, #8]
.L111:
.LBB63:
	.loc 1 2521 0
	ldr	r0, [r7, r4, asl #2]
	mov	r1, #1
	mov	r2, #0
	str	ip, [sp, #8]
	bl	Z_Strdup
.LVL143:
	.loc 1 2524 0
	mov	r3, #1
	.loc 1 2526 0
	ldr	r1, [sp, #16]
	.loc 1 2524 0
	ldr	ip, [sp, #8]
	.loc 1 2526 0
	add	r1, r5, r1
	.loc 1 2524 0
	add	ip, r9, ip
	.loc 1 2526 0
	ldr	r2, [sp, #20]
	.loc 1 2521 0
	str	r0, [r7, r4, asl #2]
	.loc 1 2524 0
	str	r3, [ip, #-2852]
	.loc 1 2526 0
	bl	strncpy
.LVL144:
	b	.L112
.L167:
	.align	2
.L166:
	.word	.LANCHOR1
	.word	.LC13
	.word	.LC14
	.word	.LC15
	.word	.LC8
	.word	.LC7
	.word	.LC20
	.word	.LC17
	.word	S_sfx
	.word	.LANCHOR1-2288
	.word	.LC18
	.word	sprnames
	.word	.LANCHOR1-2852
	.word	S_music
	.word	.LANCHOR1-1832
	.word	.LC19
	.word	.LC16
.LBE63:
.LBE65:
.LBE67:
	.cfi_endproc
.LFE23:
	.size	deh_procText, .-deh_procText
	.align	2
	.global	dehReformatStr
	.type	dehReformatStr, %function
dehReformatStr:
.LFB31:
	.loc 1 2991 0
	.cfi_startproc
	@ args = 0, pretend = 0, frame = 0
	@ frame_needed = 0, uses_anonymous_args = 0
	@ link register save eliminated.
.LVL145:
	.loc 1 2997 0
	ldr	r2, .L173
	.loc 1 3003 0
	mov	r1, #92
	mov	ip, #110
	.loc 1 3000 0
	b	.L169
.LVL146:
.L172:
	.loc 1 3002 0
	cmp	r3, #10
	.loc 1 3003 0
	streqb	r1, [r2]
.LVL147:
	streqb	ip, [r2, #1]
.LVL148:
	streqb	r1, [r2, #2]
	streqb	r3, [r2, #3]
	.loc 1 3005 0
	strneb	r3, [r2]
	.loc 1 3003 0
	addeq	r2, r2, #4
.LVL149:
	.loc 1 3005 0
	addne	r2, r2, #1
.LVL150:
.L169:
	.loc 1 3000 0
	ldrb	r3, [r0], #1	@ zero_extendqisi2
.LVL151:
	cmp	r3, #0
	bne	.L172
	.loc 1 3007 0
	strb	r3, [r2]
	.loc 1 3009 0
	ldr	r0, .L173
.LVL152:
	bx	lr
.L174:
	.align	2
.L173:
	.word	.LANCHOR1-3880
	.cfi_endproc
.LFE31:
	.size	dehReformatStr, .-dehReformatStr
	.align	2
	.global	lfstrip
	.type	lfstrip, %function
lfstrip:
.LFB32:
	.loc 1 3020 0
	.cfi_startproc
	@ args = 0, pretend = 0, frame = 0
	@ frame_needed = 0, uses_anonymous_args = 0
.LVL153:
	stmfd	sp!, {r4, lr}
	.cfi_def_cfa_offset 8
	.cfi_offset 4, -8
	.cfi_offset 14, -4
	.loc 1 3020 0
	mov	r4, r0
	.loc 1 3021 0
	bl	strlen
.LVL154:
	add	r0, r4, r0
.LVL155:
	.loc 1 3022 0
	cmp	r4, r0
	ldmcsfd	sp!, {r4, pc}
	ldrb	r2, [r0, #-1]	@ zero_extendqisi2
	sub	r3, r0, #1
.LVL156:
	cmp	r2, #10
	cmpne	r2, #13
	ldmnefd	sp!, {r4, pc}
	.loc 1 3023 0
	mov	r1, #0
.LVL157:
.L178:
	.loc 1 3022 0
	cmp	r3, r4
	.loc 1 3023 0
	strb	r1, [r3]
	.loc 1 3022 0
	ldmeqfd	sp!, {r4, pc}
	.loc 1 3022 0 is_stmt 0 discriminator 1
	ldrb	r2, [r3, #-1]!	@ zero_extendqisi2
.LVL158:
	cmp	r2, #10
	cmpne	r2, #13
	beq	.L178
	ldmfd	sp!, {r4, pc}
	.cfi_endproc
.LFE32:
	.size	lfstrip, .-lfstrip
	.align	2
	.type	deh_procPars, %function
deh_procPars:
.LFB20:
	.loc 1 2200 0 is_stmt 1
	.cfi_startproc
	@ args = 0, pretend = 0, frame = 1072
	@ frame_needed = 0, uses_anonymous_args = 0
.LVL159:
	stmfd	sp!, {r4, r5, r6, r7, r8, lr}
	.cfi_def_cfa_offset 24
	.cfi_offset 4, -24
	.cfi_offset 5, -20
	.cfi_offset 6, -16
	.cfi_offset 7, -12
	.cfi_offset 8, -8
	.cfi_offset 14, -4
	mov	r6, r1
	sub	sp, sp, #1072
	.cfi_def_cfa_offset 1096
	sub	sp, sp, #8
	.cfi_def_cfa_offset 1104
	.loc 1 2217 0
	mov	r1, r2
.LVL160:
	.loc 1 2200 0
	mov	r5, r0
	.loc 1 2217 0
	mov	r2, #1024
.LVL161:
	add	r0, sp, #56
.LVL162:
	bl	strncpy
.LVL163:
	.loc 1 2220 0
	add	r0, sp, #56
	add	r2, sp, #24
	ldr	r1, .L221
	add	r3, sp, #8
	bl	sscanf
.LVL164:
	.loc 1 2221 0
	cmp	r6, #0
	beq	.L186
	.loc 1 2221 0 is_stmt 0 discriminator 1
	mov	r0, r6
	ldr	r1, .L221+4
	ldr	r2, [sp, #8]
	add	r3, sp, #24
	bl	fprintf
.LVL165:
.L186:
	.loc 1 2265 0 is_stmt 1
	ldr	r7, .L221+8
	.loc 1 2270 0
	ldr	r8, .L221+12
.L187:
	.loc 1 2224 0
	mov	r0, r5
	bl	dehfeof
.LVL166:
	cmp	r0, #0
	bne	.L185
.L220:
	.loc 1 2224 0 is_stmt 0 discriminator 1
	ldrb	r3, [sp, #56]	@ zero_extendqisi2
	tst	r3, #223
	beq	.L185
	.loc 1 2226 0 is_stmt 1
	add	r0, sp, #56
	mov	r1, #1024
	mov	r2, r5
	bl	dehfgets
.LVL167:
	cmp	r0, #0
	beq	.L185
	.loc 1 2227 0
	add	r0, sp, #56
	bl	strlwr
.LVL168:
	bl	lfstrip
.LVL169:
	.loc 1 2228 0
	ldrb	r3, [sp, #56]	@ zero_extendqisi2
	cmp	r3, #0
	beq	.L185
	.loc 1 2229 0
	add	r4, sp, #20
	add	r3, sp, #16
	str	r4, [sp]
	add	r0, sp, #56
	ldr	r1, .L221+16
	add	r2, sp, #12
	bl	sscanf
.LVL170:
	cmp	r0, #3
	beq	.L190
	.loc 1 2231 0
	add	r2, sp, #16
	mov	r3, r4
	add	r0, sp, #56
	ldr	r1, .L221+20
	bl	sscanf
.LVL171:
	cmp	r0, #2
	beq	.L191
	.loc 1 2233 0
	cmp	r6, #0
	beq	.L187
	.loc 1 2233 0 is_stmt 0 discriminator 1
	ldr	r1, .L221+24
	add	r2, sp, #56
	mov	r0, r6
	bl	fprintf
.LVL172:
	.loc 1 2224 0 is_stmt 1 discriminator 1
	mov	r0, r5
	bl	dehfeof
.LVL173:
	cmp	r0, #0
	beq	.L220
.L185:
	.loc 1 2275 0
	add	sp, sp, #1072
	add	sp, sp, #8
	.cfi_remember_state
	.cfi_def_cfa_offset 24
	@ sp needed
	ldmfd	sp!, {r4, r5, r6, r7, r8, pc}
.LVL174:
.L190:
	.cfi_restore_state
	.loc 1 2258 0
	ldr	r2, [sp, #12]
	sub	r3, r2, #1
	cmp	r3, #2
	bhi	.L197
	.loc 1 2258 0 is_stmt 0 discriminator 1
	ldr	r3, [sp, #16]
	sub	r1, r3, #1
	cmp	r1, #8
	bhi	.L197
	.loc 1 2265 0 is_stmt 1
	add	r1, r2, r2, asl #2
	.loc 1 2266 0
	ldr	r0, [sp, #20]
	.loc 1 2265 0
	add	r1, r3, r1, asl #1
	.loc 1 2267 0
	cmp	r6, #0
	.loc 1 2265 0
	ldr	ip, [r7, r1, asl #2]
.LVL175:
	.loc 1 2266 0
	str	r0, [r7, r1, asl #2]
	.loc 1 2267 0
	beq	.L199
	.loc 1 2267 0 is_stmt 0 discriminator 1
	str	r0, [sp, #4]
	str	ip, [sp]
	mov	r0, r6
	ldr	r1, .L221+28
	bl	fprintf
.LVL176:
.L199:
	.loc 1 2270 0 is_stmt 1
	mov	r3, #1
	str	r3, [r8, #-1560]
	b	.L187
.L197:
	.loc 1 2260 0
	cmp	r6, #0
	beq	.L187
	.loc 1 2260 0 is_stmt 0 discriminator 1
	mov	r0, r6
	ldr	r1, .L221+32
	ldr	r3, [sp, #16]
	bl	fprintf
.LVL177:
	b	.L187
.L191:
	.loc 1 2238 0 is_stmt 1
	ldr	r2, [sp, #16]
	sub	r1, r2, #1
	cmp	r1, #31
	bls	.L194
	.loc 1 2240 0
	cmp	r6, #0
	beq	.L187
	.loc 1 2240 0 is_stmt 0 discriminator 1
	mov	r0, r6
	ldr	r1, .L221+36
	bl	fprintf
.LVL178:
	b	.L187
.L194:
	.loc 1 2244 0 is_stmt 1
	ldr	r4, .L221+40
	.loc 1 2245 0
	cmp	r6, #0
	.loc 1 2244 0
	ldr	r3, [r4, r1, asl #2]
.LVL179:
	.loc 1 2245 0
	beq	.L196
	.loc 1 2245 0 is_stmt 0 discriminator 1
	ldr	r1, [sp, #20]
	mov	r0, r6
	str	r1, [sp]
	ldr	r1, .L221+44
	bl	fprintf
.LVL180:
	ldr	r1, [sp, #16]
	sub	r1, r1, #1
.L196:
	.loc 1 2247 0 is_stmt 1
	mov	r2, #1
	.loc 1 2246 0
	ldr	r3, [sp, #20]
	.loc 1 2247 0
	str	r2, [r8, #-1560]
	.loc 1 2246 0
	str	r3, [r4, r1, asl #2]
	b	.L187
.L222:
	.align	2
.L221:
	.word	.LC21
	.word	.LC22
	.word	pars
	.word	.LANCHOR1
	.word	.LC23
	.word	.LC24
	.word	.LC25
	.word	.LC29
	.word	.LC28
	.word	.LC26
	.word	cpars
	.word	.LC27
	.cfi_endproc
.LFE20:
	.size	deh_procPars, .-deh_procPars
	.align	2
	.type	deh_procSprite, %function
deh_procSprite:
.LFB19:
	.loc 1 2166 0
	.cfi_startproc
	@ args = 0, pretend = 0, frame = 1064
	@ frame_needed = 0, uses_anonymous_args = 0
.LVL181:
	stmfd	sp!, {r4, r5, lr}
	.cfi_def_cfa_offset 12
	.cfi_offset 4, -12
	.cfi_offset 5, -8
	.cfi_offset 14, -4
	mov	r5, r1
	sub	sp, sp, #1056
	.cfi_def_cfa_offset 1068
	sub	sp, sp, #12
	.cfi_def_cfa_offset 1080
	.loc 1 2174 0
	mov	r1, r2
.LVL182:
	.loc 1 2166 0
	mov	r4, r0
	.loc 1 2174 0
	mov	r2, #1024
.LVL183:
	add	r0, sp, #40
.LVL184:
	bl	strncpy
.LVL185:
	.loc 1 2177 0
	add	r2, sp, #8
	add	r0, sp, #40
	sub	r3, r2, #4
	ldr	r1, .L241
	bl	sscanf
.LVL186:
	.loc 1 2178 0
	cmp	r5, #0
	beq	.L228
	.loc 1 2178 0 is_stmt 0 discriminator 1
	add	r3, sp, #8
	mov	r0, r5
	ldr	r1, .L241+4
	ldr	r2, [sp, #4]
	bl	fprintf
.LVL187:
	b	.L228
.L240:
	.loc 1 2180 0 is_stmt 1 discriminator 1
	ldrb	r3, [sp, #40]	@ zero_extendqisi2
	tst	r3, #223
	beq	.L223
	.loc 1 2182 0
	add	r0, sp, #40
	mov	r1, #1024
	mov	r2, r4
	bl	dehfgets
.LVL188:
	cmp	r0, #0
	beq	.L223
	.loc 1 2183 0
	add	r0, sp, #40
	bl	lfstrip
.LVL189:
	.loc 1 2184 0
	ldrb	r3, [sp, #40]	@ zero_extendqisi2
	cmp	r3, #0
	beq	.L223
	.loc 1 2186 0
	cmp	r5, #0
	bne	.L239
.L228:
	.loc 1 2180 0
	mov	r0, r4
	bl	dehfeof
.LVL190:
	cmp	r0, #0
	beq	.L240
.L223:
	.loc 1 2189 0
	add	sp, sp, #1056
	add	sp, sp, #12
	.cfi_remember_state
	.cfi_def_cfa_offset 12
	@ sp needed
	ldmfd	sp!, {r4, r5, pc}
.LVL191:
.L239:
	.cfi_restore_state
	.loc 1 2186 0 discriminator 1
	mov	r0, r5
	ldr	r1, .L241+8
	add	r2, sp, #40
	bl	fprintf
.LVL192:
	b	.L228
.L242:
	.align	2
.L241:
	.word	.LC21
	.word	.LC30
	.word	.LC31
	.cfi_endproc
.LFE19:
	.size	deh_procSprite, .-deh_procSprite
	.align	2
	.global	ProcessDehFile
	.type	ProcessDehFile, %function
ProcessDehFile:
.LFB9:
	.loc 1 1409 0
	.cfi_startproc
	@ args = 0, pretend = 0, frame = 1048
	@ frame_needed = 0, uses_anonymous_args = 0
.LVL193:
	stmfd	sp!, {r4, r5, r6, r7, r8, r9, r10, fp, lr}
	.cfi_def_cfa_offset 36
	.cfi_offset 4, -36
	.cfi_offset 5, -32
	.cfi_offset 6, -28
	.cfi_offset 7, -24
	.cfi_offset 8, -20
	.cfi_offset 9, -16
	.cfi_offset 10, -12
	.cfi_offset 11, -8
	.cfi_offset 14, -4
	sub	sp, sp, #1040
	.cfi_def_cfa_offset 1076
	sub	sp, sp, #12
	.cfi_def_cfa_offset 1088
.LVL194:
	.loc 1 1416 0
	subs	r10, r1, #0
	.loc 1 1409 0
	mov	r8, r0
	str	r2, [sp, #4]
	.loc 1 1416 0
	beq	.L244
	.loc 1 1416 0 is_stmt 0 discriminator 1
	ldrb	r3, [r10]	@ zero_extendqisi2
	cmp	r3, #0
	bne	.L308
.LVL195:
.L244:
	.loc 1 1433 0 is_stmt 1
	cmp	r8, #0
	beq	.L248
	.loc 1 1435 0
	mov	r0, r8
	ldr	r1, .L314
	bl	fopen
.LVL196:
	cmp	r0, #0
	str	r0, [sp, #20]
	beq	.L309
	.loc 1 1440 0
	mov	r3, #0
	.loc 1 1441 0
	ldr	r4, .L314+4
	.loc 1 1440 0
	str	r3, [sp, #12]
.LVL197:
.L251:
	.loc 1 1452 0
	ldr	r7, .L314+8
	.loc 1 1451 0
	mov	r0, #1
	ldr	r1, .L314+12
	mov	r2, r4
	mov	r3, r8
	bl	lprintf
.LVL198:
	.loc 1 1452 0
	ldr	r0, [r7, #-1556]
	cmp	r0, #0
	beq	.L252
	.loc 1 1452 0 is_stmt 0 discriminator 1
	mov	r2, r4
	ldr	r1, .L314+16
	mov	r3, r8
	bl	fprintf
.LVL199:
.L252:
	ldr	r6, .L314+20
.LBB68:
	.loc 1 1514 0 is_stmt 1
	ldr	r9, .L314+8
.LVL200:
.L253:
.LBE68:
	.loc 1 1458 0
	add	r0, sp, #24
	mov	r1, #1024
	add	r2, sp, #8
.LVL201:
	bl	dehfgets
.LVL202:
	cmp	r0, #0
	beq	.L310
.LBB79:
	.loc 1 1462 0
	add	r0, sp, #24
	bl	lfstrip
.LVL203:
	.loc 1 1463 0
	ldr	r0, [r7, #-1556]
	cmp	r0, #0
	beq	.L254
	.loc 1 1463 0 is_stmt 0 discriminator 1
	ldr	r1, .L314+24
	add	r2, sp, #24
	bl	fprintf
.LVL204:
.L254:
	.loc 1 1464 0 is_stmt 1
	ldrb	r4, [sp, #24]	@ zero_extendqisi2
	tst	r4, #223
	moveq	r3, #1
	movne	r3, #0
	cmp	r4, #35
	movne	r4, r3
	orreq	r4, r3, #1
	cmp	r4, #0
	bne	.L253
	.loc 1 1473 0
	add	r0, sp, #24
	ldr	r1, .L314+28
	mov	r2, #7
	bl	strncasecmp
.LVL205:
	cmp	r0, #0
	bne	.L274
.LBB69:
	.loc 1 1484 0
	ldr	r3, [sp, #12]
	.loc 1 1479 0
	ldr	fp, [r7, #-2856]
.LVL206:
	.loc 1 1484 0
	cmp	r3, #0
	beq	.L311
	.loc 1 1486 0
	ldr	r0, [r9, #-1556]
	cmp	r0, #0
	beq	.L253
	.loc 1 1487 0
	ldr	r1, .L314+32
	add	r2, sp, #24
	bl	fprintf
.LVL207:
	b	.L253
.LVL208:
.L274:
.LBE69:
	mov	fp, r4
	b	.L257
.LVL209:
.L266:
	.loc 1 1511 0 discriminator 2
	add	fp, fp, #1
.LVL210:
	cmp	fp, #18
	beq	.L253
.LVL211:
.L257:
	.loc 1 1512 0
	ldr	r4, [r6, fp, asl #3]
	mov	r5, fp, asl #3
	mov	r0, r4
	bl	strlen
.LVL212:
	mov	r1, r4
	mov	r2, r0
	add	r0, sp, #24
	bl	strncasecmp
.LVL213:
	cmp	r0, #0
	bne	.L266
	.loc 1 1514 0
	ldr	r1, [r7, #-1556]
	cmp	r1, #0
	beq	.L267
	.loc 1 1515 0
	mov	r0, r1
	mov	r2, fp
	ldr	r1, .L314+36
	mov	r3, r4
	bl	fprintf
.LVL214:
	ldr	r1, [r9, #-1556]
.L267:
	.loc 1 1517 0
	add	r5, r6, r5
	ldr	r3, [r5, #4]
	add	r0, sp, #8
.LVL215:
	add	r2, sp, #24
	blx	r3
.LVL216:
	.loc 1 1518 0
	b	.L253
.LVL217:
.L310:
.LBE79:
	.loc 1 1522 0
	ldr	r3, [sp, #12]
	cmp	r3, #0
	beq	.L269
	.loc 1 1523 0
	ldr	r0, [sp, #4]
	bl	W_UnlockLumpNum
.LVL218:
.L270:
	.loc 1 1527 0
	cmp	r10, #0
	beq	.L243
	.loc 1 1529 0
	ldr	r3, .L314+40
	ldr	r0, [r7, #-1556]
	ldr	r3, [r3]
	ldr	r3, [r3, #8]
	cmp	r3, r0
	beq	.L272
	.loc 1 1530 0
	bl	fclose
.LVL219:
.L272:
	.loc 1 1531 0
	mov	r3, #0
	str	r3, [r7, #-1556]
.L243:
	.loc 1 1533 0
	add	sp, sp, #1040
	add	sp, sp, #12
	.cfi_remember_state
	.cfi_def_cfa_offset 36
	@ sp needed
	ldmfd	sp!, {r4, r5, r6, r7, r8, r9, r10, fp, pc}
.LVL220:
.L308:
	.cfi_restore_state
	.loc 1 1416 0 discriminator 2
	ldr	r7, .L314+8
	ldr	r3, [r7, #-1556]
	cmp	r3, #0
	bne	.L244
.LBB80:
	.loc 1 1419 0
	mov	r0, r10
.LVL221:
	ldr	r1, .L314+44
.LVL222:
	bl	strcmp
.LVL223:
	cmp	r0, #0
	beq	.L312
	.loc 1 1422 0
	ldr	r4, .L314+48
	ldr	r2, .L314+52
	ldr	r1, [r4, #3672]
	ldr	r3, .L314+56
	cmp	r1, #0
	movne	r1, r2
	moveq	r1, r3
	mov	r0, r10
	bl	fopen
.LVL224:
	cmp	r0, #0
	str	r0, [r7, #-1556]
	beq	.L313
.L246:
	.loc 1 1428 0
	mov	r3, #0
	str	r3, [r4, #3672]
	b	.L244
.LVL225:
.L311:
.LBE80:
.LBB81:
.LBB78:
.LBB70:
.LBB71:
	.loc 1 3048 0
	ldr	r2, .L314+60
	ldrb	r3, [sp, #31]	@ zero_extendqisi2
	ldr	r5, [r2]
	add	r4, sp, #31
.LVL226:
	add	r3, r5, r3
	ldrb	r3, [r3, #1]	@ zero_extendqisi2
	tst	r3, #8
	beq	.L260
.LVL227:
.L259:
	ldrb	r3, [r4, #1]!	@ zero_extendqisi2
.LVL228:
	add	r3, r5, r3
	ldrb	r3, [r3, #1]	@ zero_extendqisi2
	tst	r3, #8
	bne	.L259
.LVL229:
.L260:
.LBE71:
.LBE70:
	.loc 1 1495 0
	mov	r0, r4
	ldr	r1, .L314+64
	mov	r2, #6
	bl	strncasecmp
.LVL230:
	cmp	r0, #0
	bne	.L262
	.loc 1 1496 0
	mov	r2, #1
.LBB72:
.LBB73:
	.loc 1 3048 0
	ldrb	r3, [r4, #6]	@ zero_extendqisi2
.LBE73:
.LBE72:
	.loc 1 1496 0
	str	r2, [r7, #-2856]
.LBB76:
.LBB74:
	.loc 1 3048 0
	add	r3, r5, r3
	ldrb	r3, [r3, #1]	@ zero_extendqisi2
.LBE74:
.LBE76:
	.loc 1 1496 0
	add	r4, r4, #6
.LVL231:
.LBB77:
.LBB75:
	.loc 1 3048 0
	tst	r3, #8
	beq	.L262
.LVL232:
.L264:
	ldrb	r3, [r4, #1]!	@ zero_extendqisi2
.LVL233:
	add	r3, r5, r3
	ldrb	r3, [r3, #1]	@ zero_extendqisi2
	tst	r3, #8
	bne	.L264
.LVL234:
.L262:
.LBE75:
.LBE77:
	.loc 1 1498 0
	ldr	r0, [r7, #-1556]
	cmp	r0, #0
	beq	.L265
	.loc 1 1499 0
	ldr	r1, .L314+68
	mov	r2, r4
	bl	fprintf
.LVL235:
.L265:
	.loc 1 1504 0
	mov	r1, #0
	mov	r0, r4
	mov	r2, r1
	bl	ProcessDehFile
.LVL236:
	.loc 1 1507 0
	ldr	r0, [r7, #-1556]
	.loc 1 1506 0
	str	fp, [r7, #-2856]
	.loc 1 1507 0
	cmp	r0, #0
	beq	.L253
	.loc 1 1507 0 is_stmt 0 discriminator 1
	ldr	r1, .L314+72
	mov	r2, r8
	bl	fprintf
.LVL237:
	b	.L253
.LVL238:
.L248:
.LBE78:
.LBE81:
	.loc 1 1445 0 is_stmt 1
	ldr	r4, [sp, #4]
	mov	r0, r4
	bl	W_LumpLength
.LVL239:
	str	r0, [sp, #16]
	.loc 1 1446 0
	mov	r0, r4
	bl	W_CacheLumpNum
.LVL240:
	.loc 1 1447 0
	ldr	r2, .L314+76
	add	r3, r4, r4, asl #2
	ldr	r2, [r2]
	.loc 1 1448 0
	ldr	r4, .L314+80
	.loc 1 1447 0
	add	r3, r2, r3, asl #3
	ldr	r3, [r3, #28]
	.loc 1 1446 0
	str	r0, [sp, #12]
	.loc 1 1447 0
	ldr	r8, [r3]
.LVL241:
	.loc 1 1446 0
	str	r0, [sp, #8]
	b	.L251
.LVL242:
.L269:
	.loc 1 1525 0
	ldr	r0, [sp, #20]
	bl	fclose
.LVL243:
	b	.L270
.L312:
.LBB82:
	.loc 1 1420 0
	ldr	r3, .L314+40
	ldr	r4, .L314+48
	ldr	r3, [r3]
	ldr	r3, [r3, #8]
	str	r3, [r7, #-1556]
	b	.L246
.L309:
.LBE82:
	.loc 1 1437 0
	mov	r2, r8
	ldr	r1, .L314+84
	mov	r0, #4
	bl	lprintf
.LVL244:
	b	.L243
.L313:
.LBB83:
	.loc 1 1424 0
	mov	r0, #4
	ldr	r1, .L314+88
	mov	r2, r10
	bl	lprintf
.LVL245:
	.loc 1 1426 0
	ldr	r3, .L314+40
	ldr	r3, [r3]
	ldr	r3, [r3, #8]
	str	r3, [r7, #-1556]
	b	.L246
.L315:
	.align	2
.L314:
	.word	.LC38
	.word	.LC34
	.word	.LANCHOR1
	.word	.LC40
	.word	.LC41
	.word	.LANCHOR3
	.word	.LC42
	.word	.LC43
	.word	.LC44
	.word	.LC48
	.word	_impure_ptr
	.word	.LC36
	.word	.LANCHOR2
	.word	.LC32
	.word	.LC33
	.word	__ctype_ptr__
	.word	.LC45
	.word	.LC46
	.word	.LC47
	.word	lumpinfo
	.word	.LC35
	.word	.LC39
	.word	.LC37
.LBE83:
	.cfi_endproc
.LFE9:
	.size	ProcessDehFile, .-ProcessDehFile
	.align	2
	.type	deh_procBexCodePointers, %function
deh_procBexCodePointers:
.LFB10:
	.loc 1 1544 0
	.cfi_startproc
	@ args = 0, pretend = 0, frame = 1096
	@ frame_needed = 0, uses_anonymous_args = 0
.LVL246:
	stmfd	sp!, {r4, r5, r6, r7, r8, r9, r10, fp, lr}
	.cfi_def_cfa_offset 36
	.cfi_offset 4, -36
	.cfi_offset 5, -32
	.cfi_offset 6, -28
	.cfi_offset 7, -24
	.cfi_offset 8, -20
	.cfi_offset 9, -16
	.cfi_offset 10, -12
	.cfi_offset 11, -8
	.cfi_offset 14, -4
	sub	sp, sp, #1104
	.cfi_def_cfa_offset 1140
	sub	sp, sp, #4
	.cfi_def_cfa_offset 1144
	.loc 1 1544 0
	mov	r6, r1
	mov	r8, r0
	.loc 1 1553 0
	mov	r1, r2
.LVL247:
	add	r0, sp, #80
.LVL248:
	mov	r2, #1024
.LVL249:
	bl	strncpy
.LVL250:
	ldr	r4, .L358
.L317:
	.loc 1 1556 0
	mov	r0, r8
	bl	dehfeof
.LVL251:
	cmp	r0, #0
	bne	.L316
.L357:
	.loc 1 1556 0 is_stmt 0 discriminator 1
	ldrb	r3, [sp, #80]	@ zero_extendqisi2
	tst	r3, #223
	beq	.L316
	.loc 1 1558 0 is_stmt 1
	add	r0, sp, #80
	mov	r1, #1024
	mov	r2, r8
	bl	dehfgets
.LVL252:
	cmp	r0, #0
	beq	.L316
	.loc 1 1559 0
	add	r0, sp, #80
	bl	lfstrip
.LVL253:
	.loc 1 1560 0
	ldrb	r3, [sp, #80]	@ zero_extendqisi2
	cmp	r3, #0
	beq	.L316
	.loc 1 1563 0
	add	r2, sp, #16
	add	r7, sp, #48
	sub	r3, r2, #4
	str	r7, [sp]
	add	r0, sp, #80
	ldr	r1, .L358+4
	bl	sscanf
.LVL254:
	cmp	r0, #3
	bne	.L321
	.loc 1 1564 0
	add	r0, sp, #16
	ldr	r1, .L358+8
	bl	strcasecmp
.LVL255:
	cmp	r0, #0
	bne	.L321
	.loc 1 1572 0
	cmp	r6, #0
	beq	.L323
	.loc 1 1572 0 is_stmt 0 discriminator 1
	mov	r0, r6
	ldr	r1, .L358+12
	ldr	r2, [sp, #12]
	mov	r3, r7
	bl	fprintf
.LVL256:
.L323:
	.loc 1 1574 0 is_stmt 1
	ldr	r5, [sp, #12]
	ldr	r3, .L358+16
	cmp	r5, r3
	bhi	.L355
	.loc 1 1580 0
	ldr	r3, .L358+20
	ldr	r1, [r3]
.LBB84:
.LBB85:
	.loc 1 3048 0
	ldr	r3, .L358+24
.LBE85:
.LBE84:
	.loc 1 1580 0
	mov	r0, r1, lsr #16
.LBB88:
.LBB86:
	.loc 1 3048 0
	ldr	r2, [r3]
	ldrb	r3, [sp, #48]	@ zero_extendqisi2
.LBE86:
.LBE88:
	.loc 1 1580 0
	strh	r1, [sp, #16]	@ movhi
	strb	r0, [sp, #18]
.LVL257:
.LBB89:
.LBB87:
	.loc 1 3048 0
	add	r3, r2, r3
	ldrb	r3, [r3, #1]	@ zero_extendqisi2
	mov	r1, r7
	tst	r3, #8
	beq	.L325
.LVL258:
.L326:
	ldrb	ip, [r1, #1]!	@ zero_extendqisi2
.LVL259:
	add	ip, r2, ip
	ldrb	r3, [ip, #1]	@ zero_extendqisi2
	tst	r3, #8
	bne	.L326
.LVL260:
.L325:
.LBE87:
.LBE89:
	.loc 1 1581 0
	add	r0, sp, #18
	bl	strcpy
.LVL261:
	.loc 1 1584 0
	mvn	fp, #0
	ldr	r10, .L358
	b	.L329
.LVL262:
.L327:
	.loc 1 1596 0 discriminator 1
	ldr	r2, [r4, fp, asl #3]
	add	r10, r10, #8
	cmp	r2, #0
	beq	.L356
.LVL263:
.L329:
	.loc 1 1588 0
	ldr	r9, [r10, #4]
	add	r0, sp, #16
	mov	r1, r9
	bl	strcasecmp
.LVL264:
	cmp	r0, #0
	.loc 1 1587 0
	add	fp, fp, #1
.LVL265:
	.loc 1 1588 0
	bne	.L327
	.loc 1 1590 0
	ldr	r3, .L358+28
	ldr	r1, .L358+32
	add	r3, r3, fp, asl #3
	ldr	r0, [r3, #144]
	rsb	r3, r5, r5, asl #3
	add	r3, r1, r3, asl #2
	.loc 1 1591 0
	cmp	r6, #0
	.loc 1 1590 0
	str	r0, [r3, #12]
	.loc 1 1591 0
	beq	.L317
	.loc 1 1591 0 is_stmt 0 discriminator 1
	mov	r2, r9
	mov	r3, fp
	ldr	r1, .L358+36
	str	r5, [sp]
	mov	r0, r6
	bl	fprintf
.LVL266:
	.loc 1 1556 0 is_stmt 1 discriminator 1
	mov	r0, r8
	bl	dehfeof
.LVL267:
	cmp	r0, #0
	beq	.L357
.LVL268:
.L316:
	.loc 1 1604 0
	add	sp, sp, #1104
	add	sp, sp, #4
	.cfi_remember_state
	.cfi_def_cfa_offset 36
	@ sp needed
	ldmfd	sp!, {r4, r5, r6, r7, r8, r9, r10, fp, pc}
.LVL269:
.L356:
	.cfi_restore_state
	.loc 1 1599 0
	cmp	r6, #0
	beq	.L317
	.loc 1 1599 0 is_stmt 0 discriminator 1
	mov	r2, r7
	mov	r3, r5
	mov	r0, r6
	ldr	r1, .L358+40
	bl	fprintf
.LVL270:
	b	.L317
.LVL271:
.L321:
	.loc 1 1566 0 is_stmt 1
	cmp	r6, #0
	beq	.L316
	.loc 1 1566 0 is_stmt 0 discriminator 1
	mov	r0, r6
	add	r2, sp, #80
	ldr	r1, .L358+44
	bl	fprintf
.LVL272:
	.loc 1 1604 0 is_stmt 1 discriminator 1
	add	sp, sp, #1104
	add	sp, sp, #4
	.cfi_remember_state
	.cfi_def_cfa_offset 36
	@ sp needed
	ldmfd	sp!, {r4, r5, r6, r7, r8, r9, r10, fp, pc}
.LVL273:
.L355:
	.cfi_restore_state
	.loc 1 1576 0
	cmp	r6, #0
	beq	.L316
	.loc 1 1576 0 is_stmt 0 discriminator 1
	mov	r0, r6
	mov	r2, r5
	ldr	r1, .L358+48
	add	r3, r3, #1
	bl	fprintf
.LVL274:
	b	.L316
.L359:
	.align	2
.L358:
	.word	.LANCHOR3+144
	.word	.LC49
	.word	.LC50
	.word	.LC52
	.word	1075
	.word	.LC54
	.word	__ctype_ptr__
	.word	.LANCHOR3
	.word	states
	.word	.LC55
	.word	.LC56
	.word	.LC51
	.word	.LC53
	.cfi_endproc
.LFE10:
	.size	deh_procBexCodePointers, .-deh_procBexCodePointers
	.align	2
	.global	rstrip
	.type	rstrip, %function
rstrip:
.LFB33:
	.loc 1 3033 0 is_stmt 1
	.cfi_startproc
	@ args = 0, pretend = 0, frame = 0
	@ frame_needed = 0, uses_anonymous_args = 0
.LVL275:
	stmfd	sp!, {r4, lr}
	.cfi_def_cfa_offset 8
	.cfi_offset 4, -8
	.cfi_offset 14, -4
	.loc 1 3033 0
	mov	r4, r0
	.loc 1 3034 0
	bl	strlen
.LVL276:
	add	r3, r4, r0
.LVL277:
	.loc 1 3035 0
	cmp	r4, r3
	ldmcsfd	sp!, {r4, pc}
	ldr	r0, .L370
	ldrb	r1, [r3, #-1]	@ zero_extendqisi2
	ldr	r2, [r0]
	sub	r3, r3, #1
.LVL278:
	add	r2, r2, r1
	ldrb	r2, [r2, #1]	@ zero_extendqisi2
	tst	r2, #8
	ldmeqfd	sp!, {r4, pc}
	.loc 1 3036 0
	mov	ip, #0
.LVL279:
.L363:
	.loc 1 3035 0
	cmp	r3, r4
	.loc 1 3036 0
	strb	ip, [r3]
	.loc 1 3035 0
	ldmeqfd	sp!, {r4, pc}
	.loc 1 3035 0 is_stmt 0 discriminator 1
	ldrb	r1, [r3, #-1]!	@ zero_extendqisi2
.LVL280:
	ldr	r2, [r0]
	add	r2, r2, r1
	ldrb	r2, [r2, #1]	@ zero_extendqisi2
	tst	r2, #8
	bne	.L363
	ldmfd	sp!, {r4, pc}
.L371:
	.align	2
.L370:
	.word	__ctype_ptr__
	.cfi_endproc
.LFE33:
	.size	rstrip, .-rstrip
	.align	2
	.global	ptr_lstrip
	.type	ptr_lstrip, %function
ptr_lstrip:
.LFB34:
	.loc 1 3047 0 is_stmt 1
	.cfi_startproc
	@ args = 0, pretend = 0, frame = 0
	@ frame_needed = 0, uses_anonymous_args = 0
	@ link register save eliminated.
.LVL281:
	.loc 1 3048 0
	ldr	r2, .L379
	ldrb	r3, [r0]	@ zero_extendqisi2
	ldr	r2, [r2]
	add	r3, r2, r3
	ldrb	r3, [r3, #1]	@ zero_extendqisi2
	tst	r3, #8
	bxeq	lr
.LVL282:
.L374:
	ldrb	r3, [r0, #1]!	@ zero_extendqisi2
.LVL283:
	add	r3, r2, r3
	ldrb	r3, [r3, #1]	@ zero_extendqisi2
	tst	r3, #8
	bne	.L374
	.loc 1 3051 0
	bx	lr
.L380:
	.align	2
.L379:
	.word	__ctype_ptr__
	.cfi_endproc
.LFE34:
	.size	ptr_lstrip, .-ptr_lstrip
	.align	2
	.global	deh_GetData
	.type	deh_GetData, %function
deh_GetData:
.LFB36:
	.loc 1 3081 0
	.cfi_startproc
	@ args = 4, pretend = 0, frame = 40
	@ frame_needed = 0, uses_anonymous_args = 0
.LVL284:
	stmfd	sp!, {r4, r5, r6, r7, r8, r9, lr}
	.cfi_def_cfa_offset 28
	.cfi_offset 4, -28
	.cfi_offset 5, -24
	.cfi_offset 6, -20
	.cfi_offset 7, -16
	.cfi_offset 8, -12
	.cfi_offset 9, -8
	.cfi_offset 14, -4
	.loc 1 3090 0
	mov	lr, #0
	.loc 1 3092 0
	ldrb	ip, [r0]	@ zero_extendqisi2
	.loc 1 3081 0
	sub	sp, sp, #44
	.cfi_def_cfa_offset 72
	.loc 1 3092 0
	cmp	ip, lr
	.loc 1 3081 0
	mov	r6, r0
	mov	r5, r1
	mov	r7, r2
	mov	r4, r3
	.loc 1 3090 0
	strb	lr, [sp, #8]
	.loc 1 3091 0
	str	lr, [sp, #4]
.LVL285:
	.loc 1 3092 0
	beq	.L394
	.loc 1 3094 0
	cmp	ip, #61
	beq	.L395
	add	r6, r0, #1
	add	r2, sp, #7
.LVL286:
	b	.L384
.LVL287:
.L385:
	.loc 1 3092 0 discriminator 3
	cmp	lr, #32
	beq	.L418
	.loc 1 3094 0
	cmp	ip, #61
	beq	.L419
.LVL288:
.L384:
	.loc 1 3095 0 discriminator 2
	strb	ip, [r2, #1]!
	.loc 1 3092 0 discriminator 2
	mov	r3, r6
.LVL289:
	ldrb	ip, [r6], #1	@ zero_extendqisi2
	add	lr, lr, #1
.LVL290:
	cmp	ip, #0
	bne	.L385
	.loc 1 3092 0 is_stmt 0
	mov	r6, r3
	sub	lr, lr, #1
.LVL291:
.L382:
	.loc 1 3097 0 is_stmt 1
	add	r3, sp, #40
	mov	r8, #0
	add	lr, r3, lr
.LVL292:
	mov	r2, #0
	mov	r3, #0
	strb	r8, [lr, #-32]
.LVL293:
.L393:
.LBB94:
.LBB95:
	.loc 1 3048 0
	ldr	r1, .L420
.LBE95:
.LBE94:
	.loc 1 3121 0
	strd	r2, [r7]
.LVL294:
.LBB97:
.LBB96:
	.loc 1 3048 0
	ldr	r0, [r1]
	ldrb	r3, [sp, #8]	@ zero_extendqisi2
	add	r1, sp, #8
.LVL295:
	add	r3, r0, r3
	ldrb	r3, [r3, #1]	@ zero_extendqisi2
	tst	r3, #8
	beq	.L389
.LVL296:
.L390:
	ldrb	r2, [r1, #1]!	@ zero_extendqisi2
.LVL297:
	add	r2, r0, r2
	ldrb	r3, [r2, #1]	@ zero_extendqisi2
	tst	r3, #8
	bne	.L390
.LVL298:
.L389:
.LBE96:
.LBE97:
	.loc 1 3124 0
	mov	r0, r5
	bl	strcpy
.LVL299:
	.loc 1 3126 0
	cmp	r4, #0
	.loc 1 3127 0
	strne	r6, [r4]
.L402:
	.loc 1 3131 0
	mov	r0, r8
	add	sp, sp, #44
	.cfi_remember_state
	.cfi_def_cfa_offset 28
	@ sp needed
	ldmfd	sp!, {r4, r5, r6, r7, r8, r9, pc}
.LVL300:
.L418:
	.cfi_restore_state
	mov	lr, #31
.LVL301:
.L383:
	.loc 1 3097 0
	mov	r9, #0
	.loc 1 3104 0
	add	r6, r3, #1
	.loc 1 3097 0
	add	r2, sp, #40
	add	lr, r2, lr
.LBB98:
.LBB99:
	.loc 1 3059 0
	mov	r0, r6
.LVL302:
	add	r2, sp, #4
	ldr	r1, .L420+4
.LVL303:
.LBE99:
.LBE98:
	.loc 1 3097 0
	strb	r9, [lr, #-32]
.LVL304:
	.loc 1 3104 0
	ldrb	r8, [r3, #1]	@ zero_extendqisi2
.LVL305:
.LBB101:
.LBB100:
	.loc 1 3059 0
	bl	sscanf
.LVL306:
	.loc 1 3061 0
	cmp	r0, #1
	beq	.L387
	.loc 1 3060 0
	mov	r0, r6
	ldr	r1, .L420+8
	add	r2, sp, #4
.LVL307:
	bl	sscanf
.LVL308:
	.loc 1 3059 0
	cmp	r0, #1
	beq	.L387
	.loc 1 3061 0
	mov	r0, r6
	ldr	r1, .L420+12
	add	r2, sp, #4
.LVL309:
	bl	sscanf
.LVL310:
	.loc 1 3060 0
	cmp	r0, #1
	beq	.L387
	.loc 1 3062 0
	add	r2, sp, #4
.LVL311:
	mov	r0, r6
	ldr	r1, .L420+16
	bl	sscanf
.LVL312:
	.loc 1 3061 0
	cmp	r0, #1
	beq	.L387
.LBE100:
.LBE101:
	.loc 1 3115 0
	str	r9, [sp, #4]
.LVL313:
	mov	r2, #0
	mov	r3, #0
	.loc 1 3116 0
	mov	r8, #2
	b	.L393
.LVL314:
.L387:
	ldr	r2, [sp, #4]
	.loc 1 3104 0
	adds	r8, r8, #0
	movne	r8, #1
.LVL315:
	mov	r3, r2, asr #31
	b	.L393
.LVL316:
.L419:
	sub	lr, lr, #1
.LVL317:
	b	.L383
.LVL318:
.L394:
	.loc 1 3092 0
	mvn	lr, #0
	b	.L382
.L395:
	.loc 1 3094 0
	mov	r3, r0
.LVL319:
	mvn	lr, #0
	b	.L383
.L421:
	.align	2
.L420:
	.word	__ctype_ptr__
	.word	.LC60
	.word	.LC57
	.word	.LC58
	.word	.LC59
	.cfi_endproc
.LFE36:
	.size	deh_GetData, .-deh_GetData
	.align	2
	.type	deh_procBexMusic, %function
deh_procBexMusic:
.LFB30:
	.loc 1 2922 0
	.cfi_startproc
	@ args = 0, pretend = 0, frame = 1080
	@ frame_needed = 0, uses_anonymous_args = 0
.LVL320:
	stmfd	sp!, {r4, r5, r6, r7, r8, r9, r10, fp, lr}
	.cfi_def_cfa_offset 36
	.cfi_offset 4, -36
	.cfi_offset 5, -32
	.cfi_offset 6, -28
	.cfi_offset 7, -24
	.cfi_offset 8, -20
	.cfi_offset 9, -16
	.cfi_offset 10, -12
	.cfi_offset 11, -8
	.cfi_offset 14, -4
	.loc 1 2930 0
	subs	r5, r1, #0
	.loc 1 2922 0
	sub	sp, sp, #1088
	.cfi_def_cfa_offset 1124
	sub	sp, sp, #4
	.cfi_def_cfa_offset 1128
	.loc 1 2922 0
	mov	r4, r0
	mov	r6, r2
	.loc 1 2930 0
	beq	.L423
	.loc 1 2931 0
	ldr	r0, .L461
.LVL321:
	mov	r1, #1
.LVL322:
	mov	r2, #35
.LVL323:
	mov	r3, r5
	bl	fwrite
.LVL324:
.L423:
	.loc 1 2933 0
	mov	r1, r6
	add	r0, sp, #64
	mov	r2, #1024
	bl	strncpy
.LVL325:
.LBB102:
.LBB103:
	.loc 1 3048 0
	ldr	r6, .L461+4
.LVL326:
.LBE103:
.LBE102:
	.loc 1 2963 0
	ldr	r7, .L461+8
	.loc 1 2971 0
	ldr	r8, .L461+12
.L426:
	.loc 1 2935 0
	mov	r0, r4
	bl	dehfeof
.LVL327:
	subs	r9, r0, #0
	bne	.L422
.L460:
	.loc 1 2935 0 is_stmt 0 discriminator 1
	ldrb	r3, [sp, #64]	@ zero_extendqisi2
	tst	r3, #223
	beq	.L422
	.loc 1 2937 0 is_stmt 1
	add	r0, sp, #64
	mov	r1, #1024
	mov	r2, r4
	bl	dehfgets
.LVL328:
	cmp	r0, #0
	beq	.L422
	.loc 1 2939 0
	ldrb	r3, [sp, #64]	@ zero_extendqisi2
	cmp	r3, #35
	beq	.L426
	.loc 1 2941 0
	add	r0, sp, #64
	bl	lfstrip
.LVL329:
	.loc 1 2942 0
	ldrb	r3, [sp, #64]	@ zero_extendqisi2
	cmp	r3, #0
	beq	.L422
	.loc 1 2944 0
	add	r1, sp, #32
	str	r5, [sp]
	sub	r2, r1, #8
	add	r3, sp, #12
	add	r0, sp, #64
	bl	deh_GetData
.LVL330:
	cmp	r0, #0
	bne	.L428
	.loc 1 2946 0
	cmp	r5, #0
	beq	.L426
	.loc 1 2947 0
	ldr	r1, .L461+16
	add	r2, sp, #64
	mov	r0, r5
	bl	fprintf
.LVL331:
	.loc 1 2935 0
	mov	r0, r4
	bl	dehfeof
.LVL332:
	subs	r9, r0, #0
	beq	.L460
.L422:
	.loc 1 2977 0
	add	sp, sp, #1088
	add	sp, sp, #4
	.cfi_remember_state
	.cfi_def_cfa_offset 36
	@ sp needed
	ldmfd	sp!, {r4, r5, r6, r7, r8, r9, r10, fp, pc}
.LVL333:
.L428:
	.cfi_restore_state
	.loc 1 2952 0
	ldr	r1, [sp, #12]
.LVL334:
	.loc 1 2951 0
	str	r9, [sp, #16]
	strh	r9, [sp, #20]	@ movhi
	strb	r9, [sp, #22]
.LBB105:
.LBB104:
	.loc 1 3048 0
	ldrb	r3, [r1]	@ zero_extendqisi2
	ldr	r2, [r6]
	add	r3, r2, r3
	ldrb	r3, [r3, #1]	@ zero_extendqisi2
	tst	r3, #8
	beq	.L431
.LVL335:
.L432:
	ldrb	ip, [r1, #1]!	@ zero_extendqisi2
.LVL336:
	add	ip, r2, ip
	ldrb	r3, [ip, #1]	@ zero_extendqisi2
	tst	r3, #8
	bne	.L432
.LVL337:
.L431:
.LBE104:
.LBE105:
	.loc 1 2952 0
	mov	r2, #6
	add	r0, sp, #16
	bl	strncpy
.LVL338:
	.loc 1 2953 0
	add	r0, sp, #16
	bl	strlen
.LVL339:
	.loc 1 2954 0
	sub	r0, r0, #1
.LVL340:
	cmp	r0, #5
	bhi	.L433
.LVL341:
	.loc 1 2963 0
	ldr	r9, [r7, #4]
	cmp	r9, #0
	movne	r10, #1
	ldrne	fp, .L461+20
	bne	.L438
	b	.L426
.LVL342:
.L436:
	ldr	r9, [fp, #4]!
	.loc 1 2974 0
	add	r10, r10, #1
.LVL343:
	.loc 1 2963 0
	cmp	r9, #0
	beq	.L426
.LVL344:
.L438:
	.loc 1 2965 0
	mov	r0, r9
	add	r1, sp, #32
	mov	r2, #6
	bl	strncasecmp
.LVL345:
	cmp	r0, #0
	bne	.L436
	.loc 1 2967 0
	cmp	r5, #0
	beq	.L437
	.loc 1 2968 0
	mov	r3, r9
	mov	r0, r5
	ldr	r1, .L461+24
	add	r2, sp, #16
	bl	fprintf
.LVL346:
.L437:
	.loc 1 2971 0
	add	r0, sp, #16
	mov	r1, #1
	mov	r2, #0
	bl	Z_Strdup
.LVL347:
	str	r0, [r8, r10, asl #4]
	.loc 1 2972 0
	b	.L426
.LVL348:
.L433:
	.loc 1 2956 0
	cmp	r5, #0
	beq	.L426
	.loc 1 2957 0
	add	r2, sp, #16
	mov	r0, r5
.LVL349:
	ldr	r1, .L461+28
	bl	fprintf
.LVL350:
	b	.L426
.L462:
	.align	2
.L461:
	.word	.LC61
	.word	__ctype_ptr__
	.word	deh_musicnames
	.word	S_music
	.word	.LC62
	.word	deh_musicnames+4
	.word	.LC64
	.word	.LC63
	.cfi_endproc
.LFE30:
	.size	deh_procBexMusic, .-deh_procBexMusic
	.align	2
	.type	deh_procBexSounds, %function
deh_procBexSounds:
.LFB29:
	.loc 1 2863 0
	.cfi_startproc
	@ args = 0, pretend = 0, frame = 1080
	@ frame_needed = 0, uses_anonymous_args = 0
.LVL351:
	stmfd	sp!, {r4, r5, r6, r7, r8, r9, r10, fp, lr}
	.cfi_def_cfa_offset 36
	.cfi_offset 4, -36
	.cfi_offset 5, -32
	.cfi_offset 6, -28
	.cfi_offset 7, -24
	.cfi_offset 8, -20
	.cfi_offset 9, -16
	.cfi_offset 10, -12
	.cfi_offset 11, -8
	.cfi_offset 14, -4
	.loc 1 2871 0
	subs	r5, r1, #0
	.loc 1 2863 0
	sub	sp, sp, #1088
	.cfi_def_cfa_offset 1124
	sub	sp, sp, #4
	.cfi_def_cfa_offset 1128
	.loc 1 2863 0
	mov	r4, r0
	mov	r6, r2
	.loc 1 2871 0
	beq	.L464
	.loc 1 2872 0
	ldr	r0, .L502
.LVL352:
	mov	r1, #1
.LVL353:
	mov	r2, #35
.LVL354:
	mov	r3, r5
	bl	fwrite
.LVL355:
.L464:
	.loc 1 2874 0
	mov	r1, r6
	add	r0, sp, #64
	mov	r2, #1024
	bl	strncpy
.LVL356:
.LBB106:
.LBB107:
	.loc 1 3048 0
	ldr	r6, .L502+4
.LVL357:
.LBE107:
.LBE106:
	.loc 1 2904 0
	ldr	r7, .L502+8
	.loc 1 2912 0
	ldr	r8, .L502+12
.L467:
	.loc 1 2876 0
	mov	r0, r4
	bl	dehfeof
.LVL358:
	subs	r9, r0, #0
	bne	.L463
.L501:
	.loc 1 2876 0 is_stmt 0 discriminator 1
	ldrb	r3, [sp, #64]	@ zero_extendqisi2
	tst	r3, #223
	beq	.L463
	.loc 1 2878 0 is_stmt 1
	add	r0, sp, #64
	mov	r1, #1024
	mov	r2, r4
	bl	dehfgets
.LVL359:
	cmp	r0, #0
	beq	.L463
	.loc 1 2880 0
	ldrb	r3, [sp, #64]	@ zero_extendqisi2
	cmp	r3, #35
	beq	.L467
	.loc 1 2882 0
	add	r0, sp, #64
	bl	lfstrip
.LVL360:
	.loc 1 2883 0
	ldrb	r3, [sp, #64]	@ zero_extendqisi2
	cmp	r3, #0
	beq	.L463
	.loc 1 2885 0
	add	r1, sp, #32
	str	r5, [sp]
	sub	r2, r1, #8
	add	r3, sp, #12
	add	r0, sp, #64
	bl	deh_GetData
.LVL361:
	cmp	r0, #0
	bne	.L469
	.loc 1 2887 0
	cmp	r5, #0
	beq	.L467
	.loc 1 2888 0
	ldr	r1, .L502+16
	add	r2, sp, #64
	mov	r0, r5
	bl	fprintf
.LVL362:
	.loc 1 2876 0
	mov	r0, r4
	bl	dehfeof
.LVL363:
	subs	r9, r0, #0
	beq	.L501
.L463:
	.loc 1 2918 0
	add	sp, sp, #1088
	add	sp, sp, #4
	.cfi_remember_state
	.cfi_def_cfa_offset 36
	@ sp needed
	ldmfd	sp!, {r4, r5, r6, r7, r8, r9, r10, fp, pc}
.LVL364:
.L469:
	.cfi_restore_state
	.loc 1 2893 0
	ldr	r1, [sp, #12]
.LVL365:
	.loc 1 2892 0
	str	r9, [sp, #16]
	strh	r9, [sp, #20]	@ movhi
	strb	r9, [sp, #22]
.LBB109:
.LBB108:
	.loc 1 3048 0
	ldrb	r3, [r1]	@ zero_extendqisi2
	ldr	r2, [r6]
	add	r3, r2, r3
	ldrb	r3, [r3, #1]	@ zero_extendqisi2
	tst	r3, #8
	beq	.L472
.LVL366:
.L473:
	ldrb	ip, [r1, #1]!	@ zero_extendqisi2
.LVL367:
	add	ip, r2, ip
	ldrb	r3, [ip, #1]	@ zero_extendqisi2
	tst	r3, #8
	bne	.L473
.LVL368:
.L472:
.LBE108:
.LBE109:
	.loc 1 2893 0
	mov	r2, #6
	add	r0, sp, #16
	bl	strncpy
.LVL369:
	.loc 1 2894 0
	add	r0, sp, #16
	bl	strlen
.LVL370:
	.loc 1 2895 0
	sub	r0, r0, #1
.LVL371:
	cmp	r0, #5
	bhi	.L474
.LVL372:
	.loc 1 2904 0
	ldr	r9, [r7, #4]
	cmp	r9, #0
	movne	r10, #1
	ldrne	fp, .L502+20
	bne	.L479
	b	.L467
.LVL373:
.L477:
	ldr	r9, [fp, #4]!
	.loc 1 2915 0
	add	r10, r10, #1
.LVL374:
	.loc 1 2904 0
	cmp	r9, #0
	beq	.L467
.LVL375:
.L479:
	.loc 1 2906 0
	mov	r0, r9
	add	r1, sp, #32
	mov	r2, #6
	bl	strncasecmp
.LVL376:
	cmp	r0, #0
	bne	.L477
	.loc 1 2908 0
	cmp	r5, #0
	beq	.L478
	.loc 1 2909 0
	mov	r3, r9
	mov	r0, r5
	ldr	r1, .L502+24
	add	r2, sp, #16
	bl	fprintf
.LVL377:
.L478:
	.loc 1 2912 0
	add	r0, sp, #16
	mov	r1, #1
	mov	r2, #0
	bl	Z_Strdup
.LVL378:
	add	r10, r10, r10, asl #3
.LVL379:
	str	r0, [r8, r10, asl #2]
	.loc 1 2913 0
	b	.L467
.LVL380:
.L474:
	.loc 1 2897 0
	cmp	r5, #0
	beq	.L467
	.loc 1 2898 0
	add	r2, sp, #16
	mov	r0, r5
.LVL381:
	ldr	r1, .L502+28
	bl	fprintf
.LVL382:
	b	.L467
.L503:
	.align	2
.L502:
	.word	.LC65
	.word	__ctype_ptr__
	.word	deh_soundnames
	.word	S_sfx
	.word	.LC62
	.word	deh_soundnames+4
	.word	.LC67
	.word	.LC66
	.cfi_endproc
.LFE29:
	.size	deh_procBexSounds, .-deh_procBexSounds
	.align	2
	.type	deh_procBexSprites, %function
deh_procBexSprites:
.LFB28:
	.loc 1 2805 0
	.cfi_startproc
	@ args = 0, pretend = 0, frame = 1080
	@ frame_needed = 0, uses_anonymous_args = 0
.LVL383:
	stmfd	sp!, {r4, r5, r6, r7, r8, r9, r10, fp, lr}
	.cfi_def_cfa_offset 36
	.cfi_offset 4, -36
	.cfi_offset 5, -32
	.cfi_offset 6, -28
	.cfi_offset 7, -24
	.cfi_offset 8, -20
	.cfi_offset 9, -16
	.cfi_offset 10, -12
	.cfi_offset 11, -8
	.cfi_offset 14, -4
	.loc 1 2813 0
	subs	r5, r1, #0
	.loc 1 2805 0
	sub	sp, sp, #1088
	.cfi_def_cfa_offset 1124
	sub	sp, sp, #4
	.cfi_def_cfa_offset 1128
	.loc 1 2805 0
	mov	r4, r0
	mov	r6, r2
	.loc 1 2813 0
	beq	.L505
	.loc 1 2814 0
	ldr	r0, .L544
.LVL384:
	mov	r1, #1
.LVL385:
	mov	r2, #36
.LVL386:
	mov	r3, r5
	bl	fwrite
.LVL387:
.L505:
	.loc 1 2816 0
	mov	r1, r6
	add	r0, sp, #64
	mov	r2, #1024
	bl	strncpy
.LVL388:
.LBB110:
.LBB111:
	.loc 1 3048 0
	ldr	r6, .L544+4
.LVL389:
.LBE111:
.LBE110:
	.loc 1 2845 0
	ldr	r7, .L544+8
	.loc 1 2853 0
	ldr	r8, .L544+12
.L508:
	.loc 1 2818 0
	mov	r0, r4
	bl	dehfeof
.LVL390:
	subs	r9, r0, #0
	bne	.L504
.L542:
	.loc 1 2818 0 is_stmt 0 discriminator 1
	ldrb	r3, [sp, #64]	@ zero_extendqisi2
	tst	r3, #223
	beq	.L504
	.loc 1 2820 0 is_stmt 1
	add	r0, sp, #64
	mov	r1, #1024
	mov	r2, r4
	bl	dehfgets
.LVL391:
	cmp	r0, #0
	beq	.L504
	.loc 1 2822 0
	ldrb	r3, [sp, #64]	@ zero_extendqisi2
	cmp	r3, #35
	beq	.L508
	.loc 1 2824 0
	add	r0, sp, #64
	bl	lfstrip
.LVL392:
	.loc 1 2825 0
	ldrb	r3, [sp, #64]	@ zero_extendqisi2
	cmp	r3, #0
	beq	.L504
	.loc 1 2827 0
	add	r1, sp, #32
	str	r5, [sp]
	sub	r2, r1, #8
	add	r3, sp, #12
	add	r0, sp, #64
	bl	deh_GetData
.LVL393:
	cmp	r0, #0
	bne	.L510
	.loc 1 2829 0
	cmp	r5, #0
	beq	.L508
	.loc 1 2830 0
	ldr	r1, .L544+16
	add	r2, sp, #64
	mov	r0, r5
	bl	fprintf
.LVL394:
	.loc 1 2818 0
	mov	r0, r4
	bl	dehfeof
.LVL395:
	subs	r9, r0, #0
	beq	.L542
.L504:
	.loc 1 2859 0
	add	sp, sp, #1088
	add	sp, sp, #4
	.cfi_remember_state
	.cfi_def_cfa_offset 36
	@ sp needed
	ldmfd	sp!, {r4, r5, r6, r7, r8, r9, r10, fp, pc}
.LVL396:
.L510:
	.cfi_restore_state
	.loc 1 2835 0
	ldr	r1, [sp, #12]
.LVL397:
	.loc 1 2834 0
	str	r9, [sp, #16]
	strb	r9, [sp, #20]
.LBB113:
.LBB112:
	.loc 1 3048 0
	ldrb	r3, [r1]	@ zero_extendqisi2
	ldr	r2, [r6]
	add	r3, r2, r3
	ldrb	r3, [r3, #1]	@ zero_extendqisi2
	tst	r3, #8
	beq	.L513
.LVL398:
.L514:
	ldrb	ip, [r1, #1]!	@ zero_extendqisi2
.LVL399:
	add	ip, r2, ip
	ldrb	r3, [ip, #1]	@ zero_extendqisi2
	tst	r3, #8
	bne	.L514
.LVL400:
.L513:
.LBE112:
.LBE113:
	.loc 1 2835 0
	mov	r2, #4
	add	r0, sp, #16
	bl	strncpy
.LVL401:
	.loc 1 2836 0
	add	r0, sp, #16
	bl	strlen
.LVL402:
	cmp	r0, #4
	beq	.L543
	.loc 1 2838 0
	cmp	r5, #0
	beq	.L508
	.loc 1 2839 0
	add	r2, sp, #16
	mov	r0, r5
	ldr	r1, .L544+20
	bl	fprintf
.LVL403:
	b	.L508
.L543:
.LVL404:
	.loc 1 2845 0
	ldr	r9, [r7]
	cmp	r9, #0
	movne	r10, #0
	ldrne	fp, .L544+8
	bne	.L520
	b	.L508
.LVL405:
.L518:
	ldr	r9, [fp, #4]!
	.loc 1 2856 0
	add	r10, r10, #1
.LVL406:
	.loc 1 2845 0
	cmp	r9, #0
	beq	.L508
.LVL407:
.L520:
	.loc 1 2847 0
	mov	r0, r9
	add	r1, sp, #32
	mov	r2, #4
	bl	strncasecmp
.LVL408:
	cmp	r0, #0
	bne	.L518
	.loc 1 2849 0
	cmp	r5, #0
	beq	.L519
	.loc 1 2850 0
	mov	r3, r9
	mov	r0, r5
	ldr	r1, .L544+24
	add	r2, sp, #16
	bl	fprintf
.LVL409:
.L519:
	.loc 1 2853 0
	add	r0, sp, #16
	mov	r1, #1
	mov	r2, #0
	bl	Z_Strdup
.LVL410:
	str	r0, [r8, r10, asl #2]
	.loc 1 2854 0
	b	.L508
.L545:
	.align	2
.L544:
	.word	.LC68
	.word	__ctype_ptr__
	.word	deh_spritenames
	.word	sprnames
	.word	.LC62
	.word	.LC69
	.word	.LC70
	.cfi_endproc
.LFE28:
	.size	deh_procBexSprites, .-deh_procBexSprites
	.align	2
	.type	deh_procHelperThing, %function
deh_procHelperThing:
.LFB27:
	.loc 1 2770 0
	.cfi_startproc
	@ args = 0, pretend = 0, frame = 1064
	@ frame_needed = 0, uses_anonymous_args = 0
.LVL411:
	stmfd	sp!, {r4, r5, r6, r7, lr}
	.cfi_def_cfa_offset 20
	.cfi_offset 4, -20
	.cfi_offset 5, -16
	.cfi_offset 6, -12
	.cfi_offset 7, -8
	.cfi_offset 14, -4
	sub	sp, sp, #1072
	.cfi_def_cfa_offset 1092
	sub	sp, sp, #4
	.cfi_def_cfa_offset 1096
	.loc 1 2770 0
	mov	r4, r1
	mov	r5, r0
	.loc 1 2775 0
	mov	r1, r2
.LVL412:
	add	r0, sp, #48
.LVL413:
	mov	r2, #1024
.LVL414:
	bl	strncpy
.LVL415:
	.loc 1 2793 0
	ldr	r7, .L564
.L547:
	.loc 1 2776 0
	mov	r0, r5
	bl	dehfeof
.LVL416:
	subs	r6, r0, #0
	bne	.L546
.L563:
	.loc 1 2776 0 is_stmt 0 discriminator 1
	ldrb	r2, [sp, #48]	@ zero_extendqisi2
	tst	r2, #223
	beq	.L546
	.loc 1 2778 0 is_stmt 1
	add	r0, sp, #48
	mov	r1, #1024
	mov	r2, r5
	bl	dehfgets
.LVL417:
	cmp	r0, #0
	beq	.L546
	.loc 1 2779 0
	add	r0, sp, #48
	bl	lfstrip
.LVL418:
	.loc 1 2780 0
	ldrb	r3, [sp, #48]	@ zero_extendqisi2
	cmp	r3, #0
	beq	.L546
	.loc 1 2781 0
	add	r1, sp, #16
	str	r4, [sp]
	mov	r3, r6
	sub	r2, r1, #8
	add	r0, sp, #48
	bl	deh_GetData
.LVL419:
	cmp	r0, #0
	bne	.L550
	.loc 1 2783 0
	cmp	r4, #0
	beq	.L547
	.loc 1 2783 0 is_stmt 0 discriminator 1
	ldr	r1, .L564+4
	add	r2, sp, #48
	mov	r0, r4
	bl	fprintf
.LVL420:
	.loc 1 2776 0 is_stmt 1 discriminator 1
	mov	r0, r5
	bl	dehfeof
.LVL421:
	subs	r6, r0, #0
	beq	.L563
.L546:
	.loc 1 2796 0
	add	sp, sp, #1072
	add	sp, sp, #4
	.cfi_remember_state
	.cfi_def_cfa_offset 20
	@ sp needed
	ldmfd	sp!, {r4, r5, r6, r7, pc}
.LVL422:
.L550:
	.cfi_restore_state
	.loc 1 2787 0
	cmp	r4, #0
	beq	.L553
	.loc 1 2789 0
	ldr	r1, .L564+8
	add	r2, sp, #16
	mov	r0, r4
	bl	fprintf
.LVL423:
	.loc 1 2790 0
	mov	r0, r4
	ldr	r1, .L564+12
	ldr	r2, [sp, #8]
	bl	fprintf
.LVL424:
.L553:
	.loc 1 2792 0
	add	r0, sp, #16
	ldr	r1, .L564+16
	mov	r2, #4
	bl	strncasecmp
.LVL425:
	cmp	r0, #0
	.loc 1 2793 0
	ldreq	r3, [sp, #8]
	streq	r3, [r7, #3676]
	b	.L547
.L565:
	.align	2
.L564:
	.word	.LANCHOR2
	.word	.LC62
	.word	.LC71
	.word	.LC72
	.word	.LC73
	.cfi_endproc
.LFE27:
	.size	deh_procHelperThing, .-deh_procHelperThing
	.align	2
	.type	deh_procStrings, %function
deh_procStrings:
.LFB25:
	.loc 1 2620 0
	.cfi_startproc
	@ args = 0, pretend = 0, frame = 1072
	@ frame_needed = 0, uses_anonymous_args = 0
.LVL426:
	stmfd	sp!, {r4, r5, r6, r7, r8, r9, r10, fp, lr}
	.cfi_def_cfa_offset 36
	.cfi_offset 4, -36
	.cfi_offset 5, -32
	.cfi_offset 6, -28
	.cfi_offset 7, -24
	.cfi_offset 8, -20
	.cfi_offset 9, -16
	.cfi_offset 10, -12
	.cfi_offset 11, -8
	.cfi_offset 14, -4
	.loc 1 2631 0
	subs	r6, r1, #0
	.loc 1 2620 0
	sub	sp, sp, #1072
	.cfi_def_cfa_offset 1108
	sub	sp, sp, #12
	.cfi_def_cfa_offset 1120
	.loc 1 2620 0
	mov	r7, r0
	mov	r4, r2
	.loc 1 2631 0
	beq	.L567
	.loc 1 2631 0 is_stmt 0 discriminator 1
	ldr	r0, .L614
.LVL427:
	mov	r1, #1
.LVL428:
	mov	r2, #40
.LVL429:
	mov	r3, r6
	bl	fwrite
.LVL430:
.L567:
	.loc 1 2633 0 is_stmt 1
	ldr	r5, .L614+4
	ldr	r2, [r5, #-1552]
	cmp	r2, #0
	beq	.L611
.L568:
	.loc 1 2635 0
	mov	r0, #0
	.loc 1 2636 0
	mov	r1, r4
	.loc 1 2635 0
	strb	r0, [r2]
	.loc 1 2636 0
	add	r0, sp, #56
	mov	r2, #1024
	bl	strncpy
.LVL431:
	.loc 1 2645 0
	ldr	r9, .L614+4
	ldr	r4, .L614+8
.LVL432:
.LBB114:
.LBB115:
	.loc 1 3048 0
	ldr	r8, .L614+12
.LVL433:
.L571:
.LBE115:
.LBE114:
	.loc 1 2639 0
	mov	r0, r7
	bl	dehfeof
.LVL434:
	cmp	r0, #0
	bne	.L566
.L613:
	.loc 1 2639 0 is_stmt 0 discriminator 1
	ldrb	r3, [sp, #56]	@ zero_extendqisi2
	cmp	r3, #0
	beq	.L566
	.loc 1 2641 0 is_stmt 1
	add	r0, sp, #56
	mov	r1, #1024
	mov	r2, r7
	bl	dehfgets
.LVL435:
	cmp	r0, #0
	beq	.L566
	.loc 1 2642 0
	ldrb	r3, [sp, #56]	@ zero_extendqisi2
	cmp	r3, #35
	beq	.L571
	.loc 1 2643 0
	add	r0, sp, #56
	bl	lfstrip
.LVL436:
	.loc 1 2644 0
	ldrb	r3, [sp, #56]	@ zero_extendqisi2
	cmp	r3, #0
	beq	.L566
	.loc 1 2645 0
	ldr	r10, [r5, #-1552]
	ldrb	r3, [r10]	@ zero_extendqisi2
	cmp	r3, #0
	bne	.L574
	b	.L612
.L580:
	.loc 1 2657 0
	cmp	r6, #0
	.loc 1 2656 0
	str	r1, [r4, #3680]
	.loc 1 2657 0
	beq	.L579
	.loc 1 2657 0 is_stmt 0 discriminator 1
	mov	r2, r1
	mov	r3, r0
	ldr	r1, .L614+16
	mov	r0, r6
	bl	fprintf
.LVL437:
	ldr	r10, [r5, #-1552]
	ldr	r1, [r4, #3680]
.L579:
	.loc 1 2660 0 is_stmt 1
	mov	r0, r10
	mov	r2, #1
	mov	r3, #0
	bl	Z_Realloc
.LVL438:
	mov	r10, r0
	str	r0, [r5, #-1552]
.L574:
	.loc 1 2653 0
	mov	r0, r10
	bl	strlen
.LVL439:
	mov	fp, r0
	add	r0, sp, #56
	bl	strlen
.LVL440:
	ldr	r2, [r4, #3680]
	add	r1, r0, fp
	cmp	r1, r2
	bhi	.L580
	.loc 1 2663 0
	ldrb	r3, [r10]	@ zero_extendqisi2
.LBB118:
.LBB116:
	.loc 1 3048 0
	ldr	r2, [r8]
.LBE116:
.LBE118:
	.loc 1 2663 0
	cmp	r3, #0
	ldreq	r1, [sp, #12]
	addne	r1, sp, #56
.LVL441:
.LBB119:
.LBB117:
	.loc 1 3048 0
	ldrb	r3, [r1]	@ zero_extendqisi2
	add	r3, r2, r3
	ldrb	r3, [r3, #1]	@ zero_extendqisi2
	tst	r3, #8
	beq	.L582
.LVL442:
.L583:
	ldrb	r3, [r1, #1]!	@ zero_extendqisi2
.LVL443:
	add	r3, r2, r3
	ldrb	r3, [r3, #1]	@ zero_extendqisi2
	tst	r3, #8
	bne	.L583
.LVL444:
.L582:
.LBE117:
.LBE119:
	.loc 1 2663 0
	add	r0, r10, fp
	bl	strcpy
.LVL445:
	.loc 1 2664 0
	mov	r0, r10
	bl	rstrip
.LVL446:
	.loc 1 2670 0
	mov	r0, r10
	bl	strlen
.LVL447:
	sub	r0, r0, #1
	ldrb	r3, [r10, r0]	@ zero_extendqisi2
	cmp	r3, #92
	.loc 1 2672 0
	moveq	r3, #0
	streqb	r3, [r10, r0]
	.loc 1 2670 0
	beq	.L571
	.loc 1 2675 0
	ldrb	r3, [r10]	@ zero_extendqisi2
	cmp	r3, #0
	beq	.L571
	.loc 1 2678 0
	mov	r2, r10
	add	r0, sp, #24
	mov	r1, #0
	mov	r3, r6
	bl	deh_procStringSub
.LVL448:
	.loc 1 2681 0
	clz	r0, r0
.LVL449:
	cmp	r6, #0
	mov	r0, r0, lsr #5
	moveq	r0, #0
	cmp	r0, #0
	beq	.L586
	.loc 1 2681 0 is_stmt 0 discriminator 1
	add	r2, sp, #24
	mov	r0, r6
	ldr	r1, .L614+20
	bl	fprintf
.LVL450:
.L586:
	.loc 1 2684 0 is_stmt 1
	mov	r2, #0
	ldr	r3, [r5, #-1552]
	.loc 1 2639 0
	mov	r0, r7
	.loc 1 2684 0
	strb	r2, [r3]
	.loc 1 2639 0
	bl	dehfeof
.LVL451:
	cmp	r0, #0
	beq	.L613
.L566:
	.loc 1 2688 0
	add	sp, sp, #1072
	add	sp, sp, #12
	.cfi_remember_state
	.cfi_def_cfa_offset 36
	@ sp needed
	ldmfd	sp!, {r4, r5, r6, r7, r8, r9, r10, fp, pc}
.LVL452:
.L612:
	.cfi_restore_state
	.loc 1 2647 0
	add	r1, sp, #24
	str	r6, [sp]
	sub	r2, r1, #8
	sub	r3, r1, #12
	add	r0, sp, #56
	bl	deh_GetData
.LVL453:
	cmp	r0, #0
	ldrne	r10, [r9, #-1552]
	bne	.L574
.L575:
	.loc 1 2649 0
	cmp	r6, #0
	beq	.L571
	.loc 1 2649 0 is_stmt 0 discriminator 1
	mov	r0, r6
	ldr	r1, .L614+24
	add	r2, sp, #56
	bl	fprintf
.LVL454:
	b	.L571
.LVL455:
.L611:
	.loc 1 2633 0 is_stmt 1 discriminator 1
	ldr	r1, .L614+8
	ldr	r0, [r1, #3680]
	mov	r1, #1
	bl	Z_Malloc
.LVL456:
	mov	r2, r0
	str	r0, [r5, #-1552]
	b	.L568
.L615:
	.align	2
.L614:
	.word	.LC74
	.word	.LANCHOR1
	.word	.LANCHOR2
	.word	__ctype_ptr__
	.word	.LC75
	.word	.LC76
	.word	.LC62
	.cfi_endproc
.LFE25:
	.size	deh_procStrings, .-deh_procStrings
	.align	2
	.type	deh_procMisc, %function
deh_procMisc:
.LFB22:
	.loc 1 2363 0
	.cfi_startproc
	@ args = 0, pretend = 0, frame = 1064
	@ frame_needed = 0, uses_anonymous_args = 0
.LVL457:
	stmfd	sp!, {r4, r5, r6, lr}
	.cfi_def_cfa_offset 16
	.cfi_offset 4, -16
	.cfi_offset 5, -12
	.cfi_offset 6, -8
	.cfi_offset 14, -4
	sub	sp, sp, #1072
	.cfi_def_cfa_offset 1088
	.loc 1 2363 0
	mov	r4, r1
	mov	r5, r0
	.loc 1 2368 0
	mov	r1, r2
.LVL458:
	add	r0, sp, #48
.LVL459:
	mov	r2, #1024
.LVL460:
	bl	strncpy
.LVL461:
.L617:
	.loc 1 2369 0
	mov	r0, r5
	bl	dehfeof
.LVL462:
	subs	r6, r0, #0
	bne	.L616
.L657:
	.loc 1 2369 0 is_stmt 0 discriminator 1
	ldrb	r2, [sp, #48]	@ zero_extendqisi2
	tst	r2, #223
	beq	.L616
	.loc 1 2371 0 is_stmt 1
	add	r0, sp, #48
	mov	r1, #1024
	mov	r2, r5
	bl	dehfgets
.LVL463:
	cmp	r0, #0
	beq	.L616
	.loc 1 2372 0
	add	r0, sp, #48
	bl	lfstrip
.LVL464:
	.loc 1 2373 0
	ldrb	r3, [sp, #48]	@ zero_extendqisi2
	cmp	r3, #0
	beq	.L616
	.loc 1 2374 0
	add	r1, sp, #16
	str	r4, [sp]
	mov	r3, r6
	sub	r2, r1, #8
	add	r0, sp, #48
	bl	deh_GetData
.LVL465:
	cmp	r0, #0
	bne	.L620
	.loc 1 2376 0
	cmp	r4, #0
	beq	.L617
	.loc 1 2376 0 is_stmt 0 discriminator 1
	ldr	r1, .L662
	add	r2, sp, #48
	mov	r0, r4
	bl	fprintf
.LVL466:
	.loc 1 2369 0 is_stmt 1 discriminator 1
	mov	r0, r5
	bl	dehfeof
.LVL467:
	subs	r6, r0, #0
	beq	.L657
.L616:
	.loc 1 2440 0
	add	sp, sp, #1072
	.cfi_remember_state
	.cfi_def_cfa_offset 16
	@ sp needed
	ldmfd	sp!, {r4, r5, r6, pc}
.LVL468:
.L620:
	.cfi_restore_state
	.loc 1 2380 0
	cmp	r4, #0
	beq	.L623
	.loc 1 2380 0 is_stmt 0 discriminator 1
	mov	r0, r4
	ldr	r1, .L662+4
	add	r2, sp, #16
	bl	fprintf
.LVL469:
.L623:
	.loc 1 2382 0 is_stmt 1
	add	r0, sp, #16
	ldr	r1, .L662+8
	bl	strcasecmp
.LVL470:
	cmp	r0, #0
	.loc 1 2383 0
	ldreq	r2, [sp, #8]
	ldreq	r3, .L662+12
	streq	r2, [r3]
	beq	.L617
.L624:
	.loc 1 2385 0
	add	r0, sp, #16
	ldr	r1, .L662+16
	bl	strcasecmp
.LVL471:
	cmp	r0, #0
	.loc 1 2386 0
	ldreq	r2, [sp, #8]
	ldreq	r3, .L662+20
	streq	r2, [r3]
	beq	.L617
.L625:
	.loc 1 2388 0
	add	r0, sp, #16
	ldr	r1, .L662+24
	bl	strcasecmp
.LVL472:
	cmp	r0, #0
	.loc 1 2389 0
	ldreq	r2, [sp, #8]
	ldreq	r3, .L662+28
	streq	r2, [r3]
	beq	.L617
.L626:
	.loc 1 2391 0
	add	r0, sp, #16
	ldr	r1, .L662+32
	bl	strcasecmp
.LVL473:
	cmp	r0, #0
	.loc 1 2392 0
	ldreq	r2, [sp, #8]
	ldreq	r3, .L662+36
	streq	r2, [r3]
	beq	.L617
.L627:
	.loc 1 2394 0
	add	r0, sp, #16
	ldr	r1, .L662+40
	bl	strcasecmp
.LVL474:
	cmp	r0, #0
	beq	.L658
	.loc 1 2397 0
	add	r0, sp, #16
	ldr	r1, .L662+44
	bl	strcasecmp
.LVL475:
	cmp	r0, #0
	bne	.L629
	.loc 1 2398 0
	ldr	r2, [sp, #8]
	ldr	r3, .L662+48
	str	r2, [r3]
	b	.L617
.L658:
	.loc 1 2395 0
	ldr	r2, [sp, #8]
	ldr	r3, .L662+52
	str	r2, [r3]
	b	.L617
.L629:
	.loc 1 2400 0
	add	r0, sp, #16
	ldr	r1, .L662+56
	bl	strcasecmp
.LVL476:
	cmp	r0, #0
	beq	.L659
	.loc 1 2403 0
	add	r0, sp, #16
	ldr	r1, .L662+60
	bl	strcasecmp
.LVL477:
	cmp	r0, #0
	bne	.L631
	.loc 1 2404 0
	ldr	r2, [sp, #8]
	ldr	r3, .L662+64
	str	r2, [r3]
	b	.L617
.L659:
	.loc 1 2401 0
	ldr	r2, [sp, #8]
	ldr	r3, .L662+68
	str	r2, [r3]
	b	.L617
.L631:
	.loc 1 2406 0
	add	r0, sp, #16
	ldr	r1, .L662+72
	bl	strcasecmp
.LVL478:
	cmp	r0, #0
	.loc 1 2407 0
	ldreq	r2, [sp, #8]
	ldreq	r3, .L662+76
	streq	r2, [r3]
	beq	.L617
.L632:
	.loc 1 2409 0
	add	r0, sp, #16
	ldr	r1, .L662+80
	bl	strcasecmp
.LVL479:
	cmp	r0, #0
	.loc 1 2410 0
	ldreq	r2, [sp, #8]
	ldreq	r3, .L662+84
	streq	r2, [r3]
	beq	.L617
.L633:
	.loc 1 2412 0
	add	r0, sp, #16
	ldr	r1, .L662+88
	bl	strcasecmp
.LVL480:
	cmp	r0, #0
	.loc 1 2413 0
	ldreq	r2, [sp, #8]
	ldreq	r3, .L662+92
	streq	r2, [r3]
	beq	.L617
.L634:
	.loc 1 2415 0
	add	r0, sp, #16
	ldr	r1, .L662+96
	bl	strcasecmp
.LVL481:
	cmp	r0, #0
	.loc 1 2416 0
	ldreq	r2, [sp, #8]
	ldreq	r3, .L662+100
	streq	r2, [r3]
	beq	.L617
.L635:
	.loc 1 2418 0
	add	r0, sp, #16
	ldr	r1, .L662+104
	bl	strcasecmp
.LVL482:
	cmp	r0, #0
	.loc 1 2419 0
	ldreq	r2, [sp, #8]
	ldreq	r3, .L662+108
	streq	r2, [r3]
	beq	.L617
.L636:
	.loc 1 2421 0
	add	r0, sp, #16
	ldr	r1, .L662+112
	bl	strcasecmp
.LVL483:
	cmp	r0, #0
	.loc 1 2422 0
	ldreq	r2, [sp, #8]
	ldreq	r3, .L662+116
	streq	r2, [r3]
	beq	.L617
.L637:
	.loc 1 2424 0
	add	r0, sp, #16
	ldr	r1, .L662+120
	bl	strcasecmp
.LVL484:
	cmp	r0, #0
	.loc 1 2425 0
	ldreq	r2, [sp, #8]
	ldreq	r3, .L662+124
	streq	r2, [r3]
	beq	.L617
.L638:
	.loc 1 2427 0
	add	r0, sp, #16
	ldr	r1, .L662+128
	bl	strcasecmp
.LVL485:
	cmp	r0, #0
	bne	.L639
	.loc 1 2429 0
	ldrd	r2, [sp, #8]
	cmp	r3, #0
	cmpeq	r2, #202
	beq	.L660
	.loc 1 2430 0
	cmp	r3, #0
	cmpeq	r2, #221
	beq	.L661
	.loc 1 2431 0
	cmp	r4, #0
	beq	.L617
	.loc 1 2431 0 is_stmt 0 discriminator 1
	mov	r0, r4
	ldr	r1, .L662+132
	bl	fprintf
.LVL486:
	b	.L617
.L639:
	.loc 1 2436 0 is_stmt 1
	cmp	r4, #0
	beq	.L617
	.loc 1 2436 0 is_stmt 0 discriminator 1
	add	r2, sp, #16
	mov	r0, r4
	ldr	r1, .L662+136
	bl	fprintf
.LVL487:
	b	.L617
.L661:
	.loc 1 2430 0 is_stmt 1 discriminator 1
	mov	r2, #1
	ldr	r3, .L662+140
	str	r2, [r3]
	b	.L617
.L660:
	.loc 1 2429 0 discriminator 1
	ldr	r3, .L662+140
	str	r0, [r3]
	b	.L617
.L663:
	.align	2
.L662:
	.word	.LC62
	.word	.LC77
	.word	.LC78
	.word	initial_health
	.word	.LC79
	.word	initial_bullets
	.word	.LC80
	.word	maxhealth
	.word	.LC81
	.word	max_armor
	.word	.LC82
	.word	.LC83
	.word	blue_armor_class
	.word	green_armor_class
	.word	.LC84
	.word	.LC85
	.word	soul_health
	.word	max_soul
	.word	.LC86
	.word	mega_health
	.word	.LC87
	.word	god_health
	.word	.LC88
	.word	idfa_armor
	.word	.LC89
	.word	idfa_armor_class
	.word	.LC90
	.word	idkfa_armor
	.word	.LC91
	.word	idkfa_armor_class
	.word	.LC92
	.word	bfgcells
	.word	.LC93
	.word	.LC94
	.word	.LC95
	.word	monsters_infight
	.cfi_endproc
.LFE22:
	.size	deh_procMisc, .-deh_procMisc
	.align	2
	.type	deh_procCheat, %function
deh_procCheat:
.LFB21:
	.loc 1 2286 0
	.cfi_startproc
	@ args = 0, pretend = 0, frame = 1072
	@ frame_needed = 0, uses_anonymous_args = 0
.LVL488:
	.loc 1 2290 0
	mov	r3, #0
	.loc 1 2286 0
	stmfd	sp!, {r4, r5, r6, r7, r8, r9, r10, lr}
	.cfi_def_cfa_offset 32
	.cfi_offset 4, -32
	.cfi_offset 5, -28
	.cfi_offset 6, -24
	.cfi_offset 7, -20
	.cfi_offset 8, -16
	.cfi_offset 9, -12
	.cfi_offset 10, -8
	.cfi_offset 14, -4
	sub	sp, sp, #1072
	.cfi_def_cfa_offset 1104
	sub	sp, sp, #8
	.cfi_def_cfa_offset 1112
	.loc 1 2295 0
	subs	r6, r1, #0
	.loc 1 2291 0
	add	r1, sp, #11
.LVL489:
	.loc 1 2286 0
	mov	r7, r0
	.loc 1 2291 0
	str	r1, [sp, #12]
	.loc 1 2290 0
	strb	r3, [sp, #11]
	.loc 1 2286 0
	mov	r4, r2
	.loc 1 2295 0
	beq	.L665
	.loc 1 2295 0 is_stmt 0 discriminator 1
	mov	r0, r6
.LVL490:
	ldr	r1, .L704
	bl	fprintf
.LVL491:
.L665:
	.loc 1 2297 0 is_stmt 1
	mov	r1, r4
	add	r0, sp, #56
	mov	r2, #1024
	bl	strncpy
.LVL492:
	.loc 1 2312 0
	ldr	r9, .L704+4
	.loc 1 2303 0
	add	r8, sp, #16
.LVL493:
.L666:
	.loc 1 2298 0
	mov	r0, r7
	bl	dehfeof
.LVL494:
	subs	r5, r0, #0
	bne	.L664
.L703:
	.loc 1 2298 0 is_stmt 0 discriminator 1
	ldrb	r3, [sp, #56]	@ zero_extendqisi2
	tst	r3, #223
	beq	.L664
	.loc 1 2300 0 is_stmt 1
	add	r0, sp, #56
	mov	r1, #1024
	mov	r2, r7
	bl	dehfgets
.LVL495:
	cmp	r0, #0
	beq	.L664
	.loc 1 2301 0
	add	r0, sp, #56
	bl	lfstrip
.LVL496:
	.loc 1 2302 0
	ldrb	r3, [sp, #56]	@ zero_extendqisi2
	cmp	r3, #0
	beq	.L664
	.loc 1 2303 0
	add	r1, sp, #24
	str	r6, [sp]
	add	r0, sp, #56
	mov	r2, r8
	sub	r3, r1, #12
	bl	deh_GetData
.LVL497:
	cmp	r0, #0
	beq	.L669
.LVL498:
	.loc 1 2312 0 discriminator 1
	ldr	r3, [r9]
	cmp	r3, #0
	ldrne	r10, .L704+4
	beq	.L683
.LVL499:
.L682:
	.loc 1 2313 0
	ldr	r1, [r10, #4]
	cmp	r1, #0
	beq	.L676
	.loc 1 2315 0
	add	r0, sp, #24
	bl	strcasecmp
.LVL500:
	cmp	r0, #0
	bne	.L676
.LVL501:
	.loc 1 2321 0 discriminator 2
	ldr	r4, [sp, #12]
	ldrb	r3, [r4]	@ zero_extendqisi2
	cmp	r3, #0
	beq	.L678
	.loc 1 2321 0 is_stmt 0
	mov	r2, r4
	mov	ip, r0
.LVL502:
.L680:
	.loc 1 2322 0 is_stmt 1
	cmp	r3, #255
	moveq	r3, #0
	strb	r3, [r2]
	.loc 1 2321 0
	ldr	r4, [sp, #12]
	add	ip, ip, #1
.LVL503:
	ldrb	r3, [r4, ip]	@ zero_extendqisi2
	add	r2, r4, ip
	cmp	r3, #0
	bne	.L680
.LVL504:
	.loc 1 2328 0
	ldrb	r3, [r4]	@ zero_extendqisi2
	cmp	r3, #32
	bne	.L678
.LVL505:
.L681:
	.loc 1 2328 0 is_stmt 0 discriminator 2
	ldrb	r3, [r4, #1]!	@ zero_extendqisi2
.LVL506:
	cmp	r3, #32
	beq	.L681
.LVL507:
.L678:
	.loc 1 2343 0 is_stmt 1
	mov	r0, r4
	mov	r1, #1
	mov	r2, #0
	bl	Z_Strdup
.LVL508:
	.loc 1 2344 0
	cmp	r6, #0
	.loc 1 2343 0
	str	r0, [r10]
	.loc 1 2344 0
	beq	.L676
	.loc 1 2344 0 is_stmt 0 discriminator 1
	ldr	r3, [r10, #4]
	str	r5, [sp]
	mov	r2, r4
	mov	r0, r6
	ldr	r1, .L704+8
	bl	fprintf
.LVL509:
.L676:
	.loc 1 2312 0 is_stmt 1 discriminator 2
	ldr	r3, [r10, #40]!
	add	r5, r5, #1
.LVL510:
	cmp	r3, #0
	bne	.L682
.LVL511:
.L683:
	.loc 1 2349 0
	cmp	r6, #0
	beq	.L666
	.loc 1 2349 0 is_stmt 0 discriminator 1
	ldr	r1, .L704+12
	add	r2, sp, #56
	mov	r0, r6
	bl	fprintf
.LVL512:
	.loc 1 2298 0 is_stmt 1 discriminator 1
	mov	r0, r7
	bl	dehfeof
.LVL513:
	subs	r5, r0, #0
	beq	.L703
.L664:
	.loc 1 2352 0
	add	sp, sp, #1072
	add	sp, sp, #8
	.cfi_remember_state
	.cfi_def_cfa_offset 32
	@ sp needed
	ldmfd	sp!, {r4, r5, r6, r7, r8, r9, r10, pc}
.LVL514:
.L669:
	.cfi_restore_state
	.loc 1 2305 0
	cmp	r6, #0
	beq	.L666
	.loc 1 2305 0 is_stmt 0 discriminator 1
	mov	r0, r6
	ldr	r1, .L704+16
	add	r2, sp, #56
	bl	fprintf
.LVL515:
	b	.L666
.L705:
	.align	2
.L704:
	.word	.LC96
	.word	cheat
	.word	.LC97
	.word	.LC31
	.word	.LC62
	.cfi_endproc
.LFE21:
	.size	deh_procCheat, .-deh_procCheat
	.align	2
	.type	deh_procWeapon, %function
deh_procWeapon:
.LFB18:
	.loc 1 2108 0 is_stmt 1
	.cfi_startproc
	@ args = 0, pretend = 0, frame = 1072
	@ frame_needed = 0, uses_anonymous_args = 0
.LVL516:
	stmfd	sp!, {r4, r5, r6, r7, lr}
	.cfi_def_cfa_offset 20
	.cfi_offset 4, -20
	.cfi_offset 5, -16
	.cfi_offset 6, -12
	.cfi_offset 7, -8
	.cfi_offset 14, -4
	mov	r6, r1
	sub	sp, sp, #1072
	.cfi_def_cfa_offset 1092
	sub	sp, sp, #12
	.cfi_def_cfa_offset 1104
	.loc 1 2114 0
	mov	r1, r2
.LVL517:
	.loc 1 2108 0
	mov	r4, r0
	.loc 1 2114 0
	mov	r2, #1024
.LVL518:
	add	r0, sp, #56
.LVL519:
	bl	strncpy
.LVL520:
	.loc 1 2117 0
	add	r2, sp, #24
	add	r0, sp, #56
	sub	r3, r2, #12
	ldr	r1, .L734
	bl	sscanf
.LVL521:
	.loc 1 2118 0
	cmp	r6, #0
	.loc 1 2121 0
	moveq	r7, r6
	.loc 1 2118 0
	beq	.L708
	.loc 1 2118 0 is_stmt 0 discriminator 1
	ldr	r2, [sp, #12]
	mov	r0, r6
	ldr	r1, .L734+4
	add	r3, sp, #24
	bl	fprintf
.LVL522:
	.loc 1 2120 0 is_stmt 1 discriminator 1
	ldr	r2, [sp, #12]
	.loc 1 2121 0 discriminator 1
	cmp	r2, #8
	movls	r7, #1
	bls	.L708
	mov	r0, r6
	ldr	r1, .L734+8
	mov	r3, #4
	bl	fprintf
.LVL523:
	mov	r7, #1
.L708:
	.loc 1 2124 0
	mov	r0, r4
	bl	dehfeof
.LVL524:
	subs	r5, r0, #0
	bne	.L706
.L732:
	.loc 1 2124 0 is_stmt 0 discriminator 1
	ldrb	r2, [sp, #56]	@ zero_extendqisi2
	tst	r2, #223
	beq	.L706
	.loc 1 2126 0 is_stmt 1
	add	r0, sp, #56
	mov	r1, #1024
	mov	r2, r4
	bl	dehfgets
.LVL525:
	cmp	r0, #0
	beq	.L706
	.loc 1 2127 0
	add	r0, sp, #56
	bl	lfstrip
.LVL526:
	.loc 1 2128 0
	ldrb	r3, [sp, #56]	@ zero_extendqisi2
	cmp	r3, #0
	beq	.L706
	.loc 1 2129 0
	add	r1, sp, #24
	str	r6, [sp]
	mov	r3, r5
	add	r0, sp, #56
	sub	r2, r1, #8
	bl	deh_GetData
.LVL527:
	cmp	r0, #0
	bne	.L711
	.loc 1 2131 0
	cmp	r7, #0
	beq	.L708
	.loc 1 2131 0 is_stmt 0 discriminator 1
	ldr	r1, .L734+12
	add	r2, sp, #56
	mov	r0, r6
	bl	fprintf
.LVL528:
	.loc 1 2124 0 is_stmt 1 discriminator 1
	mov	r0, r4
	bl	dehfeof
.LVL529:
	subs	r5, r0, #0
	beq	.L732
.L706:
	.loc 1 2155 0
	add	sp, sp, #1072
	add	sp, sp, #12
	.cfi_remember_state
	.cfi_def_cfa_offset 20
	@ sp needed
	ldmfd	sp!, {r4, r5, r6, r7, pc}
.LVL530:
.L711:
	.cfi_restore_state
	.loc 1 2134 0
	add	r0, sp, #24
	ldr	r1, .L734+16
	bl	strcasecmp
.LVL531:
	cmp	r0, #0
	bne	.L713
	.loc 1 2135 0
	ldr	r3, [sp, #12]
	ldr	r2, .L734+20
	ldr	r1, [sp, #16]
	add	r3, r3, r3, asl #1
	strb	r1, [r2, r3, asl #3]
	b	.L708
.L713:
	.loc 1 2137 0
	add	r0, sp, #24
	ldr	r1, .L734+24
	bl	strcasecmp
.LVL532:
	cmp	r0, #0
	bne	.L714
	.loc 1 2138 0
	ldr	r3, [sp, #12]
	ldr	r2, .L734+20
	add	r3, r3, r3, asl #1
	ldr	r1, [sp, #16]
	add	r3, r2, r3, asl #3
	str	r1, [r3, #4]
	b	.L708
.L714:
	.loc 1 2140 0
	add	r0, sp, #24
	ldr	r1, .L734+28
	bl	strcasecmp
.LVL533:
	cmp	r0, #0
	bne	.L715
	.loc 1 2141 0
	ldr	r3, [sp, #12]
	ldr	r2, .L734+20
	add	r3, r3, r3, asl #1
	ldr	r1, [sp, #16]
	add	r3, r2, r3, asl #3
	str	r1, [r3, #8]
	b	.L708
.L715:
	.loc 1 2143 0
	add	r0, sp, #24
	ldr	r1, .L734+32
	bl	strcasecmp
.LVL534:
	cmp	r0, #0
	bne	.L716
	.loc 1 2144 0
	ldr	r3, [sp, #12]
	ldr	r2, .L734+20
	add	r3, r3, r3, asl #1
	ldr	r1, [sp, #16]
	add	r3, r2, r3, asl #3
	str	r1, [r3, #12]
	b	.L708
.L716:
	.loc 1 2146 0
	add	r0, sp, #24
	ldr	r1, .L734+36
	bl	strcasecmp
.LVL535:
	cmp	r0, #0
	beq	.L733
	.loc 1 2149 0
	add	r0, sp, #24
	ldr	r1, .L734+40
	bl	strcasecmp
.LVL536:
	cmp	r0, #0
	bne	.L718
	.loc 1 2150 0
	ldr	r3, [sp, #12]
	ldr	r2, .L734+20
	add	r3, r3, r3, asl #1
	ldr	r1, [sp, #16]
	add	r3, r2, r3, asl #3
	str	r1, [r3, #20]
	b	.L708
.L733:
	.loc 1 2147 0
	ldr	r3, [sp, #12]
	ldr	r2, .L734+20
	add	r3, r3, r3, asl #1
	ldr	r1, [sp, #16]
	add	r3, r2, r3, asl #3
	str	r1, [r3, #16]
	b	.L708
.L718:
	.loc 1 2152 0
	cmp	r7, #0
	beq	.L708
	.loc 1 2152 0 is_stmt 0 discriminator 1
	mov	r0, r6
	ldr	r1, .L734+44
	add	r2, sp, #24
	bl	fprintf
.LVL537:
	b	.L708
.L735:
	.align	2
.L734:
	.word	.LC21
	.word	.LC98
	.word	.LC99
	.word	.LC62
	.word	.LC100
	.word	weaponinfo
	.word	.LC101
	.word	.LC102
	.word	.LC103
	.word	.LC104
	.word	.LC105
	.word	.LC106
	.cfi_endproc
.LFE18:
	.size	deh_procWeapon, .-deh_procWeapon
	.align	2
	.type	deh_procAmmo, %function
deh_procAmmo:
.LFB17:
	.loc 1 2062 0 is_stmt 1
	.cfi_startproc
	@ args = 0, pretend = 0, frame = 1072
	@ frame_needed = 0, uses_anonymous_args = 0
.LVL538:
	stmfd	sp!, {r4, r5, r6, r7, r8, r9, lr}
	.cfi_def_cfa_offset 28
	.cfi_offset 4, -28
	.cfi_offset 5, -24
	.cfi_offset 6, -20
	.cfi_offset 7, -16
	.cfi_offset 8, -12
	.cfi_offset 9, -8
	.cfi_offset 14, -4
	mov	r6, r1
	sub	sp, sp, #1072
	.cfi_def_cfa_offset 1100
	sub	sp, sp, #12
	.cfi_def_cfa_offset 1112
	.loc 1 2068 0
	mov	r1, r2
.LVL539:
	.loc 1 2062 0
	mov	r4, r0
	.loc 1 2068 0
	mov	r2, #1024
.LVL540:
	add	r0, sp, #56
.LVL541:
	bl	strncpy
.LVL542:
	.loc 1 2071 0
	add	r2, sp, #24
	add	r0, sp, #56
	sub	r3, r2, #12
	ldr	r1, .L759
	bl	sscanf
.LVL543:
	.loc 1 2072 0
	cmp	r6, #0
	.loc 1 2075 0
	moveq	r7, r6
	.loc 1 2072 0
	beq	.L737
	.loc 1 2072 0 is_stmt 0 discriminator 1
	ldr	r2, [sp, #12]
	mov	r0, r6
	ldr	r1, .L759+4
	add	r3, sp, #24
	bl	fprintf
.LVL544:
	.loc 1 2074 0 is_stmt 1 discriminator 1
	ldr	r2, [sp, #12]
	.loc 1 2075 0 discriminator 1
	cmp	r2, #3
	movls	r7, #1
	bls	.L737
	mov	r0, r6
	ldr	r1, .L759+8
	mov	r3, #4
	bl	fprintf
.LVL545:
	mov	r7, #1
.L737:
	.loc 1 2092 0
	ldr	r9, .L759+12
	.loc 1 2089 0
	ldr	r8, .L759+16
.L738:
	.loc 1 2078 0
	mov	r0, r4
	bl	dehfeof
.LVL546:
	subs	r5, r0, #0
	bne	.L736
.L758:
	.loc 1 2078 0 is_stmt 0 discriminator 1
	ldrb	r2, [sp, #56]	@ zero_extendqisi2
	tst	r2, #223
	beq	.L736
	.loc 1 2080 0 is_stmt 1
	add	r0, sp, #56
	mov	r1, #1024
	mov	r2, r4
	bl	dehfgets
.LVL547:
	cmp	r0, #0
	beq	.L736
	.loc 1 2081 0
	add	r0, sp, #56
	bl	lfstrip
.LVL548:
	.loc 1 2082 0
	ldrb	r3, [sp, #56]	@ zero_extendqisi2
	cmp	r3, #0
	beq	.L736
	.loc 1 2083 0
	add	r1, sp, #24
	str	r6, [sp]
	mov	r3, r5
	add	r0, sp, #56
	sub	r2, r1, #8
	bl	deh_GetData
.LVL549:
	cmp	r0, #0
	bne	.L741
	.loc 1 2085 0
	cmp	r7, #0
	beq	.L738
	.loc 1 2085 0 is_stmt 0 discriminator 1
	ldr	r1, .L759+20
	add	r2, sp, #56
	mov	r0, r6
	bl	fprintf
.LVL550:
	.loc 1 2078 0 is_stmt 1 discriminator 1
	mov	r0, r4
	bl	dehfeof
.LVL551:
	subs	r5, r0, #0
	beq	.L758
.L736:
	.loc 1 2097 0
	add	sp, sp, #1072
	add	sp, sp, #12
	.cfi_remember_state
	.cfi_def_cfa_offset 28
	@ sp needed
	ldmfd	sp!, {r4, r5, r6, r7, r8, r9, pc}
.LVL552:
.L741:
	.cfi_restore_state
	.loc 1 2088 0
	add	r0, sp, #24
	ldr	r1, .L759+24
	bl	strcasecmp
.LVL553:
	cmp	r0, #0
	.loc 1 2089 0
	ldreq	r3, [sp, #12]
	ldreq	r2, [sp, #16]
	streq	r2, [r8, r3, asl #2]
	beq	.L738
.L743:
	.loc 1 2091 0
	add	r0, sp, #24
	ldr	r1, .L759+28
	bl	strcasecmp
.LVL554:
	cmp	r0, #0
	.loc 1 2092 0
	ldreq	r3, [sp, #12]
	ldreq	r2, [sp, #16]
	streq	r2, [r9, r3, asl #2]
	beq	.L738
.L744:
	.loc 1 2094 0
	cmp	r7, #0
	beq	.L738
	.loc 1 2094 0 is_stmt 0 discriminator 1
	mov	r0, r6
	ldr	r1, .L759+32
	add	r2, sp, #24
	bl	fprintf
.LVL555:
	b	.L738
.L760:
	.align	2
.L759:
	.word	.LC21
	.word	.LC107
	.word	.LC108
	.word	clipammo
	.word	maxammo
	.word	.LC62
	.word	.LC109
	.word	.LC110
	.word	.LC111
	.cfi_endproc
.LFE17:
	.size	deh_procAmmo, .-deh_procAmmo
	.align	2
	.type	deh_procSounds, %function
deh_procSounds:
.LFB16:
	.loc 1 1994 0 is_stmt 1
	.cfi_startproc
	@ args = 0, pretend = 0, frame = 1072
	@ frame_needed = 0, uses_anonymous_args = 0
.LVL556:
	stmfd	sp!, {r4, r5, r6, r7, lr}
	.cfi_def_cfa_offset 20
	.cfi_offset 4, -20
	.cfi_offset 5, -16
	.cfi_offset 6, -12
	.cfi_offset 7, -8
	.cfi_offset 14, -4
	mov	r6, r1
	sub	sp, sp, #1072
	.cfi_def_cfa_offset 1092
	sub	sp, sp, #12
	.cfi_def_cfa_offset 1104
	.loc 1 2000 0
	mov	r1, r2
.LVL557:
	.loc 1 1994 0
	mov	r4, r0
	.loc 1 2000 0
	mov	r2, #1024
.LVL558:
	add	r0, sp, #56
.LVL559:
	bl	strncpy
.LVL560:
	.loc 1 2003 0
	add	r2, sp, #24
	add	r0, sp, #56
	sub	r3, r2, #12
	ldr	r1, .L798
	bl	sscanf
.LVL561:
	.loc 1 2004 0
	cmp	r6, #0
	.loc 1 2007 0
	moveq	r7, r6
	.loc 1 2004 0
	beq	.L763
	.loc 1 2004 0 is_stmt 0 discriminator 1
	ldr	r2, [sp, #12]
	mov	r0, r6
	ldr	r1, .L798+4
	add	r3, sp, #24
	bl	fprintf
.LVL562:
	.loc 1 2006 0 is_stmt 1 discriminator 1
	ldr	r2, [sp, #12]
	.loc 1 2007 0 discriminator 1
	cmp	r2, #113
	movls	r7, #1
	bls	.L763
	mov	r0, r6
	ldr	r1, .L798+8
	mov	r3, #114
	bl	fprintf
.LVL563:
	mov	r7, #1
.L763:
	.loc 1 2010 0
	mov	r0, r4
	bl	dehfeof
.LVL564:
	subs	r5, r0, #0
	bne	.L761
.L796:
	.loc 1 2010 0 is_stmt 0 discriminator 1
	ldrb	r2, [sp, #56]	@ zero_extendqisi2
	tst	r2, #223
	beq	.L761
	.loc 1 2012 0 is_stmt 1
	add	r0, sp, #56
	mov	r1, #1024
	mov	r2, r4
	bl	dehfgets
.LVL565:
	cmp	r0, #0
	beq	.L761
	.loc 1 2013 0
	add	r0, sp, #56
	bl	lfstrip
.LVL566:
	.loc 1 2014 0
	ldrb	r3, [sp, #56]	@ zero_extendqisi2
	cmp	r3, #0
	beq	.L761
	.loc 1 2015 0
	add	r1, sp, #24
	str	r6, [sp]
	mov	r3, r5
	add	r0, sp, #56
	sub	r2, r1, #8
	bl	deh_GetData
.LVL567:
	cmp	r0, #0
	bne	.L766
	.loc 1 2017 0
	cmp	r7, #0
	beq	.L763
	.loc 1 2017 0 is_stmt 0 discriminator 1
	ldr	r1, .L798+12
	add	r2, sp, #56
	mov	r0, r6
	bl	fprintf
.LVL568:
	.loc 1 2010 0 is_stmt 1 discriminator 1
	mov	r0, r4
	bl	dehfeof
.LVL569:
	subs	r5, r0, #0
	beq	.L796
.L761:
	.loc 1 2051 0
	add	sp, sp, #1072
	add	sp, sp, #12
	.cfi_remember_state
	.cfi_def_cfa_offset 20
	@ sp needed
	ldmfd	sp!, {r4, r5, r6, r7, pc}
.LVL570:
.L766:
	.cfi_restore_state
	.loc 1 2020 0
	add	r0, sp, #24
	ldr	r1, .L798+16
	bl	strcasecmp
.LVL571:
	cmp	r0, #0
	beq	.L763
	.loc 1 2023 0
	add	r0, sp, #24
	ldr	r1, .L798+20
	bl	strcasecmp
.LVL572:
	cmp	r0, #0
	bne	.L768
	.loc 1 2024 0
	ldr	r3, [sp, #12]
	ldr	r2, .L798+24
	add	r3, r3, r3, asl #3
	ldr	r1, [sp, #16]
	add	r3, r2, r3, asl #2
	str	r1, [r3, #4]
	b	.L763
.L768:
	.loc 1 2026 0
	add	r0, sp, #24
	ldr	r1, .L798+28
	bl	strcasecmp
.LVL573:
	cmp	r0, #0
	bne	.L769
	.loc 1 2027 0
	ldr	r3, [sp, #12]
	ldr	r2, .L798+24
	add	r3, r3, r3, asl #3
	ldr	r1, [sp, #16]
	add	r3, r2, r3, asl #2
	str	r1, [r3, #8]
	b	.L763
.L769:
	.loc 1 2029 0
	add	r0, sp, #24
	ldr	r1, .L798+32
	bl	strcasecmp
.LVL574:
	cmp	r0, #0
	beq	.L763
	.loc 1 2032 0
	add	r0, sp, #24
	ldr	r1, .L798+36
	bl	strcasecmp
.LVL575:
	cmp	r0, #0
	beq	.L797
	.loc 1 2035 0
	add	r0, sp, #24
	ldr	r1, .L798+40
	bl	strcasecmp
.LVL576:
	cmp	r0, #0
	bne	.L771
	.loc 1 2036 0
	ldr	r3, [sp, #12]
	ldr	r2, .L798+24
	add	r3, r3, r3, asl #3
	ldr	r1, [sp, #16]
	add	r3, r2, r3, asl #2
	str	r1, [r3, #20]
	b	.L763
.L797:
	.loc 1 2033 0
	ldr	r3, [sp, #12]
	ldr	r2, .L798+24
	add	r3, r3, r3, asl #3
	ldr	r1, [sp, #16]
	add	r3, r2, r3, asl #2
	str	r1, [r3, #16]
	b	.L763
.L771:
	.loc 1 2038 0
	add	r0, sp, #24
	ldr	r1, .L798+44
	bl	strcasecmp
.LVL577:
	cmp	r0, #0
	beq	.L763
	.loc 1 2041 0
	add	r0, sp, #24
	ldr	r1, .L798+48
	bl	strcasecmp
.LVL578:
	cmp	r0, #0
	bne	.L772
	.loc 1 2042 0
	ldr	r3, [sp, #12]
	ldr	r2, .L798+24
	add	r3, r3, r3, asl #3
	ldr	r1, [sp, #16]
	add	r3, r2, r3, asl #2
	str	r1, [r3, #28]
	b	.L763
.L772:
	.loc 1 2044 0
	add	r0, sp, #24
	ldr	r1, .L798+52
	bl	strcasecmp
.LVL579:
	cmp	r0, #0
	bne	.L773
	.loc 1 2045 0
	ldr	r3, [sp, #12]
	ldr	r2, .L798+24
	add	r3, r3, r3, asl #3
	ldr	r1, [sp, #16]
	add	r3, r2, r3, asl #2
	str	r1, [r3, #32]
	b	.L763
.L773:
	.loc 1 2047 0
	cmp	r7, #0
	beq	.L763
	.loc 1 2047 0 is_stmt 0 discriminator 1
	mov	r0, r6
	ldr	r1, .L798+56
	add	r2, sp, #24
	bl	fprintf
.LVL580:
	b	.L763
.L799:
	.align	2
.L798:
	.word	.LC21
	.word	.LC112
	.word	.LC113
	.word	.LC62
	.word	.LC114
	.word	.LC115
	.word	S_sfx
	.word	.LC116
	.word	.LC117
	.word	.LC118
	.word	.LC119
	.word	.LC120
	.word	.LC121
	.word	.LC122
	.word	.LC123
	.cfi_endproc
.LFE16:
	.size	deh_procSounds, .-deh_procSounds
	.align	2
	.type	deh_procPointer, %function
deh_procPointer:
.LFB15:
	.loc 1 1916 0 is_stmt 1
	.cfi_startproc
	@ args = 0, pretend = 0, frame = 1072
	@ frame_needed = 0, uses_anonymous_args = 0
.LVL581:
	stmfd	sp!, {r4, r5, r6, r7, r8, r9, r10, fp, lr}
	.cfi_def_cfa_offset 36
	.cfi_offset 4, -36
	.cfi_offset 5, -32
	.cfi_offset 6, -28
	.cfi_offset 7, -24
	.cfi_offset 8, -20
	.cfi_offset 9, -16
	.cfi_offset 10, -12
	.cfi_offset 11, -8
	.cfi_offset 14, -4
	sub	sp, sp, #1072
	.cfi_def_cfa_offset 1108
	sub	sp, sp, #12
	.cfi_def_cfa_offset 1120
	.loc 1 1916 0
	mov	r6, r1
	mov	r8, r0
	.loc 1 1923 0
	mov	r1, r2
.LVL582:
	add	r0, sp, #56
.LVL583:
	mov	r2, #1024
.LVL584:
	bl	strncpy
.LVL585:
	.loc 1 1927 0
	add	r2, sp, #24
	add	r0, sp, #56
	sub	r3, r2, #12
	ldr	r1, .L844
	bl	sscanf
.LVL586:
	cmp	r0, #2
	beq	.L801
	.loc 1 1929 0
	cmp	r6, #0
	beq	.L800
	.loc 1 1929 0 is_stmt 0 discriminator 1
	mov	r0, r6
	add	r2, sp, #56
	ldr	r1, .L844+4
	bl	fprintf
.LVL587:
.L800:
	.loc 1 1983 0 is_stmt 1
	add	sp, sp, #1072
	add	sp, sp, #12
	.cfi_remember_state
	.cfi_def_cfa_offset 36
	@ sp needed
	ldmfd	sp!, {r4, r5, r6, r7, r8, r9, r10, fp, pc}
.LVL588:
.L801:
	.cfi_restore_state
	.loc 1 1933 0
	cmp	r6, #0
	beq	.L804
	.loc 1 1933 0 is_stmt 0 discriminator 1
	ldr	r2, [sp, #12]
	add	r3, sp, #24
	mov	r0, r6
	ldr	r1, .L844+8
	bl	fprintf
.LVL589:
	.loc 1 1934 0 is_stmt 1 discriminator 1
	ldr	r2, [sp, #12]
	ldr	r3, .L844+12
	cmp	r2, r3
	bls	.L818
	.loc 1 1937 0
	mov	r0, r6
	ldr	r1, .L844+16
	ldr	r3, .L844+20
	bl	fprintf
.LVL590:
	b	.L800
.L804:
	.loc 1 1934 0
	ldr	r3, .L844+12
	ldr	r2, [sp, #12]
	cmp	r2, r3
	bhi	.L800
.L818:
	ldr	r7, .L844+24
	.loc 1 1961 0
	ldr	r10, .L844+28
	ldr	r9, .L844+32
.L806:
	.loc 1 1941 0
	mov	r0, r8
	bl	dehfeof
.LVL591:
	subs	r4, r0, #0
	bne	.L800
.L842:
	.loc 1 1941 0 is_stmt 0 discriminator 1
	ldrb	r2, [sp, #56]	@ zero_extendqisi2
	tst	r2, #223
	beq	.L800
	.loc 1 1943 0 is_stmt 1
	add	r0, sp, #56
	mov	r1, #1024
	mov	r2, r8
	bl	dehfgets
.LVL592:
	cmp	r0, #0
	beq	.L800
	.loc 1 1944 0
	add	r0, sp, #56
	bl	lfstrip
.LVL593:
	.loc 1 1945 0
	ldrb	r3, [sp, #56]	@ zero_extendqisi2
	cmp	r3, #0
	beq	.L800
	.loc 1 1946 0
	add	r1, sp, #24
	str	r6, [sp]
	mov	r3, r4
	add	r0, sp, #56
	sub	r2, r1, #8
	bl	deh_GetData
.LVL594:
	cmp	r0, #0
	bne	.L808
	.loc 1 1948 0
	cmp	r6, #0
	beq	.L806
	.loc 1 1948 0 is_stmt 0 discriminator 1
	ldr	r1, .L844+4
	add	r2, sp, #56
	mov	r0, r6
	bl	fprintf
.LVL595:
	.loc 1 1941 0 is_stmt 1 discriminator 1
	mov	r0, r8
	bl	dehfeof
.LVL596:
	subs	r4, r0, #0
	beq	.L842
	b	.L800
.L808:
	.loc 1 1952 0
	mov	r3, #0
	ldrd	r4, [sp, #16]
	ldr	r2, .L844+12
	cmp	r5, r3
	cmpeq	r4, r2
	bhi	.L843
	.loc 1 1959 0
	add	r0, sp, #24
	ldr	r1, .L844+36
	bl	strcasecmp
.LVL597:
	cmp	r0, #0
	bne	.L812
	.loc 1 1961 0
	ldr	r2, [sp, #12]
	ldr	r1, [r9, r4, asl #2]
	rsb	r3, r2, r2, asl #3
	add	r3, r10, r3, asl #2
	.loc 1 1962 0
	cmp	r6, #0
	.loc 1 1961 0
	str	r1, [r3, #12]
	.loc 1 1962 0
	beq	.L813
	.loc 1 1962 0 is_stmt 0 discriminator 1
	str	r2, [sp]
	mov	r3, r5
	mov	r2, r4
	mov	r0, r6
	ldr	r1, .L844+40
	bl	fprintf
.LVL598:
	ldrd	r4, [sp, #16]
.L813:
.LVL599:
	add	r5, r9, r4, asl #2
	ldr	fp, .L844+24
	.loc 1 1916 0 is_stmt 1
	mov	r4, #0
	b	.L816
.LVL600:
.L814:
	.loc 1 1974 0
	ldr	r3, [r7, r4, asl #3]
	add	r4, r4, #1
.LVL601:
	cmp	r3, #0
	beq	.L806
	.loc 1 1966 0 discriminator 2
	cmp	r4, #85
	add	fp, fp, #8
	beq	.L806
.LVL602:
.L816:
	.loc 1 1968 0
	mov	r0, fp
	mov	r1, r5
	mov	r2, #4
	bl	memcmp
.LVL603:
	cmp	r0, #0
	bne	.L814
	.loc 1 1970 0
	cmp	r6, #0
	beq	.L806
	.loc 1 1971 0 discriminator 1
	ldr	r3, .L844+44
	.loc 1 1970 0 discriminator 1
	mov	r0, r6
	.loc 1 1971 0 discriminator 1
	add	r4, r3, r4, asl #3
.LVL604:
	.loc 1 1970 0 discriminator 1
	ldr	r3, [r4, #148]
	ldr	r1, .L844+48
	add	r3, r3, #2
	ldr	r2, [sp, #12]
	bl	fprintf
.LVL605:
	b	.L806
.L812:
	.loc 1 1979 0
	cmp	r6, #0
	beq	.L806
	.loc 1 1979 0 is_stmt 0 discriminator 1
	strd	r4, [sp]
	mov	r0, r6
	ldr	r1, .L844+52
	add	r2, sp, #24
	bl	fprintf
.LVL606:
	b	.L806
.L843:
	.loc 1 1954 0 is_stmt 1
	cmp	r6, #0
	beq	.L800
	.loc 1 1955 0
	ldr	r1, .L844+20
	mov	r0, r6
	str	r1, [sp]
	mov	r2, r4
	mov	r3, r5
	ldr	r1, .L844+56
	bl	fprintf
.LVL607:
	b	.L800
.L845:
	.align	2
.L844:
	.word	.LC124
	.word	.LC62
	.word	.LC125
	.word	1075
	.word	.LC53
	.word	1076
	.word	.LANCHOR3+144
	.word	states
	.word	.LANCHOR0
	.word	.LC127
	.word	.LC128
	.word	.LANCHOR3
	.word	.LC129
	.word	.LC130
	.word	.LC126
	.cfi_endproc
.LFE15:
	.size	deh_procPointer, .-deh_procPointer
	.align	2
	.type	deh_procFrame, %function
deh_procFrame:
.LFB14:
	.loc 1 1836 0
	.cfi_startproc
	@ args = 0, pretend = 0, frame = 1072
	@ frame_needed = 0, uses_anonymous_args = 0
.LVL608:
	stmfd	sp!, {r4, r5, r6, r7, lr}
	.cfi_def_cfa_offset 20
	.cfi_offset 4, -20
	.cfi_offset 5, -16
	.cfi_offset 6, -12
	.cfi_offset 7, -8
	.cfi_offset 14, -4
	mov	r6, r1
	sub	sp, sp, #1072
	.cfi_def_cfa_offset 1092
	sub	sp, sp, #12
	.cfi_def_cfa_offset 1104
	.loc 1 1842 0
	mov	r1, r2
.LVL609:
	.loc 1 1836 0
	mov	r4, r0
	.loc 1 1842 0
	mov	r2, #1024
.LVL610:
	add	r0, sp, #56
.LVL611:
	bl	strncpy
.LVL612:
	.loc 1 1845 0
	add	r2, sp, #24
	add	r0, sp, #56
	sub	r3, r2, #12
	ldr	r1, .L902
	bl	sscanf
.LVL613:
	.loc 1 1846 0
	cmp	r6, #0
	.loc 1 1848 0
	moveq	r7, r6
	.loc 1 1846 0
	beq	.L848
	.loc 1 1846 0 is_stmt 0 discriminator 1
	ldr	r2, [sp, #12]
	add	r3, sp, #24
	mov	r0, r6
	ldr	r1, .L902+4
	bl	fprintf
.LVL614:
	.loc 1 1847 0 is_stmt 1 discriminator 1
	ldr	r2, [sp, #12]
	.loc 1 1848 0 discriminator 1
	ldr	r3, .L902+8
	cmp	r2, r3
	movls	r7, #1
	bls	.L848
	mov	r0, r6
	ldr	r1, .L902+12
	add	r3, r3, #1
	bl	fprintf
.LVL615:
	mov	r7, #1
.L848:
	.loc 1 1850 0
	mov	r0, r4
	bl	dehfeof
.LVL616:
	subs	r5, r0, #0
	bne	.L846
.L900:
	.loc 1 1850 0 is_stmt 0 discriminator 1
	ldrb	r2, [sp, #56]	@ zero_extendqisi2
	tst	r2, #223
	beq	.L846
	.loc 1 1852 0 is_stmt 1
	add	r0, sp, #56
	mov	r1, #1024
	mov	r2, r4
	bl	dehfgets
.LVL617:
	cmp	r0, #0
	beq	.L846
	.loc 1 1853 0
	add	r0, sp, #56
	bl	lfstrip
.LVL618:
	.loc 1 1854 0
	ldrb	r3, [sp, #56]	@ zero_extendqisi2
	cmp	r3, #0
	beq	.L846
	.loc 1 1855 0
	add	r1, sp, #24
	str	r6, [sp]
	mov	r3, r5
	add	r0, sp, #56
	sub	r2, r1, #8
	bl	deh_GetData
.LVL619:
	cmp	r0, #0
	bne	.L851
	.loc 1 1857 0
	cmp	r7, #0
	beq	.L848
	.loc 1 1857 0 is_stmt 0 discriminator 1
	ldr	r1, .L902+16
	add	r2, sp, #56
	mov	r0, r6
	bl	fprintf
.LVL620:
	.loc 1 1850 0 is_stmt 1 discriminator 1
	mov	r0, r4
	bl	dehfeof
.LVL621:
	subs	r5, r0, #0
	beq	.L900
.L846:
	.loc 1 1905 0
	add	sp, sp, #1072
	add	sp, sp, #12
	.cfi_remember_state
	.cfi_def_cfa_offset 20
	@ sp needed
	ldmfd	sp!, {r4, r5, r6, r7, pc}
.LVL622:
.L851:
	.cfi_restore_state
	.loc 1 1860 0
	add	r0, sp, #24
	ldr	r1, .L902+20
	bl	strcasecmp
.LVL623:
	cmp	r0, #0
	bne	.L853
	.loc 1 1862 0
	cmp	r7, #0
	beq	.L854
	.loc 1 1862 0 is_stmt 0 discriminator 1
	ldrd	r2, [sp, #16]
	mov	r0, r6
	ldr	r1, .L902+24
	bl	fprintf
.LVL624:
.L854:
	.loc 1 1863 0 is_stmt 1
	ldr	r3, [sp, #12]
	ldr	r2, .L902+28
	ldr	r1, [sp, #16]
	rsb	r3, r3, r3, asl #3
	strb	r1, [r2, r3, asl #2]
	b	.L848
.L853:
	.loc 1 1866 0
	add	r0, sp, #24
	ldr	r1, .L902+32
	bl	strcasecmp
.LVL625:
	cmp	r0, #0
	bne	.L855
	.loc 1 1868 0
	cmp	r7, #0
	beq	.L856
	.loc 1 1868 0 is_stmt 0 discriminator 1
	ldrd	r2, [sp, #16]
	mov	r0, r6
	ldr	r1, .L902+36
	bl	fprintf
.LVL626:
.L856:
	.loc 1 1869 0 is_stmt 1
	ldr	r3, [sp, #12]
	ldr	r2, .L902+28
	rsb	r3, r3, r3, asl #3
	ldr	r1, [sp, #16]
	add	r3, r2, r3, asl #2
	str	r1, [r3, #4]
	b	.L848
.L855:
	.loc 1 1872 0
	add	r0, sp, #24
	ldr	r1, .L902+40
	bl	strcasecmp
.LVL627:
	cmp	r0, #0
	bne	.L857
	.loc 1 1874 0
	cmp	r7, #0
	beq	.L858
	.loc 1 1874 0 is_stmt 0 discriminator 1
	ldrd	r2, [sp, #16]
	mov	r0, r6
	ldr	r1, .L902+44
	bl	fprintf
.LVL628:
.L858:
	.loc 1 1875 0 is_stmt 1
	ldr	r3, [sp, #12]
	ldr	r2, .L902+28
	rsb	r3, r3, r3, asl #3
	ldr	r1, [sp, #16]
	add	r3, r2, r3, asl #2
	str	r1, [r3, #8]
	b	.L848
.L857:
	.loc 1 1878 0
	add	r0, sp, #24
	ldr	r1, .L902+48
	bl	strcasecmp
.LVL629:
	cmp	r0, #0
	bne	.L859
	.loc 1 1880 0
	cmp	r7, #0
	beq	.L860
	.loc 1 1880 0 is_stmt 0 discriminator 1
	ldrd	r2, [sp, #16]
	mov	r0, r6
	ldr	r1, .L902+52
	bl	fprintf
.LVL630:
.L860:
	.loc 1 1881 0 is_stmt 1
	ldr	r3, [sp, #12]
	ldr	r2, .L902+28
	rsb	r3, r3, r3, asl #3
	ldr	r1, [sp, #16]
	add	r3, r2, r3, asl #2
	strh	r1, [r3, #16]	@ movhi
	b	.L848
.L859:
	.loc 1 1884 0
	add	r0, sp, #24
	ldr	r1, .L902+56
	bl	strcasecmp
.LVL631:
	cmp	r0, #0
	beq	.L901
	.loc 1 1890 0
	add	r0, sp, #24
	ldr	r1, .L902+60
	bl	strcasecmp
.LVL632:
	cmp	r0, #0
	bne	.L862
	.loc 1 1892 0
	cmp	r7, #0
	beq	.L863
	.loc 1 1892 0 is_stmt 0 discriminator 1
	ldrd	r2, [sp, #16]
	mov	r0, r6
	ldr	r1, .L902+64
	bl	fprintf
.LVL633:
.L863:
	.loc 1 1893 0 is_stmt 1
	ldr	r3, [sp, #12]
	ldr	r2, .L902+28
	rsb	r3, r3, r3, asl #3
	ldr	r1, [sp, #16]
	add	r3, r2, r3, asl #2
	str	r1, [r3, #20]
	b	.L848
.L901:
	.loc 1 1886 0
	cmp	r7, #0
	beq	.L848
	.loc 1 1886 0 is_stmt 0 discriminator 1
	mov	r1, #1
	mov	r2, #46
	mov	r3, r6
	ldr	r0, .L902+68
	bl	fwrite
.LVL634:
	b	.L848
.L862:
	.loc 1 1896 0 is_stmt 1
	add	r0, sp, #24
	ldr	r1, .L902+72
	bl	strcasecmp
.LVL635:
	cmp	r0, #0
	bne	.L864
	.loc 1 1898 0
	cmp	r7, #0
	beq	.L865
	.loc 1 1898 0 is_stmt 0 discriminator 1
	ldrd	r2, [sp, #16]
	mov	r0, r6
	ldr	r1, .L902+76
	bl	fprintf
.LVL636:
.L865:
	.loc 1 1899 0 is_stmt 1
	ldr	r3, [sp, #12]
	ldr	r2, .L902+28
	rsb	r3, r3, r3, asl #3
	ldr	r1, [sp, #16]
	add	r3, r2, r3, asl #2
	str	r1, [r3, #24]
	b	.L848
.L864:
	.loc 1 1902 0
	cmp	r7, #0
	beq	.L848
	.loc 1 1902 0 is_stmt 0 discriminator 1
	mov	r0, r6
	ldr	r1, .L902+80
	add	r2, sp, #24
	bl	fprintf
.LVL637:
	b	.L848
.L903:
	.align	2
.L902:
	.word	.LC21
	.word	.LC131
	.word	1075
	.word	.LC132
	.word	.LC62
	.word	.LC133
	.word	.LC134
	.word	states
	.word	.LC135
	.word	.LC136
	.word	.LC137
	.word	.LC138
	.word	.LC139
	.word	.LC140
	.word	.LC127
	.word	.LC142
	.word	.LC143
	.word	.LC141
	.word	.LC144
	.word	.LC145
	.word	.LC146
	.cfi_endproc
.LFE14:
	.size	deh_procFrame, .-deh_procFrame
	.align	2
	.type	deh_procThing, %function
deh_procThing:
.LFB13:
	.loc 1 1707 0 is_stmt 1
	.cfi_startproc
	@ args = 0, pretend = 0, frame = 1096
	@ frame_needed = 0, uses_anonymous_args = 0
.LVL638:
	stmfd	sp!, {r4, r5, r6, r7, r8, r9, r10, fp, lr}
	.cfi_def_cfa_offset 36
	.cfi_offset 4, -36
	.cfi_offset 5, -32
	.cfi_offset 6, -28
	.cfi_offset 7, -24
	.cfi_offset 8, -20
	.cfi_offset 9, -16
	.cfi_offset 10, -12
	.cfi_offset 11, -8
	.cfi_offset 14, -4
	mov	r7, r1
	sub	sp, sp, #1104
	.cfi_def_cfa_offset 1140
	sub	sp, sp, #12
	.cfi_def_cfa_offset 1152
	.loc 1 1707 0
	str	r0, [sp, #36]
	.loc 1 1715 0
	mov	r1, r2
.LVL639:
	add	r0, sp, #88
.LVL640:
	mov	r2, #1024
.LVL641:
	bl	strncpy
.LVL642:
	.loc 1 1716 0
	cmp	r7, #0
	beq	.L905
	.loc 1 1716 0 is_stmt 0 discriminator 1
	ldr	r1, .L985
	add	r2, sp, #88
	mov	r0, r7
	.loc 1 1719 0 is_stmt 1 discriminator 1
	add	r10, sp, #56
	.loc 1 1716 0 discriminator 1
	bl	fprintf
.LVL643:
	.loc 1 1719 0 discriminator 1
	mov	r2, r10
	ldr	r1, .L985+4
	add	r3, sp, #40
	add	r0, sp, #88
	bl	sscanf
.LVL644:
	.loc 1 1720 0 discriminator 1
	ldr	r1, .L985+8
	.loc 1 1719 0 discriminator 1
	mov	r2, r0
.LVL645:
	.loc 1 1720 0 discriminator 1
	ldr	r3, [sp, #40]
	mov	r0, r7
.LVL646:
	bl	fprintf
.LVL647:
.L958:
	.loc 1 1724 0
	ldr	r3, [sp, #40]
	sub	r3, r3, #1
	str	r3, [sp, #40]
.L906:
	.loc 1 1732 0
	ldr	r0, [sp, #36]
	bl	dehfeof
.LVL648:
	cmp	r0, #0
	bne	.L904
.L980:
	.loc 1 1732 0 is_stmt 0 discriminator 1
	ldrb	r3, [sp, #88]	@ zero_extendqisi2
	tst	r3, #223
	beq	.L904
.LBB126:
	.loc 1 1738 0 is_stmt 1
	add	r0, sp, #88
	mov	r1, #1024
	ldr	r2, [sp, #36]
	bl	dehfgets
.LVL649:
	cmp	r0, #0
	beq	.L904
	.loc 1 1739 0
	add	r0, sp, #88
	bl	lfstrip
.LVL650:
	.loc 1 1742 0
	ldrb	r3, [sp, #88]	@ zero_extendqisi2
	cmp	r3, #0
	beq	.L904
	.loc 1 1746 0
	sub	r3, r10, #12
	str	r7, [sp]
	add	r0, sp, #88
	mov	r1, r10
	sub	r2, r10, #8
	bl	deh_GetData
.LVL651:
	.loc 1 1747 0
	subs	r3, r0, #0
	str	r3, [sp, #32]
	bne	.L909
	.loc 1 1750 0
	cmp	r7, #0
	beq	.L906
	.loc 1 1750 0 is_stmt 0 discriminator 1
	ldr	r1, .L985+12
	add	r2, sp, #88
	mov	r0, r7
.LVL652:
	bl	fprintf
.LVL653:
.LBE126:
	.loc 1 1732 0 is_stmt 1 discriminator 1
	ldr	r0, [sp, #36]
	bl	dehfeof
.LVL654:
	cmp	r0, #0
	beq	.L980
.LVL655:
.L904:
	.loc 1 1825 0
	add	sp, sp, #1104
	add	sp, sp, #12
	.cfi_remember_state
	.cfi_def_cfa_offset 36
	@ sp needed
	ldmfd	sp!, {r4, r5, r6, r7, r8, r9, r10, fp, pc}
.LVL656:
.L909:
	.cfi_restore_state
.LBB144:
	.loc 1 1747 0
	mov	r9, #1
	ldr	r3, .L985+16
	str	r3, [sp, #24]
	add	r8, r3, #356
.LVL657:
.L912:
	.loc 1 1754 0
	ldr	r3, [sp, #24]
	mov	r0, r10
	ldr	r1, [r3, #4]!
	str	r3, [sp, #24]
	bl	strcasecmp
.LVL658:
	sub	r3, r9, #1
	cmp	r0, #0
	str	r3, [sp, #28]
.LVL659:
	bne	.L914
	.loc 1 1756 0
	mov	r0, r10
	ldr	r1, .L985+20
	bl	strcasecmp
.LVL660:
	cmp	r0, #0
	bne	.L981
	.loc 1 1773 0
	ldr	r3, [sp, #32]
	cmp	r3, #1
	beq	.L982
	.loc 1 1779 0
	mov	r2, #0
	mov	r3, #0
	strd	r2, [r10, #-8]
	str	r0, [sp, #20]
.LBB127:
	.loc 1 1792 0
	ldr	r5, .L985+24
	ldr	r0, [sp, #44]
.L947:
.LBE127:
	.loc 1 1785 0 discriminator 1
	ldr	r1, .L985+28
	bl	strtok
.LVL661:
	cmp	r0, #0
	mov	r6, r0
	str	r0, [sp, #44]
	beq	.L983
	mov	r4, #0
.L949:
.LVL662:
.LBB128:
	.loc 1 1788 0
	ldr	r1, [r8, r4, asl #4]
	mov	r0, r6
	bl	strcasecmp
.LVL663:
	cmp	r0, #0
	mov	r3, r4, asl #4
	.loc 1 1787 0
	add	r4, r4, #1
.LVL664:
	.loc 1 1788 0
	beq	.L948
	.loc 1 1787 0 discriminator 1
	cmp	r4, #37
	bne	.L949
	.loc 1 1799 0
	cmp	r7, #0
	beq	.L953
	.loc 1 1800 0
	mov	r2, r6
	mov	r0, r7
	ldr	r1, .L985+32
	bl	fprintf
.LVL665:
.L953:
.LBE128:
	.loc 1 1785 0
	ldr	r3, [sp, #20]
	mov	r0, #0
	str	r3, [sp, #44]
	b	.L947
.LVL666:
.L948:
.LBB129:
	.loc 1 1789 0
	cmp	r7, #0
	beq	.L984
	.loc 1 1792 0
	add	r2, r5, r3
	ldr	r4, [r2, #4]
.LVL667:
	ldr	fp, [r5, r3]
	.loc 1 1790 0
	ldr	r1, .L985+36
	str	r6, [sp]
	mov	r2, r4
	mov	r3, fp
	mov	r0, r7
	bl	fprintf
.LVL668:
	mov	r0, fp
	mov	r1, r4
.L952:
	.loc 1 1796 0
	ldrd	r2, [r10, #-8]
	orr	r2, r2, r0
	orr	r3, r3, r1
	strd	r2, [r10, #-8]
	b	.L953
.L983:
.LBE129:
	.loc 1 1805 0
	cmp	r7, #0
	beq	.L954
	.loc 1 1806 0
	mov	r0, r7
	ldr	r1, .L985+40
	ldr	r2, [r10, #-4]
	ldr	r3, [r10, #-8]
	bl	fprintf
.LVL669:
.L954:
	.loc 1 1812 0
	ldrd	r2, [r10, #-8]
	mov	r0, #104
	ldr	ip, .L985+44
	ldr	r1, [sp, #40]
	mla	r0, r0, r1, ip
	strd	r2, [r0, #88]
.L916:
	.loc 1 1815 0
	cmp	r7, #0
	beq	.L914
	ldr	r3, [r10, #-8]
	ldr	r2, [r10, #-4]
.L942:
	.loc 1 1816 0
	str	r1, [sp, #4]
	ldr	r1, [sp, #28]
	str	r10, [sp]
	str	r1, [sp, #8]
	mov	r0, r7
	ldr	r1, .L985+48
	bl	fprintf
.LVL670:
.L914:
	.loc 1 1753 0 discriminator 2
	cmp	r9, #24
	beq	.L906
.LVL671:
.L956:
	add	r9, r9, #1
	b	.L912
.LVL672:
.L984:
	ldrd	r0, [r5, r3]
	b	.L952
.LVL673:
.L981:
	.loc 1 1767 0
	ldr	r1, [sp, #40]
	ldr	r3, [r10, #-8]
.LBB130:
.LBB131:
	.loc 1 1663 0
	cmp	r1, #151
.LBE131:
.LBE130:
	.loc 1 1767 0
	ldr	r2, [r10, #-4]
.LVL674:
.LBB136:
.LBB132:
	.loc 1 1663 0
	bhi	.L916
.LVL675:
	.loc 1 1665 0
	ldr	r0, [sp, #28]
	cmp	r0, #23
	ldrls	pc, [pc, r0, asl #2]
	b	.L916
.L918:
	.word	.L917
	.word	.L919
	.word	.L920
	.word	.L921
	.word	.L922
	.word	.L923
	.word	.L924
	.word	.L925
	.word	.L926
	.word	.L927
	.word	.L928
	.word	.L929
	.word	.L930
	.word	.L931
	.word	.L932
	.word	.L933
	.word	.L934
	.word	.L935
	.word	.L936
	.word	.L937
	.word	.L938
	.word	.L939
	.word	.L916
	.word	.L940
.LVL676:
.L982:
.LBE132:
.LBE136:
.LBB137:
.LBB138:
	.loc 1 1650 0
	mov	r4, #0
.LBE138:
.LBE137:
	.loc 1 1774 0
	ldrd	r2, [r10, #-8]
.LVL677:
.LBB140:
.LBB139:
	.loc 1 1650 0
	mov	r5, #0
	ldr	ip, .L985+52
.LVL678:
.L946:
	.loc 1 1652 0
	mov	r1, #0
	and	r0, r2, #1
	orrs	r1, r0, r1
	ldrned	r0, [ip]
	orrne	r4, r4, r0
.LVL679:
	orrne	r5, r5, r1
.LVL680:
.L945:
	.loc 1 1651 0
	ldr	r1, .L985+56
	add	ip, ip, #8
	.loc 1 1653 0
	movs	r3, r3, lsr #1
	mov	r2, r2, rrx
.LVL681:
	.loc 1 1651 0
	cmp	ip, r1
	bne	.L946
.LBE139:
.LBE140:
	.loc 1 1775 0
	mov	r3, #104
	ldr	r2, .L985+44
.LVL682:
	ldr	r1, [sp, #40]
	.loc 1 1774 0
	strd	r4, [r10, #-8]
.LVL683:
	.loc 1 1775 0
	mla	r3, r3, r1, r2
	strd	r4, [r3, #88]
	b	.L916
.LVL684:
.L939:
.LBB141:
.LBB133:
	.loc 1 1687 0
	mov	r0, #104
.LVL685:
	ldr	ip, .L985+44
	mla	r0, r0, r1, ip
	str	r3, [r0, #88]
	str	r2, [r0, #92]
.L941:
.LBE133:
.LBE141:
	.loc 1 1815 0
	cmp	r7, #0
	bne	.L942
	b	.L956
.LVL686:
.L938:
.LBB142:
.LBB134:
	.loc 1 1686 0
	mov	r0, #104
.LVL687:
	ldr	ip, .L985+44
	mla	r0, r0, r1, ip
	str	r3, [r0, #80]
	b	.L941
.LVL688:
.L937:
	.loc 1 1685 0
	mov	r0, #104
.LVL689:
	ldr	ip, .L985+44
	mla	r0, r0, r1, ip
	str	r3, [r0, #76]
	b	.L941
.LVL690:
.L936:
	.loc 1 1684 0
	mov	r0, #104
.LVL691:
	ldr	ip, .L985+44
	mla	r0, r0, r1, ip
	str	r3, [r0, #72]
	b	.L941
.LVL692:
.L935:
	.loc 1 1683 0
	mov	r0, #104
.LVL693:
	ldr	ip, .L985+44
	mla	r0, r0, r1, ip
	str	r3, [r0, #68]
	b	.L941
.LVL694:
.L934:
	.loc 1 1682 0
	mov	r0, #104
.LVL695:
	ldr	ip, .L985+44
	mla	r0, r0, r1, ip
	str	r3, [r0, #64]
	b	.L941
.LVL696:
.L933:
	.loc 1 1681 0
	mov	r0, #104
.LVL697:
	ldr	ip, .L985+44
	mla	r0, r0, r1, ip
	str	r3, [r0, #60]
	b	.L941
.LVL698:
.L932:
	.loc 1 1680 0
	mov	r0, #104
.LVL699:
	ldr	ip, .L985+44
	mla	r0, r0, r1, ip
	str	r3, [r0, #56]
	b	.L941
.LVL700:
.L931:
	.loc 1 1679 0
	mov	r0, #104
.LVL701:
	ldr	ip, .L985+44
	mla	r0, r0, r1, ip
	str	r3, [r0, #52]
	b	.L941
.LVL702:
.L930:
	.loc 1 1678 0
	mov	r0, #104
.LVL703:
	ldr	ip, .L985+44
	mla	r0, r0, r1, ip
	str	r3, [r0, #48]
	b	.L941
.LVL704:
.L929:
	.loc 1 1677 0
	mov	r0, #104
.LVL705:
	ldr	ip, .L985+44
	mla	r0, r0, r1, ip
	str	r3, [r0, #44]
	b	.L941
.LVL706:
.L928:
	.loc 1 1676 0
	mov	r0, #104
.LVL707:
	ldr	ip, .L985+44
	mla	r0, r0, r1, ip
	str	r3, [r0, #40]
	b	.L941
.LVL708:
.L927:
	.loc 1 1675 0
	mov	r0, #104
.LVL709:
	ldr	ip, .L985+44
	mla	r0, r0, r1, ip
	str	r3, [r0, #36]
	b	.L941
.LVL710:
.L926:
	.loc 1 1674 0
	mov	r0, #104
.LVL711:
	ldr	ip, .L985+44
	mla	r0, r0, r1, ip
	str	r3, [r0, #32]
	b	.L941
.LVL712:
.L925:
	.loc 1 1673 0
	mov	r0, #104
.LVL713:
	ldr	ip, .L985+44
	mla	r0, r0, r1, ip
	str	r3, [r0, #28]
	b	.L941
.LVL714:
.L924:
	.loc 1 1672 0
	mov	r0, #104
.LVL715:
	ldr	ip, .L985+44
	mla	r0, r0, r1, ip
	str	r3, [r0, #24]
	b	.L941
.LVL716:
.L923:
	.loc 1 1671 0
	mov	r0, #104
.LVL717:
	ldr	ip, .L985+44
	mla	r0, r0, r1, ip
	str	r3, [r0, #20]
	b	.L941
.LVL718:
.L922:
	.loc 1 1670 0
	mov	r0, #104
.LVL719:
	ldr	ip, .L985+44
	mla	r0, r0, r1, ip
	str	r3, [r0, #16]
	b	.L941
.LVL720:
.L921:
	.loc 1 1669 0
	mov	r0, #104
.LVL721:
	ldr	ip, .L985+44
	mla	r0, r0, r1, ip
	str	r3, [r0, #12]
	b	.L941
.LVL722:
.L920:
	.loc 1 1668 0
	mov	r0, #104
.LVL723:
	ldr	ip, .L985+44
	mla	r0, r0, r1, ip
	str	r3, [r0, #8]
	b	.L941
.LVL724:
.L919:
	.loc 1 1667 0
	mov	r0, #104
.LVL725:
	ldr	ip, .L985+44
	mla	r0, r0, r1, ip
	str	r3, [r0, #4]
	b	.L941
.LVL726:
.L917:
	.loc 1 1666 0
	mov	r0, #104
.LVL727:
	mul	r0, r0, r1
	ldr	ip, .L985+44
	str	r3, [ip, r0]
	b	.L941
.LVL728:
.L940:
	.loc 1 1689 0
	mov	r0, #104
.LVL729:
	ldr	ip, .L985+44
.LBE134:
.LBE142:
	.loc 1 1815 0
	cmp	r7, #0
.LBB143:
.LBB135:
	.loc 1 1689 0
	mla	r0, r0, r1, ip
	str	r3, [r0, #96]
.LBE135:
.LBE143:
	.loc 1 1815 0
	bne	.L942
	b	.L906
.LVL730:
.L905:
.LBE144:
	.loc 1 1719 0
	add	r10, sp, #56
	mov	r2, r10
	add	r0, sp, #88
	ldr	r1, .L985+4
	add	r3, sp, #40
	bl	sscanf
.LVL731:
	b	.L958
.L986:
	.align	2
.L985:
	.word	.LC147
	.word	.LC21
	.word	.LC148
	.word	.LC62
	.word	.LANCHOR3+820
	.word	.LC149
	.word	.LANCHOR3+1184
	.word	.LC152
	.word	.LC151
	.word	.LC150
	.word	.LC153
	.word	mobjinfo
	.word	.LC154
	.word	.LANCHOR3+920
	.word	.LANCHOR3+1176
	.cfi_endproc
.LFE13:
	.size	deh_procThing, .-deh_procThing
	.comm	deh_soundnames,460,4
	.comm	deh_musicnames,276,4
	.comm	deh_spritenames,564,4
	.global	mapnamest
	.global	mapnamesp
	.global	mapnames2
	.global	mapnames
	.global	deh_newlevel
	.global	savegamename
	.global	startup5
	.global	startup4
	.global	startup3
	.global	startup2
	.global	startup1
	.global	bgcastcall
	.global	bgflat31
	.global	bgflat15
	.global	bgflat30
	.global	bgflat20
	.global	bgflat11
	.global	bgflat06
	.global	bgflatE4
	.global	bgflatE3
	.global	bgflatE2
	.global	bgflatE1
	.global	s_CC_HERO
	.global	s_CC_CYBER
	.global	s_CC_SPIDER
	.global	s_CC_ARCH
	.global	s_CC_MANCU
	.global	s_CC_REVEN
	.global	s_CC_PAIN
	.global	s_CC_ARACH
	.global	s_CC_BARON
	.global	s_CC_HELL
	.global	s_CC_CACO
	.global	s_CC_LOST
	.global	s_CC_DEMON
	.global	s_CC_IMP
	.global	s_CC_HEAVY
	.global	s_CC_SHOTGUN
	.global	s_CC_ZOMBIE
	.global	s_T6TEXT
	.global	s_T5TEXT
	.global	s_T4TEXT
	.global	s_T3TEXT
	.global	s_T2TEXT
	.global	s_T1TEXT
	.global	s_P6TEXT
	.global	s_P5TEXT
	.global	s_P4TEXT
	.global	s_P3TEXT
	.global	s_P2TEXT
	.global	s_P1TEXT
	.global	s_C6TEXT
	.global	s_C5TEXT
	.global	s_C4TEXT
	.global	s_C3TEXT
	.global	s_C2TEXT
	.global	s_C1TEXT
	.global	s_E4TEXT
	.global	s_E3TEXT
	.global	s_E2TEXT
	.global	s_E1TEXT
	.global	s_STSTR_COMPOFF
	.global	s_STSTR_COMPON
	.global	s_STSTR_CLEV
	.global	s_STSTR_CHOPPERS
	.global	s_STSTR_BEHOLDX
	.global	s_STSTR_BEHOLD
	.global	s_STSTR_NCOFF
	.global	s_STSTR_NCON
	.global	s_STSTR_FAADDED
	.global	s_STSTR_KFAADDED
	.global	s_STSTR_DQDOFF
	.global	s_STSTR_DQDON
	.global	s_STSTR_NOMUS
	.global	s_STSTR_MUS
	.global	s_AMSTR_OVERLAYOFF
	.global	s_AMSTR_OVERLAYON
	.global	s_AMSTR_ROTATEOFF
	.global	s_AMSTR_ROTATEON
	.global	s_AMSTR_MARKSCLEARED
	.global	s_AMSTR_MARKEDSPOT
	.global	s_AMSTR_GRIDOFF
	.global	s_AMSTR_GRIDON
	.global	s_AMSTR_FOLLOWOFF
	.global	s_AMSTR_FOLLOWON
	.global	s_HUSTR_PLRRED
	.global	s_HUSTR_PLRBROWN
	.global	s_HUSTR_PLRINDIGO
	.global	s_HUSTR_PLRGREEN
	.global	s_HUSTR_MESSAGESENT
	.global	s_HUSTR_TALKTOSELF5
	.global	s_HUSTR_TALKTOSELF4
	.global	s_HUSTR_TALKTOSELF3
	.global	s_HUSTR_TALKTOSELF2
	.global	s_HUSTR_TALKTOSELF1
	.global	s_HUSTR_CHATMACRO0
	.global	s_HUSTR_CHATMACRO9
	.global	s_HUSTR_CHATMACRO8
	.global	s_HUSTR_CHATMACRO7
	.global	s_HUSTR_CHATMACRO6
	.global	s_HUSTR_CHATMACRO5
	.global	s_HUSTR_CHATMACRO4
	.global	s_HUSTR_CHATMACRO3
	.global	s_HUSTR_CHATMACRO2
	.global	s_HUSTR_CHATMACRO1
	.global	s_THUSTR_32
	.global	s_THUSTR_31
	.global	s_THUSTR_30
	.global	s_THUSTR_29
	.global	s_THUSTR_28
	.global	s_THUSTR_27
	.global	s_THUSTR_26
	.global	s_THUSTR_25
	.global	s_THUSTR_24
	.global	s_THUSTR_23
	.global	s_THUSTR_22
	.global	s_THUSTR_21
	.global	s_THUSTR_20
	.global	s_THUSTR_19
	.global	s_THUSTR_18
	.global	s_THUSTR_17
	.global	s_THUSTR_16
	.global	s_THUSTR_15
	.global	s_THUSTR_14
	.global	s_THUSTR_13
	.global	s_THUSTR_12
	.global	s_THUSTR_11
	.global	s_THUSTR_10
	.global	s_THUSTR_9
	.global	s_THUSTR_8
	.global	s_THUSTR_7
	.global	s_THUSTR_6
	.global	s_THUSTR_5
	.global	s_THUSTR_4
	.global	s_THUSTR_3
	.global	s_THUSTR_2
	.global	s_THUSTR_1
	.global	s_PHUSTR_32
	.global	s_PHUSTR_31
	.global	s_PHUSTR_30
	.global	s_PHUSTR_29
	.global	s_PHUSTR_28
	.global	s_PHUSTR_27
	.global	s_PHUSTR_26
	.global	s_PHUSTR_25
	.global	s_PHUSTR_24
	.global	s_PHUSTR_23
	.global	s_PHUSTR_22
	.global	s_PHUSTR_21
	.global	s_PHUSTR_20
	.global	s_PHUSTR_19
	.global	s_PHUSTR_18
	.global	s_PHUSTR_17
	.global	s_PHUSTR_16
	.global	s_PHUSTR_15
	.global	s_PHUSTR_14
	.global	s_PHUSTR_13
	.global	s_PHUSTR_12
	.global	s_PHUSTR_11
	.global	s_PHUSTR_10
	.global	s_PHUSTR_9
	.global	s_PHUSTR_8
	.global	s_PHUSTR_7
	.global	s_PHUSTR_6
	.global	s_PHUSTR_5
	.global	s_PHUSTR_4
	.global	s_PHUSTR_3
	.global	s_PHUSTR_2
	.global	s_PHUSTR_1
	.global	s_HUSTR_32
	.global	s_HUSTR_31
	.global	s_HUSTR_30
	.global	s_HUSTR_29
	.global	s_HUSTR_28
	.global	s_HUSTR_27
	.global	s_HUSTR_26
	.global	s_HUSTR_25
	.global	s_HUSTR_24
	.global	s_HUSTR_23
	.global	s_HUSTR_22
	.global	s_HUSTR_21
	.global	s_HUSTR_20
	.global	s_HUSTR_19
	.global	s_HUSTR_18
	.global	s_HUSTR_17
	.global	s_HUSTR_16
	.global	s_HUSTR_15
	.global	s_HUSTR_14
	.global	s_HUSTR_13
	.global	s_HUSTR_12
	.global	s_HUSTR_11
	.global	s_HUSTR_10
	.global	s_HUSTR_9
	.global	s_HUSTR_8
	.global	s_HUSTR_7
	.global	s_HUSTR_6
	.global	s_HUSTR_5
	.global	s_HUSTR_4
	.global	s_HUSTR_3
	.global	s_HUSTR_2
	.global	s_HUSTR_1
	.global	s_HUSTR_E4M9
	.global	s_HUSTR_E4M8
	.global	s_HUSTR_E4M7
	.global	s_HUSTR_E4M6
	.global	s_HUSTR_E4M5
	.global	s_HUSTR_E4M4
	.global	s_HUSTR_E4M3
	.global	s_HUSTR_E4M2
	.global	s_HUSTR_E4M1
	.global	s_HUSTR_E3M9
	.global	s_HUSTR_E3M8
	.global	s_HUSTR_E3M7
	.global	s_HUSTR_E3M6
	.global	s_HUSTR_E3M5
	.global	s_HUSTR_E3M4
	.global	s_HUSTR_E3M3
	.global	s_HUSTR_E3M2
	.global	s_HUSTR_E3M1
	.global	s_HUSTR_E2M9
	.global	s_HUSTR_E2M8
	.global	s_HUSTR_E2M7
	.global	s_HUSTR_E2M6
	.global	s_HUSTR_E2M5
	.global	s_HUSTR_E2M4
	.global	s_HUSTR_E2M3
	.global	s_HUSTR_E2M2
	.global	s_HUSTR_E2M1
	.global	s_HUSTR_E1M9
	.global	s_HUSTR_E1M8
	.global	s_HUSTR_E1M7
	.global	s_HUSTR_E1M6
	.global	s_HUSTR_E1M5
	.global	s_HUSTR_E1M4
	.global	s_HUSTR_E1M3
	.global	s_HUSTR_E1M2
	.global	s_HUSTR_E1M1
	.global	s_HUSTR_MSGU
	.global	s_GGSAVED
	.global	s_PD_ALL6
	.global	s_PD_ALL3
	.global	s_PD_ANY
	.global	s_PD_YELLOWS
	.global	s_PD_REDS
	.global	s_PD_BLUES
	.global	s_PD_YELLOWC
	.global	s_PD_REDC
	.global	s_PD_BLUEC
	.global	s_PD_YELLOWK
	.global	s_PD_REDK
	.global	s_PD_BLUEK
	.global	s_PD_YELLOWO
	.global	s_PD_REDO
	.global	s_PD_BLUEO
	.global	s_GOTSHOTGUN2
	.global	s_GOTSHOTGUN
	.global	s_GOTPLASMA
	.global	s_GOTLAUNCHER
	.global	s_GOTCHAINSAW
	.global	s_GOTCHAINGUN
	.global	s_GOTBFG9000
	.global	s_GOTBACKPACK
	.global	s_GOTSHELLBOX
	.global	s_GOTSHELLS
	.global	s_GOTCELLBOX
	.global	s_GOTCELL
	.global	s_GOTROCKBOX
	.global	s_GOTROCKET
	.global	s_GOTCLIPBOX
	.global	s_GOTCLIP
	.global	s_GOTMSPHERE
	.global	s_GOTVISOR
	.global	s_GOTMAP
	.global	s_GOTSUIT
	.global	s_GOTINVIS
	.global	s_GOTBERSERK
	.global	s_GOTINVUL
	.global	s_GOTREDSKULL
	.global	s_GOTYELWSKUL
	.global	s_GOTBLUESKUL
	.global	s_GOTREDCARD
	.global	s_GOTYELWCARD
	.global	s_GOTBLUECARD
	.global	s_GOTSUPER
	.global	s_GOTMEDIKIT
	.global	s_GOTMEDINEED
	.global	s_GOTSTIM
	.global	s_GOTARMBONUS
	.global	s_GOTHTHBONUS
	.global	s_GOTMEGA
	.global	s_GOTARMOR
	.global	s_EMPTYSTRING
	.global	s_GAMMALVL4
	.global	s_GAMMALVL3
	.global	s_GAMMALVL2
	.global	s_GAMMALVL1
	.global	s_GAMMALVL0
	.global	s_DETAILLO
	.global	s_DETAILHI
	.global	s_DOSY
	.global	s_ENDGAME
	.global	s_NETEND
	.global	s_SAVING
	.global	s_LOADING
	.global	s_MSGON
	.global	s_MSGOFF
	.global	s_SWSTRING
	.global	s_NIGHTMARE
	.global	s_RESTARTLEVEL
	.global	s_NEWGAME
	.global	s_QLPROMPT
	.global	s_QSPROMPT
	.global	s_SAVEDEAD
	.global	s_QSAVESPOT
	.global	s_QUITMSG
	.global	s_PRESSYN
	.global	s_PRESSKEY
	.global	s_D_CDROM
	.global	s_D_DEVSTR
	.global	deh_pars
	.global	HelperThing
	.section	.rodata
	.align	3
	.set	.LANCHOR3,. + 0
	.type	deh_blocks, %object
	.size	deh_blocks, 144
deh_blocks:
	.word	.LC301
	.word	deh_procThing
	.word	.LC302
	.word	deh_procFrame
	.word	.LC303
	.word	deh_procPointer
	.word	.LC304
	.word	deh_procSounds
	.word	.LC305
	.word	deh_procAmmo
	.word	.LC306
	.word	deh_procWeapon
	.word	.LC307
	.word	deh_procSprite
	.word	.LC308
	.word	deh_procCheat
	.word	.LC309
	.word	deh_procMisc
	.word	.LC310
	.word	deh_procText
	.word	.LC311
	.word	deh_procStrings
	.word	.LC312
	.word	deh_procPars
	.word	.LC313
	.word	deh_procBexCodePointers
	.word	.LC314
	.word	deh_procHelperThing
	.word	.LC315
	.word	deh_procBexSprites
	.word	.LC316
	.word	deh_procBexSounds
	.word	.LC317
	.word	deh_procBexMusic
	.word	.LC8
	.word	deh_procError
	.type	deh_bexptrs, %object
	.size	deh_bexptrs, 680
deh_bexptrs:
	.word	A_Light0
	.word	.LC155
	.word	A_WeaponReady
	.word	.LC156
	.word	A_Lower
	.word	.LC157
	.word	A_Raise
	.word	.LC158
	.word	A_Punch
	.word	.LC159
	.word	A_ReFire
	.word	.LC160
	.word	A_FirePistol
	.word	.LC161
	.word	A_Light1
	.word	.LC162
	.word	A_FireShotgun
	.word	.LC163
	.word	A_Light2
	.word	.LC164
	.word	A_FireShotgun2
	.word	.LC165
	.word	A_CheckReload
	.word	.LC166
	.word	A_OpenShotgun2
	.word	.LC167
	.word	A_LoadShotgun2
	.word	.LC168
	.word	A_CloseShotgun2
	.word	.LC169
	.word	A_FireCGun
	.word	.LC170
	.word	A_GunFlash
	.word	.LC171
	.word	A_FireMissile
	.word	.LC172
	.word	A_Saw
	.word	.LC173
	.word	A_FirePlasma
	.word	.LC174
	.word	A_BFGsound
	.word	.LC175
	.word	A_FireBFG
	.word	.LC176
	.word	A_BFGSpray
	.word	.LC177
	.word	A_Explode
	.word	.LC178
	.word	A_Pain
	.word	.LC179
	.word	A_PlayerScream
	.word	.LC180
	.word	A_Fall
	.word	.LC181
	.word	A_XScream
	.word	.LC182
	.word	A_Look
	.word	.LC183
	.word	A_Chase
	.word	.LC184
	.word	A_FaceTarget
	.word	.LC185
	.word	A_PosAttack
	.word	.LC186
	.word	A_Scream
	.word	.LC187
	.word	A_SPosAttack
	.word	.LC188
	.word	A_VileChase
	.word	.LC189
	.word	A_VileStart
	.word	.LC190
	.word	A_VileTarget
	.word	.LC191
	.word	A_VileAttack
	.word	.LC192
	.word	A_StartFire
	.word	.LC193
	.word	A_Fire
	.word	.LC194
	.word	A_FireCrackle
	.word	.LC195
	.word	A_Tracer
	.word	.LC196
	.word	A_SkelWhoosh
	.word	.LC197
	.word	A_SkelFist
	.word	.LC198
	.word	A_SkelMissile
	.word	.LC199
	.word	A_FatRaise
	.word	.LC200
	.word	A_FatAttack1
	.word	.LC201
	.word	A_FatAttack2
	.word	.LC202
	.word	A_FatAttack3
	.word	.LC203
	.word	A_BossDeath
	.word	.LC204
	.word	A_CPosAttack
	.word	.LC205
	.word	A_CPosRefire
	.word	.LC206
	.word	A_TroopAttack
	.word	.LC207
	.word	A_SargAttack
	.word	.LC208
	.word	A_HeadAttack
	.word	.LC209
	.word	A_BruisAttack
	.word	.LC210
	.word	A_SkullAttack
	.word	.LC211
	.word	A_Metal
	.word	.LC212
	.word	A_SpidRefire
	.word	.LC213
	.word	A_BabyMetal
	.word	.LC214
	.word	A_BspiAttack
	.word	.LC215
	.word	A_Hoof
	.word	.LC216
	.word	A_CyberAttack
	.word	.LC217
	.word	A_PainAttack
	.word	.LC218
	.word	A_PainDie
	.word	.LC219
	.word	A_KeenDie
	.word	.LC220
	.word	A_BrainPain
	.word	.LC221
	.word	A_BrainScream
	.word	.LC222
	.word	A_BrainDie
	.word	.LC223
	.word	A_BrainAwake
	.word	.LC224
	.word	A_BrainSpit
	.word	.LC225
	.word	A_SpawnSound
	.word	.LC226
	.word	A_SpawnFly
	.word	.LC227
	.word	A_BrainExplode
	.word	.LC228
	.word	A_Detonate
	.word	.LC229
	.word	A_Mushroom
	.word	.LC230
	.word	A_Die
	.word	.LC231
	.word	A_Spawn
	.word	.LC232
	.word	A_Turn
	.word	.LC233
	.word	A_Face
	.word	.LC234
	.word	A_Scratch
	.word	.LC235
	.word	A_PlaySound
	.word	.LC236
	.word	A_RandomJump
	.word	.LC237
	.word	A_LineEffect
	.word	.LC238
	.word	0
	.word	.LC239
	.type	deh_mobjinfo, %object
	.size	deh_mobjinfo, 96
deh_mobjinfo:
	.word	.LC277
	.word	.LC278
	.word	.LC279
	.word	.LC280
	.word	.LC281
	.word	.LC282
	.word	.LC283
	.word	.LC284
	.word	.LC285
	.word	.LC286
	.word	.LC287
	.word	.LC288
	.word	.LC289
	.word	.LC290
	.word	.LC291
	.word	.LC292
	.word	.LC293
	.word	.LC294
	.word	.LC295
	.word	.LC296
	.word	.LC297
	.word	.LC298
	.word	.LC299
	.word	.LC300
	.type	bitMap.9181, %object
	.size	bitMap.9181, 256
bitMap.9181:
	.word	1
	.word	0
	.word	2
	.word	0
	.word	4
	.word	0
	.word	8
	.word	0
	.word	16
	.word	0
	.word	32
	.word	0
	.word	64
	.word	0
	.word	128
	.word	0
	.word	256
	.word	0
	.word	512
	.word	0
	.word	1024
	.word	0
	.word	2048
	.word	0
	.word	4096
	.word	0
	.word	8192
	.word	0
	.word	16384
	.word	0
	.word	32768
	.word	0
	.word	65536
	.word	0
	.word	131072
	.word	0
	.word	262144
	.word	0
	.word	524288
	.word	0
	.word	1048576
	.word	0
	.word	2097152
	.word	0
	.word	4194304
	.word	0
	.word	8388608
	.word	0
	.word	16777216
	.word	0
	.word	33554432
	.word	0
	.word	67108864
	.word	0
	.word	134217728
	.word	0
	.word	0
	.word	1
	.word	0
	.word	2
	.word	0
	.word	4
	.word	1073741824
	.word	0
	.type	deh_mobjflags, %object
	.size	deh_mobjflags, 592
deh_mobjflags:
	.word	.LC240
	.space	4
	.word	1
	.word	0
	.word	.LC241
	.space	4
	.word	2
	.word	0
	.word	.LC242
	.space	4
	.word	4
	.word	0
	.word	.LC243
	.space	4
	.word	8
	.word	0
	.word	.LC244
	.space	4
	.word	16
	.word	0
	.word	.LC245
	.space	4
	.word	32
	.word	0
	.word	.LC246
	.space	4
	.word	64
	.word	0
	.word	.LC247
	.space	4
	.word	128
	.word	0
	.word	.LC248
	.space	4
	.word	256
	.word	0
	.word	.LC249
	.space	4
	.word	512
	.word	0
	.word	.LC250
	.space	4
	.word	1024
	.word	0
	.word	.LC251
	.space	4
	.word	2048
	.word	0
	.word	.LC252
	.space	4
	.word	4096
	.word	0
	.word	.LC253
	.space	4
	.word	8192
	.word	0
	.word	.LC254
	.space	4
	.word	16384
	.word	0
	.word	.LC255
	.space	4
	.word	32768
	.word	0
	.word	.LC256
	.space	4
	.word	65536
	.word	0
	.word	.LC257
	.space	4
	.word	131072
	.word	0
	.word	.LC258
	.space	4
	.word	262144
	.word	0
	.word	.LC259
	.space	4
	.word	524288
	.word	0
	.word	.LC260
	.space	4
	.word	1048576
	.word	0
	.word	.LC261
	.space	4
	.word	2097152
	.word	0
	.word	.LC262
	.space	4
	.word	4194304
	.word	0
	.word	.LC263
	.space	4
	.word	8388608
	.word	0
	.word	.LC264
	.space	4
	.word	16777216
	.word	0
	.word	.LC265
	.space	4
	.word	33554432
	.word	0
	.word	.LC266
	.space	4
	.word	67108864
	.word	0
	.word	.LC267
	.space	4
	.word	67108864
	.word	0
	.word	.LC268
	.space	4
	.word	134217728
	.word	0
	.word	.LC269
	.space	4
	.word	134217728
	.word	0
	.word	.LC270
	.space	4
	.word	268435456
	.word	0
	.word	.LC271
	.space	4
	.word	536870912
	.word	0
	.word	.LC272
	.space	4
	.word	1073741824
	.word	0
	.word	.LC273
	.space	4
	.word	1073741824
	.word	0
	.word	.LC274
	.space	4
	.word	0
	.word	1
	.word	.LC275
	.space	4
	.word	0
	.word	2
	.word	.LC276
	.space	4
	.word	0
	.word	4
	.type	mapnamest, %object
	.size	mapnamest, 128
mapnamest:
	.word	s_THUSTR_1
	.word	s_THUSTR_2
	.word	s_THUSTR_3
	.word	s_THUSTR_4
	.word	s_THUSTR_5
	.word	s_THUSTR_6
	.word	s_THUSTR_7
	.word	s_THUSTR_8
	.word	s_THUSTR_9
	.word	s_THUSTR_10
	.word	s_THUSTR_11
	.word	s_THUSTR_12
	.word	s_THUSTR_13
	.word	s_THUSTR_14
	.word	s_THUSTR_15
	.word	s_THUSTR_16
	.word	s_THUSTR_17
	.word	s_THUSTR_18
	.word	s_THUSTR_19
	.word	s_THUSTR_20
	.word	s_THUSTR_21
	.word	s_THUSTR_22
	.word	s_THUSTR_23
	.word	s_THUSTR_24
	.word	s_THUSTR_25
	.word	s_THUSTR_26
	.word	s_THUSTR_27
	.word	s_THUSTR_28
	.word	s_THUSTR_29
	.word	s_THUSTR_30
	.word	s_THUSTR_31
	.word	s_THUSTR_32
	.type	mapnamesp, %object
	.size	mapnamesp, 128
mapnamesp:
	.word	s_PHUSTR_1
	.word	s_PHUSTR_2
	.word	s_PHUSTR_3
	.word	s_PHUSTR_4
	.word	s_PHUSTR_5
	.word	s_PHUSTR_6
	.word	s_PHUSTR_7
	.word	s_PHUSTR_8
	.word	s_PHUSTR_9
	.word	s_PHUSTR_10
	.word	s_PHUSTR_11
	.word	s_PHUSTR_12
	.word	s_PHUSTR_13
	.word	s_PHUSTR_14
	.word	s_PHUSTR_15
	.word	s_PHUSTR_16
	.word	s_PHUSTR_17
	.word	s_PHUSTR_18
	.word	s_PHUSTR_19
	.word	s_PHUSTR_20
	.word	s_PHUSTR_21
	.word	s_PHUSTR_22
	.word	s_PHUSTR_23
	.word	s_PHUSTR_24
	.word	s_PHUSTR_25
	.word	s_PHUSTR_26
	.word	s_PHUSTR_27
	.word	s_PHUSTR_28
	.word	s_PHUSTR_29
	.word	s_PHUSTR_30
	.word	s_PHUSTR_31
	.word	s_PHUSTR_32
	.type	mapnames2, %object
	.size	mapnames2, 128
mapnames2:
	.word	s_HUSTR_1
	.word	s_HUSTR_2
	.word	s_HUSTR_3
	.word	s_HUSTR_4
	.word	s_HUSTR_5
	.word	s_HUSTR_6
	.word	s_HUSTR_7
	.word	s_HUSTR_8
	.word	s_HUSTR_9
	.word	s_HUSTR_10
	.word	s_HUSTR_11
	.word	s_HUSTR_12
	.word	s_HUSTR_13
	.word	s_HUSTR_14
	.word	s_HUSTR_15
	.word	s_HUSTR_16
	.word	s_HUSTR_17
	.word	s_HUSTR_18
	.word	s_HUSTR_19
	.word	s_HUSTR_20
	.word	s_HUSTR_21
	.word	s_HUSTR_22
	.word	s_HUSTR_23
	.word	s_HUSTR_24
	.word	s_HUSTR_25
	.word	s_HUSTR_26
	.word	s_HUSTR_27
	.word	s_HUSTR_28
	.word	s_HUSTR_29
	.word	s_HUSTR_30
	.word	s_HUSTR_31
	.word	s_HUSTR_32
	.type	mapnames, %object
	.size	mapnames, 180
mapnames:
	.word	s_HUSTR_E1M1
	.word	s_HUSTR_E1M2
	.word	s_HUSTR_E1M3
	.word	s_HUSTR_E1M4
	.word	s_HUSTR_E1M5
	.word	s_HUSTR_E1M6
	.word	s_HUSTR_E1M7
	.word	s_HUSTR_E1M8
	.word	s_HUSTR_E1M9
	.word	s_HUSTR_E2M1
	.word	s_HUSTR_E2M2
	.word	s_HUSTR_E2M3
	.word	s_HUSTR_E2M4
	.word	s_HUSTR_E2M5
	.word	s_HUSTR_E2M6
	.word	s_HUSTR_E2M7
	.word	s_HUSTR_E2M8
	.word	s_HUSTR_E2M9
	.word	s_HUSTR_E3M1
	.word	s_HUSTR_E3M2
	.word	s_HUSTR_E3M3
	.word	s_HUSTR_E3M4
	.word	s_HUSTR_E3M5
	.word	s_HUSTR_E3M6
	.word	s_HUSTR_E3M7
	.word	s_HUSTR_E3M8
	.word	s_HUSTR_E3M9
	.word	s_HUSTR_E4M1
	.word	s_HUSTR_E4M2
	.word	s_HUSTR_E4M3
	.word	s_HUSTR_E4M4
	.word	s_HUSTR_E4M5
	.word	s_HUSTR_E4M6
	.word	s_HUSTR_E4M7
	.word	s_HUSTR_E4M8
	.word	s_HUSTR_E4M9
	.word	deh_newlevel
	.word	deh_newlevel
	.word	deh_newlevel
	.word	deh_newlevel
	.word	deh_newlevel
	.word	deh_newlevel
	.word	deh_newlevel
	.word	deh_newlevel
	.word	deh_newlevel
	.data
	.align	2
	.set	.LANCHOR2,. + 0
	.type	deh_strlookup, %object
	.size	deh_strlookup, 3672
deh_strlookup:
	.word	s_D_DEVSTR
	.word	.LC319
	.space	4
	.word	s_D_CDROM
	.word	.LC320
	.space	4
	.word	s_PRESSKEY
	.word	.LC321
	.space	4
	.word	s_PRESSYN
	.word	.LC322
	.space	4
	.word	s_QUITMSG
	.word	.LC323
	.space	4
	.word	s_QSAVESPOT
	.word	.LC324
	.space	4
	.word	s_SAVEDEAD
	.word	.LC325
	.space	4
	.word	s_NEWGAME
	.word	.LC326
	.space	4
	.word	s_RESTARTLEVEL
	.word	.LC327
	.space	4
	.word	s_NIGHTMARE
	.word	.LC328
	.space	4
	.word	s_SWSTRING
	.word	.LC329
	.space	4
	.word	s_MSGOFF
	.word	.LC330
	.space	4
	.word	s_MSGON
	.word	.LC331
	.space	4
	.word	s_NETEND
	.word	.LC332
	.space	4
	.word	s_ENDGAME
	.word	.LC333
	.space	4
	.word	s_DOSY
	.word	.LC334
	.space	4
	.word	s_DETAILHI
	.word	.LC335
	.space	4
	.word	s_DETAILLO
	.word	.LC336
	.space	4
	.word	s_GAMMALVL0
	.word	.LC337
	.space	4
	.word	s_GAMMALVL1
	.word	.LC338
	.space	4
	.word	s_GAMMALVL2
	.word	.LC339
	.space	4
	.word	s_GAMMALVL3
	.word	.LC340
	.space	4
	.word	s_GAMMALVL4
	.word	.LC341
	.space	4
	.word	s_EMPTYSTRING
	.word	.LC342
	.space	4
	.word	s_GOTARMOR
	.word	.LC343
	.space	4
	.word	s_GOTMEGA
	.word	.LC344
	.space	4
	.word	s_GOTHTHBONUS
	.word	.LC345
	.space	4
	.word	s_GOTARMBONUS
	.word	.LC346
	.space	4
	.word	s_GOTSTIM
	.word	.LC347
	.space	4
	.word	s_GOTMEDINEED
	.word	.LC348
	.space	4
	.word	s_GOTMEDIKIT
	.word	.LC349
	.space	4
	.word	s_GOTSUPER
	.word	.LC350
	.space	4
	.word	s_GOTBLUECARD
	.word	.LC351
	.space	4
	.word	s_GOTYELWCARD
	.word	.LC352
	.space	4
	.word	s_GOTREDCARD
	.word	.LC353
	.space	4
	.word	s_GOTBLUESKUL
	.word	.LC354
	.space	4
	.word	s_GOTYELWSKUL
	.word	.LC355
	.space	4
	.word	s_GOTREDSKULL
	.word	.LC356
	.space	4
	.word	s_GOTINVUL
	.word	.LC357
	.space	4
	.word	s_GOTBERSERK
	.word	.LC358
	.space	4
	.word	s_GOTINVIS
	.word	.LC359
	.space	4
	.word	s_GOTSUIT
	.word	.LC360
	.space	4
	.word	s_GOTMAP
	.word	.LC361
	.space	4
	.word	s_GOTVISOR
	.word	.LC362
	.space	4
	.word	s_GOTMSPHERE
	.word	.LC363
	.space	4
	.word	s_GOTCLIP
	.word	.LC364
	.space	4
	.word	s_GOTCLIPBOX
	.word	.LC365
	.space	4
	.word	s_GOTROCKET
	.word	.LC366
	.space	4
	.word	s_GOTROCKBOX
	.word	.LC367
	.space	4
	.word	s_GOTCELL
	.word	.LC368
	.space	4
	.word	s_GOTCELLBOX
	.word	.LC369
	.space	4
	.word	s_GOTSHELLS
	.word	.LC370
	.space	4
	.word	s_GOTSHELLBOX
	.word	.LC371
	.space	4
	.word	s_GOTBACKPACK
	.word	.LC372
	.space	4
	.word	s_GOTBFG9000
	.word	.LC373
	.space	4
	.word	s_GOTCHAINGUN
	.word	.LC374
	.space	4
	.word	s_GOTCHAINSAW
	.word	.LC375
	.space	4
	.word	s_GOTLAUNCHER
	.word	.LC376
	.space	4
	.word	s_GOTPLASMA
	.word	.LC377
	.space	4
	.word	s_GOTSHOTGUN
	.word	.LC378
	.space	4
	.word	s_GOTSHOTGUN2
	.word	.LC379
	.space	4
	.word	s_PD_BLUEO
	.word	.LC380
	.space	4
	.word	s_PD_REDO
	.word	.LC381
	.space	4
	.word	s_PD_YELLOWO
	.word	.LC382
	.space	4
	.word	s_PD_BLUEK
	.word	.LC383
	.space	4
	.word	s_PD_REDK
	.word	.LC384
	.space	4
	.word	s_PD_YELLOWK
	.word	.LC385
	.space	4
	.word	s_PD_BLUEC
	.word	.LC386
	.space	4
	.word	s_PD_REDC
	.word	.LC387
	.space	4
	.word	s_PD_YELLOWC
	.word	.LC388
	.space	4
	.word	s_PD_BLUES
	.word	.LC389
	.space	4
	.word	s_PD_REDS
	.word	.LC390
	.space	4
	.word	s_PD_YELLOWS
	.word	.LC391
	.space	4
	.word	s_PD_ANY
	.word	.LC392
	.space	4
	.word	s_PD_ALL3
	.word	.LC393
	.space	4
	.word	s_PD_ALL6
	.word	.LC394
	.space	4
	.word	s_GGSAVED
	.word	.LC395
	.space	4
	.word	s_HUSTR_MSGU
	.word	.LC396
	.space	4
	.word	s_HUSTR_E1M1
	.word	.LC397
	.space	4
	.word	s_HUSTR_E1M2
	.word	.LC398
	.space	4
	.word	s_HUSTR_E1M3
	.word	.LC399
	.space	4
	.word	s_HUSTR_E1M4
	.word	.LC400
	.space	4
	.word	s_HUSTR_E1M5
	.word	.LC401
	.space	4
	.word	s_HUSTR_E1M6
	.word	.LC402
	.space	4
	.word	s_HUSTR_E1M7
	.word	.LC403
	.space	4
	.word	s_HUSTR_E1M8
	.word	.LC404
	.space	4
	.word	s_HUSTR_E1M9
	.word	.LC405
	.space	4
	.word	s_HUSTR_E2M1
	.word	.LC406
	.space	4
	.word	s_HUSTR_E2M2
	.word	.LC407
	.space	4
	.word	s_HUSTR_E2M3
	.word	.LC408
	.space	4
	.word	s_HUSTR_E2M4
	.word	.LC409
	.space	4
	.word	s_HUSTR_E2M5
	.word	.LC410
	.space	4
	.word	s_HUSTR_E2M6
	.word	.LC411
	.space	4
	.word	s_HUSTR_E2M7
	.word	.LC412
	.space	4
	.word	s_HUSTR_E2M8
	.word	.LC413
	.space	4
	.word	s_HUSTR_E2M9
	.word	.LC414
	.space	4
	.word	s_HUSTR_E3M1
	.word	.LC415
	.space	4
	.word	s_HUSTR_E3M2
	.word	.LC416
	.space	4
	.word	s_HUSTR_E3M3
	.word	.LC417
	.space	4
	.word	s_HUSTR_E3M4
	.word	.LC418
	.space	4
	.word	s_HUSTR_E3M5
	.word	.LC419
	.space	4
	.word	s_HUSTR_E3M6
	.word	.LC420
	.space	4
	.word	s_HUSTR_E3M7
	.word	.LC421
	.space	4
	.word	s_HUSTR_E3M8
	.word	.LC422
	.space	4
	.word	s_HUSTR_E3M9
	.word	.LC423
	.space	4
	.word	s_HUSTR_E4M1
	.word	.LC424
	.space	4
	.word	s_HUSTR_E4M2
	.word	.LC425
	.space	4
	.word	s_HUSTR_E4M3
	.word	.LC426
	.space	4
	.word	s_HUSTR_E4M4
	.word	.LC427
	.space	4
	.word	s_HUSTR_E4M5
	.word	.LC428
	.space	4
	.word	s_HUSTR_E4M6
	.word	.LC429
	.space	4
	.word	s_HUSTR_E4M7
	.word	.LC430
	.space	4
	.word	s_HUSTR_E4M8
	.word	.LC431
	.space	4
	.word	s_HUSTR_E4M9
	.word	.LC432
	.space	4
	.word	s_HUSTR_1
	.word	.LC433
	.space	4
	.word	s_HUSTR_2
	.word	.LC434
	.space	4
	.word	s_HUSTR_3
	.word	.LC435
	.space	4
	.word	s_HUSTR_4
	.word	.LC436
	.space	4
	.word	s_HUSTR_5
	.word	.LC437
	.space	4
	.word	s_HUSTR_6
	.word	.LC438
	.space	4
	.word	s_HUSTR_7
	.word	.LC439
	.space	4
	.word	s_HUSTR_8
	.word	.LC440
	.space	4
	.word	s_HUSTR_9
	.word	.LC441
	.space	4
	.word	s_HUSTR_10
	.word	.LC442
	.space	4
	.word	s_HUSTR_11
	.word	.LC443
	.space	4
	.word	s_HUSTR_12
	.word	.LC444
	.space	4
	.word	s_HUSTR_13
	.word	.LC445
	.space	4
	.word	s_HUSTR_14
	.word	.LC446
	.space	4
	.word	s_HUSTR_15
	.word	.LC447
	.space	4
	.word	s_HUSTR_16
	.word	.LC448
	.space	4
	.word	s_HUSTR_17
	.word	.LC449
	.space	4
	.word	s_HUSTR_18
	.word	.LC450
	.space	4
	.word	s_HUSTR_19
	.word	.LC451
	.space	4
	.word	s_HUSTR_20
	.word	.LC452
	.space	4
	.word	s_HUSTR_21
	.word	.LC453
	.space	4
	.word	s_HUSTR_22
	.word	.LC454
	.space	4
	.word	s_HUSTR_23
	.word	.LC455
	.space	4
	.word	s_HUSTR_24
	.word	.LC456
	.space	4
	.word	s_HUSTR_25
	.word	.LC457
	.space	4
	.word	s_HUSTR_26
	.word	.LC458
	.space	4
	.word	s_HUSTR_27
	.word	.LC459
	.space	4
	.word	s_HUSTR_28
	.word	.LC460
	.space	4
	.word	s_HUSTR_29
	.word	.LC461
	.space	4
	.word	s_HUSTR_30
	.word	.LC462
	.space	4
	.word	s_HUSTR_31
	.word	.LC463
	.space	4
	.word	s_HUSTR_32
	.word	.LC464
	.space	4
	.word	s_PHUSTR_1
	.word	.LC465
	.space	4
	.word	s_PHUSTR_2
	.word	.LC466
	.space	4
	.word	s_PHUSTR_3
	.word	.LC467
	.space	4
	.word	s_PHUSTR_4
	.word	.LC468
	.space	4
	.word	s_PHUSTR_5
	.word	.LC469
	.space	4
	.word	s_PHUSTR_6
	.word	.LC470
	.space	4
	.word	s_PHUSTR_7
	.word	.LC471
	.space	4
	.word	s_PHUSTR_8
	.word	.LC472
	.space	4
	.word	s_PHUSTR_9
	.word	.LC473
	.space	4
	.word	s_PHUSTR_10
	.word	.LC474
	.space	4
	.word	s_PHUSTR_11
	.word	.LC475
	.space	4
	.word	s_PHUSTR_12
	.word	.LC476
	.space	4
	.word	s_PHUSTR_13
	.word	.LC477
	.space	4
	.word	s_PHUSTR_14
	.word	.LC478
	.space	4
	.word	s_PHUSTR_15
	.word	.LC479
	.space	4
	.word	s_PHUSTR_16
	.word	.LC480
	.space	4
	.word	s_PHUSTR_17
	.word	.LC481
	.space	4
	.word	s_PHUSTR_18
	.word	.LC482
	.space	4
	.word	s_PHUSTR_19
	.word	.LC483
	.space	4
	.word	s_PHUSTR_20
	.word	.LC484
	.space	4
	.word	s_PHUSTR_21
	.word	.LC485
	.space	4
	.word	s_PHUSTR_22
	.word	.LC486
	.space	4
	.word	s_PHUSTR_23
	.word	.LC487
	.space	4
	.word	s_PHUSTR_24
	.word	.LC488
	.space	4
	.word	s_PHUSTR_25
	.word	.LC489
	.space	4
	.word	s_PHUSTR_26
	.word	.LC490
	.space	4
	.word	s_PHUSTR_27
	.word	.LC491
	.space	4
	.word	s_PHUSTR_28
	.word	.LC492
	.space	4
	.word	s_PHUSTR_29
	.word	.LC493
	.space	4
	.word	s_PHUSTR_30
	.word	.LC494
	.space	4
	.word	s_PHUSTR_31
	.word	.LC495
	.space	4
	.word	s_PHUSTR_32
	.word	.LC496
	.space	4
	.word	s_THUSTR_1
	.word	.LC497
	.space	4
	.word	s_THUSTR_2
	.word	.LC498
	.space	4
	.word	s_THUSTR_3
	.word	.LC499
	.space	4
	.word	s_THUSTR_4
	.word	.LC500
	.space	4
	.word	s_THUSTR_5
	.word	.LC501
	.space	4
	.word	s_THUSTR_6
	.word	.LC502
	.space	4
	.word	s_THUSTR_7
	.word	.LC503
	.space	4
	.word	s_THUSTR_8
	.word	.LC504
	.space	4
	.word	s_THUSTR_9
	.word	.LC505
	.space	4
	.word	s_THUSTR_10
	.word	.LC506
	.space	4
	.word	s_THUSTR_11
	.word	.LC507
	.space	4
	.word	s_THUSTR_12
	.word	.LC508
	.space	4
	.word	s_THUSTR_13
	.word	.LC509
	.space	4
	.word	s_THUSTR_14
	.word	.LC510
	.space	4
	.word	s_THUSTR_15
	.word	.LC511
	.space	4
	.word	s_THUSTR_16
	.word	.LC512
	.space	4
	.word	s_THUSTR_17
	.word	.LC513
	.space	4
	.word	s_THUSTR_18
	.word	.LC514
	.space	4
	.word	s_THUSTR_19
	.word	.LC515
	.space	4
	.word	s_THUSTR_20
	.word	.LC516
	.space	4
	.word	s_THUSTR_21
	.word	.LC517
	.space	4
	.word	s_THUSTR_22
	.word	.LC518
	.space	4
	.word	s_THUSTR_23
	.word	.LC519
	.space	4
	.word	s_THUSTR_24
	.word	.LC520
	.space	4
	.word	s_THUSTR_25
	.word	.LC521
	.space	4
	.word	s_THUSTR_26
	.word	.LC522
	.space	4
	.word	s_THUSTR_27
	.word	.LC523
	.space	4
	.word	s_THUSTR_28
	.word	.LC524
	.space	4
	.word	s_THUSTR_29
	.word	.LC525
	.space	4
	.word	s_THUSTR_30
	.word	.LC526
	.space	4
	.word	s_THUSTR_31
	.word	.LC527
	.space	4
	.word	s_THUSTR_32
	.word	.LC528
	.space	4
	.word	s_HUSTR_CHATMACRO1
	.word	.LC529
	.space	4
	.word	s_HUSTR_CHATMACRO2
	.word	.LC530
	.space	4
	.word	s_HUSTR_CHATMACRO3
	.word	.LC531
	.space	4
	.word	s_HUSTR_CHATMACRO4
	.word	.LC532
	.space	4
	.word	s_HUSTR_CHATMACRO5
	.word	.LC533
	.space	4
	.word	s_HUSTR_CHATMACRO6
	.word	.LC534
	.space	4
	.word	s_HUSTR_CHATMACRO7
	.word	.LC535
	.space	4
	.word	s_HUSTR_CHATMACRO8
	.word	.LC536
	.space	4
	.word	s_HUSTR_CHATMACRO9
	.word	.LC537
	.space	4
	.word	s_HUSTR_CHATMACRO0
	.word	.LC538
	.space	4
	.word	s_HUSTR_TALKTOSELF1
	.word	.LC539
	.space	4
	.word	s_HUSTR_TALKTOSELF2
	.word	.LC540
	.space	4
	.word	s_HUSTR_TALKTOSELF3
	.word	.LC541
	.space	4
	.word	s_HUSTR_TALKTOSELF4
	.word	.LC542
	.space	4
	.word	s_HUSTR_TALKTOSELF5
	.word	.LC543
	.space	4
	.word	s_HUSTR_MESSAGESENT
	.word	.LC544
	.space	4
	.word	s_HUSTR_PLRGREEN
	.word	.LC545
	.space	4
	.word	s_HUSTR_PLRINDIGO
	.word	.LC546
	.space	4
	.word	s_HUSTR_PLRBROWN
	.word	.LC547
	.space	4
	.word	s_HUSTR_PLRRED
	.word	.LC548
	.space	4
	.word	s_AMSTR_FOLLOWON
	.word	.LC549
	.space	4
	.word	s_AMSTR_FOLLOWOFF
	.word	.LC550
	.space	4
	.word	s_AMSTR_GRIDON
	.word	.LC551
	.space	4
	.word	s_AMSTR_GRIDOFF
	.word	.LC552
	.space	4
	.word	s_AMSTR_MARKEDSPOT
	.word	.LC553
	.space	4
	.word	s_AMSTR_MARKSCLEARED
	.word	.LC554
	.space	4
	.word	s_STSTR_MUS
	.word	.LC555
	.space	4
	.word	s_STSTR_NOMUS
	.word	.LC556
	.space	4
	.word	s_STSTR_DQDON
	.word	.LC557
	.space	4
	.word	s_STSTR_DQDOFF
	.word	.LC558
	.space	4
	.word	s_STSTR_KFAADDED
	.word	.LC559
	.space	4
	.word	s_STSTR_FAADDED
	.word	.LC560
	.space	4
	.word	s_STSTR_NCON
	.word	.LC561
	.space	4
	.word	s_STSTR_NCOFF
	.word	.LC562
	.space	4
	.word	s_STSTR_BEHOLD
	.word	.LC563
	.space	4
	.word	s_STSTR_BEHOLDX
	.word	.LC564
	.space	4
	.word	s_STSTR_CHOPPERS
	.word	.LC565
	.space	4
	.word	s_STSTR_CLEV
	.word	.LC566
	.space	4
	.word	s_STSTR_COMPON
	.word	.LC567
	.space	4
	.word	s_STSTR_COMPOFF
	.word	.LC568
	.space	4
	.word	s_E1TEXT
	.word	.LC569
	.space	4
	.word	s_E2TEXT
	.word	.LC570
	.space	4
	.word	s_E3TEXT
	.word	.LC571
	.space	4
	.word	s_E4TEXT
	.word	.LC572
	.space	4
	.word	s_C1TEXT
	.word	.LC573
	.space	4
	.word	s_C2TEXT
	.word	.LC574
	.space	4
	.word	s_C3TEXT
	.word	.LC575
	.space	4
	.word	s_C4TEXT
	.word	.LC576
	.space	4
	.word	s_C5TEXT
	.word	.LC577
	.space	4
	.word	s_C6TEXT
	.word	.LC578
	.space	4
	.word	s_P1TEXT
	.word	.LC579
	.space	4
	.word	s_P2TEXT
	.word	.LC580
	.space	4
	.word	s_P3TEXT
	.word	.LC581
	.space	4
	.word	s_P4TEXT
	.word	.LC582
	.space	4
	.word	s_P5TEXT
	.word	.LC583
	.space	4
	.word	s_P6TEXT
	.word	.LC584
	.space	4
	.word	s_T1TEXT
	.word	.LC585
	.space	4
	.word	s_T2TEXT
	.word	.LC586
	.space	4
	.word	s_T3TEXT
	.word	.LC587
	.space	4
	.word	s_T4TEXT
	.word	.LC588
	.space	4
	.word	s_T5TEXT
	.word	.LC589
	.space	4
	.word	s_T6TEXT
	.word	.LC590
	.space	4
	.word	s_CC_ZOMBIE
	.word	.LC591
	.space	4
	.word	s_CC_SHOTGUN
	.word	.LC592
	.space	4
	.word	s_CC_HEAVY
	.word	.LC593
	.space	4
	.word	s_CC_IMP
	.word	.LC594
	.space	4
	.word	s_CC_DEMON
	.word	.LC595
	.space	4
	.word	s_CC_LOST
	.word	.LC596
	.space	4
	.word	s_CC_CACO
	.word	.LC597
	.space	4
	.word	s_CC_HELL
	.word	.LC598
	.space	4
	.word	s_CC_BARON
	.word	.LC599
	.space	4
	.word	s_CC_ARACH
	.word	.LC600
	.space	4
	.word	s_CC_PAIN
	.word	.LC601
	.space	4
	.word	s_CC_REVEN
	.word	.LC602
	.space	4
	.word	s_CC_MANCU
	.word	.LC603
	.space	4
	.word	s_CC_ARCH
	.word	.LC604
	.space	4
	.word	s_CC_SPIDER
	.word	.LC605
	.space	4
	.word	s_CC_CYBER
	.word	.LC606
	.space	4
	.word	s_CC_HERO
	.word	.LC607
	.space	4
	.word	bgflatE1
	.word	.LC608
	.space	4
	.word	bgflatE2
	.word	.LC609
	.space	4
	.word	bgflatE3
	.word	.LC610
	.space	4
	.word	bgflatE4
	.word	.LC611
	.space	4
	.word	bgflat06
	.word	.LC612
	.space	4
	.word	bgflat11
	.word	.LC613
	.space	4
	.word	bgflat20
	.word	.LC614
	.space	4
	.word	bgflat30
	.word	.LC615
	.space	4
	.word	bgflat15
	.word	.LC616
	.space	4
	.word	bgflat31
	.word	.LC617
	.space	4
	.word	bgcastcall
	.word	.LC618
	.space	4
	.word	startup1
	.word	.LC619
	.space	4
	.word	startup2
	.word	.LC620
	.space	4
	.word	startup3
	.word	.LC621
	.space	4
	.word	startup4
	.word	.LC622
	.space	4
	.word	startup5
	.word	.LC623
	.space	4
	.word	savegamename
	.word	.LC624
	.space	4
	.type	firstfile.9152, %object
	.size	firstfile.9152, 4
firstfile.9152:
	.word	1
	.type	HelperThing, %object
	.size	HelperThing, 4
HelperThing:
	.word	-1
	.type	maxstrlen.9423, %object
	.size	maxstrlen.9423, 4
maxstrlen.9423:
	.word	128
	.type	deh_newlevel, %object
	.size	deh_newlevel, 4
deh_newlevel:
	.word	.LC318
	.type	savegamename, %object
	.size	savegamename, 4
savegamename:
	.word	.LC625
	.type	startup5, %object
	.size	startup5, 4
startup5:
	.word	.LC8
	.type	startup4, %object
	.size	startup4, 4
startup4:
	.word	.LC8
	.type	startup3, %object
	.size	startup3, 4
startup3:
	.word	.LC8
	.type	startup2, %object
	.size	startup2, 4
startup2:
	.word	.LC8
	.type	startup1, %object
	.size	startup1, 4
startup1:
	.word	.LC8
	.type	bgcastcall, %object
	.size	bgcastcall, 4
bgcastcall:
	.word	.LC626
	.type	bgflat31, %object
	.size	bgflat31, 4
bgflat31:
	.word	.LC627
	.type	bgflat15, %object
	.size	bgflat15, 4
bgflat15:
	.word	.LC628
	.type	bgflat30, %object
	.size	bgflat30, 4
bgflat30:
	.word	.LC629
	.type	bgflat20, %object
	.size	bgflat20, 4
bgflat20:
	.word	.LC630
	.type	bgflat11, %object
	.size	bgflat11, 4
bgflat11:
	.word	.LC631
	.type	bgflat06, %object
	.size	bgflat06, 4
bgflat06:
	.word	.LC632
	.type	bgflatE4, %object
	.size	bgflatE4, 4
bgflatE4:
	.word	.LC633
	.type	bgflatE3, %object
	.size	bgflatE3, 4
bgflatE3:
	.word	.LC634
	.type	bgflatE2, %object
	.size	bgflatE2, 4
bgflatE2:
	.word	.LC635
	.type	bgflatE1, %object
	.size	bgflatE1, 4
bgflatE1:
	.word	.LC636
	.type	s_CC_HERO, %object
	.size	s_CC_HERO, 4
s_CC_HERO:
	.word	.LC637
	.type	s_CC_CYBER, %object
	.size	s_CC_CYBER, 4
s_CC_CYBER:
	.word	.LC638
	.type	s_CC_SPIDER, %object
	.size	s_CC_SPIDER, 4
s_CC_SPIDER:
	.word	.LC639
	.type	s_CC_ARCH, %object
	.size	s_CC_ARCH, 4
s_CC_ARCH:
	.word	.LC640
	.type	s_CC_MANCU, %object
	.size	s_CC_MANCU, 4
s_CC_MANCU:
	.word	.LC641
	.type	s_CC_REVEN, %object
	.size	s_CC_REVEN, 4
s_CC_REVEN:
	.word	.LC642
	.type	s_CC_PAIN, %object
	.size	s_CC_PAIN, 4
s_CC_PAIN:
	.word	.LC643
	.type	s_CC_ARACH, %object
	.size	s_CC_ARACH, 4
s_CC_ARACH:
	.word	.LC644
	.type	s_CC_BARON, %object
	.size	s_CC_BARON, 4
s_CC_BARON:
	.word	.LC645
	.type	s_CC_HELL, %object
	.size	s_CC_HELL, 4
s_CC_HELL:
	.word	.LC646
	.type	s_CC_CACO, %object
	.size	s_CC_CACO, 4
s_CC_CACO:
	.word	.LC647
	.type	s_CC_LOST, %object
	.size	s_CC_LOST, 4
s_CC_LOST:
	.word	.LC648
	.type	s_CC_DEMON, %object
	.size	s_CC_DEMON, 4
s_CC_DEMON:
	.word	.LC649
	.type	s_CC_IMP, %object
	.size	s_CC_IMP, 4
s_CC_IMP:
	.word	.LC650
	.type	s_CC_HEAVY, %object
	.size	s_CC_HEAVY, 4
s_CC_HEAVY:
	.word	.LC651
	.type	s_CC_SHOTGUN, %object
	.size	s_CC_SHOTGUN, 4
s_CC_SHOTGUN:
	.word	.LC652
	.type	s_CC_ZOMBIE, %object
	.size	s_CC_ZOMBIE, 4
s_CC_ZOMBIE:
	.word	.LC653
	.type	s_T6TEXT, %object
	.size	s_T6TEXT, 4
s_T6TEXT:
	.word	.LC654
	.type	s_T5TEXT, %object
	.size	s_T5TEXT, 4
s_T5TEXT:
	.word	.LC655
	.type	s_T4TEXT, %object
	.size	s_T4TEXT, 4
s_T4TEXT:
	.word	.LC656
	.type	s_T3TEXT, %object
	.size	s_T3TEXT, 4
s_T3TEXT:
	.word	.LC657
	.type	s_T2TEXT, %object
	.size	s_T2TEXT, 4
s_T2TEXT:
	.word	.LC658
	.type	s_T1TEXT, %object
	.size	s_T1TEXT, 4
s_T1TEXT:
	.word	.LC659
	.type	s_P6TEXT, %object
	.size	s_P6TEXT, 4
s_P6TEXT:
	.word	.LC660
	.type	s_P5TEXT, %object
	.size	s_P5TEXT, 4
s_P5TEXT:
	.word	.LC661
	.type	s_P4TEXT, %object
	.size	s_P4TEXT, 4
s_P4TEXT:
	.word	.LC662
	.type	s_P3TEXT, %object
	.size	s_P3TEXT, 4
s_P3TEXT:
	.word	.LC663
	.type	s_P2TEXT, %object
	.size	s_P2TEXT, 4
s_P2TEXT:
	.word	.LC664
	.type	s_P1TEXT, %object
	.size	s_P1TEXT, 4
s_P1TEXT:
	.word	.LC665
	.type	s_C6TEXT, %object
	.size	s_C6TEXT, 4
s_C6TEXT:
	.word	.LC666
	.type	s_C5TEXT, %object
	.size	s_C5TEXT, 4
s_C5TEXT:
	.word	.LC667
	.type	s_C4TEXT, %object
	.size	s_C4TEXT, 4
s_C4TEXT:
	.word	.LC668
	.type	s_C3TEXT, %object
	.size	s_C3TEXT, 4
s_C3TEXT:
	.word	.LC669
	.type	s_C2TEXT, %object
	.size	s_C2TEXT, 4
s_C2TEXT:
	.word	.LC670
	.type	s_C1TEXT, %object
	.size	s_C1TEXT, 4
s_C1TEXT:
	.word	.LC671
	.type	s_E4TEXT, %object
	.size	s_E4TEXT, 4
s_E4TEXT:
	.word	.LC672
	.type	s_E3TEXT, %object
	.size	s_E3TEXT, 4
s_E3TEXT:
	.word	.LC673
	.type	s_E2TEXT, %object
	.size	s_E2TEXT, 4
s_E2TEXT:
	.word	.LC674
	.type	s_E1TEXT, %object
	.size	s_E1TEXT, 4
s_E1TEXT:
	.word	.LC675
	.type	s_STSTR_COMPOFF, %object
	.size	s_STSTR_COMPOFF, 4
s_STSTR_COMPOFF:
	.word	.LC676
	.type	s_STSTR_COMPON, %object
	.size	s_STSTR_COMPON, 4
s_STSTR_COMPON:
	.word	.LC677
	.type	s_STSTR_CLEV, %object
	.size	s_STSTR_CLEV, 4
s_STSTR_CLEV:
	.word	.LC678
	.type	s_STSTR_CHOPPERS, %object
	.size	s_STSTR_CHOPPERS, 4
s_STSTR_CHOPPERS:
	.word	.LC679
	.type	s_STSTR_BEHOLDX, %object
	.size	s_STSTR_BEHOLDX, 4
s_STSTR_BEHOLDX:
	.word	.LC680
	.type	s_STSTR_BEHOLD, %object
	.size	s_STSTR_BEHOLD, 4
s_STSTR_BEHOLD:
	.word	.LC681
	.type	s_STSTR_NCOFF, %object
	.size	s_STSTR_NCOFF, 4
s_STSTR_NCOFF:
	.word	.LC682
	.type	s_STSTR_NCON, %object
	.size	s_STSTR_NCON, 4
s_STSTR_NCON:
	.word	.LC683
	.type	s_STSTR_FAADDED, %object
	.size	s_STSTR_FAADDED, 4
s_STSTR_FAADDED:
	.word	.LC684
	.type	s_STSTR_KFAADDED, %object
	.size	s_STSTR_KFAADDED, 4
s_STSTR_KFAADDED:
	.word	.LC685
	.type	s_STSTR_DQDOFF, %object
	.size	s_STSTR_DQDOFF, 4
s_STSTR_DQDOFF:
	.word	.LC686
	.type	s_STSTR_DQDON, %object
	.size	s_STSTR_DQDON, 4
s_STSTR_DQDON:
	.word	.LC687
	.type	s_STSTR_NOMUS, %object
	.size	s_STSTR_NOMUS, 4
s_STSTR_NOMUS:
	.word	.LC688
	.type	s_STSTR_MUS, %object
	.size	s_STSTR_MUS, 4
s_STSTR_MUS:
	.word	.LC689
	.type	s_AMSTR_OVERLAYOFF, %object
	.size	s_AMSTR_OVERLAYOFF, 4
s_AMSTR_OVERLAYOFF:
	.word	.LC690
	.type	s_AMSTR_OVERLAYON, %object
	.size	s_AMSTR_OVERLAYON, 4
s_AMSTR_OVERLAYON:
	.word	.LC691
	.type	s_AMSTR_ROTATEOFF, %object
	.size	s_AMSTR_ROTATEOFF, 4
s_AMSTR_ROTATEOFF:
	.word	.LC692
	.type	s_AMSTR_ROTATEON, %object
	.size	s_AMSTR_ROTATEON, 4
s_AMSTR_ROTATEON:
	.word	.LC693
	.type	s_AMSTR_MARKSCLEARED, %object
	.size	s_AMSTR_MARKSCLEARED, 4
s_AMSTR_MARKSCLEARED:
	.word	.LC694
	.type	s_AMSTR_MARKEDSPOT, %object
	.size	s_AMSTR_MARKEDSPOT, 4
s_AMSTR_MARKEDSPOT:
	.word	.LC695
	.type	s_AMSTR_GRIDOFF, %object
	.size	s_AMSTR_GRIDOFF, 4
s_AMSTR_GRIDOFF:
	.word	.LC696
	.type	s_AMSTR_GRIDON, %object
	.size	s_AMSTR_GRIDON, 4
s_AMSTR_GRIDON:
	.word	.LC697
	.type	s_AMSTR_FOLLOWOFF, %object
	.size	s_AMSTR_FOLLOWOFF, 4
s_AMSTR_FOLLOWOFF:
	.word	.LC698
	.type	s_AMSTR_FOLLOWON, %object
	.size	s_AMSTR_FOLLOWON, 4
s_AMSTR_FOLLOWON:
	.word	.LC699
	.type	s_HUSTR_PLRRED, %object
	.size	s_HUSTR_PLRRED, 4
s_HUSTR_PLRRED:
	.word	.LC700
	.type	s_HUSTR_PLRBROWN, %object
	.size	s_HUSTR_PLRBROWN, 4
s_HUSTR_PLRBROWN:
	.word	.LC701
	.type	s_HUSTR_PLRINDIGO, %object
	.size	s_HUSTR_PLRINDIGO, 4
s_HUSTR_PLRINDIGO:
	.word	.LC702
	.type	s_HUSTR_PLRGREEN, %object
	.size	s_HUSTR_PLRGREEN, 4
s_HUSTR_PLRGREEN:
	.word	.LC703
	.type	s_HUSTR_MESSAGESENT, %object
	.size	s_HUSTR_MESSAGESENT, 4
s_HUSTR_MESSAGESENT:
	.word	.LC704
	.type	s_HUSTR_TALKTOSELF5, %object
	.size	s_HUSTR_TALKTOSELF5, 4
s_HUSTR_TALKTOSELF5:
	.word	.LC705
	.type	s_HUSTR_TALKTOSELF4, %object
	.size	s_HUSTR_TALKTOSELF4, 4
s_HUSTR_TALKTOSELF4:
	.word	.LC706
	.type	s_HUSTR_TALKTOSELF3, %object
	.size	s_HUSTR_TALKTOSELF3, 4
s_HUSTR_TALKTOSELF3:
	.word	.LC707
	.type	s_HUSTR_TALKTOSELF2, %object
	.size	s_HUSTR_TALKTOSELF2, 4
s_HUSTR_TALKTOSELF2:
	.word	.LC708
	.type	s_HUSTR_TALKTOSELF1, %object
	.size	s_HUSTR_TALKTOSELF1, 4
s_HUSTR_TALKTOSELF1:
	.word	.LC709
	.type	s_HUSTR_CHATMACRO0, %object
	.size	s_HUSTR_CHATMACRO0, 4
s_HUSTR_CHATMACRO0:
	.word	.LC710
	.type	s_HUSTR_CHATMACRO9, %object
	.size	s_HUSTR_CHATMACRO9, 4
s_HUSTR_CHATMACRO9:
	.word	.LC711
	.type	s_HUSTR_CHATMACRO8, %object
	.size	s_HUSTR_CHATMACRO8, 4
s_HUSTR_CHATMACRO8:
	.word	.LC712
	.type	s_HUSTR_CHATMACRO7, %object
	.size	s_HUSTR_CHATMACRO7, 4
s_HUSTR_CHATMACRO7:
	.word	.LC713
	.type	s_HUSTR_CHATMACRO6, %object
	.size	s_HUSTR_CHATMACRO6, 4
s_HUSTR_CHATMACRO6:
	.word	.LC714
	.type	s_HUSTR_CHATMACRO5, %object
	.size	s_HUSTR_CHATMACRO5, 4
s_HUSTR_CHATMACRO5:
	.word	.LC715
	.type	s_HUSTR_CHATMACRO4, %object
	.size	s_HUSTR_CHATMACRO4, 4
s_HUSTR_CHATMACRO4:
	.word	.LC716
	.type	s_HUSTR_CHATMACRO3, %object
	.size	s_HUSTR_CHATMACRO3, 4
s_HUSTR_CHATMACRO3:
	.word	.LC717
	.type	s_HUSTR_CHATMACRO2, %object
	.size	s_HUSTR_CHATMACRO2, 4
s_HUSTR_CHATMACRO2:
	.word	.LC718
	.type	s_HUSTR_CHATMACRO1, %object
	.size	s_HUSTR_CHATMACRO1, 4
s_HUSTR_CHATMACRO1:
	.word	.LC719
	.type	s_THUSTR_32, %object
	.size	s_THUSTR_32, 4
s_THUSTR_32:
	.word	.LC720
	.type	s_THUSTR_31, %object
	.size	s_THUSTR_31, 4
s_THUSTR_31:
	.word	.LC721
	.type	s_THUSTR_30, %object
	.size	s_THUSTR_30, 4
s_THUSTR_30:
	.word	.LC722
	.type	s_THUSTR_29, %object
	.size	s_THUSTR_29, 4
s_THUSTR_29:
	.word	.LC723
	.type	s_THUSTR_28, %object
	.size	s_THUSTR_28, 4
s_THUSTR_28:
	.word	.LC724
	.type	s_THUSTR_27, %object
	.size	s_THUSTR_27, 4
s_THUSTR_27:
	.word	.LC725
	.type	s_THUSTR_26, %object
	.size	s_THUSTR_26, 4
s_THUSTR_26:
	.word	.LC726
	.type	s_THUSTR_25, %object
	.size	s_THUSTR_25, 4
s_THUSTR_25:
	.word	.LC727
	.type	s_THUSTR_24, %object
	.size	s_THUSTR_24, 4
s_THUSTR_24:
	.word	.LC728
	.type	s_THUSTR_23, %object
	.size	s_THUSTR_23, 4
s_THUSTR_23:
	.word	.LC729
	.type	s_THUSTR_22, %object
	.size	s_THUSTR_22, 4
s_THUSTR_22:
	.word	.LC730
	.type	s_THUSTR_21, %object
	.size	s_THUSTR_21, 4
s_THUSTR_21:
	.word	.LC731
	.type	s_THUSTR_20, %object
	.size	s_THUSTR_20, 4
s_THUSTR_20:
	.word	.LC732
	.type	s_THUSTR_19, %object
	.size	s_THUSTR_19, 4
s_THUSTR_19:
	.word	.LC733
	.type	s_THUSTR_18, %object
	.size	s_THUSTR_18, 4
s_THUSTR_18:
	.word	.LC734
	.type	s_THUSTR_17, %object
	.size	s_THUSTR_17, 4
s_THUSTR_17:
	.word	.LC735
	.type	s_THUSTR_16, %object
	.size	s_THUSTR_16, 4
s_THUSTR_16:
	.word	.LC736
	.type	s_THUSTR_15, %object
	.size	s_THUSTR_15, 4
s_THUSTR_15:
	.word	.LC737
	.type	s_THUSTR_14, %object
	.size	s_THUSTR_14, 4
s_THUSTR_14:
	.word	.LC738
	.type	s_THUSTR_13, %object
	.size	s_THUSTR_13, 4
s_THUSTR_13:
	.word	.LC739
	.type	s_THUSTR_12, %object
	.size	s_THUSTR_12, 4
s_THUSTR_12:
	.word	.LC740
	.type	s_THUSTR_11, %object
	.size	s_THUSTR_11, 4
s_THUSTR_11:
	.word	.LC741
	.type	s_THUSTR_10, %object
	.size	s_THUSTR_10, 4
s_THUSTR_10:
	.word	.LC742
	.type	s_THUSTR_9, %object
	.size	s_THUSTR_9, 4
s_THUSTR_9:
	.word	.LC743
	.type	s_THUSTR_8, %object
	.size	s_THUSTR_8, 4
s_THUSTR_8:
	.word	.LC744
	.type	s_THUSTR_7, %object
	.size	s_THUSTR_7, 4
s_THUSTR_7:
	.word	.LC745
	.type	s_THUSTR_6, %object
	.size	s_THUSTR_6, 4
s_THUSTR_6:
	.word	.LC746
	.type	s_THUSTR_5, %object
	.size	s_THUSTR_5, 4
s_THUSTR_5:
	.word	.LC747
	.type	s_THUSTR_4, %object
	.size	s_THUSTR_4, 4
s_THUSTR_4:
	.word	.LC748
	.type	s_THUSTR_3, %object
	.size	s_THUSTR_3, 4
s_THUSTR_3:
	.word	.LC749
	.type	s_THUSTR_2, %object
	.size	s_THUSTR_2, 4
s_THUSTR_2:
	.word	.LC750
	.type	s_THUSTR_1, %object
	.size	s_THUSTR_1, 4
s_THUSTR_1:
	.word	.LC751
	.type	s_PHUSTR_32, %object
	.size	s_PHUSTR_32, 4
s_PHUSTR_32:
	.word	.LC752
	.type	s_PHUSTR_31, %object
	.size	s_PHUSTR_31, 4
s_PHUSTR_31:
	.word	.LC753
	.type	s_PHUSTR_30, %object
	.size	s_PHUSTR_30, 4
s_PHUSTR_30:
	.word	.LC754
	.type	s_PHUSTR_29, %object
	.size	s_PHUSTR_29, 4
s_PHUSTR_29:
	.word	.LC755
	.type	s_PHUSTR_28, %object
	.size	s_PHUSTR_28, 4
s_PHUSTR_28:
	.word	.LC756
	.type	s_PHUSTR_27, %object
	.size	s_PHUSTR_27, 4
s_PHUSTR_27:
	.word	.LC757
	.type	s_PHUSTR_26, %object
	.size	s_PHUSTR_26, 4
s_PHUSTR_26:
	.word	.LC758
	.type	s_PHUSTR_25, %object
	.size	s_PHUSTR_25, 4
s_PHUSTR_25:
	.word	.LC759
	.type	s_PHUSTR_24, %object
	.size	s_PHUSTR_24, 4
s_PHUSTR_24:
	.word	.LC760
	.type	s_PHUSTR_23, %object
	.size	s_PHUSTR_23, 4
s_PHUSTR_23:
	.word	.LC761
	.type	s_PHUSTR_22, %object
	.size	s_PHUSTR_22, 4
s_PHUSTR_22:
	.word	.LC762
	.type	s_PHUSTR_21, %object
	.size	s_PHUSTR_21, 4
s_PHUSTR_21:
	.word	.LC763
	.type	s_PHUSTR_20, %object
	.size	s_PHUSTR_20, 4
s_PHUSTR_20:
	.word	.LC764
	.type	s_PHUSTR_19, %object
	.size	s_PHUSTR_19, 4
s_PHUSTR_19:
	.word	.LC765
	.type	s_PHUSTR_18, %object
	.size	s_PHUSTR_18, 4
s_PHUSTR_18:
	.word	.LC766
	.type	s_PHUSTR_17, %object
	.size	s_PHUSTR_17, 4
s_PHUSTR_17:
	.word	.LC767
	.type	s_PHUSTR_16, %object
	.size	s_PHUSTR_16, 4
s_PHUSTR_16:
	.word	.LC768
	.type	s_PHUSTR_15, %object
	.size	s_PHUSTR_15, 4
s_PHUSTR_15:
	.word	.LC769
	.type	s_PHUSTR_14, %object
	.size	s_PHUSTR_14, 4
s_PHUSTR_14:
	.word	.LC770
	.type	s_PHUSTR_13, %object
	.size	s_PHUSTR_13, 4
s_PHUSTR_13:
	.word	.LC771
	.type	s_PHUSTR_12, %object
	.size	s_PHUSTR_12, 4
s_PHUSTR_12:
	.word	.LC772
	.type	s_PHUSTR_11, %object
	.size	s_PHUSTR_11, 4
s_PHUSTR_11:
	.word	.LC773
	.type	s_PHUSTR_10, %object
	.size	s_PHUSTR_10, 4
s_PHUSTR_10:
	.word	.LC774
	.type	s_PHUSTR_9, %object
	.size	s_PHUSTR_9, 4
s_PHUSTR_9:
	.word	.LC775
	.type	s_PHUSTR_8, %object
	.size	s_PHUSTR_8, 4
s_PHUSTR_8:
	.word	.LC776
	.type	s_PHUSTR_7, %object
	.size	s_PHUSTR_7, 4
s_PHUSTR_7:
	.word	.LC777
	.type	s_PHUSTR_6, %object
	.size	s_PHUSTR_6, 4
s_PHUSTR_6:
	.word	.LC778
	.type	s_PHUSTR_5, %object
	.size	s_PHUSTR_5, 4
s_PHUSTR_5:
	.word	.LC779
	.type	s_PHUSTR_4, %object
	.size	s_PHUSTR_4, 4
s_PHUSTR_4:
	.word	.LC780
	.type	s_PHUSTR_3, %object
	.size	s_PHUSTR_3, 4
s_PHUSTR_3:
	.word	.LC781
	.type	s_PHUSTR_2, %object
	.size	s_PHUSTR_2, 4
s_PHUSTR_2:
	.word	.LC782
	.type	s_PHUSTR_1, %object
	.size	s_PHUSTR_1, 4
s_PHUSTR_1:
	.word	.LC783
	.type	s_HUSTR_32, %object
	.size	s_HUSTR_32, 4
s_HUSTR_32:
	.word	.LC784
	.type	s_HUSTR_31, %object
	.size	s_HUSTR_31, 4
s_HUSTR_31:
	.word	.LC785
	.type	s_HUSTR_30, %object
	.size	s_HUSTR_30, 4
s_HUSTR_30:
	.word	.LC786
	.type	s_HUSTR_29, %object
	.size	s_HUSTR_29, 4
s_HUSTR_29:
	.word	.LC787
	.type	s_HUSTR_28, %object
	.size	s_HUSTR_28, 4
s_HUSTR_28:
	.word	.LC788
	.type	s_HUSTR_27, %object
	.size	s_HUSTR_27, 4
s_HUSTR_27:
	.word	.LC789
	.type	s_HUSTR_26, %object
	.size	s_HUSTR_26, 4
s_HUSTR_26:
	.word	.LC790
	.type	s_HUSTR_25, %object
	.size	s_HUSTR_25, 4
s_HUSTR_25:
	.word	.LC791
	.type	s_HUSTR_24, %object
	.size	s_HUSTR_24, 4
s_HUSTR_24:
	.word	.LC792
	.type	s_HUSTR_23, %object
	.size	s_HUSTR_23, 4
s_HUSTR_23:
	.word	.LC793
	.type	s_HUSTR_22, %object
	.size	s_HUSTR_22, 4
s_HUSTR_22:
	.word	.LC794
	.type	s_HUSTR_21, %object
	.size	s_HUSTR_21, 4
s_HUSTR_21:
	.word	.LC795
	.type	s_HUSTR_20, %object
	.size	s_HUSTR_20, 4
s_HUSTR_20:
	.word	.LC796
	.type	s_HUSTR_19, %object
	.size	s_HUSTR_19, 4
s_HUSTR_19:
	.word	.LC797
	.type	s_HUSTR_18, %object
	.size	s_HUSTR_18, 4
s_HUSTR_18:
	.word	.LC798
	.type	s_HUSTR_17, %object
	.size	s_HUSTR_17, 4
s_HUSTR_17:
	.word	.LC799
	.type	s_HUSTR_16, %object
	.size	s_HUSTR_16, 4
s_HUSTR_16:
	.word	.LC800
	.type	s_HUSTR_15, %object
	.size	s_HUSTR_15, 4
s_HUSTR_15:
	.word	.LC801
	.type	s_HUSTR_14, %object
	.size	s_HUSTR_14, 4
s_HUSTR_14:
	.word	.LC802
	.type	s_HUSTR_13, %object
	.size	s_HUSTR_13, 4
s_HUSTR_13:
	.word	.LC803
	.type	s_HUSTR_12, %object
	.size	s_HUSTR_12, 4
s_HUSTR_12:
	.word	.LC804
	.type	s_HUSTR_11, %object
	.size	s_HUSTR_11, 4
s_HUSTR_11:
	.word	.LC805
	.type	s_HUSTR_10, %object
	.size	s_HUSTR_10, 4
s_HUSTR_10:
	.word	.LC806
	.type	s_HUSTR_9, %object
	.size	s_HUSTR_9, 4
s_HUSTR_9:
	.word	.LC807
	.type	s_HUSTR_8, %object
	.size	s_HUSTR_8, 4
s_HUSTR_8:
	.word	.LC808
	.type	s_HUSTR_7, %object
	.size	s_HUSTR_7, 4
s_HUSTR_7:
	.word	.LC809
	.type	s_HUSTR_6, %object
	.size	s_HUSTR_6, 4
s_HUSTR_6:
	.word	.LC810
	.type	s_HUSTR_5, %object
	.size	s_HUSTR_5, 4
s_HUSTR_5:
	.word	.LC811
	.type	s_HUSTR_4, %object
	.size	s_HUSTR_4, 4
s_HUSTR_4:
	.word	.LC812
	.type	s_HUSTR_3, %object
	.size	s_HUSTR_3, 4
s_HUSTR_3:
	.word	.LC813
	.type	s_HUSTR_2, %object
	.size	s_HUSTR_2, 4
s_HUSTR_2:
	.word	.LC814
	.type	s_HUSTR_1, %object
	.size	s_HUSTR_1, 4
s_HUSTR_1:
	.word	.LC815
	.type	s_HUSTR_E4M9, %object
	.size	s_HUSTR_E4M9, 4
s_HUSTR_E4M9:
	.word	.LC816
	.type	s_HUSTR_E4M8, %object
	.size	s_HUSTR_E4M8, 4
s_HUSTR_E4M8:
	.word	.LC817
	.type	s_HUSTR_E4M7, %object
	.size	s_HUSTR_E4M7, 4
s_HUSTR_E4M7:
	.word	.LC818
	.type	s_HUSTR_E4M6, %object
	.size	s_HUSTR_E4M6, 4
s_HUSTR_E4M6:
	.word	.LC819
	.type	s_HUSTR_E4M5, %object
	.size	s_HUSTR_E4M5, 4
s_HUSTR_E4M5:
	.word	.LC820
	.type	s_HUSTR_E4M4, %object
	.size	s_HUSTR_E4M4, 4
s_HUSTR_E4M4:
	.word	.LC821
	.type	s_HUSTR_E4M3, %object
	.size	s_HUSTR_E4M3, 4
s_HUSTR_E4M3:
	.word	.LC822
	.type	s_HUSTR_E4M2, %object
	.size	s_HUSTR_E4M2, 4
s_HUSTR_E4M2:
	.word	.LC823
	.type	s_HUSTR_E4M1, %object
	.size	s_HUSTR_E4M1, 4
s_HUSTR_E4M1:
	.word	.LC824
	.type	s_HUSTR_E3M9, %object
	.size	s_HUSTR_E3M9, 4
s_HUSTR_E3M9:
	.word	.LC825
	.type	s_HUSTR_E3M8, %object
	.size	s_HUSTR_E3M8, 4
s_HUSTR_E3M8:
	.word	.LC826
	.type	s_HUSTR_E3M7, %object
	.size	s_HUSTR_E3M7, 4
s_HUSTR_E3M7:
	.word	.LC827
	.type	s_HUSTR_E3M6, %object
	.size	s_HUSTR_E3M6, 4
s_HUSTR_E3M6:
	.word	.LC828
	.type	s_HUSTR_E3M5, %object
	.size	s_HUSTR_E3M5, 4
s_HUSTR_E3M5:
	.word	.LC829
	.type	s_HUSTR_E3M4, %object
	.size	s_HUSTR_E3M4, 4
s_HUSTR_E3M4:
	.word	.LC830
	.type	s_HUSTR_E3M3, %object
	.size	s_HUSTR_E3M3, 4
s_HUSTR_E3M3:
	.word	.LC831
	.type	s_HUSTR_E3M2, %object
	.size	s_HUSTR_E3M2, 4
s_HUSTR_E3M2:
	.word	.LC832
	.type	s_HUSTR_E3M1, %object
	.size	s_HUSTR_E3M1, 4
s_HUSTR_E3M1:
	.word	.LC833
	.type	s_HUSTR_E2M9, %object
	.size	s_HUSTR_E2M9, 4
s_HUSTR_E2M9:
	.word	.LC834
	.type	s_HUSTR_E2M8, %object
	.size	s_HUSTR_E2M8, 4
s_HUSTR_E2M8:
	.word	.LC835
	.type	s_HUSTR_E2M7, %object
	.size	s_HUSTR_E2M7, 4
s_HUSTR_E2M7:
	.word	.LC836
	.type	s_HUSTR_E2M6, %object
	.size	s_HUSTR_E2M6, 4
s_HUSTR_E2M6:
	.word	.LC837
	.type	s_HUSTR_E2M5, %object
	.size	s_HUSTR_E2M5, 4
s_HUSTR_E2M5:
	.word	.LC838
	.type	s_HUSTR_E2M4, %object
	.size	s_HUSTR_E2M4, 4
s_HUSTR_E2M4:
	.word	.LC839
	.type	s_HUSTR_E2M3, %object
	.size	s_HUSTR_E2M3, 4
s_HUSTR_E2M3:
	.word	.LC840
	.type	s_HUSTR_E2M2, %object
	.size	s_HUSTR_E2M2, 4
s_HUSTR_E2M2:
	.word	.LC841
	.type	s_HUSTR_E2M1, %object
	.size	s_HUSTR_E2M1, 4
s_HUSTR_E2M1:
	.word	.LC842
	.type	s_HUSTR_E1M9, %object
	.size	s_HUSTR_E1M9, 4
s_HUSTR_E1M9:
	.word	.LC843
	.type	s_HUSTR_E1M8, %object
	.size	s_HUSTR_E1M8, 4
s_HUSTR_E1M8:
	.word	.LC844
	.type	s_HUSTR_E1M7, %object
	.size	s_HUSTR_E1M7, 4
s_HUSTR_E1M7:
	.word	.LC845
	.type	s_HUSTR_E1M6, %object
	.size	s_HUSTR_E1M6, 4
s_HUSTR_E1M6:
	.word	.LC846
	.type	s_HUSTR_E1M5, %object
	.size	s_HUSTR_E1M5, 4
s_HUSTR_E1M5:
	.word	.LC847
	.type	s_HUSTR_E1M4, %object
	.size	s_HUSTR_E1M4, 4
s_HUSTR_E1M4:
	.word	.LC848
	.type	s_HUSTR_E1M3, %object
	.size	s_HUSTR_E1M3, 4
s_HUSTR_E1M3:
	.word	.LC849
	.type	s_HUSTR_E1M2, %object
	.size	s_HUSTR_E1M2, 4
s_HUSTR_E1M2:
	.word	.LC850
	.type	s_HUSTR_E1M1, %object
	.size	s_HUSTR_E1M1, 4
s_HUSTR_E1M1:
	.word	.LC851
	.type	s_HUSTR_MSGU, %object
	.size	s_HUSTR_MSGU, 4
s_HUSTR_MSGU:
	.word	.LC852
	.type	s_GGSAVED, %object
	.size	s_GGSAVED, 4
s_GGSAVED:
	.word	.LC853
	.type	s_PD_ALL6, %object
	.size	s_PD_ALL6, 4
s_PD_ALL6:
	.word	.LC854
	.type	s_PD_ALL3, %object
	.size	s_PD_ALL3, 4
s_PD_ALL3:
	.word	.LC855
	.type	s_PD_ANY, %object
	.size	s_PD_ANY, 4
s_PD_ANY:
	.word	.LC856
	.type	s_PD_YELLOWS, %object
	.size	s_PD_YELLOWS, 4
s_PD_YELLOWS:
	.word	.LC857
	.type	s_PD_REDS, %object
	.size	s_PD_REDS, 4
s_PD_REDS:
	.word	.LC858
	.type	s_PD_BLUES, %object
	.size	s_PD_BLUES, 4
s_PD_BLUES:
	.word	.LC859
	.type	s_PD_YELLOWC, %object
	.size	s_PD_YELLOWC, 4
s_PD_YELLOWC:
	.word	.LC860
	.type	s_PD_REDC, %object
	.size	s_PD_REDC, 4
s_PD_REDC:
	.word	.LC861
	.type	s_PD_BLUEC, %object
	.size	s_PD_BLUEC, 4
s_PD_BLUEC:
	.word	.LC862
	.type	s_PD_YELLOWK, %object
	.size	s_PD_YELLOWK, 4
s_PD_YELLOWK:
	.word	.LC863
	.type	s_PD_REDK, %object
	.size	s_PD_REDK, 4
s_PD_REDK:
	.word	.LC864
	.type	s_PD_BLUEK, %object
	.size	s_PD_BLUEK, 4
s_PD_BLUEK:
	.word	.LC865
	.type	s_PD_YELLOWO, %object
	.size	s_PD_YELLOWO, 4
s_PD_YELLOWO:
	.word	.LC866
	.type	s_PD_REDO, %object
	.size	s_PD_REDO, 4
s_PD_REDO:
	.word	.LC867
	.type	s_PD_BLUEO, %object
	.size	s_PD_BLUEO, 4
s_PD_BLUEO:
	.word	.LC868
	.type	s_GOTSHOTGUN2, %object
	.size	s_GOTSHOTGUN2, 4
s_GOTSHOTGUN2:
	.word	.LC869
	.type	s_GOTSHOTGUN, %object
	.size	s_GOTSHOTGUN, 4
s_GOTSHOTGUN:
	.word	.LC870
	.type	s_GOTPLASMA, %object
	.size	s_GOTPLASMA, 4
s_GOTPLASMA:
	.word	.LC871
	.type	s_GOTLAUNCHER, %object
	.size	s_GOTLAUNCHER, 4
s_GOTLAUNCHER:
	.word	.LC872
	.type	s_GOTCHAINSAW, %object
	.size	s_GOTCHAINSAW, 4
s_GOTCHAINSAW:
	.word	.LC873
	.type	s_GOTCHAINGUN, %object
	.size	s_GOTCHAINGUN, 4
s_GOTCHAINGUN:
	.word	.LC874
	.type	s_GOTBFG9000, %object
	.size	s_GOTBFG9000, 4
s_GOTBFG9000:
	.word	.LC875
	.type	s_GOTBACKPACK, %object
	.size	s_GOTBACKPACK, 4
s_GOTBACKPACK:
	.word	.LC876
	.type	s_GOTSHELLBOX, %object
	.size	s_GOTSHELLBOX, 4
s_GOTSHELLBOX:
	.word	.LC877
	.type	s_GOTSHELLS, %object
	.size	s_GOTSHELLS, 4
s_GOTSHELLS:
	.word	.LC878
	.type	s_GOTCELLBOX, %object
	.size	s_GOTCELLBOX, 4
s_GOTCELLBOX:
	.word	.LC879
	.type	s_GOTCELL, %object
	.size	s_GOTCELL, 4
s_GOTCELL:
	.word	.LC880
	.type	s_GOTROCKBOX, %object
	.size	s_GOTROCKBOX, 4
s_GOTROCKBOX:
	.word	.LC881
	.type	s_GOTROCKET, %object
	.size	s_GOTROCKET, 4
s_GOTROCKET:
	.word	.LC882
	.type	s_GOTCLIPBOX, %object
	.size	s_GOTCLIPBOX, 4
s_GOTCLIPBOX:
	.word	.LC883
	.type	s_GOTCLIP, %object
	.size	s_GOTCLIP, 4
s_GOTCLIP:
	.word	.LC884
	.type	s_GOTMSPHERE, %object
	.size	s_GOTMSPHERE, 4
s_GOTMSPHERE:
	.word	.LC885
	.type	s_GOTVISOR, %object
	.size	s_GOTVISOR, 4
s_GOTVISOR:
	.word	.LC886
	.type	s_GOTMAP, %object
	.size	s_GOTMAP, 4
s_GOTMAP:
	.word	.LC887
	.type	s_GOTSUIT, %object
	.size	s_GOTSUIT, 4
s_GOTSUIT:
	.word	.LC888
	.type	s_GOTINVIS, %object
	.size	s_GOTINVIS, 4
s_GOTINVIS:
	.word	.LC889
	.type	s_GOTBERSERK, %object
	.size	s_GOTBERSERK, 4
s_GOTBERSERK:
	.word	.LC890
	.type	s_GOTINVUL, %object
	.size	s_GOTINVUL, 4
s_GOTINVUL:
	.word	.LC891
	.type	s_GOTREDSKULL, %object
	.size	s_GOTREDSKULL, 4
s_GOTREDSKULL:
	.word	.LC892
	.type	s_GOTYELWSKUL, %object
	.size	s_GOTYELWSKUL, 4
s_GOTYELWSKUL:
	.word	.LC893
	.type	s_GOTBLUESKUL, %object
	.size	s_GOTBLUESKUL, 4
s_GOTBLUESKUL:
	.word	.LC894
	.type	s_GOTREDCARD, %object
	.size	s_GOTREDCARD, 4
s_GOTREDCARD:
	.word	.LC895
	.type	s_GOTYELWCARD, %object
	.size	s_GOTYELWCARD, 4
s_GOTYELWCARD:
	.word	.LC896
	.type	s_GOTBLUECARD, %object
	.size	s_GOTBLUECARD, 4
s_GOTBLUECARD:
	.word	.LC897
	.type	s_GOTSUPER, %object
	.size	s_GOTSUPER, 4
s_GOTSUPER:
	.word	.LC898
	.type	s_GOTMEDIKIT, %object
	.size	s_GOTMEDIKIT, 4
s_GOTMEDIKIT:
	.word	.LC899
	.type	s_GOTMEDINEED, %object
	.size	s_GOTMEDINEED, 4
s_GOTMEDINEED:
	.word	.LC900
	.type	s_GOTSTIM, %object
	.size	s_GOTSTIM, 4
s_GOTSTIM:
	.word	.LC901
	.type	s_GOTARMBONUS, %object
	.size	s_GOTARMBONUS, 4
s_GOTARMBONUS:
	.word	.LC902
	.type	s_GOTHTHBONUS, %object
	.size	s_GOTHTHBONUS, 4
s_GOTHTHBONUS:
	.word	.LC903
	.type	s_GOTMEGA, %object
	.size	s_GOTMEGA, 4
s_GOTMEGA:
	.word	.LC904
	.type	s_GOTARMOR, %object
	.size	s_GOTARMOR, 4
s_GOTARMOR:
	.word	.LC905
	.type	s_EMPTYSTRING, %object
	.size	s_EMPTYSTRING, 4
s_EMPTYSTRING:
	.word	.LC906
	.type	s_GAMMALVL4, %object
	.size	s_GAMMALVL4, 4
s_GAMMALVL4:
	.word	.LC907
	.type	s_GAMMALVL3, %object
	.size	s_GAMMALVL3, 4
s_GAMMALVL3:
	.word	.LC908
	.type	s_GAMMALVL2, %object
	.size	s_GAMMALVL2, 4
s_GAMMALVL2:
	.word	.LC909
	.type	s_GAMMALVL1, %object
	.size	s_GAMMALVL1, 4
s_GAMMALVL1:
	.word	.LC910
	.type	s_GAMMALVL0, %object
	.size	s_GAMMALVL0, 4
s_GAMMALVL0:
	.word	.LC911
	.type	s_DETAILLO, %object
	.size	s_DETAILLO, 4
s_DETAILLO:
	.word	.LC912
	.type	s_DETAILHI, %object
	.size	s_DETAILHI, 4
s_DETAILHI:
	.word	.LC913
	.type	s_DOSY, %object
	.size	s_DOSY, 4
s_DOSY:
	.word	.LC914
	.type	s_ENDGAME, %object
	.size	s_ENDGAME, 4
s_ENDGAME:
	.word	.LC915
	.type	s_NETEND, %object
	.size	s_NETEND, 4
s_NETEND:
	.word	.LC916
	.type	s_SAVING, %object
	.size	s_SAVING, 4
s_SAVING:
	.word	.LC917
	.type	s_LOADING, %object
	.size	s_LOADING, 4
s_LOADING:
	.word	.LC918
	.type	s_MSGON, %object
	.size	s_MSGON, 4
s_MSGON:
	.word	.LC919
	.type	s_MSGOFF, %object
	.size	s_MSGOFF, 4
s_MSGOFF:
	.word	.LC920
	.type	s_SWSTRING, %object
	.size	s_SWSTRING, 4
s_SWSTRING:
	.word	.LC921
	.type	s_NIGHTMARE, %object
	.size	s_NIGHTMARE, 4
s_NIGHTMARE:
	.word	.LC922
	.type	s_RESTARTLEVEL, %object
	.size	s_RESTARTLEVEL, 4
s_RESTARTLEVEL:
	.word	.LC923
	.type	s_NEWGAME, %object
	.size	s_NEWGAME, 4
s_NEWGAME:
	.word	.LC924
	.type	s_QLPROMPT, %object
	.size	s_QLPROMPT, 4
s_QLPROMPT:
	.word	.LC925
	.type	s_QSPROMPT, %object
	.size	s_QSPROMPT, 4
s_QSPROMPT:
	.word	.LC926
	.type	s_SAVEDEAD, %object
	.size	s_SAVEDEAD, 4
s_SAVEDEAD:
	.word	.LC927
	.type	s_QSAVESPOT, %object
	.size	s_QSAVESPOT, 4
s_QSAVESPOT:
	.word	.LC928
	.type	s_QUITMSG, %object
	.size	s_QUITMSG, 4
s_QUITMSG:
	.word	.LC929
	.type	s_PRESSYN, %object
	.size	s_PRESSYN, 4
s_PRESSYN:
	.word	.LC930
	.type	s_PRESSKEY, %object
	.size	s_PRESSKEY, 4
s_PRESSKEY:
	.word	.LC931
	.type	s_D_CDROM, %object
	.size	s_D_CDROM, 4
s_D_CDROM:
	.word	.LC932
	.type	s_D_DEVSTR, %object
	.size	s_D_DEVSTR, 4
s_D_DEVSTR:
	.word	.LC933
	.section	.rodata.str1.4,"aMS",%progbits,1
	.align	2
.LC0:
	.ascii	"Unmatched Block: '%s'\012\000"
	.space	1
.LC1:
	.ascii	"D_BuildBEXTables: 0\000"
.LC2:
	.ascii	"D_BuildBEXTables: 1\000"
.LC3:
	.ascii	"D_BuildBEXTables: 2\000"
.LC4:
	.ascii	"D_BuildBEXTables: 3 %d\012\000"
.LC5:
	.ascii	"deh_soundnames(%d) : %s\012\000"
	.space	3
.LC6:
	.ascii	"D_BuildBEXTables: 4\000"
.LC7:
	.ascii	"...\000"
.LC8:
	.ascii	"\000"
	.space	3
.LC9:
	.ascii	"Assigned key %s => '%s'\012\000"
	.space	3
.LC10:
	.ascii	"Assigned '%.12s%s' to'%.12s%s' at key %s\012\000"
	.space	2
.LC11:
	.ascii	"*BEX FORMAT:\012%s = %s\012*END BEX\012\000"
	.space	1
.LC12:
	.ascii	"Could not find '%.12s'\012\000"
.LC13:
	.ascii	"Skipped text block because of notext directive\012\000"
.LC14:
	.ascii	"%s %i %i\000"
	.space	3
.LC15:
	.ascii	"Processing Text (key=%s, from=%d, to=%d)\012\000"
	.space	2
.LC16:
	.ascii	"Changing name of sprite at index %d from %s to %*s\012"
	.ascii	"\000"
.LC17:
	.ascii	"Warning: Mismatched lengths from=%d, to=%d, used %d"
	.ascii	"\012\000"
	.space	3
.LC18:
	.ascii	"Changing name of sfx from %s to %*s\012\000"
	.space	3
.LC19:
	.ascii	"Changing name of music from %s to %*s\012\000"
	.space	1
.LC20:
	.ascii	"Checking text area through strings for '%.12s%s' fr"
	.ascii	"om=%d to=%d\012\000"
.LC21:
	.ascii	"%s %i\000"
	.space	2
.LC22:
	.ascii	"Processing Par value at index %d: %s\012\000"
	.space	2
.LC23:
	.ascii	"par %i %i %i\000"
	.space	3
.LC24:
	.ascii	"par %i %i\000"
	.space	2
.LC25:
	.ascii	"Invalid par time setting string: %s\012\000"
	.space	3
.LC26:
	.ascii	"Invalid MAPnn value MAP%d\012\000"
	.space	1
.LC27:
	.ascii	"Changed par time for MAP%02d from %d to %d\012\000"
.LC28:
	.ascii	"Invalid ExMx values E%dM%d\012\000"
.LC29:
	.ascii	"Changed par time for E%dM%d from %d to %d\012\000"
	.space	1
.LC30:
	.ascii	"Ignoring Sprite offset change at index %d: %s\012\000"
	.space	1
.LC31:
	.ascii	"- %s\012\000"
	.space	2
.LC32:
	.ascii	"wt\000"
	.space	1
.LC33:
	.ascii	"at\000"
	.space	1
.LC34:
	.ascii	"file\000"
	.space	3
.LC35:
	.ascii	"lump from\000"
	.space	2
.LC36:
	.ascii	"-\000"
	.space	2
.LC37:
	.ascii	"Could not open -dehout file %s\012... using stdout."
	.ascii	"\012\000"
	.space	2
.LC38:
	.ascii	"rt\000"
	.space	1
.LC39:
	.ascii	"-deh file %s not found\012\000"
.LC40:
	.ascii	"Loading DEH %s %s\012\000"
	.space	1
.LC41:
	.ascii	"\012Loading DEH %s %s\012\012\000"
	.space	3
.LC42:
	.ascii	"Line='%s'\012\000"
	.space	1
.LC43:
	.ascii	"INCLUDE\000"
.LC44:
	.ascii	"No files may be included from wads: %s\012\000"
.LC45:
	.ascii	"NOTEXT\000"
	.space	1
.LC46:
	.ascii	"Branching to include file %s...\012\000"
	.space	3
.LC47:
	.ascii	"...continuing with %s\012\000"
	.space	1
.LC48:
	.ascii	"Processing function [%d] for %s\012\000"
	.space	3
.LC49:
	.ascii	"%s %i = %s\000"
	.space	1
.LC50:
	.ascii	"FRAME\000"
	.space	2
.LC51:
	.ascii	"Invalid BEX codepointer line - must start with 'FRA"
	.ascii	"ME': '%s'\012\000"
	.space	2
.LC52:
	.ascii	"Processing pointer at index %d: %s\012\000"
.LC53:
	.ascii	"Bad pointer number %d of %d\012\000"
	.space	3
.LC54:
	.ascii	"A_\000"
	.space	1
.LC55:
	.ascii	" - applied %s from codeptr[%d] to states[%d]\012\000"
	.space	2
.LC56:
	.ascii	"Invalid frame pointer mnemonic '%s' at %d\012\000"
	.space	1
.LC57:
	.ascii	" 0X%lx\000"
	.space	1
.LC58:
	.ascii	" 0%lo\000"
	.space	2
.LC59:
	.ascii	" %ld\000"
	.space	3
.LC60:
	.ascii	" 0x%lx\000"
	.space	1
.LC61:
	.ascii	"Processing music name substitution\012\000"
.LC62:
	.ascii	"Bad data pair in '%s'\012\000"
	.space	1
.LC63:
	.ascii	"Bad length for music name '%s'\012\000"
.LC64:
	.ascii	"Substituting '%s' for music '%s'\012\000"
	.space	2
.LC65:
	.ascii	"Processing sound name substitution\012\000"
.LC66:
	.ascii	"Bad length for sound name '%s'\012\000"
.LC67:
	.ascii	"Substituting '%s' for sound '%s'\012\000"
	.space	2
.LC68:
	.ascii	"Processing sprite name substitution\012\000"
	.space	3
.LC69:
	.ascii	"Bad length for sprite name '%s'\012\000"
	.space	3
.LC70:
	.ascii	"Substituting '%s' for sprite '%s'\012\000"
	.space	1
.LC71:
	.ascii	"Processing Helper Thing item '%s'\012\000"
	.space	1
.LC72:
	.ascii	"value is %i\000"
.LC73:
	.ascii	"type\000"
	.space	3
.LC74:
	.ascii	"Processing extended string substitution\012\000"
	.space	3
.LC75:
	.ascii	"* increased buffer from to %d for buffer size %d\012"
	.ascii	"\000"
	.space	2
.LC76:
	.ascii	"Invalid string key '%s', substitution skipped.\012\000"
.LC77:
	.ascii	"Processing Misc item '%s'\012\000"
	.space	1
.LC78:
	.ascii	"Initial Health\000"
	.space	1
.LC79:
	.ascii	"Initial Bullets\000"
.LC80:
	.ascii	"Max Health\000"
	.space	1
.LC81:
	.ascii	"Max Armor\000"
	.space	2
.LC82:
	.ascii	"Green Armor Class\000"
	.space	2
.LC83:
	.ascii	"Blue Armor Class\000"
	.space	3
.LC84:
	.ascii	"Max Soulsphere\000"
	.space	1
.LC85:
	.ascii	"Soulsphere Health\000"
	.space	2
.LC86:
	.ascii	"Megasphere Health\000"
	.space	2
.LC87:
	.ascii	"God Mode Health\000"
.LC88:
	.ascii	"IDFA Armor\000"
	.space	1
.LC89:
	.ascii	"IDFA Armor Class\000"
	.space	3
.LC90:
	.ascii	"IDKFA Armor\000"
.LC91:
	.ascii	"IDKFA Armor Class\000"
	.space	2
.LC92:
	.ascii	"BFG Cells/Shot\000"
	.space	1
.LC93:
	.ascii	"Monsters Infight\000"
	.space	3
.LC94:
	.ascii	"Invalid value for 'Monsters Infight': %i\000"
	.space	3
.LC95:
	.ascii	"Invalid misc item string index for '%s'\012\000"
	.space	3
.LC96:
	.ascii	"Processing Cheat: %s\012\000"
	.space	2
.LC97:
	.ascii	"Assigned new cheat '%s' to cheat '%s'at index %d\012"
	.ascii	"\000"
	.space	2
.LC98:
	.ascii	"Processing Weapon at index %d: %s\012\000"
	.space	1
.LC99:
	.ascii	"Bad weapon number %d of %d\012\000"
.LC100:
	.ascii	"Ammo type\000"
	.space	2
.LC101:
	.ascii	"Deselect frame\000"
	.space	1
.LC102:
	.ascii	"Select frame\000"
	.space	3
.LC103:
	.ascii	"Bobbing frame\000"
	.space	2
.LC104:
	.ascii	"Shooting frame\000"
	.space	1
.LC105:
	.ascii	"Firing frame\000"
	.space	3
.LC106:
	.ascii	"Invalid weapon string index for '%s'\012\000"
	.space	2
.LC107:
	.ascii	"Processing Ammo at index %d: %s\012\000"
	.space	3
.LC108:
	.ascii	"Bad ammo number %d of %d\012\000"
	.space	2
.LC109:
	.ascii	"Max ammo\000"
	.space	3
.LC110:
	.ascii	"Per ammo\000"
	.space	3
.LC111:
	.ascii	"Invalid ammo string index for '%s'\012\000"
.LC112:
	.ascii	"Processing Sounds at index %d: %s\012\000"
	.space	1
.LC113:
	.ascii	"Bad sound number %d of %d\012\000"
	.space	1
.LC114:
	.ascii	"Offset\000"
	.space	1
.LC115:
	.ascii	"Zero/One\000"
	.space	3
.LC116:
	.ascii	"Value\000"
	.space	2
.LC117:
	.ascii	"Zero 1\000"
	.space	1
.LC118:
	.ascii	"Zero 2\000"
	.space	1
.LC119:
	.ascii	"Zero 3\000"
	.space	1
.LC120:
	.ascii	"Zero 4\000"
	.space	1
.LC121:
	.ascii	"Neg. One 1\000"
	.space	1
.LC122:
	.ascii	"Neg. One 2\000"
	.space	1
.LC123:
	.ascii	"Invalid sound string index for '%s'\012\000"
	.space	3
.LC124:
	.ascii	"%*s %*i (%s %i)\000"
.LC125:
	.ascii	"Processing Pointer at index %d: %s\012\000"
.LC126:
	.ascii	"Bad pointer number %lld of %d\012\000"
	.space	1
.LC127:
	.ascii	"Codep Frame\000"
.LC128:
	.ascii	" - applied from codeptr[%lld] to states[%d]\012\000"
	.space	3
.LC129:
	.ascii	"BEX [CODEPTR] -> FRAME %d = %s\012\000"
.LC130:
	.ascii	"Invalid frame pointer index for '%s' at %lld\012\000"
	.space	2
.LC131:
	.ascii	"Processing Frame at index %d: %s\012\000"
	.space	2
.LC132:
	.ascii	"Bad frame number %d of %d\012\000"
	.space	1
.LC133:
	.ascii	"Sprite number\000"
	.space	2
.LC134:
	.ascii	" - sprite = %lld\012\000"
	.space	2
.LC135:
	.ascii	"Sprite subnumber\000"
	.space	3
.LC136:
	.ascii	" - frame = %lld\012\000"
	.space	3
.LC137:
	.ascii	"Duration\000"
	.space	3
.LC138:
	.ascii	" - tics = %lld\012\000"
.LC139:
	.ascii	"Next frame\000"
	.space	1
.LC140:
	.ascii	" - nextstate = %lld\012\000"
	.space	3
.LC141:
	.ascii	" - codep, should not be set in Frame section!\012\000"
	.space	1
.LC142:
	.ascii	"Unknown 1\000"
	.space	2
.LC143:
	.ascii	" - misc1 = %lld\012\000"
	.space	3
.LC144:
	.ascii	"Unknown 2\000"
	.space	2
.LC145:
	.ascii	" - misc2 = %lld\012\000"
	.space	3
.LC146:
	.ascii	"Invalid frame string index for '%s'\012\000"
	.space	3
.LC147:
	.ascii	"Thing line: '%s'\012\000"
	.space	2
.LC148:
	.ascii	"count=%d, Thing %d\012\000"
.LC149:
	.ascii	"bits\000"
	.space	3
.LC150:
	.ascii	"ORed value 0x%08lX%08lX %s\012\000"
.LC151:
	.ascii	"Could not find bit mnemonic %s\012\000"
.LC152:
	.ascii	",+| \011\014\015\000"
.LC153:
	.ascii	"Bits = 0x%08lX%08lX\012\000"
	.space	3
.LC154:
	.ascii	"Assigned 0x%08lx%08lx to %s(%d) at index %d\012\000"
	.space	3
.LC155:
	.ascii	"A_Light0\000"
	.space	3
.LC156:
	.ascii	"A_WeaponReady\000"
	.space	2
.LC157:
	.ascii	"A_Lower\000"
.LC158:
	.ascii	"A_Raise\000"
.LC159:
	.ascii	"A_Punch\000"
.LC160:
	.ascii	"A_ReFire\000"
	.space	3
.LC161:
	.ascii	"A_FirePistol\000"
	.space	3
.LC162:
	.ascii	"A_Light1\000"
	.space	3
.LC163:
	.ascii	"A_FireShotgun\000"
	.space	2
.LC164:
	.ascii	"A_Light2\000"
	.space	3
.LC165:
	.ascii	"A_FireShotgun2\000"
	.space	1
.LC166:
	.ascii	"A_CheckReload\000"
	.space	2
.LC167:
	.ascii	"A_OpenShotgun2\000"
	.space	1
.LC168:
	.ascii	"A_LoadShotgun2\000"
	.space	1
.LC169:
	.ascii	"A_CloseShotgun2\000"
.LC170:
	.ascii	"A_FireCGun\000"
	.space	1
.LC171:
	.ascii	"A_GunFlash\000"
	.space	1
.LC172:
	.ascii	"A_FireMissile\000"
	.space	2
.LC173:
	.ascii	"A_Saw\000"
	.space	2
.LC174:
	.ascii	"A_FirePlasma\000"
	.space	3
.LC175:
	.ascii	"A_BFGsound\000"
	.space	1
.LC176:
	.ascii	"A_FireBFG\000"
	.space	2
.LC177:
	.ascii	"A_BFGSpray\000"
	.space	1
.LC178:
	.ascii	"A_Explode\000"
	.space	2
.LC179:
	.ascii	"A_Pain\000"
	.space	1
.LC180:
	.ascii	"A_PlayerScream\000"
	.space	1
.LC181:
	.ascii	"A_Fall\000"
	.space	1
.LC182:
	.ascii	"A_XScream\000"
	.space	2
.LC183:
	.ascii	"A_Look\000"
	.space	1
.LC184:
	.ascii	"A_Chase\000"
.LC185:
	.ascii	"A_FaceTarget\000"
	.space	3
.LC186:
	.ascii	"A_PosAttack\000"
.LC187:
	.ascii	"A_Scream\000"
	.space	3
.LC188:
	.ascii	"A_SPosAttack\000"
	.space	3
.LC189:
	.ascii	"A_VileChase\000"
.LC190:
	.ascii	"A_VileStart\000"
.LC191:
	.ascii	"A_VileTarget\000"
	.space	3
.LC192:
	.ascii	"A_VileAttack\000"
	.space	3
.LC193:
	.ascii	"A_StartFire\000"
.LC194:
	.ascii	"A_Fire\000"
	.space	1
.LC195:
	.ascii	"A_FireCrackle\000"
	.space	2
.LC196:
	.ascii	"A_Tracer\000"
	.space	3
.LC197:
	.ascii	"A_SkelWhoosh\000"
	.space	3
.LC198:
	.ascii	"A_SkelFist\000"
	.space	1
.LC199:
	.ascii	"A_SkelMissile\000"
	.space	2
.LC200:
	.ascii	"A_FatRaise\000"
	.space	1
.LC201:
	.ascii	"A_FatAttack1\000"
	.space	3
.LC202:
	.ascii	"A_FatAttack2\000"
	.space	3
.LC203:
	.ascii	"A_FatAttack3\000"
	.space	3
.LC204:
	.ascii	"A_BossDeath\000"
.LC205:
	.ascii	"A_CPosAttack\000"
	.space	3
.LC206:
	.ascii	"A_CPosRefire\000"
	.space	3
.LC207:
	.ascii	"A_TroopAttack\000"
	.space	2
.LC208:
	.ascii	"A_SargAttack\000"
	.space	3
.LC209:
	.ascii	"A_HeadAttack\000"
	.space	3
.LC210:
	.ascii	"A_BruisAttack\000"
	.space	2
.LC211:
	.ascii	"A_SkullAttack\000"
	.space	2
.LC212:
	.ascii	"A_Metal\000"
.LC213:
	.ascii	"A_SpidRefire\000"
	.space	3
.LC214:
	.ascii	"A_BabyMetal\000"
.LC215:
	.ascii	"A_BspiAttack\000"
	.space	3
.LC216:
	.ascii	"A_Hoof\000"
	.space	1
.LC217:
	.ascii	"A_CyberAttack\000"
	.space	2
.LC218:
	.ascii	"A_PainAttack\000"
	.space	3
.LC219:
	.ascii	"A_PainDie\000"
	.space	2
.LC220:
	.ascii	"A_KeenDie\000"
	.space	2
.LC221:
	.ascii	"A_BrainPain\000"
.LC222:
	.ascii	"A_BrainScream\000"
	.space	2
.LC223:
	.ascii	"A_BrainDie\000"
	.space	1
.LC224:
	.ascii	"A_BrainAwake\000"
	.space	3
.LC225:
	.ascii	"A_BrainSpit\000"
.LC226:
	.ascii	"A_SpawnSound\000"
	.space	3
.LC227:
	.ascii	"A_SpawnFly\000"
	.space	1
.LC228:
	.ascii	"A_BrainExplode\000"
	.space	1
.LC229:
	.ascii	"A_Detonate\000"
	.space	1
.LC230:
	.ascii	"A_Mushroom\000"
	.space	1
.LC231:
	.ascii	"A_Die\000"
	.space	2
.LC232:
	.ascii	"A_Spawn\000"
.LC233:
	.ascii	"A_Turn\000"
	.space	1
.LC234:
	.ascii	"A_Face\000"
	.space	1
.LC235:
	.ascii	"A_Scratch\000"
	.space	2
.LC236:
	.ascii	"A_PlaySound\000"
.LC237:
	.ascii	"A_RandomJump\000"
	.space	3
.LC238:
	.ascii	"A_LineEffect\000"
	.space	3
.LC239:
	.ascii	"A_NULL\000"
	.space	1
.LC240:
	.ascii	"SPECIAL\000"
.LC241:
	.ascii	"SOLID\000"
	.space	2
.LC242:
	.ascii	"SHOOTABLE\000"
	.space	2
.LC243:
	.ascii	"NOSECTOR\000"
	.space	3
.LC244:
	.ascii	"NOBLOCKMAP\000"
	.space	1
.LC245:
	.ascii	"AMBUSH\000"
	.space	1
.LC246:
	.ascii	"JUSTHIT\000"
.LC247:
	.ascii	"JUSTATTACKED\000"
	.space	3
.LC248:
	.ascii	"SPAWNCEILING\000"
	.space	3
.LC249:
	.ascii	"NOGRAVITY\000"
	.space	2
.LC250:
	.ascii	"DROPOFF\000"
.LC251:
	.ascii	"PICKUP\000"
	.space	1
.LC252:
	.ascii	"NOCLIP\000"
	.space	1
.LC253:
	.ascii	"SLIDE\000"
	.space	2
.LC254:
	.ascii	"FLOAT\000"
	.space	2
.LC255:
	.ascii	"TELEPORT\000"
	.space	3
.LC256:
	.ascii	"MISSILE\000"
.LC257:
	.ascii	"DROPPED\000"
.LC258:
	.ascii	"SHADOW\000"
	.space	1
.LC259:
	.ascii	"NOBLOOD\000"
.LC260:
	.ascii	"CORPSE\000"
	.space	1
.LC261:
	.ascii	"INFLOAT\000"
.LC262:
	.ascii	"COUNTKILL\000"
	.space	2
.LC263:
	.ascii	"COUNTITEM\000"
	.space	2
.LC264:
	.ascii	"SKULLFLY\000"
	.space	3
.LC265:
	.ascii	"NOTDMATCH\000"
	.space	2
.LC266:
	.ascii	"TRANSLATION\000"
.LC267:
	.ascii	"TRANSLATION1\000"
	.space	3
.LC268:
	.ascii	"TRANSLATION2\000"
	.space	3
.LC269:
	.ascii	"UNUSED1\000"
.LC270:
	.ascii	"UNUSED2\000"
.LC271:
	.ascii	"UNUSED3\000"
.LC272:
	.ascii	"UNUSED4\000"
.LC273:
	.ascii	"TRANSLUCENT\000"
.LC274:
	.ascii	"TOUCHY\000"
	.space	1
.LC275:
	.ascii	"BOUNCES\000"
.LC276:
	.ascii	"FRIEND\000"
	.space	1
.LC277:
	.ascii	"ID #\000"
	.space	3
.LC278:
	.ascii	"Initial frame\000"
	.space	2
.LC279:
	.ascii	"Hit points\000"
	.space	1
.LC280:
	.ascii	"First moving frame\000"
	.space	1
.LC281:
	.ascii	"Alert sound\000"
.LC282:
	.ascii	"Reaction time\000"
	.space	2
.LC283:
	.ascii	"Attack sound\000"
	.space	3
.LC284:
	.ascii	"Injury frame\000"
	.space	3
.LC285:
	.ascii	"Pain chance\000"
.LC286:
	.ascii	"Pain sound\000"
	.space	1
.LC287:
	.ascii	"Close attack frame\000"
	.space	1
.LC288:
	.ascii	"Far attack frame\000"
	.space	3
.LC289:
	.ascii	"Death frame\000"
.LC290:
	.ascii	"Exploding frame\000"
.LC291:
	.ascii	"Death sound\000"
.LC292:
	.ascii	"Speed\000"
	.space	2
.LC293:
	.ascii	"Width\000"
	.space	2
.LC294:
	.ascii	"Height\000"
	.space	1
.LC295:
	.ascii	"Mass\000"
	.space	3
.LC296:
	.ascii	"Missile damage\000"
	.space	1
.LC297:
	.ascii	"Action sound\000"
	.space	3
.LC298:
	.ascii	"Bits\000"
	.space	3
.LC299:
	.ascii	"Bits2\000"
	.space	2
.LC300:
	.ascii	"Respawn frame\000"
	.space	2
.LC301:
	.ascii	"Thing\000"
	.space	2
.LC302:
	.ascii	"Frame\000"
	.space	2
.LC303:
	.ascii	"Pointer\000"
.LC304:
	.ascii	"Sound\000"
	.space	2
.LC305:
	.ascii	"Ammo\000"
	.space	3
.LC306:
	.ascii	"Weapon\000"
	.space	1
.LC307:
	.ascii	"Sprite\000"
	.space	1
.LC308:
	.ascii	"Cheat\000"
	.space	2
.LC309:
	.ascii	"Misc\000"
	.space	3
.LC310:
	.ascii	"Text\000"
	.space	3
.LC311:
	.ascii	"[STRINGS]\000"
	.space	2
.LC312:
	.ascii	"[PARS]\000"
	.space	1
.LC313:
	.ascii	"[CODEPTR]\000"
	.space	2
.LC314:
	.ascii	"[HELPER]\000"
	.space	3
.LC315:
	.ascii	"[SPRITES]\000"
	.space	2
.LC316:
	.ascii	"[SOUNDS]\000"
	.space	3
.LC317:
	.ascii	"[MUSIC]\000"
.LC318:
	.ascii	"NEWLEVEL\000"
	.space	3
.LC319:
	.ascii	"D_DEVSTR\000"
	.space	3
.LC320:
	.ascii	"D_CDROM\000"
.LC321:
	.ascii	"PRESSKEY\000"
	.space	3
.LC322:
	.ascii	"PRESSYN\000"
.LC323:
	.ascii	"QUITMSG\000"
.LC324:
	.ascii	"QSAVESPOT\000"
	.space	2
.LC325:
	.ascii	"SAVEDEAD\000"
	.space	3
.LC326:
	.ascii	"NEWGAME\000"
.LC327:
	.ascii	"RESTARTLEVEL\000"
	.space	3
.LC328:
	.ascii	"NIGHTMARE\000"
	.space	2
.LC329:
	.ascii	"SWSTRING\000"
	.space	3
.LC330:
	.ascii	"MSGOFF\000"
	.space	1
.LC331:
	.ascii	"MSGON\000"
	.space	2
.LC332:
	.ascii	"NETEND\000"
	.space	1
.LC333:
	.ascii	"ENDGAME\000"
.LC334:
	.ascii	"DOSY\000"
	.space	3
.LC335:
	.ascii	"DETAILHI\000"
	.space	3
.LC336:
	.ascii	"DETAILLO\000"
	.space	3
.LC337:
	.ascii	"GAMMALVL0\000"
	.space	2
.LC338:
	.ascii	"GAMMALVL1\000"
	.space	2
.LC339:
	.ascii	"GAMMALVL2\000"
	.space	2
.LC340:
	.ascii	"GAMMALVL3\000"
	.space	2
.LC341:
	.ascii	"GAMMALVL4\000"
	.space	2
.LC342:
	.ascii	"EMPTYSTRING\000"
.LC343:
	.ascii	"GOTARMOR\000"
	.space	3
.LC344:
	.ascii	"GOTMEGA\000"
.LC345:
	.ascii	"GOTHTHBONUS\000"
.LC346:
	.ascii	"GOTARMBONUS\000"
.LC347:
	.ascii	"GOTSTIM\000"
.LC348:
	.ascii	"GOTMEDINEED\000"
.LC349:
	.ascii	"GOTMEDIKIT\000"
	.space	1
.LC350:
	.ascii	"GOTSUPER\000"
	.space	3
.LC351:
	.ascii	"GOTBLUECARD\000"
.LC352:
	.ascii	"GOTYELWCARD\000"
.LC353:
	.ascii	"GOTREDCARD\000"
	.space	1
.LC354:
	.ascii	"GOTBLUESKUL\000"
.LC355:
	.ascii	"GOTYELWSKUL\000"
.LC356:
	.ascii	"GOTREDSKULL\000"
.LC357:
	.ascii	"GOTINVUL\000"
	.space	3
.LC358:
	.ascii	"GOTBERSERK\000"
	.space	1
.LC359:
	.ascii	"GOTINVIS\000"
	.space	3
.LC360:
	.ascii	"GOTSUIT\000"
.LC361:
	.ascii	"GOTMAP\000"
	.space	1
.LC362:
	.ascii	"GOTVISOR\000"
	.space	3
.LC363:
	.ascii	"GOTMSPHERE\000"
	.space	1
.LC364:
	.ascii	"GOTCLIP\000"
.LC365:
	.ascii	"GOTCLIPBOX\000"
	.space	1
.LC366:
	.ascii	"GOTROCKET\000"
	.space	2
.LC367:
	.ascii	"GOTROCKBOX\000"
	.space	1
.LC368:
	.ascii	"GOTCELL\000"
.LC369:
	.ascii	"GOTCELLBOX\000"
	.space	1
.LC370:
	.ascii	"GOTSHELLS\000"
	.space	2
.LC371:
	.ascii	"GOTSHELLBOX\000"
.LC372:
	.ascii	"GOTBACKPACK\000"
.LC373:
	.ascii	"GOTBFG9000\000"
	.space	1
.LC374:
	.ascii	"GOTCHAINGUN\000"
.LC375:
	.ascii	"GOTCHAINSAW\000"
.LC376:
	.ascii	"GOTLAUNCHER\000"
.LC377:
	.ascii	"GOTPLASMA\000"
	.space	2
.LC378:
	.ascii	"GOTSHOTGUN\000"
	.space	1
.LC379:
	.ascii	"GOTSHOTGUN2\000"
.LC380:
	.ascii	"PD_BLUEO\000"
	.space	3
.LC381:
	.ascii	"PD_REDO\000"
.LC382:
	.ascii	"PD_YELLOWO\000"
	.space	1
.LC383:
	.ascii	"PD_BLUEK\000"
	.space	3
.LC384:
	.ascii	"PD_REDK\000"
.LC385:
	.ascii	"PD_YELLOWK\000"
	.space	1
.LC386:
	.ascii	"PD_BLUEC\000"
	.space	3
.LC387:
	.ascii	"PD_REDC\000"
.LC388:
	.ascii	"PD_YELLOWC\000"
	.space	1
.LC389:
	.ascii	"PD_BLUES\000"
	.space	3
.LC390:
	.ascii	"PD_REDS\000"
.LC391:
	.ascii	"PD_YELLOWS\000"
	.space	1
.LC392:
	.ascii	"PD_ANY\000"
	.space	1
.LC393:
	.ascii	"PD_ALL3\000"
.LC394:
	.ascii	"PD_ALL6\000"
.LC395:
	.ascii	"GGSAVED\000"
.LC396:
	.ascii	"HUSTR_MSGU\000"
	.space	1
.LC397:
	.ascii	"HUSTR_E1M1\000"
	.space	1
.LC398:
	.ascii	"HUSTR_E1M2\000"
	.space	1
.LC399:
	.ascii	"HUSTR_E1M3\000"
	.space	1
.LC400:
	.ascii	"HUSTR_E1M4\000"
	.space	1
.LC401:
	.ascii	"HUSTR_E1M5\000"
	.space	1
.LC402:
	.ascii	"HUSTR_E1M6\000"
	.space	1
.LC403:
	.ascii	"HUSTR_E1M7\000"
	.space	1
.LC404:
	.ascii	"HUSTR_E1M8\000"
	.space	1
.LC405:
	.ascii	"HUSTR_E1M9\000"
	.space	1
.LC406:
	.ascii	"HUSTR_E2M1\000"
	.space	1
.LC407:
	.ascii	"HUSTR_E2M2\000"
	.space	1
.LC408:
	.ascii	"HUSTR_E2M3\000"
	.space	1
.LC409:
	.ascii	"HUSTR_E2M4\000"
	.space	1
.LC410:
	.ascii	"HUSTR_E2M5\000"
	.space	1
.LC411:
	.ascii	"HUSTR_E2M6\000"
	.space	1
.LC412:
	.ascii	"HUSTR_E2M7\000"
	.space	1
.LC413:
	.ascii	"HUSTR_E2M8\000"
	.space	1
.LC414:
	.ascii	"HUSTR_E2M9\000"
	.space	1
.LC415:
	.ascii	"HUSTR_E3M1\000"
	.space	1
.LC416:
	.ascii	"HUSTR_E3M2\000"
	.space	1
.LC417:
	.ascii	"HUSTR_E3M3\000"
	.space	1
.LC418:
	.ascii	"HUSTR_E3M4\000"
	.space	1
.LC419:
	.ascii	"HUSTR_E3M5\000"
	.space	1
.LC420:
	.ascii	"HUSTR_E3M6\000"
	.space	1
.LC421:
	.ascii	"HUSTR_E3M7\000"
	.space	1
.LC422:
	.ascii	"HUSTR_E3M8\000"
	.space	1
.LC423:
	.ascii	"HUSTR_E3M9\000"
	.space	1
.LC424:
	.ascii	"HUSTR_E4M1\000"
	.space	1
.LC425:
	.ascii	"HUSTR_E4M2\000"
	.space	1
.LC426:
	.ascii	"HUSTR_E4M3\000"
	.space	1
.LC427:
	.ascii	"HUSTR_E4M4\000"
	.space	1
.LC428:
	.ascii	"HUSTR_E4M5\000"
	.space	1
.LC429:
	.ascii	"HUSTR_E4M6\000"
	.space	1
.LC430:
	.ascii	"HUSTR_E4M7\000"
	.space	1
.LC431:
	.ascii	"HUSTR_E4M8\000"
	.space	1
.LC432:
	.ascii	"HUSTR_E4M9\000"
	.space	1
.LC433:
	.ascii	"HUSTR_1\000"
.LC434:
	.ascii	"HUSTR_2\000"
.LC435:
	.ascii	"HUSTR_3\000"
.LC436:
	.ascii	"HUSTR_4\000"
.LC437:
	.ascii	"HUSTR_5\000"
.LC438:
	.ascii	"HUSTR_6\000"
.LC439:
	.ascii	"HUSTR_7\000"
.LC440:
	.ascii	"HUSTR_8\000"
.LC441:
	.ascii	"HUSTR_9\000"
.LC442:
	.ascii	"HUSTR_10\000"
	.space	3
.LC443:
	.ascii	"HUSTR_11\000"
	.space	3
.LC444:
	.ascii	"HUSTR_12\000"
	.space	3
.LC445:
	.ascii	"HUSTR_13\000"
	.space	3
.LC446:
	.ascii	"HUSTR_14\000"
	.space	3
.LC447:
	.ascii	"HUSTR_15\000"
	.space	3
.LC448:
	.ascii	"HUSTR_16\000"
	.space	3
.LC449:
	.ascii	"HUSTR_17\000"
	.space	3
.LC450:
	.ascii	"HUSTR_18\000"
	.space	3
.LC451:
	.ascii	"HUSTR_19\000"
	.space	3
.LC452:
	.ascii	"HUSTR_20\000"
	.space	3
.LC453:
	.ascii	"HUSTR_21\000"
	.space	3
.LC454:
	.ascii	"HUSTR_22\000"
	.space	3
.LC455:
	.ascii	"HUSTR_23\000"
	.space	3
.LC456:
	.ascii	"HUSTR_24\000"
	.space	3
.LC457:
	.ascii	"HUSTR_25\000"
	.space	3
.LC458:
	.ascii	"HUSTR_26\000"
	.space	3
.LC459:
	.ascii	"HUSTR_27\000"
	.space	3
.LC460:
	.ascii	"HUSTR_28\000"
	.space	3
.LC461:
	.ascii	"HUSTR_29\000"
	.space	3
.LC462:
	.ascii	"HUSTR_30\000"
	.space	3
.LC463:
	.ascii	"HUSTR_31\000"
	.space	3
.LC464:
	.ascii	"HUSTR_32\000"
	.space	3
.LC465:
	.ascii	"PHUSTR_1\000"
	.space	3
.LC466:
	.ascii	"PHUSTR_2\000"
	.space	3
.LC467:
	.ascii	"PHUSTR_3\000"
	.space	3
.LC468:
	.ascii	"PHUSTR_4\000"
	.space	3
.LC469:
	.ascii	"PHUSTR_5\000"
	.space	3
.LC470:
	.ascii	"PHUSTR_6\000"
	.space	3
.LC471:
	.ascii	"PHUSTR_7\000"
	.space	3
.LC472:
	.ascii	"PHUSTR_8\000"
	.space	3
.LC473:
	.ascii	"PHUSTR_9\000"
	.space	3
.LC474:
	.ascii	"PHUSTR_10\000"
	.space	2
.LC475:
	.ascii	"PHUSTR_11\000"
	.space	2
.LC476:
	.ascii	"PHUSTR_12\000"
	.space	2
.LC477:
	.ascii	"PHUSTR_13\000"
	.space	2
.LC478:
	.ascii	"PHUSTR_14\000"
	.space	2
.LC479:
	.ascii	"PHUSTR_15\000"
	.space	2
.LC480:
	.ascii	"PHUSTR_16\000"
	.space	2
.LC481:
	.ascii	"PHUSTR_17\000"
	.space	2
.LC482:
	.ascii	"PHUSTR_18\000"
	.space	2
.LC483:
	.ascii	"PHUSTR_19\000"
	.space	2
.LC484:
	.ascii	"PHUSTR_20\000"
	.space	2
.LC485:
	.ascii	"PHUSTR_21\000"
	.space	2
.LC486:
	.ascii	"PHUSTR_22\000"
	.space	2
.LC487:
	.ascii	"PHUSTR_23\000"
	.space	2
.LC488:
	.ascii	"PHUSTR_24\000"
	.space	2
.LC489:
	.ascii	"PHUSTR_25\000"
	.space	2
.LC490:
	.ascii	"PHUSTR_26\000"
	.space	2
.LC491:
	.ascii	"PHUSTR_27\000"
	.space	2
.LC492:
	.ascii	"PHUSTR_28\000"
	.space	2
.LC493:
	.ascii	"PHUSTR_29\000"
	.space	2
.LC494:
	.ascii	"PHUSTR_30\000"
	.space	2
.LC495:
	.ascii	"PHUSTR_31\000"
	.space	2
.LC496:
	.ascii	"PHUSTR_32\000"
	.space	2
.LC497:
	.ascii	"THUSTR_1\000"
	.space	3
.LC498:
	.ascii	"THUSTR_2\000"
	.space	3
.LC499:
	.ascii	"THUSTR_3\000"
	.space	3
.LC500:
	.ascii	"THUSTR_4\000"
	.space	3
.LC501:
	.ascii	"THUSTR_5\000"
	.space	3
.LC502:
	.ascii	"THUSTR_6\000"
	.space	3
.LC503:
	.ascii	"THUSTR_7\000"
	.space	3
.LC504:
	.ascii	"THUSTR_8\000"
	.space	3
.LC505:
	.ascii	"THUSTR_9\000"
	.space	3
.LC506:
	.ascii	"THUSTR_10\000"
	.space	2
.LC507:
	.ascii	"THUSTR_11\000"
	.space	2
.LC508:
	.ascii	"THUSTR_12\000"
	.space	2
.LC509:
	.ascii	"THUSTR_13\000"
	.space	2
.LC510:
	.ascii	"THUSTR_14\000"
	.space	2
.LC511:
	.ascii	"THUSTR_15\000"
	.space	2
.LC512:
	.ascii	"THUSTR_16\000"
	.space	2
.LC513:
	.ascii	"THUSTR_17\000"
	.space	2
.LC514:
	.ascii	"THUSTR_18\000"
	.space	2
.LC515:
	.ascii	"THUSTR_19\000"
	.space	2
.LC516:
	.ascii	"THUSTR_20\000"
	.space	2
.LC517:
	.ascii	"THUSTR_21\000"
	.space	2
.LC518:
	.ascii	"THUSTR_22\000"
	.space	2
.LC519:
	.ascii	"THUSTR_23\000"
	.space	2
.LC520:
	.ascii	"THUSTR_24\000"
	.space	2
.LC521:
	.ascii	"THUSTR_25\000"
	.space	2
.LC522:
	.ascii	"THUSTR_26\000"
	.space	2
.LC523:
	.ascii	"THUSTR_27\000"
	.space	2
.LC524:
	.ascii	"THUSTR_28\000"
	.space	2
.LC525:
	.ascii	"THUSTR_29\000"
	.space	2
.LC526:
	.ascii	"THUSTR_30\000"
	.space	2
.LC527:
	.ascii	"THUSTR_31\000"
	.space	2
.LC528:
	.ascii	"THUSTR_32\000"
	.space	2
.LC529:
	.ascii	"HUSTR_CHATMACRO1\000"
	.space	3
.LC530:
	.ascii	"HUSTR_CHATMACRO2\000"
	.space	3
.LC531:
	.ascii	"HUSTR_CHATMACRO3\000"
	.space	3
.LC532:
	.ascii	"HUSTR_CHATMACRO4\000"
	.space	3
.LC533:
	.ascii	"HUSTR_CHATMACRO5\000"
	.space	3
.LC534:
	.ascii	"HUSTR_CHATMACRO6\000"
	.space	3
.LC535:
	.ascii	"HUSTR_CHATMACRO7\000"
	.space	3
.LC536:
	.ascii	"HUSTR_CHATMACRO8\000"
	.space	3
.LC537:
	.ascii	"HUSTR_CHATMACRO9\000"
	.space	3
.LC538:
	.ascii	"HUSTR_CHATMACRO0\000"
	.space	3
.LC539:
	.ascii	"HUSTR_TALKTOSELF1\000"
	.space	2
.LC540:
	.ascii	"HUSTR_TALKTOSELF2\000"
	.space	2
.LC541:
	.ascii	"HUSTR_TALKTOSELF3\000"
	.space	2
.LC542:
	.ascii	"HUSTR_TALKTOSELF4\000"
	.space	2
.LC543:
	.ascii	"HUSTR_TALKTOSELF5\000"
	.space	2
.LC544:
	.ascii	"HUSTR_MESSAGESENT\000"
	.space	2
.LC545:
	.ascii	"HUSTR_PLRGREEN\000"
	.space	1
.LC546:
	.ascii	"HUSTR_PLRINDIGO\000"
.LC547:
	.ascii	"HUSTR_PLRBROWN\000"
	.space	1
.LC548:
	.ascii	"HUSTR_PLRRED\000"
	.space	3
.LC549:
	.ascii	"AMSTR_FOLLOWON\000"
	.space	1
.LC550:
	.ascii	"AMSTR_FOLLOWOFF\000"
.LC551:
	.ascii	"AMSTR_GRIDON\000"
	.space	3
.LC552:
	.ascii	"AMSTR_GRIDOFF\000"
	.space	2
.LC553:
	.ascii	"AMSTR_MARKEDSPOT\000"
	.space	3
.LC554:
	.ascii	"AMSTR_MARKSCLEARED\000"
	.space	1
.LC555:
	.ascii	"STSTR_MUS\000"
	.space	2
.LC556:
	.ascii	"STSTR_NOMUS\000"
.LC557:
	.ascii	"STSTR_DQDON\000"
.LC558:
	.ascii	"STSTR_DQDOFF\000"
	.space	3
.LC559:
	.ascii	"STSTR_KFAADDED\000"
	.space	1
.LC560:
	.ascii	"STSTR_FAADDED\000"
	.space	2
.LC561:
	.ascii	"STSTR_NCON\000"
	.space	1
.LC562:
	.ascii	"STSTR_NCOFF\000"
.LC563:
	.ascii	"STSTR_BEHOLD\000"
	.space	3
.LC564:
	.ascii	"STSTR_BEHOLDX\000"
	.space	2
.LC565:
	.ascii	"STSTR_CHOPPERS\000"
	.space	1
.LC566:
	.ascii	"STSTR_CLEV\000"
	.space	1
.LC567:
	.ascii	"STSTR_COMPON\000"
	.space	3
.LC568:
	.ascii	"STSTR_COMPOFF\000"
	.space	2
.LC569:
	.ascii	"E1TEXT\000"
	.space	1
.LC570:
	.ascii	"E2TEXT\000"
	.space	1
.LC571:
	.ascii	"E3TEXT\000"
	.space	1
.LC572:
	.ascii	"E4TEXT\000"
	.space	1
.LC573:
	.ascii	"C1TEXT\000"
	.space	1
.LC574:
	.ascii	"C2TEXT\000"
	.space	1
.LC575:
	.ascii	"C3TEXT\000"
	.space	1
.LC576:
	.ascii	"C4TEXT\000"
	.space	1
.LC577:
	.ascii	"C5TEXT\000"
	.space	1
.LC578:
	.ascii	"C6TEXT\000"
	.space	1
.LC579:
	.ascii	"P1TEXT\000"
	.space	1
.LC580:
	.ascii	"P2TEXT\000"
	.space	1
.LC581:
	.ascii	"P3TEXT\000"
	.space	1
.LC582:
	.ascii	"P4TEXT\000"
	.space	1
.LC583:
	.ascii	"P5TEXT\000"
	.space	1
.LC584:
	.ascii	"P6TEXT\000"
	.space	1
.LC585:
	.ascii	"T1TEXT\000"
	.space	1
.LC586:
	.ascii	"T2TEXT\000"
	.space	1
.LC587:
	.ascii	"T3TEXT\000"
	.space	1
.LC588:
	.ascii	"T4TEXT\000"
	.space	1
.LC589:
	.ascii	"T5TEXT\000"
	.space	1
.LC590:
	.ascii	"T6TEXT\000"
	.space	1
.LC591:
	.ascii	"CC_ZOMBIE\000"
	.space	2
.LC592:
	.ascii	"CC_SHOTGUN\000"
	.space	1
.LC593:
	.ascii	"CC_HEAVY\000"
	.space	3
.LC594:
	.ascii	"CC_IMP\000"
	.space	1
.LC595:
	.ascii	"CC_DEMON\000"
	.space	3
.LC596:
	.ascii	"CC_LOST\000"
.LC597:
	.ascii	"CC_CACO\000"
.LC598:
	.ascii	"CC_HELL\000"
.LC599:
	.ascii	"CC_BARON\000"
	.space	3
.LC600:
	.ascii	"CC_ARACH\000"
	.space	3
.LC601:
	.ascii	"CC_PAIN\000"
.LC602:
	.ascii	"CC_REVEN\000"
	.space	3
.LC603:
	.ascii	"CC_MANCU\000"
	.space	3
.LC604:
	.ascii	"CC_ARCH\000"
.LC605:
	.ascii	"CC_SPIDER\000"
	.space	2
.LC606:
	.ascii	"CC_CYBER\000"
	.space	3
.LC607:
	.ascii	"CC_HERO\000"
.LC608:
	.ascii	"BGFLATE1\000"
	.space	3
.LC609:
	.ascii	"BGFLATE2\000"
	.space	3
.LC610:
	.ascii	"BGFLATE3\000"
	.space	3
.LC611:
	.ascii	"BGFLATE4\000"
	.space	3
.LC612:
	.ascii	"BGFLAT06\000"
	.space	3
.LC613:
	.ascii	"BGFLAT11\000"
	.space	3
.LC614:
	.ascii	"BGFLAT20\000"
	.space	3
.LC615:
	.ascii	"BGFLAT30\000"
	.space	3
.LC616:
	.ascii	"BGFLAT15\000"
	.space	3
.LC617:
	.ascii	"BGFLAT31\000"
	.space	3
.LC618:
	.ascii	"BGCASTCALL\000"
	.space	1
.LC619:
	.ascii	"STARTUP1\000"
	.space	3
.LC620:
	.ascii	"STARTUP2\000"
	.space	3
.LC621:
	.ascii	"STARTUP3\000"
	.space	3
.LC622:
	.ascii	"STARTUP4\000"
	.space	3
.LC623:
	.ascii	"STARTUP5\000"
	.space	3
.LC624:
	.ascii	"SAVEGAMENAME\000"
	.space	3
.LC625:
	.ascii	"prbmsav\000"
.LC626:
	.ascii	"BOSSBACK\000"
	.space	3
.LC627:
	.ascii	"RROCK19\000"
.LC628:
	.ascii	"RROCK13\000"
.LC629:
	.ascii	"RROCK17\000"
.LC630:
	.ascii	"RROCK07\000"
.LC631:
	.ascii	"RROCK14\000"
.LC632:
	.ascii	"SLIME16\000"
.LC633:
	.ascii	"MFLR8_3\000"
.LC634:
	.ascii	"MFLR8_4\000"
.LC635:
	.ascii	"SFLR6_1\000"
.LC636:
	.ascii	"FLOOR4_8\000"
	.space	3
.LC637:
	.ascii	"OUR HERO\000"
	.space	3
.LC638:
	.ascii	"THE CYBERDEMON\000"
	.space	1
.LC639:
	.ascii	"THE SPIDER MASTERMIND\000"
	.space	2
.LC640:
	.ascii	"ARCH-VILE\000"
	.space	2
.LC641:
	.ascii	"MANCUBUS\000"
	.space	3
.LC642:
	.ascii	"REVENANT\000"
	.space	3
.LC643:
	.ascii	"PAIN ELEMENTAL\000"
	.space	1
.LC644:
	.ascii	"ARACHNOTRON\000"
.LC645:
	.ascii	"BARON OF HELL\000"
	.space	2
.LC646:
	.ascii	"HELL KNIGHT\000"
.LC647:
	.ascii	"CACODEMON\000"
	.space	2
.LC648:
	.ascii	"LOST SOUL\000"
	.space	2
.LC649:
	.ascii	"DEMON\000"
	.space	2
.LC650:
	.ascii	"IMP\000"
.LC651:
	.ascii	"HEAVY WEAPON DUDE\000"
	.space	2
.LC652:
	.ascii	"SHOTGUN GUY\000"
.LC653:
	.ascii	"ZOMBIEMAN\000"
	.space	2
.LC654:
	.ascii	"Time for a vacation. You've burst the\012bowels of "
	.ascii	"hell and by golly you're ready\012for a break. You "
	.ascii	"mutter to yourself,\012Maybe someone else can kick "
	.ascii	"Hell's ass\012next time around. Ahead lies a quiet "
	.ascii	"town,\012with peaceful flowing water, quaint\012bui"
	.ascii	"ldings, and presumably no Hellspawn.\012\012As you "
	.ascii	"step off the transport, you hear\012the stomp of a "
	.ascii	"cyberdemon's iron shoe.\000"
	.space	2
.LC655:
	.ascii	"What now? Looks totally different. Kind\012of like "
	.ascii	"King Tut's condo. Well,\012whatever's here can't be"
	.ascii	" any worse\012than usual. Can it?  Or maybe it's be"
	.ascii	"st\012to let sleeping gods lie..\000"
	.space	2
.LC656:
	.ascii	"Suddenly, all is silent, from one horizon\012to the"
	.ascii	" other. The agonizing echo of Hell\012fades away, t"
	.ascii	"he nightmare sky turns to\012blue, the heaps of mon"
	.ascii	"ster corpses start \012to evaporate along with the "
	.ascii	"evil stench \012that filled the air. Jeeze, maybe y"
	.ascii	"ou've\012done it. Have you really won?\012\012Somet"
	.ascii	"hing rumbles in the distance.\012A blue light begin"
	.ascii	"s to glow inside the\012ruined skull of the demon-s"
	.ascii	"pitter.\000"
	.space	2
.LC657:
	.ascii	"The vista opening ahead looks real damn\012familiar"
	.ascii	". Smells familiar, too -- like\012fried excrement. "
	.ascii	"You didn't like this\012place before, and you sure "
	.ascii	"as hell ain't\012planning to like it now. The more "
	.ascii	"you\012brood on it, the madder you get.\012Hefting "
	.ascii	"your gun, an evil grin trickles\012onto your face. "
	.ascii	"Time to take some names.\000"
	.space	2
.LC658:
	.ascii	"You hear the grinding of heavy machinery\012ahead. "
	.ascii	" You sure hope they're not stamping\012out new hell"
	.ascii	"spawn, but you're ready to\012ream out a whole herd"
	.ascii	" if you have to.\012They might be planning a blood "
	.ascii	"feast, but\012you feel about as mean as two thousan"
	.ascii	"d\012maniacs packed into one mad killer.\012\012You"
	.ascii	" don't plan to go down easy.\000"
	.space	1
.LC659:
	.ascii	"You've fought your way out of the infested\012exper"
	.ascii	"imental labs.   It seems that UAC has\012once again"
	.ascii	" gulped it down.  With their\012high turnover, it m"
	.ascii	"ust be hard for poor\012old UAC to buy corporate he"
	.ascii	"alth insurance\012nowadays..\012\012Ahead lies the "
	.ascii	"military complex, now\012swarming with diseased hor"
	.ascii	"rors hot to get\012their teeth into you. With luck,"
	.ascii	" the\012complex still has some warlike ordnance\012"
	.ascii	"laying around.\000"
	.space	2
.LC660:
	.ascii	"Betcha wondered just what WAS the hardest\012level "
	.ascii	"we had ready for ya?  Now you know.\012No one gets "
	.ascii	"out alive.\000"
	.space	1
.LC661:
	.ascii	"You've found the second-hardest level we\012got. Ho"
	.ascii	"pe you have a saved game a level or\012two previous"
	.ascii	".  If not, be prepared to die\012aplenty. For maste"
	.ascii	"r marines only.\000"
.LC662:
	.ascii	"The Gatekeeper's evil face is splattered\012all ove"
	.ascii	"r the place.  As its tattered corpse\012collapses, "
	.ascii	"an inverted Gate forms and\012sucks down the shards"
	.ascii	" of the last\012prototype Accelerator, not to menti"
	.ascii	"on the\012few remaining demons.  You're done. Hell\012"
	.ascii	"has gone back to pounding bad dead folks \012instea"
	.ascii	"d of good live ones.  Remember to\012tell your gran"
	.ascii	"dkids to put a rocket\012launcher in your coffin. I"
	.ascii	"f you go to Hell\012when you die, you'll need it fo"
	.ascii	"r some\012final cleaning-up ...\000"
	.space	3
.LC663:
	.ascii	"You've bashed and battered your way into\012the hea"
	.ascii	"rt of the devil-hive.  Time for a\012Search-and-Des"
	.ascii	"troy mission, aimed at the\012Gatekeeper, whose fou"
	.ascii	"l offspring is\012cascading to Earth.  Yeah, he's b"
	.ascii	"ad. But\012you know who's worse!\012\012Grinning ev"
	.ascii	"illy, you check your gear, and\012get ready to give"
	.ascii	" the bastard a little Hell\012of your own making!\000"
	.space	3
.LC664:
	.ascii	"Even the deadly Arch-Vile labyrinth could\012not st"
	.ascii	"op you, and you've gotten to the\012prototype Accel"
	.ascii	"erator which is soon\012efficiently and permanently"
	.ascii	" deactivated.\012\012You're good at that kind of th"
	.ascii	"ing.\000"
	.space	2
.LC665:
	.ascii	"You gloat over the steaming carcass of the\012Guard"
	.ascii	"ian.  With its death, you've wrested\012the Acceler"
	.ascii	"ator from the stinking claws\012of Hell.  You relax"
	.ascii	" and glance around the\012room.  Damn!  There was s"
	.ascii	"upposed to be at\012least one working prototype, bu"
	.ascii	"t you can't\012see it. The demons must have taken i"
	.ascii	"t.\012\012You must find the prototype, or all your\012"
	.ascii	"struggles will have been wasted. Keep\012moving, ke"
	.ascii	"ep fighting, keep killing.\012Oh yes, keep living, "
	.ascii	"too.\000"
	.space	2
.LC666:
	.ascii	"CONGRATULATIONS, YOU'VE FOUND THE\012SUPER SECRET L"
	.ascii	"EVEL!  YOU'D BETTER\012BLAZE THROUGH THIS ONE!\012\000"
	.space	3
.LC667:
	.ascii	"CONGRATULATIONS, YOU'VE FOUND THE SECRET\012LEVEL! "
	.ascii	"LOOKS LIKE IT'S BEEN BUILT BY\012HUMANS, RATHER THA"
	.ascii	"N DEMONS. YOU WONDER\012WHO THE INMATES OF THIS COR"
	.ascii	"NER OF HELL\012WILL BE.\000"
	.space	3
.LC668:
	.ascii	"THE HORRENDOUS VISAGE OF THE BIGGEST\012DEMON YOU'V"
	.ascii	"E EVER SEEN CRUMBLES BEFORE\012YOU, AFTER YOU PUMP "
	.ascii	"YOUR ROCKETS INTO\012HIS EXPOSED BRAIN. THE MONSTER"
	.ascii	" SHRIVELS\012UP AND DIES, ITS THRASHING LIMBS\012DE"
	.ascii	"VASTATING UNTOLD MILES OF HELL'S\012SURFACE.\012\012"
	.ascii	"YOU'VE DONE IT. THE INVASION IS OVER.\012EARTH IS S"
	.ascii	"AVED. HELL IS A WRECK. YOU\012WONDER WHERE BAD FOLK"
	.ascii	"S WILL GO WHEN THEY\012DIE, NOW. WIPING THE SWEAT F"
	.ascii	"ROM YOUR\012FOREHEAD YOU BEGIN THE LONG TREK BACK\012"
	.ascii	"HOME. REBUILDING EARTH OUGHT TO BE A\012LOT MORE FU"
	.ascii	"N THAN RUINING IT WAS.\012\000"
	.space	1
.LC669:
	.ascii	"YOU ARE AT THE CORRUPT HEART OF THE CITY,\012SURROU"
	.ascii	"NDED BY THE CORPSES OF YOUR ENEMIES.\012YOU SEE NO "
	.ascii	"WAY TO DESTROY THE CREATURES'\012ENTRYWAY ON THIS S"
	.ascii	"IDE, SO YOU CLENCH YOUR\012TEETH AND PLUNGE THROUGH"
	.ascii	" IT.\012\012THERE MUST BE A WAY TO CLOSE IT ON THE\012"
	.ascii	"OTHER SIDE. WHAT DO YOU CARE IF YOU'VE\012GOT TO GO"
	.ascii	" THROUGH HELL TO GET TO IT?\000"
	.space	3
.LC670:
	.ascii	"YOU HAVE WON! YOUR VICTORY HAS ENABLED\012HUMANKIND"
	.ascii	" TO EVACUATE EARTH AND ESCAPE\012THE NIGHTMARE.  NO"
	.ascii	"W YOU ARE THE ONLY\012HUMAN LEFT ON THE FACE OF THE"
	.ascii	" PLANET.\012CANNIBAL MUTATIONS, CARNIVOROUS ALIENS,"
	.ascii	"\012AND EVIL SPIRITS ARE YOUR ONLY NEIGHBORS.\012YO"
	.ascii	"U SIT BACK AND WAIT FOR DEATH, CONTENT\012THAT YOU "
	.ascii	"HAVE SAVED YOUR SPECIES.\012\012BUT THEN, EARTH CON"
	.ascii	"TROL BEAMS DOWN A\012MESSAGE FROM SPACE: \"SENSORS "
	.ascii	"HAVE LOCATED\012THE SOURCE OF THE ALIEN INVASION. I"
	.ascii	"F YOU\012GO THERE, YOU MAY BE ABLE TO BLOCK THEIR\012"
	.ascii	"ENTRY.  THE ALIEN BASE IS IN THE HEART OF\012YOUR O"
	.ascii	"WN HOME CITY, NOT FAR FROM THE\012STARPORT.\" SLOWL"
	.ascii	"Y AND PAINFULLY YOU GET\012UP AND RETURN TO THE FRA"
	.ascii	"Y.\000"
	.space	2
.LC671:
	.ascii	"YOU HAVE ENTERED DEEPLY INTO THE INFESTED\012STARPO"
	.ascii	"RT. BUT SOMETHING IS WRONG. THE\012MONSTERS HAVE BR"
	.ascii	"OUGHT THEIR OWN REALITY\012WITH THEM, AND THE STARP"
	.ascii	"ORT'S TECHNOLOGY\012IS BEING SUBVERTED BY THEIR PRE"
	.ascii	"SENCE.\012\012AHEAD, YOU SEE AN OUTPOST OF HELL, A\012"
	.ascii	"FORTIFIED ZONE. IF YOU CAN GET PAST IT,\012YOU CAN "
	.ascii	"PENETRATE INTO THE HAUNTED HEART\012OF THE STARBASE"
	.ascii	" AND FIND THE CONTROLLING\012SWITCH WHICH HOLDS EAR"
	.ascii	"TH'S POPULATION\012HOSTAGE.\000"
	.space	2
.LC672:
	.ascii	"the spider mastermind must have sent forth\012its l"
	.ascii	"egions of hellspawn before your\012final confrontat"
	.ascii	"ion with that terrible\012beast from hell.  but you"
	.ascii	" stepped forward\012and brought forth eternal damna"
	.ascii	"tion and\012suffering upon the horde as a true hero"
	.ascii	"\012would in the face of something so evil.\012\012"
	.ascii	"besides, someone was gonna pay for what\012happened"
	.ascii	" to daisy, your pet rabbit.\012\012but now, you see"
	.ascii	" spread before you more\012potential pain and gibbi"
	.ascii	"tude as a nation\012of demons run amok among our ci"
	.ascii	"ties.\012\012next stop, hell on earth!\000"
.LC673:
	.ascii	"The loathsome spiderdemon that\012masterminded the "
	.ascii	"invasion of the moon\012bases and caused so much de"
	.ascii	"ath has had\012its ass kicked for all time.\012\012"
	.ascii	"A hidden doorway opens and you enter.\012You've pro"
	.ascii	"ven too tough for Hell to\012contain, and now Hell "
	.ascii	"at last plays\012fair -- for you emerge from the do"
	.ascii	"or\012to see the green fields of Earth!\012Home at "
	.ascii	"last.\012\012You wonder what's been happening on\012"
	.ascii	"Earth while you were battling evil\012unleashed. It"
	.ascii	"'s good that no Hell-\012spawn could have come thro"
	.ascii	"ugh that\012door with you ...\000"
	.space	3
.LC674:
	.ascii	"You've done it! The hideous cyber-\012demon lord th"
	.ascii	"at ruled the lost Deimos\012moon base has been slai"
	.ascii	"n and you\012are triumphant! But ... where are\012y"
	.ascii	"ou? You clamber to the edge of the\012moon and look"
	.ascii	" down to see the awful\012truth.\012\012Deimos floa"
	.ascii	"ts above Hell itself!\012You've never heard of anyo"
	.ascii	"ne escaping\012from Hell, but you'll make the basta"
	.ascii	"rds\012sorry they ever heard of you! Quickly,\012yo"
	.ascii	"u rappel down to  the surface of\012Hell.\012\012No"
	.ascii	"w, it's on to the final chapter of\012DOOM! -- Infe"
	.ascii	"rno.\000"
	.space	1
.LC675:
	.ascii	"Once you beat the big badasses and\012clean out the"
	.ascii	" moon base you're supposed\012to win, aren't you? A"
	.ascii	"ren't you? Where's\012your fat reward and ticket ho"
	.ascii	"me? What\012the hell is this? It's not supposed to\012"
	.ascii	"end this way!\012\012It stinks like rotten meat, bu"
	.ascii	"t looks\012like the lost Deimos base.  Looks like\012"
	.ascii	"you're stuck on The Shores of Hell.\012The only way"
	.ascii	" out is through.\012\012To continue the DOOM experi"
	.ascii	"ence, play\012The Shores of Hell and its amazing\012"
	.ascii	"sequel, Inferno!\012\000"
	.space	3
.LC676:
	.ascii	"Compatibility Mode Off\000"
	.space	1
.LC677:
	.ascii	"Compatibility Mode On\000"
	.space	2
.LC678:
	.ascii	"Changing Level...\000"
	.space	2
.LC679:
	.ascii	"... doesn't suck - GM\000"
	.space	2
.LC680:
	.ascii	"Power-up Toggled\000"
	.space	3
.LC681:
	.ascii	"inVuln, Str, Inviso, Rad, Allmap, or Lite-amp\000"
	.space	2
.LC682:
	.ascii	"No Clipping Mode OFF\000"
	.space	3
.LC683:
	.ascii	"No Clipping Mode ON\000"
.LC684:
	.ascii	"Ammo (no keys) Added\000"
	.space	3
.LC685:
	.ascii	"Very Happy Ammo Added\000"
	.space	2
.LC686:
	.ascii	"Degreelessness Mode Off\000"
.LC687:
	.ascii	"Degreelessness Mode On\000"
	.space	1
.LC688:
	.ascii	"IMPOSSIBLE SELECTION\000"
	.space	3
.LC689:
	.ascii	"Music Change\000"
	.space	3
.LC690:
	.ascii	"Overlay Mode OFF\000"
	.space	3
.LC691:
	.ascii	"Overlay Mode ON\000"
.LC692:
	.ascii	"Rotate Mode OFF\000"
.LC693:
	.ascii	"Rotate Mode ON\000"
	.space	1
.LC694:
	.ascii	"All Marks Cleared\000"
	.space	2
.LC695:
	.ascii	"Marked Spot\000"
.LC696:
	.ascii	"Grid OFF\000"
	.space	3
.LC697:
	.ascii	"Grid ON\000"
.LC698:
	.ascii	"Follow Mode OFF\000"
.LC699:
	.ascii	"Follow Mode ON\000"
	.space	1
.LC700:
	.ascii	"Player 4: \000"
	.space	1
.LC701:
	.ascii	"Player 3: \000"
	.space	1
.LC702:
	.ascii	"Player 2: \000"
	.space	1
.LC703:
	.ascii	"Player 1: \000"
	.space	1
.LC704:
	.ascii	"[Message Sent]\000"
	.space	1
.LC705:
	.ascii	"You've lost it...\000"
	.space	2
.LC706:
	.ascii	"You start to rave\000"
	.space	2
.LC707:
	.ascii	"You scare yourself\000"
	.space	1
.LC708:
	.ascii	"Who's there?\000"
	.space	3
.LC709:
	.ascii	"You mumble to yourself\000"
	.space	1
.LC710:
	.ascii	"No\000"
	.space	1
.LC711:
	.ascii	"Yes\000"
.LC712:
	.ascii	"I'll take care of it.\000"
	.space	2
.LC713:
	.ascii	"Come here!\000"
	.space	1
.LC714:
	.ascii	"Next time, scumbag...\000"
	.space	2
.LC715:
	.ascii	"You suck!\000"
	.space	2
.LC716:
	.ascii	"Help!\000"
	.space	2
.LC717:
	.ascii	"I'm not looking too good!\000"
	.space	2
.LC718:
	.ascii	"I'm OK.\000"
.LC719:
	.ascii	"I'm ready to kick butt!\000"
.LC720:
	.ascii	"level 32: caribbean\000"
.LC721:
	.ascii	"level 31: pharaoh\000"
	.space	2
.LC722:
	.ascii	"level 30: last call\000"
.LC723:
	.ascii	"level 29: river styx\000"
	.space	3
.LC724:
	.ascii	"level 28: heck\000"
	.space	1
.LC725:
	.ascii	"level 27: mount pain\000"
	.space	3
.LC726:
	.ascii	"level 26: ballistyx\000"
.LC727:
	.ascii	"level 25: baron's den\000"
	.space	2
.LC728:
	.ascii	"level 24: quarry\000"
	.space	3
.LC729:
	.ascii	"level 23: lunar mining project\000"
	.space	1
.LC730:
	.ascii	"level 22: habitat\000"
	.space	2
.LC731:
	.ascii	"level 21: administration center\000"
.LC732:
	.ascii	"level 20: central processing\000"
	.space	3
.LC733:
	.ascii	"level 19: shipping/respawning\000"
	.space	2
.LC734:
	.ascii	"level 18: mill\000"
	.space	1
.LC735:
	.ascii	"level 17: processing area\000"
	.space	2
.LC736:
	.ascii	"level 16: deepest reaches\000"
	.space	2
.LC737:
	.ascii	"level 15: dead zone\000"
.LC738:
	.ascii	"level 14: steel works\000"
	.space	2
.LC739:
	.ascii	"level 13: nukage processing\000"
.LC740:
	.ascii	"level 12: crater\000"
	.space	3
.LC741:
	.ascii	"level 11: storage facility\000"
	.space	1
.LC742:
	.ascii	"level 10: redemption\000"
	.space	3
.LC743:
	.ascii	"level 9: stronghold\000"
.LC744:
	.ascii	"level 8: metal\000"
	.space	1
.LC745:
	.ascii	"level 7: prison\000"
.LC746:
	.ascii	"level 6: open season\000"
	.space	3
.LC747:
	.ascii	"level 5: hanger\000"
.LC748:
	.ascii	"level 4: wormhole\000"
	.space	2
.LC749:
	.ascii	"level 3: power control\000"
	.space	1
.LC750:
	.ascii	"level 2: human bbq\000"
	.space	1
.LC751:
	.ascii	"level 1: system control\000"
.LC752:
	.ascii	"level 32: go 2 it\000"
	.space	2
.LC753:
	.ascii	"level 31: cyberden\000"
	.space	1
.LC754:
	.ascii	"level 30: the gateway of hell\000"
	.space	2
.LC755:
	.ascii	"level 29: odyssey of noises\000"
.LC756:
	.ascii	"level 28: the sewers\000"
	.space	3
.LC757:
	.ascii	"level 27: anti-christ\000"
	.space	2
.LC758:
	.ascii	"level 26: bunker\000"
	.space	3
.LC759:
	.ascii	"level 25: the temple of darkness\000"
	.space	3
.LC760:
	.ascii	"level 24: the final frontier\000"
	.space	3
.LC761:
	.ascii	"level 23: tombstone\000"
.LC762:
	.ascii	"level 22: impossible mission\000"
	.space	3
.LC763:
	.ascii	"level 21: slayer\000"
	.space	3
.LC764:
	.ascii	"level 20: the death domain\000"
	.space	1
.LC765:
	.ascii	"level 19: nme\000"
	.space	2
.LC766:
	.ascii	"level 18: neurosphere\000"
	.space	2
.LC767:
	.ascii	"level 17: compound\000"
	.space	1
.LC768:
	.ascii	"level 16: the omen\000"
	.space	1
.LC769:
	.ascii	"level 15: the twilight\000"
	.space	1
.LC770:
	.ascii	"level 14: genesis\000"
	.space	2
.LC771:
	.ascii	"level 13: the crypt\000"
.LC772:
	.ascii	"level 12: speed\000"
.LC773:
	.ascii	"level 11: hunted\000"
	.space	3
.LC774:
	.ascii	"level 10: onslaught\000"
.LC775:
	.ascii	"level 9: abattoire\000"
	.space	1
.LC776:
	.ascii	"level 8: realm\000"
	.space	1
.LC777:
	.ascii	"level 7: caughtyard\000"
.LC778:
	.ascii	"level 6: baron's lair\000"
	.space	2
.LC779:
	.ascii	"level 5: ghost town\000"
.LC780:
	.ascii	"level 4: caged\000"
	.space	1
.LC781:
	.ascii	"level 3: aztec\000"
	.space	1
.LC782:
	.ascii	"level 2: well of souls\000"
	.space	1
.LC783:
	.ascii	"level 1: congo\000"
	.space	1
.LC784:
	.ascii	"level 32: grosse\000"
	.space	3
.LC785:
	.ascii	"level 31: wolfenstein\000"
	.space	2
.LC786:
	.ascii	"level 30: icon of sin\000"
	.space	2
.LC787:
	.ascii	"level 29: the living end\000"
	.space	3
.LC788:
	.ascii	"level 28: the spirit world\000"
	.space	1
.LC789:
	.ascii	"level 27: monster condo\000"
.LC790:
	.ascii	"level 26: the abandoned mines\000"
	.space	2
.LC791:
	.ascii	"level 25: bloodfalls\000"
	.space	3
.LC792:
	.ascii	"level 24: the chasm\000"
.LC793:
	.ascii	"level 23: barrels o' fun\000"
	.space	3
.LC794:
	.ascii	"level 22: the catacombs\000"
.LC795:
	.ascii	"level 21: nirvana\000"
	.space	2
.LC796:
	.ascii	"level 20: gotcha!\000"
	.space	2
.LC797:
	.ascii	"level 19: the citadel\000"
	.space	2
.LC798:
	.ascii	"level 18: the courtyard\000"
.LC799:
	.ascii	"level 17: tenements\000"
.LC800:
	.ascii	"level 16: suburbs\000"
	.space	2
.LC801:
	.ascii	"level 15: industrial zone\000"
	.space	2
.LC802:
	.ascii	"level 14: the inmost dens\000"
	.space	2
.LC803:
	.ascii	"level 13: downtown\000"
	.space	1
.LC804:
	.ascii	"level 12: the factory\000"
	.space	2
.LC805:
	.ascii	"level 11: 'o' of destruction!\000"
	.space	2
.LC806:
	.ascii	"level 10: refueling base\000"
	.space	3
.LC807:
	.ascii	"level 9: the pit\000"
	.space	3
.LC808:
	.ascii	"level 8: tricks and traps\000"
	.space	2
.LC809:
	.ascii	"level 7: dead simple\000"
	.space	3
.LC810:
	.ascii	"level 6: the crusher\000"
	.space	3
.LC811:
	.ascii	"level 5: the waste tunnels\000"
	.space	1
.LC812:
	.ascii	"level 4: the focus\000"
	.space	1
.LC813:
	.ascii	"level 3: the gantlet\000"
	.space	3
.LC814:
	.ascii	"level 2: underhalls\000"
.LC815:
	.ascii	"level 1: entryway\000"
	.space	2
.LC816:
	.ascii	"E4M9: Fear\000"
	.space	1
.LC817:
	.ascii	"E4M8: Unto The Cruel\000"
	.space	3
.LC818:
	.ascii	"E4M7: And Hell Followed\000"
.LC819:
	.ascii	"E4M6: Against Thee Wickedly\000"
.LC820:
	.ascii	"E4M5: They Will Repent\000"
	.space	1
.LC821:
	.ascii	"E4M4: Unruly Evil\000"
	.space	2
.LC822:
	.ascii	"E4M3: Sever The Wicked\000"
	.space	1
.LC823:
	.ascii	"E4M2: Perfect Hatred\000"
	.space	3
.LC824:
	.ascii	"E4M1: Hell Beneath\000"
	.space	1
.LC825:
	.ascii	"E3M9: Warrens\000"
	.space	2
.LC826:
	.ascii	"E3M8: Dis\000"
	.space	2
.LC827:
	.ascii	"E3M7: Limbo\000"
.LC828:
	.ascii	"E3M6: Mt. Erebus\000"
	.space	3
.LC829:
	.ascii	"E3M5: Unholy Cathedral\000"
	.space	1
.LC830:
	.ascii	"E3M4: House of Pain\000"
.LC831:
	.ascii	"E3M3: Pandemonium\000"
	.space	2
.LC832:
	.ascii	"E3M2: Slough of Despair\000"
.LC833:
	.ascii	"E3M1: Hell Keep\000"
.LC834:
	.ascii	"E2M9: Fortress of Mystery\000"
	.space	2
.LC835:
	.ascii	"E2M8: Tower of Babel\000"
	.space	3
.LC836:
	.ascii	"E2M7: Spawning Vats\000"
.LC837:
	.ascii	"E2M6: Halls of the Damned\000"
	.space	2
.LC838:
	.ascii	"E2M5: Command Center\000"
	.space	3
.LC839:
	.ascii	"E2M4: Deimos Lab\000"
	.space	3
.LC840:
	.ascii	"E2M3: Refinery\000"
	.space	1
.LC841:
	.ascii	"E2M2: Containment Area\000"
	.space	1
.LC842:
	.ascii	"E2M1: Deimos Anomaly\000"
	.space	3
.LC843:
	.ascii	"E1M9: Military Base\000"
.LC844:
	.ascii	"E1M8: Phobos Anomaly\000"
	.space	3
.LC845:
	.ascii	"E1M7: Computer Station\000"
	.space	1
.LC846:
	.ascii	"E1M6: Central Processing\000"
	.space	3
.LC847:
	.ascii	"E1M5: Phobos Lab\000"
	.space	3
.LC848:
	.ascii	"E1M4: Command Control\000"
	.space	2
.LC849:
	.ascii	"E1M3: Toxin Refinery\000"
	.space	3
.LC850:
	.ascii	"E1M2: Nuclear Plant\000"
.LC851:
	.ascii	"E1M1: Hangar\000"
	.space	3
.LC852:
	.ascii	"[Message unsent]\000"
	.space	3
.LC853:
	.ascii	"game saved.\000"
.LC854:
	.ascii	"You need all six keys to open this door\000"
.LC855:
	.ascii	"You need all three keys to open this door\000"
	.space	2
.LC856:
	.ascii	"Any key will open this door\000"
.LC857:
	.ascii	"You need a yellow skull to open this door\000"
	.space	2
.LC858:
	.ascii	"You need a red skull to open this door\000"
	.space	1
.LC859:
	.ascii	"You need a blue skull to open this door\000"
.LC860:
	.ascii	"You need a yellow card to open this door\000"
	.space	3
.LC861:
	.ascii	"You need a red card to open this door\000"
	.space	2
.LC862:
	.ascii	"You need a blue card to open this door\000"
	.space	1
.LC863:
	.ascii	"You need a yellow key to open this door\000"
.LC864:
	.ascii	"You need a red key to open this door\000"
	.space	3
.LC865:
	.ascii	"You need a blue key to open this door\000"
	.space	2
.LC866:
	.ascii	"You need a yellow key to activate this object\000"
	.space	2
.LC867:
	.ascii	"You need a red key to activate this object\000"
	.space	1
.LC868:
	.ascii	"You need a blue key to activate this object\000"
.LC869:
	.ascii	"You got the super shotgun!\000"
	.space	1
.LC870:
	.ascii	"You got the shotgun!\000"
	.space	3
.LC871:
	.ascii	"You got the plasma gun!\000"
.LC872:
	.ascii	"You got the rocket launcher!\000"
	.space	3
.LC873:
	.ascii	"A chainsaw!  Find some meat!\000"
	.space	3
.LC874:
	.ascii	"You got the chaingun!\000"
	.space	2
.LC875:
	.ascii	"You got the BFG9000!  Oh, yes.\000"
	.space	1
.LC876:
	.ascii	"Picked up a backpack full of ammo!\000"
	.space	1
.LC877:
	.ascii	"Picked up a box of shotgun shells.\000"
	.space	1
.LC878:
	.ascii	"Picked up 4 shotgun shells.\000"
.LC879:
	.ascii	"Picked up an energy cell pack.\000"
	.space	1
.LC880:
	.ascii	"Picked up an energy cell.\000"
	.space	2
.LC881:
	.ascii	"Picked up a box of rockets.\000"
.LC882:
	.ascii	"Picked up a rocket.\000"
.LC883:
	.ascii	"Picked up a box of bullets.\000"
.LC884:
	.ascii	"Picked up a clip.\000"
	.space	2
.LC885:
	.ascii	"MegaSphere!\000"
.LC886:
	.ascii	"Light Amplification Visor\000"
	.space	2
.LC887:
	.ascii	"Computer Area Map\000"
	.space	2
.LC888:
	.ascii	"Radiation Shielding Suit\000"
	.space	3
.LC889:
	.ascii	"Partial Invisibility\000"
	.space	3
.LC890:
	.ascii	"Berserk!\000"
	.space	3
.LC891:
	.ascii	"Invulnerability!\000"
	.space	3
.LC892:
	.ascii	"Picked up a red skull key.\000"
	.space	1
.LC893:
	.ascii	"Picked up a yellow skull key.\000"
	.space	2
.LC894:
	.ascii	"Picked up a blue skull key.\000"
.LC895:
	.ascii	"Picked up a red keycard.\000"
	.space	3
.LC896:
	.ascii	"Picked up a yellow keycard.\000"
.LC897:
	.ascii	"Picked up a blue keycard.\000"
	.space	2
.LC898:
	.ascii	"Supercharge!\000"
	.space	3
.LC899:
	.ascii	"Picked up a medikit.\000"
	.space	3
.LC900:
	.ascii	"Picked up a medikit that you REALLY need!\000"
	.space	2
.LC901:
	.ascii	"Picked up a stimpack.\000"
	.space	2
.LC902:
	.ascii	"Picked up an armor bonus.\000"
	.space	2
.LC903:
	.ascii	"Picked up a health bonus.\000"
	.space	2
.LC904:
	.ascii	"Picked up the MegaArmor!\000"
	.space	3
.LC905:
	.ascii	"Picked up the armor.\000"
	.space	3
.LC906:
	.ascii	"empty slot\000"
	.space	1
.LC907:
	.ascii	"Gamma correction level 4\000"
	.space	3
.LC908:
	.ascii	"Gamma correction level 3\000"
	.space	3
.LC909:
	.ascii	"Gamma correction level 2\000"
	.space	3
.LC910:
	.ascii	"Gamma correction level 1\000"
	.space	3
.LC911:
	.ascii	"Gamma correction OFF\000"
	.space	3
.LC912:
	.ascii	"Low detail\000"
	.space	1
.LC913:
	.ascii	"High detail\000"
.LC914:
	.ascii	"(press y to quit)\000"
	.space	2
.LC915:
	.ascii	"are you sure you want to end the game?\012\012press"
	.ascii	" y or n.\000"
	.space	2
.LC916:
	.ascii	"you can't end a netgame!\012\012press a key.\000"
	.space	1
.LC917:
	.ascii	"Saving, Sit Tight!\000"
	.space	1
.LC918:
	.ascii	"Loading, Get Ready!\000"
.LC919:
	.ascii	"Messages ON\000"
.LC920:
	.ascii	"Messages OFF\000"
	.space	3
.LC921:
	.ascii	"this is the shareware version of doom.\012\012you n"
	.ascii	"eed to order the entire trilogy.\012\012press a key"
	.ascii	".\000"
.LC922:
	.ascii	"are you sure? this skill level\012isn't even remote"
	.ascii	"ly fair.\012\012press y or n.\000"
.LC923:
	.ascii	"restart the level?\012\012press y or n.\000"
	.space	2
.LC924:
	.ascii	"you can't start a new game\012while in a network ga"
	.ascii	"me.\012\012press a key.\000"
	.space	2
.LC925:
	.ascii	"do you want to quickload the game named\012\012'%s'"
	.ascii	"?\012\012press y or n.\000"
	.space	2
.LC926:
	.ascii	"quicksave over your game named\012\012'%s'?\012\012"
	.ascii	"press y or n.\000"
	.space	3
.LC927:
	.ascii	"you can't save if you aren't playing!\012\012press "
	.ascii	"a key.\000"
.LC928:
	.ascii	"you haven't picked a quicksave slot yet!\012\012pre"
	.ascii	"ss a key.\000"
	.space	1
.LC929:
	.ascii	"are you sure you want to\012quit this great game?\000"
	.space	1
.LC930:
	.ascii	"press y or n.\000"
	.space	2
.LC931:
	.ascii	"press a key.\000"
	.space	3
.LC932:
	.ascii	"CD-ROM Version: default.cfg from c:\\doomdata\012\000"
	.space	2
.LC933:
	.ascii	"Development mode ON.\012\000"
	.bss
	.align	2
	.set	.LANCHOR0,. + 0
	.set	.LANCHOR1,. + 8184
	.type	deh_codeptr, %object
	.size	deh_codeptr, 4304
deh_codeptr:
	.space	4304
	.type	buff.9515, %object
	.size	buff.9515, 1024
buff.9515:
	.space	1024
	.type	includenotext, %object
	.size	includenotext, 4
includenotext:
	.space	4
	.type	sprnames_state.9385, %object
	.size	sprnames_state.9385, 564
sprnames_state.9385:
	.space	564
	.type	S_sfx_state.9386, %object
	.size	S_sfx_state.9386, 456
S_sfx_state.9386:
	.space	456
	.type	S_music_state.9387, %object
	.size	S_music_state.9387, 272
S_music_state.9387:
	.space	272
	.type	deh_pars, %object
	.size	deh_pars, 4
deh_pars:
	.space	4
	.type	fileout.9147, %object
	.size	fileout.9147, 4
fileout.9147:
	.space	4
	.type	holdstring.9424, %object
	.size	holdstring.9424, 4
holdstring.9424:
	.space	4
	.text
.Letext0:
	.file 2 "c:\\devkitpro\\devkitarm\\lib\\gcc\\arm-none-eabi\\4.9.2\\include\\stddef.h"
	.file 3 "c:\\devkitpro\\devkitarm\\arm-none-eabi\\include\\sys\\lock.h"
	.file 4 "c:\\devkitpro\\devkitarm\\arm-none-eabi\\include\\sys\\_types.h"
	.file 5 "c:\\devkitpro\\devkitarm\\arm-none-eabi\\include\\sys\\reent.h"
	.file 6 "c:\\devkitpro\\devkitarm\\arm-none-eabi\\include\\stdio.h"
	.file 7 "c:/devl/prboom3ds/src/z_zone.h"
	.file 8 "c:/devl/prboom3ds/src/doomdef.h"
	.file 9 "c:/devl/prboom3ds/src/doomtype.h"
	.file 10 "c:/devl/prboom3ds/src/d_items.h"
	.file 11 "c:/devl/prboom3ds/src/m_fixed.h"
	.file 12 "c:/devl/prboom3ds/src/d_think.h"
	.file 13 "c:/devl/prboom3ds/src/info.h"
	.file 14 "c:/devl/prboom3ds/src/p_pspr.h"
	.file 15 "c:/devl/prboom3ds/src/doomstat.h"
	.file 16 "c:/devl/prboom3ds/src/sounds.h"
	.file 17 "c:/devl/prboom3ds/src/m_cheat.h"
	.file 18 "c:/devl/prboom3ds/src/w_wad.h"
	.file 19 "c:/devl/prboom3ds/src/lprintf.h"
	.file 20 "c:/devl/prboom3ds/src/tables.h"
	.file 21 "c:\\devkitpro\\devkitarm\\arm-none-eabi\\include\\ctype.h"
	.file 22 "c:/devl/prboom3ds/src/p_inter.h"
	.file 23 "c:/devl/prboom3ds/src/g_game.h"
	.file 24 "c:\\devkitpro\\devkitarm\\arm-none-eabi\\include\\string.h"
	.file 25 "<built-in>"