	.arch armv6k
	.fpu softvfp
	.eabi_attribute 23, 1
	.eabi_attribute 24, 1
	.eabi_attribute 25, 1
	.eabi_attribute 26, 1
	.eabi_attribute 30, 2
	.eabi_attribute 34, 1
	.eabi_attribute 18, 4
	.file	"ds_main.c"
	.text
.Ltext0:
	.cfi_sections	.debug_frame
	.align	2
	.global	drawFrame
	.type	drawFrame, %function
drawFrame:
.LFB2:
	.file 1 "c:/devl/prboom3ds/arm9/source/ds_main.c"
	.loc 1 20 0
	.cfi_startproc
	@ args = 0, pretend = 0, frame = 0
	@ frame_needed = 0, uses_anonymous_args = 0
	stmfd	sp!, {r3, lr}
	.cfi_def_cfa_offset 8
	.cfi_offset 3, -8
	.cfi_offset 14, -4
	.loc 1 40 0
	bl	gfxFlushBuffers
.LVL0:
	.loc 1 42 0
	ldmfd	sp!, {r3, lr}
	.cfi_restore 14
	.cfi_restore 3
	.cfi_def_cfa_offset 0
	.loc 1 41 0
	b	gfxSwapBuffers
.LVL1:
	.cfi_endproc
.LFE2:
	.size	drawFrame, .-drawFrame
	.align	2
	.global	keyboardStart
	.type	keyboardStart, %function
keyboardStart:
.LFB4:
	.loc 1 69 0
	.cfi_startproc
	@ args = 0, pretend = 0, frame = 0
	@ frame_needed = 0, uses_anonymous_args = 0
	@ link register save eliminated.
	bx	lr
	.cfi_endproc
.LFE4:
	.size	keyboardStart, .-keyboardStart
	.align	2
	.global	keyboardEnd
	.type	keyboardEnd, %function
keyboardEnd:
.LFB5:
	.loc 1 72 0
	.cfi_startproc
	@ args = 0, pretend = 0, frame = 0
	@ frame_needed = 0, uses_anonymous_args = 0
	@ link register save eliminated.
	bx	lr
	.cfi_endproc
.LFE5:
	.size	keyboardEnd, .-keyboardEnd
	.align	2
	.global	switchConsole
	.type	switchConsole, %function
switchConsole:
.LFB6:
	.loc 1 76 0
	.cfi_startproc
	@ args = 0, pretend = 0, frame = 0
	@ frame_needed = 0, uses_anonymous_args = 0
	@ link register save eliminated.
	bx	lr
	.cfi_endproc
.LFE6:
	.size	switchConsole, .-switchConsole
	.section	.text.startup,"ax",%progbits
	.align	2
	.global	main
	.type	main, %function
main:
.LFB7:
	.loc 1 100 0
	.cfi_startproc
	@ args = 0, pretend = 0, frame = 0
	@ frame_needed = 0, uses_anonymous_args = 0
.LVL2:
	.loc 1 100 0
	stmfd	sp!, {r3, r4, r5, lr}
	.cfi_def_cfa_offset 16
	.cfi_offset 3, -16
	.cfi_offset 4, -12
	.cfi_offset 5, -8
	.cfi_offset 14, -4
	.loc 1 101 0
	subs	r4, r1, #0
	.loc 1 100 0
	mov	r5, r0
	.loc 1 101 0
	beq	.L7
	.loc 1 102 0
	ldr	r2, .L11
	.loc 1 103 0
	ldr	r3, .L11+4
	.loc 1 102 0
	str	r0, [r2]
	.loc 1 103 0
	str	r4, [r3]
.LBB6:
.LBB7:
	.loc 1 47 0
	bl	srvInit
.LVL3:
	.loc 1 48 0
	bl	aptInit
.LVL4:
	.loc 1 49 0
	mov	r0, #0
	bl	hidInit
.LVL5:
	.loc 1 50 0
	mov	r0, #0
	bl	irrstInit
.LVL6:
	.loc 1 51 0
	bl	gfxInit
.LVL7:
	.loc 1 53 0
	mov	r0, #1
	bl	gfxSet3D
.LVL8:
	.loc 1 55 0
	bl	svcGetSystemTick
.LVL9:
	bl	srand
.LVL10:
	.loc 1 58 0
	mov	r1, #0
	mov	r0, #1
	bl	consoleInit
.LVL11:
	.loc 1 59 0
	bl	SD_init
.LVL12:
	.loc 1 61 0
	bl	gfxFlushBuffers
.LVL13:
	.loc 1 62 0
	bl	gfxSwapBuffers
.LVL14:
.LBE7:
.LBE6:
	.loc 1 112 0
	ldr	r0, .L11+8
	bl	puts
.LVL15:
	.loc 1 113 0
	ldr	r2, [r4]
.L8:
	.loc 1 113 0 is_stmt 0 discriminator 4
	mov	r1, r5
	ldr	r0, .L11+12
	bl	printf
.LVL16:
	.loc 1 117 0 is_stmt 1 discriminator 4
	ldr	r1, .L11+16
	mov	r0, #1
	bl	lprintf
.LVL17:
	.loc 1 137 0 discriminator 4
	bl	Z_Init
.LVL18:
	.loc 1 142 0 discriminator 4
	bl	D_DoomMain
.LVL19:
	.loc 1 145 0 discriminator 4
	mov	r0, #0
	ldmfd	sp!, {r3, r4, r5, pc}
.LVL20:
.L7:
	.loc 1 107 0
	ldr	r2, .L11+20
	ldr	r3, .L11+4
	.loc 1 106 0
	ldr	r1, .L11
.LVL21:
	.loc 1 107 0
	str	r2, [r3]
	.loc 1 106 0
	str	r4, [r1]
.LBB9:
.LBB8:
	.loc 1 47 0
	bl	srvInit
.LVL22:
	.loc 1 48 0
	bl	aptInit
.LVL23:
	.loc 1 49 0
	mov	r0, r4
	bl	hidInit
.LVL24:
	.loc 1 50 0
	mov	r0, r4
	bl	irrstInit
.LVL25:
	.loc 1 51 0
	bl	gfxInit
.LVL26:
	.loc 1 53 0
	mov	r0, #1
	bl	gfxSet3D
.LVL27:
	.loc 1 55 0
	bl	svcGetSystemTick
.LVL28:
	bl	srand
.LVL29:
	.loc 1 58 0
	mov	r1, r4
	mov	r0, #1
	bl	consoleInit
.LVL30:
	.loc 1 59 0
	bl	SD_init
.LVL31:
	.loc 1 61 0
	bl	gfxFlushBuffers
.LVL32:
	.loc 1 62 0
	bl	gfxSwapBuffers
.LVL33:
.LBE8:
.LBE9:
	.loc 1 112 0
	ldr	r0, .L11+8
	bl	puts
.LVL34:
	.loc 1 113 0
	ldr	r2, .L11+24
	b	.L8
.L12:
	.align	2
.L11:
	.word	myargc
	.word	myargv
	.word	.LC1
	.word	.LC3
	.word	.LC4
	.word	.LANCHOR0
	.word	.LC0
	.cfi_endproc
.LFE7:
	.size	main, .-main
	.global	gen_console_enable
	.global	gen_screen_swap
	.global	DS_USERNAME
	.section	.rodata
	.align	2
	.set	.LANCHOR0,. + 0
.LC2:
	.ascii	"\000\000\000\000\000"
	.data
	.align	2
	.type	gen_console_enable, %object
	.size	gen_console_enable, 4
gen_console_enable:
	.word	1
	.type	DS_USERNAME, %object
	.size	DS_USERNAME, 4
DS_USERNAME:
	.word	.LC5
	.section	.rodata.str1.4,"aMS",%progbits,1
	.align	2
.LC0:
	.ascii	"{null}\000"
	.space	1
.LC1:
	.ascii	"system initialized\000"
	.space	1
.LC3:
	.ascii	"%d %s\012\000"
	.space	1
.LC4:
	.ascii	"PrBoom DS\012\000"
	.space	1
.LC5:
	.ascii	"username\000"
	.bss
	.align	2
	.type	gen_screen_swap, %object
	.size	gen_screen_swap, 4
gen_screen_swap:
	.space	4
	.text
.Letext0:
	.file 2 "c:\\devkitpro\\devkitarm\\arm-none-eabi\\include\\machine\\_default_types.h"
	.file 3 "c:\\devkitpro\\devkitarm\\arm-none-eabi\\include\\stdint.h"
	.file 4 "c:/devkitPro/libctru/include/3ds/types.h"
	.file 5 "c:/devkitPro/libctru/include/3ds/gfx.h"
	.file 6 "c:/devkitPro/libctru/include/3ds/console.h"
	.file 7 "c:/devl/prboom3ds/src/lprintf.h"
	.file 8 "c:/devl/prboom3ds/src/m_argv.h"
	.file 9 "c:/devkitPro/libctru/include/3ds/srv.h"
	.file 10 "c:/devkitPro/libctru/include/3ds/services/apt.h"
	.file 11 "c:/devkitPro/libctru/include/3ds/services/hid.h"
	.file 12 "c:/devkitPro/libctru/include/3ds/services/irrst.h"
	.file 13 "c:/devkitPro/libctru/include/3ds/svc.h"
	.file 14 "<built-in>"
	.file 15 "c:\\devkitpro\\devkitarm\\arm-none-eabi\\include\\stdio.h"