	.arch armv6k
	.fpu softvfp
	.eabi_attribute 23, 1
	.eabi_attribute 24, 1
	.eabi_attribute 25, 1
	.eabi_attribute 26, 1
	.eabi_attribute 30, 2
	.eabi_attribute 34, 1
	.eabi_attribute 18, 4
	.file	"file.c"
	.text
.Ltext0:
	.cfi_sections	.debug_frame
	.align	2
	.global	_FAT_open_r
	.type	_FAT_open_r, %function
_FAT_open_r:
.LFB3:
	.file 1 "c:/devl/prboom3ds/arm11/source/file.c"
	.loc 1 45 0
	.cfi_startproc
	@ args = 4, pretend = 0, frame = 4112
	@ frame_needed = 0, uses_anonymous_args = 0
.LVL0:
	stmfd	sp!, {r4, r5, r6, r7, r8, r9, lr}
	.cfi_def_cfa_offset 28
	.cfi_offset 4, -28
	.cfi_offset 5, -24
	.cfi_offset 6, -20
	.cfi_offset 7, -16
	.cfi_offset 8, -12
	.cfi_offset 9, -8
	.cfi_offset 14, -4
	sub	sp, sp, #4096
	.cfi_def_cfa_offset 4124
	sub	sp, sp, #60
	.cfi_def_cfa_offset 4184
	.loc 1 45 0
	mov	r9, r0
.LBB10:
.LBB11:
	.loc 1 35 0
	mov	r0, r2
.LVL1:
.LBE11:
.LBE10:
	.loc 1 45 0
	mov	r4, r2
	mov	r7, r1
.LVL2:
	mov	r6, r3
.LBB13:
.LBB12:
	.loc 1 35 0
	bl	GetDeviceOpTab
.LVL3:
	.loc 1 37 0
	cmp	r0, #0
	beq	.L2
	.loc 1 40 0
	ldr	r5, [r0, #88]
.LVL4:
.LBE12:
.LBE13:
	.loc 1 56 0
	cmp	r5, #0
	beq	.L2
	.loc 1 62 0
	ands	r3, r6, #3
	bne	.L27
	.loc 1 64 0
	mov	r8, #1
.LVL5:
.L5:
	.loc 1 76 0
	tst	r6, #512
	.loc 1 81 0
	mov	r0, r4
	mov	r1, #58
	.loc 1 77 0
	orrne	r8, r8, #4
.LVL6:
	.loc 1 81 0
	bl	strchr
.LVL7:
	cmp	r0, #0
	beq	.L7
	.loc 1 82 0
	add	r4, r0, #1
.LVL8:
	.loc 1 84 0
	mov	r0, r4
	mov	r1, #58
	bl	strchr
.LVL9:
	cmp	r0, #0
	bne	.L28
.L7:
	.loc 1 89 0
	mov	r6, #0
.LVL10:
	.loc 1 90 0
	add	r0, sp, #56
	mov	r3, r4
	ldr	r1, .L29
	.loc 1 91 0
	sub	r4, r0, #12
.LVL11:
	.loc 1 90 0
	add	r2, r5, #24
	.loc 1 89 0
	str	r6, [r7]
	.loc 1 90 0
	bl	sprintf
.LVL12:
	.loc 1 91 0
	add	r2, sp, #56
	mov	r0, r4
	mov	r1, #3
	bl	FS_makePath
.LVL13:
	ldmia	r4, {r0, r1, r2}
	add	r3, sp, #16
	stmia	r3, {r0, r1, r2}
	str	r6, [sp, #32]
	str	r8, [sp, #28]
	add	r3, r5, #8
	ldmia	r3, {r0, r1, r2, r3}
	stmia	sp, {r0, r1, r2, r3}
	mov	r0, r6
	ldmia	r5, {r2, r3}
	mov	r1, r7
	bl	FSUSER_OpenFile
.LVL14:
	.loc 1 93 0
	cmp	r0, r6
	.loc 1 94 0
	movne	r3, #9
	.loc 1 95 0
	mvnne	r0, #0
.LVL15:
	.loc 1 94 0
	strne	r3, [r9]
	.loc 1 93 0
	.loc 1 97 0
	moveq	r2, #0
	moveq	r3, #0
	.loc 1 99 0
	moveq	r0, r7
	.loc 1 97 0
	streqd	r2, [r7, #8]
.LVL16:
.L4:
	.loc 1 100 0
	add	sp, sp, #4096
	add	sp, sp, #60
	.cfi_remember_state
	.cfi_def_cfa_offset 28
	@ sp needed
	ldmfd	sp!, {r4, r5, r6, r7, r8, r9, pc}
.LVL17:
.L27:
	.cfi_restore_state
	.loc 1 65 0
	cmp	r3, #1
	beq	.L10
	.loc 1 68 0
	cmp	r3, #2
	.loc 1 72 0
	movne	r3, #13
	.loc 1 73 0
	mvnne	r0, #0
.LVL18:
	.loc 1 72 0
	strne	r3, [r9]
	.loc 1 68 0
	bne	.L4
	.loc 1 70 0
	mov	r8, #3
	b	.L5
.LVL19:
.L28:
	.loc 1 85 0
	mov	r3, #22
	.loc 1 86 0
	mvn	r0, #0
	.loc 1 85 0
	str	r3, [r9]
	.loc 1 100 0
	add	sp, sp, #4096
	add	sp, sp, #60
	.cfi_remember_state
	.cfi_def_cfa_offset 28
	@ sp needed
	ldmfd	sp!, {r4, r5, r6, r7, r8, r9, pc}
.LVL20:
.L10:
	.cfi_restore_state
	.loc 1 67 0
	mov	r8, #2
	b	.L5
.LVL21:
.L2:
	.loc 1 57 0
	mov	r3, #19
	.loc 1 58 0
	mvn	r0, #0
.LVL22:
	.loc 1 57 0
	str	r3, [r9]
	.loc 1 58 0
	b	.L4
.L30:
	.align	2
.L29:
	.word	.LC0
	.cfi_endproc
.LFE3:
	.size	_FAT_open_r, .-_FAT_open_r
	.align	2
	.global	_FAT_close_r
	.type	_FAT_close_r, %function
_FAT_close_r:
.LFB4:
	.loc 1 102 0
	.cfi_startproc
	@ args = 0, pretend = 0, frame = 0
	@ frame_needed = 0, uses_anonymous_args = 0
.LVL23:
	.loc 1 108 0
	cmp	r1, #0
	beq	.L32
	.loc 1 108 0 is_stmt 0 discriminator 1
	ldr	r3, [r1]
	cmp	r3, #0
	beq	.L32
	.loc 1 102 0 is_stmt 1
	stmfd	sp!, {r4, lr}
	.cfi_def_cfa_offset 8
	.cfi_offset 4, -8
	.cfi_offset 14, -4
	.loc 1 112 0
	mov	r0, r3
.LVL24:
	mov	r4, r1
	bl	FSFILE_Close
.LVL25:
	mov	r1, r0
.LVL26:
	.loc 1 113 0
	ldr	r0, .L39
.LVL27:
	bl	printf
.LVL28:
	.loc 1 114 0
	mov	r3, #0
	str	r3, [r4]
	.loc 1 116 0
	mov	r0, r3
	ldmfd	sp!, {r4, pc}
.LVL29:
.L32:
	.cfi_def_cfa_offset 0
	.cfi_restore 4
	.cfi_restore 14
	.loc 1 109 0
	mov	r3, #9
	.loc 1 110 0
	mvn	r2, #0
	.loc 1 109 0
	str	r3, [r0]
	.loc 1 116 0
	mov	r0, r2
.LVL30:
	bx	lr
.L40:
	.align	2
.L39:
	.word	.LC1
	.cfi_endproc
.LFE4:
	.size	_FAT_close_r, .-_FAT_close_r
	.align	2
	.global	_FAT_write_r
	.type	_FAT_write_r, %function
_FAT_write_r:
.LFB5:
	.loc 1 118 0
	.cfi_startproc
	@ args = 0, pretend = 0, frame = 0
	@ frame_needed = 0, uses_anonymous_args = 0
.LVL31:
	stmfd	sp!, {r4, lr}
	.cfi_def_cfa_offset 8
	.cfi_offset 4, -8
	.cfi_offset 14, -4
	.loc 1 118 0
	mov	r4, r0
	.loc 1 119 0
	ldr	r0, .L43
.LVL32:
	bl	printf
.LVL33:
	.loc 1 120 0
	mov	r3, #9
	.loc 1 122 0
	mvn	r0, #0
	.loc 1 120 0
	str	r3, [r4]
	.loc 1 122 0
	ldmfd	sp!, {r4, pc}
.L44:
	.align	2
.L43:
	.word	.LC2
	.cfi_endproc
.LFE5:
	.size	_FAT_write_r, .-_FAT_write_r
	.align	2
	.global	_FAT_fstat_r
	.type	_FAT_fstat_r, %function
_FAT_fstat_r:
.LFB8:
	.loc 1 199 0
	.cfi_startproc
	@ args = 0, pretend = 0, frame = 0
	@ frame_needed = 0, uses_anonymous_args = 0
.LVL34:
	stmfd	sp!, {r3, lr}
	.cfi_def_cfa_offset 8
	.cfi_offset 3, -8
	.cfi_offset 14, -4
	.loc 1 200 0
	ldr	r0, .L47
.LVL35:
	bl	printf
.LVL36:
	.loc 1 202 0
	mvn	r0, #0
	ldmfd	sp!, {r3, pc}
.L48:
	.align	2
.L47:
	.word	.LC3
	.cfi_endproc
.LFE8:
	.size	_FAT_fstat_r, .-_FAT_fstat_r
	.align	2
	.global	_FAT_link_r
	.type	_FAT_link_r, %function
_FAT_link_r:
.LFB10:
	.loc 1 242 0
	.cfi_startproc
	@ args = 0, pretend = 0, frame = 0
	@ frame_needed = 0, uses_anonymous_args = 0
.LVL37:
	stmfd	sp!, {r4, lr}
	.cfi_def_cfa_offset 8
	.cfi_offset 4, -8
	.cfi_offset 14, -4
	.loc 1 242 0
	mov	r4, r0
	.loc 1 243 0
	ldr	r0, .L51
.LVL38:
	bl	printf
.LVL39:
	.loc 1 244 0
	mov	r3, #134
	.loc 1 246 0
	mvn	r0, #0
	.loc 1 244 0
	str	r3, [r4]
	.loc 1 246 0
	ldmfd	sp!, {r4, pc}
.L52:
	.align	2
.L51:
	.word	.LC4
	.cfi_endproc
.LFE10:
	.size	_FAT_link_r, .-_FAT_link_r
	.align	2
	.global	_FAT_unlink_r
	.type	_FAT_unlink_r, %function
_FAT_unlink_r:
.LFB11:
	.loc 1 248 0
	.cfi_startproc
	@ args = 0, pretend = 0, frame = 0
	@ frame_needed = 0, uses_anonymous_args = 0
.LVL40:
	stmfd	sp!, {r4, lr}
	.cfi_def_cfa_offset 8
	.cfi_offset 4, -8
	.cfi_offset 14, -4
	.loc 1 248 0
	mov	r4, r0
	.loc 1 249 0
	ldr	r0, .L55
.LVL41:
	bl	printf
.LVL42:
	.loc 1 250 0
	mov	r3, #134
	.loc 1 252 0
	mvn	r0, #0
	.loc 1 250 0
	str	r3, [r4]
	.loc 1 252 0
	ldmfd	sp!, {r4, pc}
.L56:
	.align	2
.L55:
	.word	.LC5
	.cfi_endproc
.LFE11:
	.size	_FAT_unlink_r, .-_FAT_unlink_r
	.align	2
	.global	_FAT_rename_r
	.type	_FAT_rename_r, %function
_FAT_rename_r:
.LFB13:
	.loc 1 278 0
	.cfi_startproc
	@ args = 0, pretend = 0, frame = 0
	@ frame_needed = 0, uses_anonymous_args = 0
.LVL43:
	stmfd	sp!, {r4, lr}
	.cfi_def_cfa_offset 8
	.cfi_offset 4, -8
	.cfi_offset 14, -4
	.loc 1 278 0
	mov	r4, r0
	.loc 1 279 0
	ldr	r0, .L59
.LVL44:
	bl	printf
.LVL45:
	.loc 1 280 0
	mov	r3, #134
	.loc 1 282 0
	mvn	r0, #0
	.loc 1 280 0
	str	r3, [r4]
	.loc 1 282 0
	ldmfd	sp!, {r4, pc}
.L60:
	.align	2
.L59:
	.word	.LC6
	.cfi_endproc
.LFE13:
	.size	_FAT_rename_r, .-_FAT_rename_r
	.align	2
	.global	_FAT_mkdir_r
	.type	_FAT_mkdir_r, %function
_FAT_mkdir_r:
.LFB14:
	.loc 1 284 0
	.cfi_startproc
	@ args = 0, pretend = 0, frame = 0
	@ frame_needed = 0, uses_anonymous_args = 0
.LVL46:
	stmfd	sp!, {r4, lr}
	.cfi_def_cfa_offset 8
	.cfi_offset 4, -8
	.cfi_offset 14, -4
	.loc 1 284 0
	mov	r4, r0
	.loc 1 285 0
	ldr	r0, .L63
.LVL47:
	bl	printf
.LVL48:
	.loc 1 286 0
	mov	r3, #134
	.loc 1 288 0
	mvn	r0, #0
	.loc 1 286 0
	str	r3, [r4]
	.loc 1 288 0
	ldmfd	sp!, {r4, pc}
.L64:
	.align	2
.L63:
	.word	.LC7
	.cfi_endproc
.LFE14:
	.size	_FAT_mkdir_r, .-_FAT_mkdir_r
	.align	2
	.global	_FAT_dirreset_r
	.type	_FAT_dirreset_r, %function
_FAT_dirreset_r:
.LFB16:
	.loc 1 326 0
	.cfi_startproc
	@ args = 0, pretend = 0, frame = 0
	@ frame_needed = 0, uses_anonymous_args = 0
.LVL49:
	stmfd	sp!, {r4, lr}
	.cfi_def_cfa_offset 8
	.cfi_offset 4, -8
	.cfi_offset 14, -4
	.loc 1 326 0
	mov	r4, r0
	.loc 1 327 0
	ldr	r0, .L67
.LVL50:
	bl	printf
.LVL51:
	.loc 1 328 0
	mov	r3, #134
	.loc 1 330 0
	mvn	r0, #0
	.loc 1 328 0
	str	r3, [r4]
	.loc 1 330 0
	ldmfd	sp!, {r4, pc}
.L68:
	.align	2
.L67:
	.word	.LC8
	.cfi_endproc
.LFE16:
	.size	_FAT_dirreset_r, .-_FAT_dirreset_r
	.align	2
	.global	_FAT_statvfs_r
	.type	_FAT_statvfs_r, %function
_FAT_statvfs_r:
.LFB19:
	.loc 1 381 0
	.cfi_startproc
	@ args = 0, pretend = 0, frame = 0
	@ frame_needed = 0, uses_anonymous_args = 0
.LVL52:
	stmfd	sp!, {r4, lr}
	.cfi_def_cfa_offset 8
	.cfi_offset 4, -8
	.cfi_offset 14, -4
	.loc 1 381 0
	mov	r4, r0
	.loc 1 382 0
	ldr	r0, .L71
.LVL53:
	bl	printf
.LVL54:
	.loc 1 383 0
	mov	r3, #134
	.loc 1 385 0
	mvn	r0, #0
	.loc 1 383 0
	str	r3, [r4]
	.loc 1 385 0
	ldmfd	sp!, {r4, pc}
.L72:
	.align	2
.L71:
	.word	.LC9
	.cfi_endproc
.LFE19:
	.size	_FAT_statvfs_r, .-_FAT_statvfs_r
	.align	2
	.global	_FAT_ftruncate_r
	.type	_FAT_ftruncate_r, %function
_FAT_ftruncate_r:
.LFB20:
	.loc 1 387 0
	.cfi_startproc
	@ args = 0, pretend = 0, frame = 0
	@ frame_needed = 0, uses_anonymous_args = 0
.LVL55:
	stmfd	sp!, {r4, lr}
	.cfi_def_cfa_offset 8
	.cfi_offset 4, -8
	.cfi_offset 14, -4
	.loc 1 387 0
	mov	r4, r0
	.loc 1 388 0
	ldr	r0, .L75
.LVL56:
	bl	printf
.LVL57:
	.loc 1 389 0
	mov	r3, #134
	.loc 1 391 0
	mvn	r0, #0
	.loc 1 389 0
	str	r3, [r4]
	.loc 1 391 0
	ldmfd	sp!, {r4, pc}
.L76:
	.align	2
.L75:
	.word	.LC10
	.cfi_endproc
.LFE20:
	.size	_FAT_ftruncate_r, .-_FAT_ftruncate_r
	.align	2
	.global	_FAT_fsync_r
	.type	_FAT_fsync_r, %function
_FAT_fsync_r:
.LFB21:
	.loc 1 393 0
	.cfi_startproc
	@ args = 0, pretend = 0, frame = 0
	@ frame_needed = 0, uses_anonymous_args = 0
.LVL58:
	stmfd	sp!, {r4, lr}
	.cfi_def_cfa_offset 8
	.cfi_offset 4, -8
	.cfi_offset 14, -4
	.loc 1 393 0
	mov	r4, r0
	.loc 1 394 0
	ldr	r0, .L79
.LVL59:
	bl	printf
.LVL60:
	.loc 1 395 0
	mov	r3, #134
	.loc 1 397 0
	mvn	r0, #0
	.loc 1 395 0
	str	r3, [r4]
	.loc 1 397 0
	ldmfd	sp!, {r4, pc}
.L80:
	.align	2
.L79:
	.word	.LC11
	.cfi_endproc
.LFE21:
	.size	_FAT_fsync_r, .-_FAT_fsync_r
	.align	2
	.global	_FAT_read_r
	.type	_FAT_read_r, %function
_FAT_read_r:
.LFB6:
	.loc 1 124 0
	.cfi_startproc
	@ args = 0, pretend = 0, frame = 8
	@ frame_needed = 0, uses_anonymous_args = 0
.LVL61:
	.loc 1 126 0
	mov	ip, #0
	.loc 1 124 0
	stmfd	sp!, {r4, r5, r6, lr}
	.cfi_def_cfa_offset 16
	.cfi_offset 4, -16
	.cfi_offset 5, -12
	.cfi_offset 6, -8
	.cfi_offset 14, -4
	.loc 1 133 0
	cmp	r3, #0
.LVL62:
	.loc 1 124 0
	sub	sp, sp, #16
	.cfi_def_cfa_offset 32
	.loc 1 126 0
	str	ip, [sp, #12]
	.loc 1 133 0
	beq	.L87
	.loc 1 138 0
	cmp	r1, #0
	beq	.L84
	.loc 1 138 0 is_stmt 0 discriminator 1
	ldr	r5, [r1]
	cmp	r5, #0
	beq	.L84
	mov	lr, r2
	mov	ip, r3
	.loc 1 143 0 is_stmt 1
	ldrd	r2, [r1, #8]
.LVL63:
	mov	r6, r0
	mov	r4, r1
	mov	r0, r5
.LVL64:
	add	r1, sp, #12
.LVL65:
	str	lr, [sp]
	str	ip, [sp, #4]
	bl	FSFILE_Read
.LVL66:
	.loc 1 144 0
	cmp	r0, #0
	.loc 1 145 0
	strne	r0, [r6]
	.loc 1 146 0
	mvnne	r3, #0
	.loc 1 144 0
	bne	.L83
	.loc 1 148 0
	ldr	r3, [sp, #12]
	cmp	r3, #0
	beq	.L87
	.loc 1 151 0
	ldrd	r0, [r4, #8]
.LVL67:
	adds	r0, r0, r3
	adc	r1, r1, #0
	strd	r0, [r4, #8]
	.loc 1 154 0
	mov	r0, r3
	add	sp, sp, #16
	.cfi_remember_state
	.cfi_def_cfa_offset 16
	@ sp needed
	ldmfd	sp!, {r4, r5, r6, pc}
.LVL68:
.L87:
	.cfi_restore_state
	.loc 1 134 0
	mov	r3, #0
.L83:
	.loc 1 154 0
	mov	r0, r3
	add	sp, sp, #16
	.cfi_remember_state
	.cfi_def_cfa_offset 16
	@ sp needed
	ldmfd	sp!, {r4, r5, r6, pc}
.LVL69:
.L84:
	.cfi_restore_state
	.loc 1 139 0
	mov	r2, #9
.LVL70:
	.loc 1 140 0
	mvn	r3, #0
.LVL71:
	.loc 1 139 0
	str	r2, [r0]
	.loc 1 140 0
	b	.L83
	.cfi_endproc
.LFE6:
	.size	_FAT_read_r, .-_FAT_read_r
	.align	2
	.global	_FAT_seek_r
	.type	_FAT_seek_r, %function
_FAT_seek_r:
.LFB7:
	.loc 1 156 0
	.cfi_startproc
	@ args = 0, pretend = 0, frame = 8
	@ frame_needed = 0, uses_anonymous_args = 0
.LVL72:
	stmfd	sp!, {r4, r5, r6, r7, r8, r9, lr}
	.cfi_def_cfa_offset 28
	.cfi_offset 4, -28
	.cfi_offset 5, -24
	.cfi_offset 6, -20
	.cfi_offset 7, -16
	.cfi_offset 8, -12
	.cfi_offset 9, -8
	.cfi_offset 14, -4
	.loc 1 164 0
	subs	r5, r1, #0
	.loc 1 156 0
	sub	sp, sp, #12
	.cfi_def_cfa_offset 40
	.loc 1 156 0
	mov	r8, r0
	.loc 1 164 0
	beq	.L96
	.loc 1 164 0 is_stmt 0 discriminator 1
	ldr	r0, [r5]
.LVL73:
	cmp	r0, #0
	beq	.L96
	.loc 1 168 0 is_stmt 1
	mov	r1, sp
.LVL74:
	mov	r9, r2
	mov	r4, r3
	bl	FSFILE_GetSize
.LVL75:
	.loc 1 169 0
	cmp	r0, #0
	bne	.L96
	.loc 1 173 0
	cmp	r4, #1
	beq	.L100
	cmp	r4, #2
	beq	.L101
	cmp	r4, #0
	beq	.L111
.L110:
	.loc 1 192 0
	mov	r3, #22
	.loc 1 193 0
	mvn	r0, #0
.LVL76:
	.loc 1 192 0
	str	r3, [r8]
	.loc 1 197 0
	add	sp, sp, #12
	.cfi_remember_state
	.cfi_def_cfa_offset 28
	@ sp needed
	ldmfd	sp!, {r4, r5, r6, r7, r8, r9, pc}
.LVL77:
.L101:
	.cfi_restore_state
	.loc 1 181 0
	ldrd	r2, [sp]
	adds	r6, r2, r9
	adc	r7, r3, r9, asr #31
.LVL78:
.L103:
	.loc 1 191 0
	cmp	r7, r3
	cmpeq	r6, r2
	bhi	.L110
	.loc 1 196 0
	mov	r0, #0
.LVL79:
	.loc 1 195 0
	strd	r6, [r5, #8]
	.loc 1 197 0
	add	sp, sp, #12
	.cfi_remember_state
	.cfi_def_cfa_offset 28
	@ sp needed
	ldmfd	sp!, {r4, r5, r6, r7, r8, r9, pc}
.LVL80:
.L111:
	.cfi_restore_state
	ldrd	r2, [sp]
	.loc 1 175 0
	mov	r6, r9
	mov	r7, r9, asr #31
.LVL81:
	.loc 1 176 0
	b	.L103
.LVL82:
.L100:
	.loc 1 178 0
	ldrd	r6, [r5, #8]
	adds	r6, r6, r9
	ldrd	r2, [sp]
	adc	r7, r7, r9, asr #31
.LVL83:
	.loc 1 179 0
	b	.L103
.LVL84:
.L96:
	.loc 1 165 0
	mov	r3, #9
	.loc 1 166 0
	mvn	r0, #0
	.loc 1 165 0
	str	r3, [r8]
	.loc 1 197 0
	add	sp, sp, #12
	.cfi_def_cfa_offset 28
	@ sp needed
	ldmfd	sp!, {r4, r5, r6, r7, r8, r9, pc}
	.cfi_endproc
.LFE7:
	.size	_FAT_seek_r, .-_FAT_seek_r
	.align	2
	.global	_FAT_stat_r
	.type	_FAT_stat_r, %function
_FAT_stat_r:
.LFB9:
	.loc 1 204 0
	.cfi_startproc
	@ args = 0, pretend = 0, frame = 32
	@ frame_needed = 0, uses_anonymous_args = 0
.LVL85:
	stmfd	sp!, {r4, r5, r6, r7, r8, lr}
	.cfi_def_cfa_offset 24
	.cfi_offset 4, -24
	.cfi_offset 5, -20
	.cfi_offset 6, -16
	.cfi_offset 7, -12
	.cfi_offset 8, -8
	.cfi_offset 14, -4
	mov	r4, r1
	sub	sp, sp, #72
	.cfi_def_cfa_offset 96
	.loc 1 212 0
	mov	r1, #0
.LVL86:
	.loc 1 204 0
	mov	r5, r2
	mov	r8, r0
	.loc 1 212 0
	mov	r0, r2
.LVL87:
	mov	r2, #68
.LVL88:
	bl	memset
.LVL89:
.LBB14:
.LBB15:
	.loc 1 35 0
	mov	r0, r4
	bl	GetDeviceOpTab
.LVL90:
	.loc 1 37 0
	cmp	r0, #0
	beq	.L113
	.loc 1 40 0
	ldr	r6, [r0, #88]
.LVL91:
.LBE15:
.LBE14:
	.loc 1 215 0
	cmp	r6, #0
	beq	.L113
	.loc 1 221 0
	mov	r0, r4
.LVL92:
	mov	r1, #58
	bl	strchr
.LVL93:
	cmp	r0, #0
	beq	.L116
	.loc 1 222 0
	add	r4, r0, #1
.LVL94:
	.loc 1 224 0
	mov	r0, r4
	mov	r1, #58
	bl	strchr
.LVL95:
	cmp	r0, #0
	bne	.L128
.L116:
	.loc 1 229 0
	add	r7, sp, #60
	mov	r2, r4
	mov	r0, r7
	mov	r1, #3
	bl	FS_makePath
.LVL96:
	ldmia	r7, {r0, r1, r2}
	mov	ip, #0
	mov	lr, #1
	add	r3, sp, #16
	stmia	r3, {r0, r1, r2}
	str	lr, [sp, #28]
	str	ip, [sp, #32]
	add	r3, r6, #8
	ldmia	r3, {r0, r1, r2, r3}
	stmia	sp, {r0, r1, r2, r3}
	mov	r0, ip
	ldmia	r6, {r2, r3}
	add	r1, sp, #44
	bl	FSUSER_OpenFile
.LVL97:
	.loc 1 231 0
	subs	r4, r0, #0
.LVL98:
	.loc 1 232 0
	movne	r3, #9
	.loc 1 233 0
	mvnne	r0, #0
.LVL99:
	.loc 1 232 0
	strne	r3, [r8]
	.loc 1 231 0
	bne	.L115
	.loc 1 235 0
	add	r1, sp, #48
	ldr	r0, [sp, #44]
	bl	FSFILE_GetSize
.LVL100:
	.loc 1 237 0
	ldr	r3, [r5, #8]
	.loc 1 236 0
	ldr	r2, [sp, #48]
	.loc 1 237 0
	orr	r3, r3, #33024
	str	r3, [r5, #8]
	.loc 1 236 0
	str	r2, [r5, #24]
	.loc 1 238 0
	ldr	r0, [sp, #44]
	bl	FSFILE_Close
.LVL101:
	.loc 1 239 0
	mov	r0, r4
.LVL102:
.L115:
	.loc 1 240 0
	add	sp, sp, #72
	.cfi_remember_state
	.cfi_def_cfa_offset 24
	@ sp needed
	ldmfd	sp!, {r4, r5, r6, r7, r8, pc}
.LVL103:
.L128:
	.cfi_restore_state
	.loc 1 225 0
	mov	r3, #22
	.loc 1 226 0
	mvn	r0, #0
	.loc 1 225 0
	str	r3, [r8]
	.loc 1 240 0
	add	sp, sp, #72
	.cfi_remember_state
	.cfi_def_cfa_offset 24
	@ sp needed
	ldmfd	sp!, {r4, r5, r6, r7, r8, pc}
.LVL104:
.L113:
	.cfi_restore_state
	.loc 1 216 0
	mov	r3, #19
	.loc 1 217 0
	mvn	r0, #0
.LVL105:
	.loc 1 216 0
	str	r3, [r8]
	.loc 1 217 0
	b	.L115
	.cfi_endproc
.LFE9:
	.size	_FAT_stat_r, .-_FAT_stat_r
	.align	2
	.global	_FAT_chdir_r
	.type	_FAT_chdir_r, %function
_FAT_chdir_r:
.LFB12:
	.loc 1 254 0
	.cfi_startproc
	@ args = 0, pretend = 0, frame = 0
	@ frame_needed = 0, uses_anonymous_args = 0
.LVL106:
	stmfd	sp!, {r4, r5, r6, lr}
	.cfi_def_cfa_offset 16
	.cfi_offset 4, -16
	.cfi_offset 5, -12
	.cfi_offset 6, -8
	.cfi_offset 14, -4
	.loc 1 254 0
	mov	r4, r1
	mov	r6, r0
	.loc 1 257 0
	ldr	r0, .L145
.LVL107:
	bl	printf
.LVL108:
.LBB16:
.LBB17:
	.loc 1 35 0
	mov	r0, r4
	bl	GetDeviceOpTab
.LVL109:
	.loc 1 37 0
	cmp	r0, #0
	beq	.L130
	.loc 1 40 0
	ldr	r5, [r0, #88]
.LVL110:
.LBE17:
.LBE16:
	.loc 1 261 0
	cmp	r5, #0
	beq	.L130
	.loc 1 266 0
	mov	r0, r4
.LVL111:
	mov	r1, #58
	bl	strchr
.LVL112:
	cmp	r0, #0
	beq	.L133
	.loc 1 267 0
	add	r4, r0, #1
.LVL113:
	.loc 1 269 0
	mov	r0, r4
	mov	r1, #58
	bl	strchr
.LVL114:
	cmp	r0, #0
	bne	.L144
.L133:
	.loc 1 273 0
	mov	r1, r4
	ldr	r0, .L145+4
	bl	printf
.LVL115:
	.loc 1 274 0
	add	r0, r5, #24
	mov	r1, r4
	bl	strcpy
.LVL116:
	.loc 1 275 0
	mov	r0, #0
	.loc 1 276 0
	ldmfd	sp!, {r4, r5, r6, pc}
.L144:
	.loc 1 270 0
	mov	r2, #22
	.loc 1 271 0
	mvn	r0, #0
	.loc 1 270 0
	str	r2, [r6]
	.loc 1 271 0
	ldmfd	sp!, {r4, r5, r6, pc}
.LVL117:
.L130:
	.loc 1 262 0
	mov	r2, #19
	.loc 1 263 0
	mvn	r0, #0
.LVL118:
	.loc 1 262 0
	str	r2, [r6]
	.loc 1 263 0
	ldmfd	sp!, {r4, r5, r6, pc}
.L146:
	.align	2
.L145:
	.word	.LC12
	.word	.LC13
	.cfi_endproc
.LFE12:
	.size	_FAT_chdir_r, .-_FAT_chdir_r
	.align	2
	.global	_FAT_diropen_r
	.type	_FAT_diropen_r, %function
_FAT_diropen_r:
.LFB15:
	.loc 1 290 0
	.cfi_startproc
	@ args = 0, pretend = 0, frame = 4112
	@ frame_needed = 0, uses_anonymous_args = 0
.LVL119:
	stmfd	sp!, {r4, r5, r6, r7, r8, lr}
	.cfi_def_cfa_offset 24
	.cfi_offset 4, -24
	.cfi_offset 5, -20
	.cfi_offset 6, -16
	.cfi_offset 7, -12
	.cfi_offset 8, -8
	.cfi_offset 14, -4
	sub	sp, sp, #4096
	.cfi_def_cfa_offset 4120
	.loc 1 291 0
	ldr	r5, [r1, #4]
.LVL120:
	.loc 1 290 0
	sub	sp, sp, #48
	.cfi_def_cfa_offset 4168
	.loc 1 296 0
	mov	r1, r2
.LVL121:
	.loc 1 290 0
	mov	r7, r0
	.loc 1 296 0
	ldr	r0, .L163
.LVL122:
	.loc 1 290 0
	mov	r4, r2
	.loc 1 296 0
	bl	printf
.LVL123:
	.loc 1 297 0
	mov	r3, #0
.LBB18:
.LBB19:
	.loc 1 35 0
	mov	r0, r4
.LBE19:
.LBE18:
	.loc 1 297 0
	str	r3, [r5]
.LVL124:
.LBB21:
.LBB20:
	.loc 1 35 0
	bl	GetDeviceOpTab
.LVL125:
	.loc 1 37 0
	cmp	r0, #0
	beq	.L148
	.loc 1 40 0
	ldr	r6, [r0, #88]
.LVL126:
.LBE20:
.LBE21:
	.loc 1 300 0
	cmp	r6, #0
	beq	.L148
	.loc 1 306 0
	mov	r0, r4
.LVL127:
	mov	r1, #58
	bl	strchr
.LVL128:
	cmp	r0, #0
	beq	.L151
	.loc 1 307 0
	add	r4, r0, #1
.LVL129:
	.loc 1 309 0
	mov	r0, r4
	mov	r1, #58
	bl	strchr
.LVL130:
	cmp	r0, #0
	beq	.L151
	.loc 1 310 0
	mov	r3, #22
	.loc 1 311 0
	mvn	r0, #0
	.loc 1 310 0
	str	r3, [r7]
.LVL131:
.L150:
	.loc 1 324 0
	add	sp, sp, #4096
	add	sp, sp, #48
	.cfi_remember_state
	.cfi_def_cfa_offset 24
	@ sp needed
	ldmfd	sp!, {r4, r5, r6, r7, r8, pc}
.LVL132:
.L148:
	.cfi_restore_state
	.loc 1 301 0
	mov	r3, #19
	.loc 1 302 0
	mvn	r0, #0
.LVL133:
	.loc 1 301 0
	str	r3, [r7]
	.loc 1 324 0
	add	sp, sp, #4096
	add	sp, sp, #48
	.cfi_remember_state
	.cfi_def_cfa_offset 24
	@ sp needed
	ldmfd	sp!, {r4, r5, r6, r7, r8, pc}
.LVL134:
.L151:
	.cfi_restore_state
	.loc 1 314 0
	mov	r8, #0
	.loc 1 315 0
	add	r0, sp, #48
	mov	r3, r4
	ldr	r1, .L163+4
	.loc 1 316 0
	sub	r4, r0, #12
.LVL135:
	.loc 1 315 0
	add	r2, r6, #24
	.loc 1 314 0
	str	r8, [r5]
	.loc 1 315 0
	bl	sprintf
.LVL136:
	.loc 1 316 0
	add	r2, sp, #48
	mov	r0, r4
	mov	r1, #3
	bl	FS_makePath
.LVL137:
	.loc 1 318 0
	ldmia	r4, {r0, r1, r2}
	add	r3, sp, #16
	stmia	r3, {r0, r1, r2}
	add	r3, r6, #8
	ldmia	r3, {r0, r1, r2, r3}
	stmia	sp, {r0, r1, r2, r3}
	mov	r0, r8
	ldmia	r6, {r2, r3}
	mov	r1, r5
	bl	FSUSER_OpenDirectory
.LVL138:
	cmp	r0, r8
	.loc 1 319 0
	movne	r3, #2
	.loc 1 320 0
	movne	r0, r8
	.loc 1 319 0
	strne	r3, [r7]
	moveq	r0, r5
	b	.L150
.L164:
	.align	2
.L163:
	.word	.LC14
	.word	.LC0
	.cfi_endproc
.LFE15:
	.size	_FAT_diropen_r, .-_FAT_diropen_r
	.align	2
	.global	_FAT_dirnext_r
	.type	_FAT_dirnext_r, %function
_FAT_dirnext_r:
.LFB17:
	.loc 1 332 0
	.cfi_startproc
	@ args = 0, pretend = 0, frame = 8
	@ frame_needed = 0, uses_anonymous_args = 0
.LVL139:
	stmfd	sp!, {r4, r5, r6, r7, r8, lr}
	.cfi_def_cfa_offset 24
	.cfi_offset 4, -24
	.cfi_offset 5, -20
	.cfi_offset 6, -16
	.cfi_offset 7, -12
	.cfi_offset 8, -8
	.cfi_offset 14, -4
	.loc 1 333 0
	ldr	r6, [r1, #4]
.LVL140:
	.loc 1 332 0
	sub	sp, sp, #8
	.cfi_def_cfa_offset 32
	.loc 1 338 0
	mov	r1, r2
.LVL141:
	.loc 1 332 0
	mov	r8, r0
	.loc 1 340 0
	add	r4, r6, #8
	.loc 1 338 0
	ldr	r0, .L178
.LVL142:
	.loc 1 332 0
	mov	r5, r2
	mov	r7, r3
	.loc 1 338 0
	bl	printf
.LVL143:
	.loc 1 340 0
	mov	r3, r4
	ldr	r0, [r6]
	add	r1, sp, #4
	mov	r2, #1
	bl	FSDIR_Read
.LVL144:
	.loc 1 341 0
	cmp	r0, #0
	bne	.L172
	.loc 1 343 0
	ldr	r2, [sp, #4]
	cmp	r2, #0
	.loc 1 346 0
	moveq	r3, #2
	.loc 1 347 0
	mvneq	r0, #0
.LVL145:
	.loc 1 346 0
	streq	r3, [r8]
	.loc 1 343 0
	beq	.L166
	.loc 1 351 0
	str	r0, [r7, #4]
	.loc 1 352 0
	ldrb	r3, [r6, #548]	@ zero_extendqisi2
	.loc 1 359 0
	ldrh	r0, [r6, #8]
	.loc 1 352 0
	cmp	r3, #0
	.loc 1 353 0
	movne	r3, #16384
	.loc 1 355 0
	moveq	r3, #32768
	.loc 1 359 0
	cmp	r0, #0
	.loc 1 355 0
	str	r3, [r7, #8]
.LVL146:
	.loc 1 359 0
	beq	.L170
	mov	r3, r4
.LVL147:
.L171:
	.loc 1 360 0
	strb	r0, [r5], #1
.LVL148:
	.loc 1 359 0
	ldrh	r0, [r3, #2]!
.LVL149:
	cmp	r0, #0
	bne	.L171
.LVL150:
.L170:
	.loc 1 361 0
	mov	r0, #0
	strb	r0, [r5]
.L166:
	.loc 1 366 0
	add	sp, sp, #8
	.cfi_remember_state
	.cfi_def_cfa_offset 24
	@ sp needed
	ldmfd	sp!, {r4, r5, r6, r7, r8, pc}
.LVL151:
.L172:
	.cfi_restore_state
	.loc 1 365 0
	mvn	r0, #0
.LVL152:
	b	.L166
.L179:
	.align	2
.L178:
	.word	.LC15
	.cfi_endproc
.LFE17:
	.size	_FAT_dirnext_r, .-_FAT_dirnext_r
	.align	2
	.global	_FAT_dirclose_r
	.type	_FAT_dirclose_r, %function
_FAT_dirclose_r:
.LFB18:
	.loc 1 368 0
	.cfi_startproc
	@ args = 0, pretend = 0, frame = 0
	@ frame_needed = 0, uses_anonymous_args = 0
.LVL153:
	stmfd	sp!, {r3, r4, r5, lr}
	.cfi_def_cfa_offset 16
	.cfi_offset 3, -16
	.cfi_offset 4, -12
	.cfi_offset 5, -8
	.cfi_offset 14, -4
	.loc 1 369 0
	ldr	r4, [r1, #4]
.LVL154:
	.loc 1 368 0
	mov	r5, r0
	.loc 1 372 0
	ldr	r0, .L184
.LVL155:
	bl	printf
.LVL156:
	.loc 1 373 0
	ldr	r0, [r4]
	bl	FSDIR_Close
.LVL157:
	.loc 1 374 0
	cmp	r0, #0
	.loc 1 377 0
	strne	r0, [r5]
	.loc 1 378 0
	mvnne	r0, #0
.LVL158:
	.loc 1 379 0
	ldmfd	sp!, {r3, r4, r5, pc}
.L185:
	.align	2
.L184:
	.word	.LC16
	.cfi_endproc
.LFE18:
	.size	_FAT_dirclose_r, .-_FAT_dirclose_r
	.align	2
	.global	SD_init
	.type	SD_init, %function
SD_init:
.LFB22:
	.loc 1 427 0
	.cfi_startproc
	@ args = 0, pretend = 0, frame = 16
	@ frame_needed = 0, uses_anonymous_args = 0
	stmfd	sp!, {r4, r5, r6, r7, r8, lr}
	.cfi_def_cfa_offset 24
	.cfi_offset 4, -24
	.cfi_offset 5, -20
	.cfi_offset 6, -16
	.cfi_offset 7, -12
	.cfi_offset 8, -8
	.cfi_offset 14, -4
	.loc 1 435 0
	ldr	r4, .L192
	.loc 1 427 0
	sub	sp, sp, #16
	.cfi_def_cfa_offset 40
	.loc 1 435 0
	ldr	r2, .L192+4
	mov	r1, #0
	mov	r0, r4
	bl	memset
.LVL159:
	.loc 1 437 0
	bl	fsInit
.LVL160:
	mov	r6, r0
.LVL161:
	.loc 1 438 0
	ldr	r0, .L192+8
.LVL162:
	mov	r1, r6
	bl	printf
.LVL163:
	.loc 1 441 0
	mov	r3, #0
	.loc 1 440 0
	mov	r1, #47
	.loc 1 441 0
	mov	lr, #9
	mov	r5, #1
	ldr	r2, .L192+12
	.loc 1 442 0
	mov	r0, r3
	.loc 1 440 0
	strh	r1, [r4, #24]	@ movhi
	.loc 1 445 0
	ldr	r7, .L192+16
	.loc 1 442 0
	mov	r1, r4
	.loc 1 441 0
	str	r3, [r4, #4]
	str	r3, [r4, #16]
	str	lr, [r4]
	str	r3, [r4, #20]
	str	r2, [r4, #12]
	strb	r5, [r4, #4]
	str	r5, [r4, #8]
	.loc 1 442 0
	bl	FSUSER_OpenArchive
.LVL164:
	.loc 1 443 0
	mov	r1, r6
	ldr	r0, .L192+20
	bl	printf
.LVL165:
	.loc 1 445 0
	mov	r2, r7
	ldr	r1, .L192+24
	add	r0, sp, #4
	bl	sprintf
.LVL166:
	.loc 1 446 0
	add	r0, sp, #4
	bl	FindDevice
.LVL167:
	cmp	r0, #0
	blt	.L187
	.loc 1 447 0
	ldr	r0, .L192+28
	bl	puts
.LVL168:
	.loc 1 448 0
	mov	r0, r5
.LVL169:
.L188:
	.loc 1 471 0
	add	sp, sp, #16
	.cfi_remember_state
	.cfi_def_cfa_offset 24
	@ sp needed
	ldmfd	sp!, {r4, r5, r6, r7, r8, pc}
.LVL170:
.L187:
	.cfi_restore_state
	.loc 1 451 0
	mov	r0, #105
	bl	malloc
.LVL171:
	.loc 1 452 0
	subs	r6, r0, #0
.LVL172:
	beq	.L191
	.loc 1 460 0
	mov	r2, #100
	ldr	r1, .L192+32
	.loc 1 457 0
	add	r8, r6, r2
.LVL173:
	.loc 1 460 0
	bl	memcpy
.LVL174:
	.loc 1 461 0
	ldmia	r7, {r0, r1}
	.loc 1 463 0
	str	r4, [r6, #88]
	.loc 1 461 0
	str	r0, [r6, #100]
	strb	r1, [r6, #104]
	.loc 1 462 0
	str	r8, [r6]
	.loc 1 465 0
	mov	r0, r6
	bl	AddDevice
.LVL175:
	mov	r1, r0
.LVL176:
	.loc 1 466 0
	ldr	r0, .L192+36
.LVL177:
	bl	printf
.LVL178:
	.loc 1 468 0
	ldr	r0, .L192+40
	bl	chdir
.LVL179:
	.loc 1 470 0
	mov	r0, r5
	.loc 1 471 0
	add	sp, sp, #16
	.cfi_remember_state
	.cfi_def_cfa_offset 24
	@ sp needed
	ldmfd	sp!, {r4, r5, r6, r7, r8, pc}
.LVL180:
.L191:
	.cfi_restore_state
	.loc 1 453 0
	ldr	r0, .L192+44
.LVL181:
	bl	puts
.LVL182:
	.loc 1 454 0
	mov	r0, r6
	b	.L188
.L193:
	.align	2
.L192:
	.word	.LANCHOR0
	.word	1048
	.word	.LC17
	.word	.LC18
	.word	.LC21
	.word	.LC19
	.word	.LC20
	.word	.LC22
	.word	.LANCHOR1
	.word	.LC24
	.word	.LC25
	.word	.LC23
	.cfi_endproc
.LFE22:
	.size	SD_init, .-SD_init
	.section	.rodata
	.align	2
	.set	.LANCHOR1,. + 0
	.type	dotab_fat, %object
	.size	dotab_fat, 100
dotab_fat:
	.word	.LC26
	.word	16
	.word	_FAT_open_r
	.word	_FAT_close_r
	.word	_FAT_write_r
	.word	_FAT_read_r
	.word	_FAT_seek_r
	.word	_FAT_fstat_r
	.word	_FAT_stat_r
	.word	_FAT_link_r
	.word	_FAT_unlink_r
	.word	_FAT_chdir_r
	.word	_FAT_rename_r
	.word	_FAT_mkdir_r
	.word	560
	.word	_FAT_diropen_r
	.word	_FAT_dirreset_r
	.word	_FAT_dirnext_r
	.word	_FAT_dirclose_r
	.word	_FAT_statvfs_r
	.word	_FAT_ftruncate_r
	.word	_FAT_fsync_r
	.word	0
	.word	0
	.word	0
	.section	.rodata.str1.4,"aMS",%progbits,1
	.align	2
.LC0:
	.ascii	"%s%s\000"
	.space	3
.LC1:
	.ascii	"   close %08x\012\000"
	.space	1
.LC2:
	.ascii	"write %08x\012\000"
.LC3:
	.ascii	"fstat %08x\012\000"
.LC4:
	.ascii	"link %s %s\012\000"
.LC5:
	.ascii	"unlink %s\012\000"
	.space	1
.LC6:
	.ascii	"rename %s %s\012\000"
	.space	2
.LC7:
	.ascii	"mkdir %s\012\000"
	.space	2
.LC8:
	.ascii	"dirreset %08x\012\000"
	.space	1
.LC9:
	.ascii	"statvfs %s\012\000"
.LC10:
	.ascii	"ftruncate %08x\012\000"
.LC11:
	.ascii	"sync %08x\012\000"
	.space	1
.LC12:
	.ascii	"chdir %s\012\000"
	.space	2
.LC13:
	.ascii	"  cwd %s\012\000"
	.space	2
.LC14:
	.ascii	"diropen %s\012\000"
.LC15:
	.ascii	"dirnext %s\012\000"
.LC16:
	.ascii	"dirclose %08x\012\000"
	.space	1
.LC17:
	.ascii	"fsInit %08X\012\000"
	.space	3
.LC18:
	.ascii	"\000"
	.space	3
.LC19:
	.ascii	"FSUSER_OpenArchive %08X\012\000"
	.space	3
.LC20:
	.ascii	"%s:\000"
.LC21:
	.ascii	"sdmc\000"
	.space	3
.LC22:
	.ascii	"FindDevice failed\000"
	.space	2
.LC23:
	.ascii	"devops failed\000"
	.space	2
.LC24:
	.ascii	"AddDevice %08X\012\000"
.LC25:
	.ascii	"sdmc:/\000"
	.space	1
.LC26:
	.ascii	"fat\000"
	.bss
	.align	2
	.set	.LANCHOR0,. + 0
	.type	FS_ptr, %object
	.size	FS_ptr, 1048
FS_ptr:
	.space	1048
	.text
.Letext0:
	.file 2 "c:\\devkitpro\\devkitarm\\arm-none-eabi\\include\\machine\\_default_types.h"
	.file 3 "c:\\devkitpro\\devkitarm\\arm-none-eabi\\include\\stdint.h"
	.file 4 "c:\\devkitpro\\devkitarm\\lib\\gcc\\arm-none-eabi\\4.9.2\\include\\stddef.h"
	.file 5 "c:/devkitPro/libctru/include/3ds/types.h"
	.file 6 "c:/devkitPro/libctru/include/3ds/services/fs.h"
	.file 7 "c:\\devkitpro\\devkitarm\\arm-none-eabi\\include\\sys\\lock.h"
	.file 8 "c:\\devkitpro\\devkitarm\\arm-none-eabi\\include\\sys\\_types.h"
	.file 9 "c:\\devkitpro\\devkitarm\\arm-none-eabi\\include\\sys\\types.h"
	.file 10 "c:\\devkitpro\\devkitarm\\arm-none-eabi\\include\\sys\\reent.h"
	.file 11 "c:\\devkitpro\\devkitarm\\arm-none-eabi\\include\\sys\\stat.h"
	.file 12 "c:\\devkitpro\\devkitarm\\arm-none-eabi\\include\\sys\\statvfs.h"
	.file 13 "c:\\devkitpro\\devkitarm\\arm-none-eabi\\include\\sys\\iosupport.h"
	.file 14 "<built-in>"
	.file 15 "c:\\devkitpro\\devkitarm\\arm-none-eabi\\include\\string.h"
	.file 16 "c:\\devkitpro\\devkitarm\\arm-none-eabi\\include\\stdio.h"
	.file 17 "c:\\devkitpro\\devkitarm\\arm-none-eabi\\include\\sys\\unistd.h"