	.arch armv6k
	.fpu softvfp
	.eabi_attribute 23, 1
	.eabi_attribute 24, 1
	.eabi_attribute 25, 1
	.eabi_attribute 26, 1
	.eabi_attribute 30, 2
	.eabi_attribute 34, 1
	.eabi_attribute 18, 4
	.file	"g_game.c"
	.text
.Ltext0:
	.cfi_sections	.debug_frame
	.align	2
	.type	G_DoLoadLevel, %function
G_DoLoadLevel:
.LFB10:
	.file 1 "c:/devl/prboom3ds/src/g_game.c"
	.loc 1 554 0
	.cfi_startproc
	@ args = 0, pretend = 0, frame = 0
	@ frame_needed = 0, uses_anonymous_args = 0
	stmfd	sp!, {r4, r5, r6, r7, r8, lr}
	.cfi_def_cfa_offset 24
	.cfi_offset 4, -24
	.cfi_offset 5, -20
	.cfi_offset 6, -16
	.cfi_offset 7, -12
	.cfi_offset 8, -8
	.cfi_offset 14, -4
	.loc 1 563 0
	ldr	r0, .L26
	bl	R_FlatNumForName
.LVL0:
	.loc 1 567 0
	ldr	r3, .L26+4
	.loc 1 563 0
	ldr	r2, .L26+8
	.loc 1 567 0
	ldrb	r3, [r3]	@ zero_extendqisi2
	.loc 1 563 0
	str	r0, [r2]
	.loc 1 567 0
	cmp	r3, #2
	beq	.L24
	.loc 1 579 0
	ldr	r3, .L26+12
	ldr	r7, [r3]
	sub	r3, r7, #1
	cmp	r3, #3
	ldrls	pc, [pc, r3, asl #2]
	b	.L6
.L8:
	.word	.L7
	.word	.L9
	.word	.L10
	.word	.L11
.L24:
	.loc 1 571 0
	ldr	r0, .L26+16
	bl	R_TextureNumForName
.LVL1:
	.loc 1 572 0
	ldr	r3, .L26+20
	.loc 1 571 0
	ldr	r4, .L26+24
	.loc 1 572 0
	ldr	r8, [r3]
	.loc 1 571 0
	str	r0, [r4]
	.loc 1 572 0
	cmp	r8, #11
	ble	.L25
	.loc 1 575 0
	cmp	r8, #20
	ble	.L5
	ldr	r3, .L26+12
	ldr	r7, [r3]
	b	.L4
.L11:
	.loc 1 591 0
	ldr	r0, .L26+28
	bl	R_TextureNumForName
.LVL2:
	ldr	r2, .L26+20
	ldr	r3, .L26+24
	ldr	r8, [r2]
	str	r0, [r3]
.L4:
	.loc 1 597 0
	ldr	r3, .L26+32
	.loc 1 608 0
	mov	r1, #2
	.loc 1 597 0
	ldrb	r3, [r3]	@ zero_extendqisi2
	ldr	ip, .L26+36
	sub	r3, r3, #7
	cmp	r3, #3
	.loc 1 598 0
	ldrls	r2, .L26+40
	ldrls	r3, .L26+44
	ldrls	r2, [r2]
	ldr	r4, .L26+48
	strls	r2, [r3]
	.loc 1 600 0
	ldr	r3, .L26+52
	ldrb	r2, [r3]	@ zero_extendqisi2
	cmp	r2, #0
	.loc 1 601 0
	mvneq	r2, #0
	streqb	r2, [r3]
	.loc 1 603 0
	mov	r3, #0
	.loc 1 609 0
	mov	lr, r3
	.loc 1 603 0
	ldr	r2, .L26+56
	strb	r3, [r2]
.LVL3:
	add	r2, ip, #1136
.LVL4:
.L15:
	.loc 1 609 0
	mov	r6, #0
	.loc 1 607 0
	ldr	r5, [r4], #4
	.loc 1 609 0
	mov	r3, ip
	.loc 1 607 0
	cmp	r5, r6
	beq	.L14
	.loc 1 607 0 is_stmt 0 discriminator 1
	ldrb	r5, [ip, #-100]	@ zero_extendqisi2
	cmp	r5, #1
	.loc 1 608 0 is_stmt 1 discriminator 1
	streqb	r1, [ip, #-100]
.L14:
	.loc 1 609 0 discriminator 2
	str	lr, [r3], #4
	add	r3, r3, #4
	str	lr, [ip, #4]
	add	ip, ip, #284
	str	lr, [r3], #4
	.loc 1 605 0 discriminator 2
	cmp	ip, r2
	.loc 1 609 0 discriminator 2
	str	lr, [r3]
	.loc 1 605 0 discriminator 2
	bne	.L15
	.loc 1 624 0
	ldr	r3, .L26+60
.LBB34:
	.loc 1 619 0
	ldr	ip, .L26+64
.LBE34:
	.loc 1 624 0
	mov	r2, r6
	mov	r0, r7
	mov	r1, r8
	ldrsb	r3, [r3]
.LBB35:
	.loc 1 619 0
	str	r6, [ip]
.LBE35:
	.loc 1 624 0
	bl	P_SetupLevel
.LVL5:
	.loc 1 627 0
	mov	r4, #0
	.loc 1 625 0
	ldr	r3, .L26+68
	.loc 1 631 0
	ldr	r5, .L26+72
	.loc 1 625 0
	ldr	r3, [r3]
	cmp	r3, #0
	.loc 1 626 0
	ldreq	r2, .L26+76
	ldreq	r3, .L26+80
	ldreq	r2, [r2]
	streq	r2, [r3]
	.loc 1 627 0
	ldr	r3, .L26+84
	strb	r4, [r3]
	.loc 1 628 0
	bl	Z_CheckHeap
.LVL6:
	.loc 1 631 0
	mov	r1, r4
	mov	r0, r5
	mov	r2, #2048
	bl	memset
.LVL7:
	.loc 1 634 0
	ldr	r3, .L26+88
	.loc 1 632 0
	str	r4, [r5, #2048]
	str	r4, [r5, #2052]
	.loc 1 633 0
	str	r4, [r5, #2056]
	str	r4, [r5, #2060]
	.loc 1 634 0
	strb	r4, [r5, #2064]
	.loc 1 635 0
	str	r4, [r5, #2072]
	.loc 1 636 0
	str	r4, [r5, #2088]
	.loc 1 634 0
	str	r4, [r3]
	.loc 1 639 0
	bl	ST_Start
.LVL8:
	.loc 1 641 0
	ldmfd	sp!, {r4, r5, r6, r7, r8, lr}
	.cfi_remember_state
	.cfi_restore 14
	.cfi_restore 8
	.cfi_restore 7
	.cfi_restore 6
	.cfi_restore 5
	.cfi_restore 4
	.cfi_def_cfa_offset 0
	.loc 1 640 0
	b	HU_Start
.LVL9:
.L7:
	.cfi_restore_state
	.loc 1 582 0
	ldr	r0, .L26+92
.L22:
	.loc 1 585 0
	bl	R_TextureNumForName
.LVL10:
	ldr	r2, .L26+24
	ldr	r3, .L26+20
	str	r0, [r2]
	ldr	r8, [r3]
	.loc 1 586 0
	b	.L4
.L9:
	.loc 1 585 0
	ldr	r0, .L26+96
	b	.L22
.L10:
	.loc 1 588 0
	ldr	r0, .L26+16
	b	.L22
.L25:
	.loc 1 573 0
	ldr	r0, .L26+92
	bl	R_TextureNumForName
.LVL11:
	ldr	r3, .L26+12
	str	r0, [r4]
	ldr	r7, [r3]
	b	.L4
.L6:
	ldr	r3, .L26+20
	ldr	r8, [r3]
	b	.L4
.L5:
	.loc 1 576 0
	ldr	r0, .L26+96
	bl	R_TextureNumForName
.LVL12:
	ldr	r3, .L26+12
	str	r0, [r4]
	ldr	r7, [r3]
	b	.L4
.L27:
	.align	2
.L26:
	.word	.LC0
	.word	gamemode
	.word	skyflatnum
	.word	gameepisode
	.word	.LC1
	.word	gamemap
	.word	skytexture
	.word	.LC4
	.word	compatibility_level
	.word	players+104
	.word	gametic
	.word	basetic
	.word	playeringame
	.word	wipegamestate
	.word	gamestate
	.word	gameskill
	.word	secnodezone
	.word	demoplayback
	.word	.LANCHOR0
	.word	consoleplayer
	.word	displayplayer
	.word	gameaction
	.word	paused
	.word	.LC2
	.word	.LC3
	.cfi_endproc
.LFE10:
	.size	G_DoLoadLevel, .-G_DoLoadLevel
	.align	2
	.type	G_UpdateSignature, %function
G_UpdateSignature:
.LFB24:
	.loc 1 1452 0
	.cfi_startproc
	@ args = 0, pretend = 0, frame = 0
	@ frame_needed = 0, uses_anonymous_args = 0
.LVL13:
	stmfd	sp!, {r3, r4, r5, r6, r7, r8, r9, lr}
	.cfi_def_cfa_offset 32
	.cfi_offset 3, -32
	.cfi_offset 4, -28
	.cfi_offset 5, -24
	.cfi_offset 6, -20
	.cfi_offset 7, -16
	.cfi_offset 8, -12
	.cfi_offset 9, -8
	.cfi_offset 14, -4
	.loc 1 1452 0
	mov	r4, r0
	mov	r5, r1
.LBB36:
.LBB37:
	.file 2 "c:/devl/prboom3ds/src/w_wad.h"
	.loc 2 132 0
	mov	r0, r2
.LVL14:
	mov	r1, #0
	mvn	r2, #0
.LVL15:
	bl	W_FindNumFromName
.LVL16:
.LBE37:
.LBE36:
	.loc 1 1454 0
	cmn	r0, #1
.LBB39:
.LBB38:
	.loc 2 132 0
	mov	r8, r0
.LBE38:
.LBE39:
	.loc 1 1454 0
	beq	.L29
	.loc 1 1454 0 is_stmt 0 discriminator 1
	ldr	r3, .L42
	add	r9, r0, #10
.LVL17:
	ldr	r3, [r3]
	cmp	r9, r3
	bge	.L29
.LVL18:
.L32:
.LBB40:
	.loc 1 1457 0 is_stmt 1
	mov	r0, r9
	bl	W_LumpLength
.LVL19:
	mov	r6, r0
.LVL20:
	.loc 1 1458 0
	mov	r0, r9
.LVL21:
	bl	W_CacheLumpNum
.LVL22:
	.loc 1 1459 0
	cmp	r6, #0
	beq	.L30
	add	r2, r0, r6
.LVL23:
.L31:
	.loc 1 1460 0
	mov	r7, #0
	ldrb	r6, [r0], #1	@ zero_extendqisi2
.LVL24:
	adds	r4, r4, r4
.LVL25:
	adc	r5, r5, r5
.LVL26:
	adds	r4, r4, r6
.LVL27:
	adc	r5, r5, r7
.LVL28:
	.loc 1 1459 0
	cmp	r0, r2
	bne	.L31
.L30:
	.loc 1 1461 0
	mov	r0, r9
.LVL29:
.LBE40:
	.loc 1 1463 0
	sub	r9, r9, #1
.LVL30:
.LBB41:
	.loc 1 1461 0
	bl	W_UnlockLumpNum
.LVL31:
.LBE41:
	.loc 1 1463 0
	cmp	r9, r8
	bne	.L32
.LVL32:
.L29:
	.loc 1 1465 0
	mov	r0, r4
	mov	r1, r5
	ldmfd	sp!, {r3, r4, r5, r6, r7, r8, r9, pc}
.L43:
	.align	2
.L42:
	.word	numlumps
	.cfi_endproc
.LFE24:
	.size	G_UpdateSignature, .-G_UpdateSignature
	.align	2
	.type	G_Signature, %function
G_Signature:
.LFB25:
	.loc 1 1468 0
	.cfi_startproc
	@ args = 0, pretend = 0, frame = 16
	@ frame_needed = 0, uses_anonymous_args = 0
	stmfd	sp!, {r4, r5, r6, r7, lr}
	.cfi_def_cfa_offset 20
	.cfi_offset 4, -20
	.cfi_offset 5, -16
	.cfi_offset 6, -12
	.cfi_offset 7, -8
	.cfi_offset 14, -4
	.loc 1 1474 0
	ldr	r5, .L63
	.loc 1 1468 0
	sub	sp, sp, #20
	.cfi_def_cfa_offset 40
	.loc 1 1474 0
	ldr	r3, [r5, #2104]
	cmp	r3, #0
	bne	.L45
	.loc 1 1475 0
	mov	r2, #1
	.loc 1 1476 0
	ldr	r3, .L63+4
	.loc 1 1475 0
	str	r2, [r5, #2104]
	.loc 1 1476 0
	ldrb	r7, [r3]	@ zero_extendqisi2
	cmp	r7, #2
	beq	.L62
	.loc 1 1480 0
	cmp	r7, #3
	moveq	r7, #4
	beq	.L50
	.loc 1 1481 0
	cmp	r7, #0
	moveq	r7, #1
	movne	r7, #3
.L50:
.LVL33:
	ldr	r5, .L63+8
	add	r6, sp, #4
.L51:
.LVL34:
	mov	r4, #9
.LVL35:
.L52:
	.loc 1 1483 0 discriminator 3
	mov	r3, r4
	ldr	r1, .L63+12
	mov	r2, r7
	mov	r0, r6
	bl	sprintf
.LVL36:
	ldrd	r0, [r5]
	mov	r2, r6
	bl	G_UpdateSignature
.LVL37:
	.loc 1 1482 0 discriminator 3
	subs	r4, r4, #1
.LVL38:
	.loc 1 1483 0 discriminator 3
	strd	r0, [r5]
	.loc 1 1482 0 discriminator 3
	bne	.L52
.LVL39:
	.loc 1 1480 0
	subs	r7, r7, #1
.LVL40:
	bne	.L51
	.loc 1 1486 0
	add	sp, sp, #20
	.cfi_remember_state
	.cfi_def_cfa_offset 20
	@ sp needed
	ldmfd	sp!, {r4, r5, r6, r7, pc}
.LVL41:
.L45:
	.cfi_restore_state
	add	r5, r5, #2112
	ldrd	r0, [r5]
	add	sp, sp, #20
	.cfi_remember_state
	.cfi_def_cfa_offset 20
	@ sp needed
	ldmfd	sp!, {r4, r5, r6, r7, pc}
.L62:
	.cfi_restore_state
	.loc 1 1477 0
	ldr	r4, [r5, #2108]
	add	r6, sp, #4
	cmp	r4, #0
	movne	r4, #32
	moveq	r4, #30
.LVL42:
	add	r5, r5, #2112
.L48:
	.loc 1 1478 0 discriminator 7
	mov	r2, r4
	ldr	r1, .L63+16
	mov	r0, r6
	bl	sprintf
.LVL43:
	ldrd	r0, [r5]
	mov	r2, r6
	bl	G_UpdateSignature
.LVL44:
	.loc 1 1477 0 discriminator 7
	subs	r4, r4, #1
.LVL45:
	.loc 1 1478 0 discriminator 7
	strd	r0, [r5]
	.loc 1 1477 0 discriminator 7
	bne	.L48
	.loc 1 1486 0
	add	sp, sp, #20
	.cfi_def_cfa_offset 20
	@ sp needed
	ldmfd	sp!, {r4, r5, r6, r7, pc}
.LVL46:
.L64:
	.align	2
.L63:
	.word	.LANCHOR0
	.word	gamemode
	.word	.LANCHOR0+2112
	.word	.LC6
	.word	.LC5
	.cfi_endproc
.LFE25:
	.size	G_Signature, .-G_Signature
	.global	__aeabi_idivmod
	.align	2
	.type	G_CheckSpot, %function
G_CheckSpot:
.LFB16:
	.loc 1 1064 0
	.cfi_startproc
	@ args = 0, pretend = 0, frame = 0
	@ frame_needed = 0, uses_anonymous_args = 0
.LVL47:
	stmfd	sp!, {r3, r4, r5, r6, r7, r8, r9, r10, fp, lr}
	.cfi_def_cfa_offset 40
	.cfi_offset 3, -40
	.cfi_offset 4, -36
	.cfi_offset 5, -32
	.cfi_offset 6, -28
	.cfi_offset 7, -24
	.cfi_offset 8, -20
	.cfi_offset 9, -16
	.cfi_offset 10, -12
	.cfi_offset 11, -8
	.cfi_offset 14, -4
	.loc 1 1069 0
	mov	r9, #284
	mul	r9, r9, r0
	ldr	r6, .L118
	ldr	ip, [r6, r9]
	cmp	ip, #0
	beq	.L113
	.loc 1 1089 0
	ldrd	r2, [ip, #120]
	mov	fp, r3
	.loc 1 1079 0
	ldrb	r8, [r1, #1]	@ zero_extendqisi2
	.loc 1 1080 0
	ldrb	r3, [r1, #2]	@ zero_extendqisi2
	ldrb	r7, [r1, #3]	@ zero_extendqisi2
	.loc 1 1089 0
	orr	r10, r2, #2
	.loc 1 1079 0
	ldrb	r2, [r1]	@ zero_extendqisi2
	.loc 1 1080 0
	orr	r7, r3, r7, asl #8
	.loc 1 1079 0
	orr	r8, r2, r8, asl #8
	mov	r8, r8, asl #16
.LVL48:
	.loc 1 1080 0
	mov	r7, r7, asl #16
.LVL49:
	.loc 1 1090 0
	mov	r2, r7
	.loc 1 1089 0
	strd	r10, [ip, #120]
	mov	r4, r1
	mov	r5, r0
	.loc 1 1090 0
	mov	r1, r8
.LVL50:
	mov	r0, ip
.LVL51:
	bl	P_CheckPosition
.LVL52:
	.loc 1 1091 0
	ldr	ip, [r6, r9]
	.loc 1 1092 0
	cmp	r0, #0
	.loc 1 1091 0
	ldrd	r2, [ip, #120]
	bic	r2, r2, #2
	strd	r2, [ip, #120]
	.loc 1 1092 0
	beq	.L72
	.loc 1 1099 0
	ldr	r9, .L118+4
	ldr	r1, [r9]
	cmp	r1, #0
	ble	.L73
.LBB42:
	.loc 1 1102 0
	ldr	r10, .L118+8
	ldr	r3, [r10, #2120]
	cmp	r1, r3
	bgt	.L114
.LVL53:
.L74:
	.loc 1 1109 0
	ldr	fp, .L118+12
	ldr	r0, [fp]
	cmp	r0, r1
	bge	.L115
.L75:
	.loc 1 1111 0
	mov	r3, #284
	mul	r5, r3, r5
.LVL54:
	add	r3, r0, #1
	str	r3, [fp]
	bl	__aeabi_idivmod
.LVL55:
	ldr	r5, [r6, r5]
	ldr	r3, [r10, #2124]
	str	r5, [r3, r1, asl #2]
.L76:
.LBE42:
	.loc 1 1118 0
	mov	r1, r7
	mov	r0, r8
	bl	R_PointInSubsector
.LVL56:
.LBB43:
	.loc 1 1131 0
	ldr	r2, .L118+16
.LBE43:
	.loc 1 1118 0
	mov	r5, r0
.LVL57:
.LBB44:
	.loc 1 1131 0
	ldrb	r0, [r2]	@ zero_extendqisi2
.LVL58:
	.loc 1 1127 0
	ldrb	r3, [r4, #4]	@ zero_extendqisi2
	.loc 1 1131 0
	cmp	r0, #15
	cmpne	r0, #4
	.loc 1 1127 0
	ldrb	r2, [r4, #5]	@ zero_extendqisi2
	ldr	r1, .L118+20
	orr	r2, r3, r2, asl #8
	sxth	r2, r2
	smull	r3, r1, r1, r2
	mov	r3, r2, asr #31
	add	r1, r1, r2
	rsb	r1, r3, r1, asr #5
	mov	r1, r1, asl #29
	mov	r1, r1, asr #19
.LVL59:
	.loc 1 1128 0
	ldr	r3, .L118+24
	add	r2, r1, #2048
	ldr	r9, [r3, r2, asl #2]
.LVL60:
	.loc 1 1129 0
	ldr	r4, [r3, r1, asl #2]
.LVL61:
	.loc 1 1131 0
	bhi	.L77
	.loc 1 1132 0
	cmp	r1, #0
	beq	.L77
	bgt	.L79
	cmn	r1, #3072
	beq	.L80
	ble	.L116
	cmn	r1, #2048
	beq	.L83
	cmn	r1, #1024
	bne	.L78
	.loc 1 1143 0
	ldr	r2, .L118+28
	.loc 1 1142 0
	add	r3, r3, #4096
	ldr	r9, [r3]
.LVL62:
	.loc 1 1143 0
	ldr	r4, [r2]
.LVL63:
.L77:
	.loc 1 1153 0
	ldr	r3, [r5]
	add	r0, r9, r9, asl #2
	add	r1, r4, r4, asl #2
	ldr	r2, [r3, #12]
	add	r0, r8, r0, asl #2
	mov	r3, #39
	add	r1, r7, r1, asl #2
	bl	P_SpawnMobj
.LVL64:
	.loc 1 1155 0
	mov	r2, #284
	ldr	r3, .L118+32
	ldr	r3, [r3]
	mla	r6, r2, r3, r6
	ldr	r3, [r6, #16]
	cmp	r3, #1
	beq	.L112
	.loc 1 1156 0
	mov	r1, #35
	bl	S_StartSound
.LVL65:
.L112:
.LBE44:
	.loc 1 1159 0
	mov	r0, #1
	.loc 1 1160 0
	ldmfd	sp!, {r3, r4, r5, r6, r7, r8, r9, r10, fp, pc}
.LVL66:
.L113:
	.loc 1 1072 0 discriminator 1
	cmp	r0, #0
	ble	.L112
	.loc 1 1072 0 is_stmt 0
	mov	r3, ip
	mov	r2, ip
	ldrb	r5, [r1, #1]	@ zero_extendqisi2
	ldrb	ip, [r1]	@ zero_extendqisi2
	orr	r5, ip, r5, asl #8
	mov	r5, r5, asl #16
	b	.L70
.LVL67:
.L69:
	.loc 1 1072 0 discriminator 2
	cmp	r2, r0
	beq	.L112
.LVL68:
.L70:
	.loc 1 1073 0 is_stmt 1
	ldr	ip, [r6, r3]
	.loc 1 1072 0
	add	r2, r2, #1
.LVL69:
	.loc 1 1073 0
	ldr	lr, [ip, #24]
	add	r3, r3, #284
	cmp	lr, r5
	bne	.L69
	.loc 1 1074 0
	ldrb	lr, [r1, #2]	@ zero_extendqisi2
	ldrb	r7, [r1, #3]	@ zero_extendqisi2
	ldr	r4, [ip, #28]
	orr	ip, lr, r7, asl #8
	cmp	r4, ip, asl #16
	bne	.L69
.LVL70:
.L72:
	.loc 1 1075 0
	mov	r0, #0
	ldmfd	sp!, {r3, r4, r5, r6, r7, r8, r9, r10, fp, pc}
.LVL71:
.L73:
	.loc 1 1114 0
	bne	.L76
	.loc 1 1115 0
	mov	r0, ip
.LVL72:
	bl	P_RemoveMobj
.LVL73:
	b	.L76
.L115:
.LBB45:
	.loc 1 1110 0
	bl	__aeabi_idivmod
.LVL74:
	ldr	r3, [r10, #2124]
	ldr	r0, [r3, r1, asl #2]
	bl	P_RemoveMobj
.LVL75:
	ldr	r1, [r9]
	ldr	r0, [fp]
	b	.L75
.LVL76:
.L114:
	.loc 1 1104 0
	mov	r1, r1, asl #2
	mov	r2, #1
	mov	r3, #0
	ldr	r0, [r10, #2124]
.LVL77:
	bl	Z_Realloc
.LVL78:
	mov	ip, r0
	.loc 1 1105 0
	ldr	r2, [r10, #2120]
	.loc 1 1106 0
	ldr	r3, [r9]
	.loc 1 1105 0
	add	r0, r0, r2, asl #2
	.loc 1 1106 0
	rsb	r2, r2, r3
	.loc 1 1105 0
	mov	r1, #0
	mov	r2, r2, asl #2
	.loc 1 1104 0
	str	ip, [r10, #2124]
	.loc 1 1105 0
	bl	memset
.LVL79:
	.loc 1 1107 0
	ldr	r1, [r9]
	str	r1, [r10, #2120]
	b	.L74
.LVL80:
.L79:
.LBE45:
.LBB46:
	.loc 1 1132 0
	cmp	r1, #2048
	beq	.L77
	ble	.L117
	cmp	r1, #3072
	beq	.L77
.L78:
	.loc 1 1150 0
	ldr	r0, .L118+36
	bl	I_Error
.LVL81:
	b	.L77
.LVL82:
.L83:
	.loc 1 1140 0
	ldr	r2, .L118+40
	.loc 1 1139 0
	ldr	r9, [r3]
.LVL83:
	.loc 1 1140 0
	ldr	r4, [r2]
.LVL84:
	.loc 1 1141 0
	b	.L77
.L116:
	.loc 1 1132 0
	cmn	r1, #4096
	bne	.L78
	.loc 1 1133 0
	ldr	r3, .L118+44
	add	r2, r3, #8192
	ldr	r9, [r2]
.LVL85:
	.loc 1 1134 0
	ldr	r4, [r3]
.LVL86:
	.loc 1 1135 0
	b	.L77
.L80:
	.loc 1 1136 0
	ldr	r3, .L118+28
	.loc 1 1137 0
	sub	r2, r3, #8192
	ldr	r4, [r2]
.LVL87:
	.loc 1 1136 0
	ldr	r9, [r3]
.LVL88:
	.loc 1 1138 0
	b	.L77
.L117:
	.loc 1 1132 0
	cmp	r1, #1024
	bne	.L78
	b	.L77
.L119:
	.align	2
.L118:
	.word	players
	.word	bodyquesize
	.word	.LANCHOR0
	.word	bodyqueslot
	.word	compatibility_level
	.word	-1240768329
	.word	finesine
	.word	finetangent+12288
	.word	consoleplayer
	.word	.LC7
	.word	finetangent+8192
	.word	finetangent
.LBE46:
	.cfi_endproc
.LFE16:
	.size	G_CheckSpot, .-G_CheckSpot
	.align	2
	.type	G_LoadGameErr, %function
G_LoadGameErr:
.LFB28:
	.loc 1 1529 0
	.cfi_startproc
	@ args = 0, pretend = 0, frame = 0
	@ frame_needed = 0, uses_anonymous_args = 0
.LVL89:
	stmfd	sp!, {r3, r4, r5, lr}
	.cfi_def_cfa_offset 16
	.cfi_offset 3, -16
	.cfi_offset 4, -12
	.cfi_offset 5, -8
	.cfi_offset 14, -4
	.loc 1 1529 0
	mov	r5, r0
	.loc 1 1530 0
	ldr	r4, .L126
	ldr	r0, [r4, #2128]
.LVL90:
	bl	Z_Free
.LVL91:
	.loc 1 1531 0
	mov	r0, r5
	bl	M_ForcedLoadGame
.LVL92:
	.loc 1 1532 0
	ldr	r3, [r4, #2132]
	cmp	r3, #0
	ldmeqfd	sp!, {r3, r4, r5, pc}
	.loc 1 1534 0
	bl	D_StartTitle
.LVL93:
	.loc 1 1535 0
	mov	r2, #3
	ldr	r3, .L126+4
	strb	r2, [r3]
	ldmfd	sp!, {r3, r4, r5, pc}
.L127:
	.align	2
.L126:
	.word	.LANCHOR0
	.word	gamestate
	.cfi_endproc
.LFE28:
	.size	G_LoadGameErr, .-G_LoadGameErr
	.align	2
	.type	CheckForOverrun.part.0, %function
CheckForOverrun.part.0:
.LFB54:
	.loc 1 2663 0
	.cfi_startproc
	@ args = 0, pretend = 0, frame = 0
	@ frame_needed = 0, uses_anonymous_args = 0
.LVL94:
	.loc 1 2668 0
	cmp	r0, #0
	bne	.L133
	.loc 1 2671 0
	mov	r0, #1
.LVL95:
	bx	lr
.LVL96:
.L133:
	.loc 1 2663 0
	stmfd	sp!, {r3, lr}
	.cfi_def_cfa_offset 8
	.cfi_offset 3, -8
	.cfi_offset 14, -4
	.loc 1 2669 0
	ldr	r0, .L134
.LVL97:
	bl	I_Error
.LVL98:
	.loc 1 2673 0
	mov	r0, #0
	ldmfd	sp!, {r3, pc}
.L135:
	.align	2
.L134:
	.word	.LC8
	.cfi_endproc
.LFE54:
	.size	CheckForOverrun.part.0, .-CheckForOverrun.part.0
	.align	2
	.type	G_ChangedPlayerColour.part.1, %function
G_ChangedPlayerColour.part.1:
.LFB55:
	.loc 1 991 0
	.cfi_startproc
	@ args = 0, pretend = 0, frame = 0
	@ frame_needed = 0, uses_anonymous_args = 0
.LVL99:
	stmfd	sp!, {r3, r4, r5, r6, r7, lr}
	.cfi_def_cfa_offset 24
	.cfi_offset 3, -24
	.cfi_offset 4, -20
	.cfi_offset 5, -16
	.cfi_offset 6, -12
	.cfi_offset 7, -8
	.cfi_offset 14, -4
	.loc 1 997 0
	ldr	r3, .L147
	.loc 1 1003 0
	ldr	r4, .L147+4
	.loc 1 997 0
	str	r1, [r3, r0, asl #2]
	.loc 1 1000 0
	bl	R_InitTranslationTables
.LVL100:
	mov	r2, #0
	.loc 1 1002 0
	mov	r3, r2
	ldr	r1, .L147+8
	.loc 1 1003 0
	ldr	r5, .L147+12
	ldrb	ip, [r1]	@ zero_extendqisi2
	.loc 1 1005 0
	ldr	r6, .L147+16
.LVL101:
.L138:
	.loc 1 1003 0
	cmp	ip, #0
	bne	.L137
	ldr	r1, [r4, r3, asl #2]
	cmp	r1, #0
	beq	.L137
	ldr	lr, [r2, r5]
	cmp	lr, #0
	beq	.L137
	.loc 1 1004 0
	ldrd	r0, [lr, #120]
	.loc 1 1005 0
	ldrb	r7, [r3, r6]	@ zero_extendqisi2
	.loc 1 1004 0
	bic	r0, r0, #201326592
	.loc 1 1005 0
	mov	r7, r7, asl #26
	orr	r0, r0, r7
	orr	r1, r1, r7, asr #31
	strd	r0, [lr, #120]
.L137:
	.loc 1 1002 0
	add	r3, r3, #1
.LVL102:
	cmp	r3, #4
	add	r2, r2, #284
	bne	.L138
	.loc 1 1008 0
	ldmfd	sp!, {r3, r4, r5, r6, r7, pc}
.L148:
	.align	2
.L147:
	.word	mapcolor_plyr
	.word	playeringame
	.word	gamestate
	.word	players
	.word	playernumtotrans
	.cfi_endproc
.LFE55:
	.size	G_ChangedPlayerColour.part.1, .-G_ChangedPlayerColour.part.1
	.align	2
	.global	G_BuildTiccmd
	.type	G_BuildTiccmd, %function
G_BuildTiccmd:
.LFB7:
	.loc 1 291 0
	.cfi_startproc
	@ args = 0, pretend = 0, frame = 8
	@ frame_needed = 0, uses_anonymous_args = 0
.LVL103:
	stmfd	sp!, {r4, r5, r6, r7, r8, r9, r10, fp, lr}
	.cfi_def_cfa_offset 36
	.cfi_offset 4, -36
	.cfi_offset 5, -32
	.cfi_offset 6, -28
	.cfi_offset 7, -24
	.cfi_offset 8, -20
	.cfi_offset 9, -16
	.cfi_offset 10, -12
	.cfi_offset 11, -8
	.cfi_offset 14, -4
	mov	r5, r0
	.loc 1 300 0
	mov	r0, #0
.LVL104:
	mov	r3, r5
	strb	r0, [r3], #1
	add	r3, r3, #1
	strb	r0, [r5, #1]
	.loc 1 301 0
	ldr	r2, .L319
	.loc 1 300 0
	strb	r0, [r3], #1
	strb	r0, [r3], #1
	.loc 1 301 0
	ldr	r2, [r2]
	ldr	r1, .L319+4
	ldr	r9, .L319+8
	smull	ip, r1, r1, r2
	mov	ip, r2, asr #31
	.loc 1 300 0
	strb	r0, [r3], #1
	.loc 1 301 0
	rsb	r1, ip, r1, asr #1
	.loc 1 306 0
	ldr	lr, .L319+12
	.loc 1 301 0
	ldr	ip, [r9]
	.loc 1 300 0
	strb	r0, [r3], #1
	.loc 1 301 0
	add	r1, r1, r1, asl #1
	.loc 1 300 0
	strb	r0, [r3], #1
	.loc 1 301 0
	sub	r1, r2, r1, asl #2
	ldr	r4, .L319+16
	add	r2, ip, ip, asl #1
	.loc 1 306 0
	ldr	ip, [lr]
	.loc 1 300 0
	strb	r0, [r3]
	.loc 1 301 0
	add	r2, r1, r2, asl #2
	ldr	r3, .L319+20
	.loc 1 306 0
	ldr	r1, [r4, ip, asl #2]
	.loc 1 301 0
	mov	r2, r2, asl #1
	ldrh	r3, [r3, r2]
	.loc 1 306 0
	cmp	r1, r0
	.loc 1 291 0
	sub	sp, sp, #12
	.cfi_def_cfa_offset 48
	.loc 1 301 0
	strh	r3, [r5, #4]	@ movhi
.LVL105:
	.loc 1 306 0
	bne	.L150
	.loc 1 306 0 is_stmt 0 discriminator 2
	ldr	r3, .L319+24
	ldr	r3, [r3]
	add	r3, r4, r3, asl #2
	ldr	r3, [r3, #2088]
	cmp	r3, r0
	beq	.L151
.L150:
	.loc 1 306 0 discriminator 3
	ldr	r7, [r4, #2232]
	clz	r7, r7
	mov	r7, r7, lsr #5
.L152:
.LVL106:
	.loc 1 312 0 is_stmt 1 discriminator 6
	ldr	r2, [r4, #2052]
	ldr	r0, .L319+16
	cmp	r2, #0
	ldr	r3, .L319+28
	bne	.L155
	.loc 1 313 0 discriminator 1
	ldr	r1, [r3]
	.loc 1 312 0 discriminator 1
	ldr	ip, [r0, r1, asl #2]
	cmp	ip, #0
	beq	.L312
.L155:
	ldr	r0, .L319+32
	ldr	r1, [r3]
	ldr	ip, [r0]
.L154:
	.loc 1 314 0
	ldr	r0, .L319+36
	ldr	r3, [r4, #2236]
	ldr	r0, [r0]
	add	r3, r3, r0
	.loc 1 319 0
	cmp	r3, #5
	.loc 1 314 0
	str	r3, [r4, #2236]
	.loc 1 319 0
	movgt	r3, r7
	movle	r3, #2
.L157:
.LVL107:
	.loc 1 325 0
	ldr	r0, .L319+40
	ldr	r6, .L319+16
	ldr	r0, [r0]
	.loc 1 347 0
	ldr	fp, .L319+44
	.loc 1 325 0
	ldr	lr, [r4, r0, asl #2]
	cmp	lr, #0
	.loc 1 328 0
	movne	r8, #0
	.loc 1 327 0
	ldrneh	lr, [r5, #2]
	subne	lr, lr, #32768
	strneh	lr, [r5, #2]	@ movhi
	.loc 1 328 0
	strne	r8, [r6, r0, asl #2]
	.loc 1 346 0
	ldr	r1, [r4, r1, asl #2]
	cmp	r1, #0
	.loc 1 347 0
	ldrne	r0, [fp, r3, asl #2]
	ldrneh	r1, [r5, #2]
	rsbne	r1, r0, r1
	strneh	r1, [r5, #2]	@ movhi
	.loc 1 348 0
	ldr	r1, [r4, ip, asl #2]
	cmp	r1, #0
	.loc 1 349 0
	ldrne	r1, [fp, r3, asl #2]
	ldrneh	r0, [r5, #2]
	addne	r1, r1, r0
	strneh	r1, [r5, #2]	@ movhi
	.loc 1 350 0
	cmp	r2, #0
	ble	.L161
	.loc 1 351 0
	ldr	r2, [fp, r3, asl #2]
	ldrh	r3, [r5, #2]
.LVL108:
	rsb	r3, r2, r3
	strh	r3, [r5, #2]	@ movhi
.L162:
	.loc 1 356 0
	ldr	r3, .L319+48
	ldr	r3, [r3]
	ldr	r3, [r4, r3, asl #2]
	cmp	r3, #0
	.loc 1 357 0
	addne	r3, fp, r7, asl #2
	ldrne	r8, [r3, #12]
.LVL109:
	.loc 1 308 0
	moveq	r8, r3
.LVL110:
	.loc 1 358 0
	ldr	r3, .L319+52
	ldr	r3, [r3]
	ldr	r3, [r4, r3, asl #2]
	cmp	r3, #0
	.loc 1 359 0
	addne	r3, fp, r7, asl #2
	ldrne	r3, [r3, #12]
	rsbne	r8, r3, r8
.LVL111:
	.loc 1 360 0
	ldr	r3, [r4, #2048]
	cmp	r3, #0
	blt	.L313
	.loc 1 363 0
	addne	r3, fp, r7, asl #2
	ldrne	r3, [r3, #12]
	rsbne	r8, r3, r8
.LVL112:
.L166:
	.loc 1 364 0
	ldr	r3, .L319+56
	ldr	r3, [r3]
	ldr	r10, [r4, r3, asl #2]
	cmp	r10, #0
	.loc 1 365 0
	addne	r3, fp, r7, asl #2
	ldrne	r10, [r3, #20]
.LVL113:
	.loc 1 366 0
	ldr	r3, .L319+60
	ldr	r3, [r3]
	ldr	r3, [r4, r3, asl #2]
	cmp	r3, #0
	.loc 1 367 0
	addne	r3, fp, r7, asl #2
	ldrne	r3, [r3, #20]
	rsbne	r10, r3, r10
.LVL114:
	.loc 1 370 0
	bl	HU_dequeueChatChar
.LVL115:
	.loc 1 372 0
	ldr	r3, .L319+64
	.loc 1 370 0
	strb	r0, [r5, #6]
	.loc 1 372 0
	ldr	r2, [r3]
	ldr	r3, .L319+16
	ldr	r2, [r4, r2, asl #2]
	cmp	r2, #0
	bne	.L169
	.loc 1 372 0 is_stmt 0 discriminator 1
	ldr	r2, .L319+68
	ldr	r2, [r2]
	add	r2, r3, r2, asl #2
	ldr	r2, [r2, #2072]
	cmp	r2, #0
	beq	.L314
.L169:
	.loc 1 374 0 is_stmt 1
	ldrb	r3, [r5, #7]	@ zero_extendqisi2
	orr	r3, r3, #1
	strb	r3, [r5, #7]
.L170:
	.loc 1 376 0
	ldr	r2, .L319+72
	ldr	r3, .L319+16
	ldr	r2, [r2]
	ldr	r2, [r4, r2, asl #2]
	cmp	r2, #0
	bne	.L171
	.loc 1 376 0 is_stmt 0 discriminator 1
	ldr	r2, .L319+76
	ldr	r2, [r2]
	add	r2, r3, r2, asl #2
	ldr	r2, [r2, #2072]
	cmp	r2, #0
	beq	.L315
.L171:
	.loc 1 381 0 is_stmt 1
	mov	r2, #0
	.loc 1 379 0
	ldrb	r3, [r5, #7]	@ zero_extendqisi2
	.loc 1 381 0
	str	r2, [r4, #2240]
	.loc 1 379 0
	orr	r3, r3, #2
	strb	r3, [r5, #7]
.L172:
	.loc 1 395 0
	ldr	r6, .L319+80
	ldrb	r3, [r6]	@ zero_extendqisi2
	cmp	r3, #6
	bls	.L176
	.loc 1 395 0 is_stmt 0 discriminator 1
	mov	r0, #284
	ldr	r3, [r9]
	ldr	r2, .L319+84
	mla	r0, r0, r3, r2
	ldr	r3, [r0, #192]
	cmp	r3, #0
	bne	.L316
.L176:
	.loc 1 396 0 is_stmt 1
	ldr	r3, .L319+88
	ldr	r2, .L319+16
	ldr	r3, [r3]
	ldr	r1, [r4, r3, asl #2]
	cmp	r1, #0
	beq	.L306
	ldr	r2, .L319+84
.L174:
	.loc 1 397 0
	mov	r0, #284
	ldr	r3, [r9]
	mla	r0, r0, r3, r2
	bl	P_SwitchWeapon
.LVL116:
	.loc 1 455 0
	cmp	r0, #10
	beq	.L188
.LVL117:
.L217:
	mov	r1, r0, asl #3
	uxtb	r1, r1
.LVL118:
.L216:
	.loc 1 457 0
	ldrb	r0, [r5, #7]	@ zero_extendqisi2
	orr	r0, r0, #4
	.loc 1 458 0
	orr	r1, r1, r0
	strb	r1, [r5, #7]
.L188:
	.loc 1 462 0
	ldr	r3, .L319+92
	ldr	r3, [r3]
	add	r3, r4, r3, asl #2
	ldr	r2, [r3, #2072]
	cmp	r2, #0
	.loc 1 463 0
	addne	r3, fp, r7, asl #2
	ldrne	r3, [r3, #12]
	addne	r8, r8, r3
.LVL119:
	.loc 1 464 0
	ldr	r3, .L319+96
	ldr	r3, [r3]
	add	r3, r4, r3, asl #2
	ldr	r3, [r3, #2072]
	cmp	r3, #0
	.loc 1 465 0
	addne	r7, fp, r7, asl #2
.LVL120:
	ldrne	r3, [r7, #12]
	rsbne	r8, r3, r8
.LVL121:
	.loc 1 468 0
	ldr	r3, .L319+100
	ldr	r1, [r3]
	cmp	r1, #0
	beq	.L191
	.loc 1 468 0 is_stmt 0 discriminator 1
	ldr	r3, [r4, #2244]
	.loc 1 469 0 is_stmt 1 discriminator 1
	ldr	r0, .L319+16
	.loc 1 468 0 discriminator 1
	cmp	r2, r3
	beq	.L191
	.loc 1 469 0
	ldr	r3, [r0, #2248]
	cmp	r3, #1
	ble	.L192
	.loc 1 473 0
	ldr	r3, [r0, #2240]
	.loc 1 472 0
	cmp	r2, #0
	.loc 1 473 0
	addne	r3, r3, #1
	strne	r3, [r0, #2240]
	.loc 1 474 0
	cmp	r3, #2
	.loc 1 480 0
	movne	r3, #0
	.loc 1 471 0
	str	r2, [r0, #2244]
	.loc 1 477 0
	moveq	r2, #0
	.loc 1 476 0
	ldreqb	r3, [r5, #7]	@ zero_extendqisi2
	.loc 1 480 0
	strne	r3, [r4, #2248]
	.loc 1 476 0
	orreq	r3, r3, #2
	streqb	r3, [r5, #7]
	.loc 1 491 0
	ldr	r3, .L319+104
	.loc 1 477 0
	streq	r2, [r4, #2240]
	.loc 1 491 0
	ldr	r3, [r3]
	add	r3, r4, r3, asl #2
	ldr	r3, [r3, #2072]
	cmp	r3, #0
	bne	.L243
.L221:
	.loc 1 491 0 is_stmt 0 discriminator 2
	ldr	r3, .L319+108
	ldr	r3, [r3]
	add	r3, r4, r3, asl #2
	ldr	r2, [r3, #2088]
	adds	r2, r2, #0
	movne	r2, #1
.L198:
.LVL122:
	.loc 1 492 0 is_stmt 1 discriminator 6
	cmp	r1, #0
	beq	.L199
.LVL123:
.L220:
	.loc 1 492 0 is_stmt 0 discriminator 1
	ldr	r3, [r4, #2252]
	ldr	r1, .L319+16
	cmp	r2, r3
	beq	.L199
	.loc 1 492 0 discriminator 2
	ldr	r3, [r1, #2256]
	cmp	r3, #1
	ble	.L200
	.loc 1 496 0 is_stmt 1
	ldr	r3, [r1, #2260]
	.loc 1 495 0
	cmp	r2, #0
	.loc 1 496 0
	addne	r3, r3, #1
	strne	r3, [r1, #2260]
	.loc 1 497 0
	cmp	r3, #2
	.loc 1 494 0
	str	r2, [r1, #2252]
	.loc 1 503 0
	movne	r3, #0
	.loc 1 500 0
	moveq	r2, #0
.LVL124:
	.loc 1 499 0
	ldreqb	r3, [r5, #7]	@ zero_extendqisi2
	.loc 1 500 0
	streq	r2, [r4, #2260]
	.loc 1 499 0
	orreq	r3, r3, #2
	streqb	r3, [r5, #7]
	.loc 1 503 0
	strne	r3, [r4, #2256]
.LVL125:
.L204:
	.loc 1 517 0
	mov	ip, #0
	.loc 1 515 0
	ldrh	r3, [r5, #2]
	.loc 1 511 0
	ldr	r2, [r4, #2056]
	.loc 1 515 0
	ldr	r0, [r4, #2060]
	.loc 1 519 0
	ldr	r1, [fp, #16]
	.loc 1 515 0
	rsb	r0, r0, r3
	.loc 1 511 0
	add	r3, r8, r2
.LVL126:
	.loc 1 519 0
	cmp	r3, r1
	.loc 1 515 0
	uxth	r2, r0
	strh	r2, [r5, #2]	@ movhi
	.loc 1 517 0
	str	ip, [r4, #2056]
	str	ip, [r4, #2060]
	movgt	r3, r1
.LVL127:
	.loc 1 519 0
	bgt	.L205
	.loc 1 521 0
	rsb	r0, r1, #0
	cmp	r3, r0
	movlt	r3, r0
.L205:
.LVL128:
	.loc 1 523 0
	cmp	r10, r1
	bgt	.L206
	.loc 1 525 0
	rsb	r1, r1, #0
	cmp	r10, r1
	movge	r1, r10
.L206:
.LVL129:
.LBB52:
.LBB53:
	.loc 1 276 0
	ands	r3, r3, #255
.LVL130:
	beq	.L207
	ldrb	r0, [r6]	@ zero_extendqisi2
	cmp	r0, #6
	bhi	.L207
	ldr	r0, .L319+112
	ldr	r0, [r0]
	cmp	r0, #0
	bne	.L207
	.loc 1 277 0
	ldr	r0, [r4, #2264]
	add	r0, r0, #1
	tst	r0, #31
	str	r0, [r4, #2264]
	bne	.L207
	.loc 1 278 0
	orr	r3, r3, #1
.LVL131:
	sxtb	r0, r3
	cmp	r0, #2
.LVL132:
	subgt	r3, r3, #2
.LVL133:
	uxtb	r3, r3
.LVL134:
.L207:
.LBE53:
.LBE52:
	.loc 1 528 0
	ldrb	ip, [r5]	@ zero_extendqisi2
	.loc 1 529 0
	ldrb	r0, [r5, #1]	@ zero_extendqisi2
	.loc 1 528 0
	add	r3, r3, ip
	.loc 1 529 0
	add	r1, r1, r0
.LVL135:
.LBB54:
.LBB55:
	.loc 1 284 0
	cmp	r2, #0
.LBE55:
.LBE54:
	.loc 1 528 0
	strb	r3, [r5]
	.loc 1 529 0
	strb	r1, [r5, #1]
.LVL136:
.LBB58:
.LBB56:
	.loc 1 284 0
	beq	.L212
	ldrb	r3, [r6]	@ zero_extendqisi2
	cmp	r3, #6
	bhi	.L212
	ldr	r3, .L319+112
	ldr	r3, [r3]
	cmp	r3, #0
	bne	.L317
.LVL137:
.L212:
.LBE56:
.LBE58:
	.loc 1 533 0
	ldrb	r3, [r4, #2064]	@ zero_extendqisi2
	.loc 1 530 0
	strh	r2, [r5, #2]	@ movhi
	.loc 1 533 0
	tst	r3, #128
	.loc 1 535 0
	movne	r1, #0
	.loc 1 533 0
	ldr	r2, .L319+16
	.loc 1 534 0
	strneb	r3, [r5, #7]
	.loc 1 535 0
	strneb	r1, [r2, #2064]
	.loc 1 537 0
	add	sp, sp, #12
	.cfi_remember_state
	.cfi_def_cfa_offset 36
	@ sp needed
	ldmfd	sp!, {r4, r5, r6, r7, r8, r9, r10, fp, pc}
.LVL138:
.L306:
	.cfi_restore_state
	.loc 1 401 0
	ldr	r3, .L319+116
	ldr	r3, [r3]
	ldr	r3, [r2, r3, asl #2]
	cmp	r3, #0
	bne	.L178
	.loc 1 402 0
	ldr	r3, .L319+120
	ldr	r3, [r3]
	ldr	r3, [r2, r3, asl #2]
	cmp	r3, #0
	bne	.L225
	.loc 1 403 0
	ldr	r3, .L319+124
	ldr	r3, [r3]
	ldr	r3, [r2, r3, asl #2]
	cmp	r3, #0
	bne	.L180
	.loc 1 404 0
	ldr	r3, .L319+128
	ldr	r3, [r3]
	ldr	r3, [r2, r3, asl #2]
	cmp	r3, #0
	bne	.L226
	.loc 1 405 0
	ldr	r3, .L319+132
	ldr	r3, [r3]
	ldr	r3, [r2, r3, asl #2]
	cmp	r3, #0
	bne	.L227
	.loc 1 406 0
	ldr	r3, .L319+136
	ldr	r3, [r3]
	ldr	r3, [r2, r3, asl #2]
	cmp	r3, #0
	beq	.L181
	.loc 1 406 0 is_stmt 0 discriminator 1
	ldr	r3, .L319+140
	ldrb	r3, [r3]	@ zero_extendqisi2
	cmp	r3, #0
	movne	r0, #5
	bne	.L217
.L182:
	.loc 1 408 0 is_stmt 1
	ldr	r3, .L319+144
	ldr	r2, .L319+16
	ldr	r3, [r3]
	ldr	r3, [r4, r3, asl #2]
	cmp	r3, #0
	bne	.L229
	.loc 1 409 0
	ldrb	r3, [r6]	@ zero_extendqisi2
	cmp	r3, #6
	bls	.L188
	.loc 1 409 0 is_stmt 0 discriminator 1
	ldr	r3, .L319+148
	ldr	r3, [r3]
	ldr	r3, [r2, r3, asl #2]
	cmp	r3, #0
	beq	.L188
	.loc 1 409 0 discriminator 3
	ldr	r3, .L319+140
	ldrb	r3, [r3]	@ zero_extendqisi2
	cmp	r3, #2
	bne	.L188
	.loc 1 409 0
	mov	r0, #8
.LVL139:
	b	.L217
.LVL140:
.L312:
	.loc 1 313 0 is_stmt 1
	ldr	r3, .L319+32
	ldr	ip, [r3]
	ldr	r3, [r0, ip, asl #2]
	cmp	r3, #0
	.loc 1 319 0
	moveq	r3, #2
	.loc 1 316 0
	streq	r2, [r0, #2236]
	.loc 1 313 0
	beq	.L157
	b	.L154
.LVL141:
.L315:
	.loc 1 377 0 discriminator 2
	ldr	r2, .L319+152
	ldr	r2, [r2]
	add	r3, r3, r2, asl #2
	.loc 1 376 0 discriminator 2
	ldr	r3, [r3, #2088]
	cmp	r3, #0
	beq	.L172
	b	.L171
.L314:
	.loc 1 373 0 discriminator 2
	ldr	r2, .L319+156
	ldr	r2, [r2]
	add	r3, r3, r2, asl #2
	.loc 1 372 0 discriminator 2
	ldr	r3, [r3, #2088]
	cmp	r3, #0
	beq	.L170
	b	.L169
.LVL142:
.L151:
	.loc 1 306 0 discriminator 4
	ldr	r7, [r4, #2232]
	b	.L152
.LVL143:
.L199:
	ldr	r3, [r4, #2256]
.L200:
	.loc 1 506 0
	ldr	r2, .L319+36
.LVL144:
	ldr	r1, .L319+16
	ldr	r2, [r2]
	add	r3, r3, r2
	cmp	r3, #20
	str	r3, [r4, #2256]
	.loc 1 508 0
	movgt	r3, #0
	strgt	r3, [r1, #2260]
	.loc 1 509 0
	strgt	r3, [r1, #2252]
	b	.L204
.L191:
	ldr	r3, [r4, #2248]
.L192:
	.loc 1 483 0
	ldr	r2, .L319+36
	ldr	r0, .L319+16
	ldr	r2, [r2]
	add	r3, r3, r2
	cmp	r3, #20
	str	r3, [r4, #2248]
	.loc 1 485 0
	movgt	r3, #0
	strgt	r3, [r0, #2240]
	.loc 1 486 0
	strgt	r3, [r0, #2244]
	.loc 1 491 0
	ldr	r3, .L319+104
	ldr	r3, [r3]
	add	r3, r4, r3, asl #2
	ldr	r3, [r3, #2072]
	cmp	r3, #0
	movne	r2, #1
	bne	.L198
	b	.L221
.LVL145:
.L313:
	.loc 1 361 0
	add	r3, fp, r7, asl #2
	ldr	r3, [r3, #12]
	add	r8, r8, r3
.LVL146:
	b	.L166
.LVL147:
.L161:
	.loc 1 353 0
	ldrne	r3, [fp, r3, asl #2]
.LVL148:
	ldrneh	r2, [r5, #2]
	addne	r3, r3, r2
	strneh	r3, [r5, #2]	@ movhi
	b	.L162
.LVL149:
.L178:
	.loc 1 423 0
	ldrb	r3, [r6]	@ zero_extendqisi2
	cmp	r3, #6
	bls	.L216
.LBB59:
	.loc 1 432 0
	mov	r0, #284
	.loc 1 425 0
	ldr	r3, [r9]
.LVL150:
	.loc 1 432 0
	ldr	r2, .L319+84
	mla	r2, r0, r3, r2
.LVL151:
	ldr	r3, [r2, #152]
	cmp	r3, #0
	bne	.L214
.LVL152:
.L184:
	.loc 1 437 0
	mov	r0, #0
	b	.L217
.LVL153:
.L316:
	str	r2, [sp, #4]
.LBE59:
	.loc 1 396 0 discriminator 2
	bl	P_CheckAmmo
.LVL154:
	.loc 1 395 0 discriminator 2
	cmp	r0, #0
	ldr	r2, [sp, #4]
	bne	.L176
	b	.L174
.LVL155:
.L243:
	.loc 1 491 0
	mov	r2, #1
	b	.L220
.LVL156:
.L317:
.LBB60:
.LBB57:
	.loc 1 285 0
	orr	r2, r2, #1
.LVL157:
	sxth	r3, r2
	cmp	r3, #2
	subgt	r2, r2, #2
.LVL158:
	uxthgt	r2, r2
.LVL159:
	b	.L212
.LVL160:
.L225:
.LBE57:
.LBE60:
	.loc 1 402 0
	mov	r0, #1
	b	.L217
.L180:
.LVL161:
	.loc 1 423 0
	ldrb	r3, [r6]	@ zero_extendqisi2
	cmp	r3, #6
	.loc 1 403 0
	movls	r0, #2
	.loc 1 423 0
	bls	.L217
.LBB61:
	.loc 1 444 0
	ldr	r3, .L319+140
	.loc 1 425 0
	ldr	r2, [r9]
.LVL162:
	.loc 1 444 0
	ldrb	r3, [r3]	@ zero_extendqisi2
	cmp	r3, #2
	beq	.L318
.LVL163:
.L186:
	mov	r1, #16
	b	.L216
.LVL164:
.L226:
.LBE61:
	.loc 1 404 0
	mov	r0, #3
	b	.L217
.LVL165:
.L214:
.LBB62:
	.loc 1 433 0 discriminator 2
	ldrb	r3, [r2, #120]	@ zero_extendqisi2
	.loc 1 432 0 discriminator 2
	cmp	r3, #7
	beq	.L184
	.loc 1 433 0
	cmp	r3, #0
	beq	.L229
	.loc 1 434 0
	ldr	r3, [r2, #56]
	.loc 1 437 0
	mov	r0, #7
	.loc 1 434 0
	cmp	r3, #0
	beq	.L217
	.loc 1 436 0
	bl	P_WeaponPreferred
.LVL166:
	.loc 1 435 0
	cmp	r0, #0
	beq	.L184
.LVL167:
.L229:
.LBE62:
	.loc 1 408 0
	mov	r0, #7
	b	.L217
.LVL168:
.L318:
.LBB63:
	.loc 1 445 0 discriminator 2
	mov	r1, #284
	ldr	r3, .L319+84
	mla	r3, r1, r2, r3
	.loc 1 444 0 discriminator 2
	ldr	r2, [r3, #156]
.LVL169:
	cmp	r2, #0
	beq	.L186
	.loc 1 445 0
	ldr	r2, [r3, #132]
	cmp	r2, #0
	beq	.L238
	.loc 1 447 0
	ldrb	r3, [r3, #120]	@ zero_extendqisi2
	.loc 1 446 0
	cmp	r3, #2
	beq	.L238
	.loc 1 447 0
	cmp	r3, #8
	beq	.L186
	.loc 1 449 0
	mov	r0, #8
	mov	r1, #2
	bl	P_WeaponPreferred
.LVL170:
	.loc 1 448 0
	cmp	r0, #0
	beq	.L186
.L238:
	mov	r1, #64
.LVL171:
	b	.L216
.L227:
.LBE63:
	.loc 1 405 0
	mov	r0, #4
	b	.L217
.L181:
	.loc 1 407 0
	ldr	r3, .L319+160
	ldr	r3, [r3]
	ldr	r3, [r2, r3, asl #2]
	cmp	r3, #0
	beq	.L182
	.loc 1 407 0 is_stmt 0 discriminator 1
	ldr	r3, .L319+140
	ldrb	r3, [r3]	@ zero_extendqisi2
	cmp	r3, #0
	beq	.L182
	.loc 1 407 0
	mov	r0, #6
	b	.L217
.L320:
	.align	2
.L319:
	.word	maketic
	.word	715827883
	.word	consoleplayer
	.word	key_speed
	.word	.LANCHOR0
	.word	.LANCHOR0+2136
	.word	joybspeed
	.word	key_right
	.word	key_left
	.word	ticdup
	.word	key_reverse
	.word	.LANCHOR1
	.word	key_up
	.word	key_down
	.word	key_straferight
	.word	key_strafeleft
	.word	key_fire
	.word	mousebfire
	.word	key_use
	.word	mousebuse
	.word	compatibility_level
	.word	players
	.word	key_weapontoggle
	.word	mousebforward
	.word	mousebbackward
	.word	mouse_double_click_use
	.word	mousebstrafe
	.word	joybstrafe
	.word	longtics
	.word	key_weapon1
	.word	key_weapon2
	.word	key_weapon3
	.word	key_weapon4
	.word	key_weapon5
	.word	key_weapon6
	.word	gamemode
	.word	key_weapon8
	.word	key_weapon9
	.word	joybuse
	.word	joybfire
	.word	key_weapon7
	.cfi_endproc
.LFE7:
	.size	G_BuildTiccmd, .-G_BuildTiccmd
	.align	2
	.global	G_RestartLevel
	.type	G_RestartLevel, %function
G_RestartLevel:
.LFB8:
	.loc 1 544 0 is_stmt 1
	.cfi_startproc
	@ args = 0, pretend = 0, frame = 0
	@ frame_needed = 0, uses_anonymous_args = 0
	@ link register save eliminated.
	.loc 1 545 0
	mvn	r2, #124
	ldr	r3, .L322
	strb	r2, [r3, #2064]
	bx	lr
.L323:
	.align	2
.L322:
	.word	.LANCHOR0
	.cfi_endproc
.LFE8:
	.size	G_RestartLevel, .-G_RestartLevel
	.align	2
	.global	G_Responder
	.type	G_Responder, %function
G_Responder:
.LFB11:
	.loc 1 650 0
	.cfi_startproc
	@ args = 0, pretend = 0, frame = 0
	@ frame_needed = 0, uses_anonymous_args = 0
.LVL172:
	.loc 1 656 0
	ldr	r2, .L384
	.loc 1 650 0
	stmfd	sp!, {r3, r4, r5, lr}
	.cfi_def_cfa_offset 16
	.cfi_offset 3, -16
	.cfi_offset 4, -12
	.cfi_offset 5, -8
	.cfi_offset 14, -4
	.loc 1 656 0
	ldr	r2, [r2]
	ldr	r3, [r0, #4]
	.loc 1 650 0
	mov	r4, r0
	.loc 1 656 0
	cmp	r3, r2
	beq	.L377
.L325:
	.loc 1 685 0
	ldr	r2, .L384+4
	ldrb	r2, [r2]	@ zero_extendqisi2
	cmp	r2, #0
	beq	.L378
.L336:
	ldr	r3, .L384+8
	ldrb	r2, [r3]	@ zero_extendqisi2
.L339:
	.loc 1 710 0
	cmp	r2, #2
	beq	.L346
.LVL173:
.L352:
	.loc 1 713 0
	ldrb	r3, [r4]	@ zero_extendqisi2
	cmp	r3, #3
	ldrls	pc, [pc, r3, asl #2]
	b	.L356
.L348:
	.word	.L347
	.word	.L349
	.word	.L350
	.word	.L351
.LVL174:
.L378:
	.loc 1 685 0 discriminator 1
	ldr	r2, .L384+12
	ldr	r2, [r2]
	cmp	r2, #0
	bne	.L337
.L354:
	.loc 1 685 0 is_stmt 0 discriminator 2
	ldr	r2, .L384+8
	ldrb	r2, [r2]	@ zero_extendqisi2
	cmp	r2, #3
	bne	.L339
	.loc 1 688 0 is_stmt 1
	ldrb	r2, [r4]	@ zero_extendqisi2
	cmp	r2, #0
	beq	.L379
.L342:
	.loc 1 703 0
	ldr	r1, .L384+16
	ldr	r1, [r1]
	.loc 1 702 0
	tst	r1, #2
	bne	.L356
	.loc 1 703 0
	ldr	r1, .L384+20
	ldrb	r1, [r1]	@ zero_extendqisi2
	tst	r1, #1
	bne	.L356
	.loc 1 703 0 is_stmt 0 discriminator 1
	cmp	r2, #0
	beq	.L344
	.loc 1 704 0 is_stmt 1
	cmp	r2, #2
	beq	.L380
	.loc 1 706 0
	sub	r2, r2, #3
	clz	r2, r2
	cmp	r3, #0
	mov	r2, r2, lsr #5
	moveq	r2, #0
	cmp	r2, #0
	beq	.L356
.L344:
	.loc 1 707 0
	bl	M_StartControlPanel
.LVL175:
	mov	r0, #1
	ldmfd	sp!, {r3, r4, r5, pc}
.LVL176:
.L337:
	.loc 1 688 0
	ldrb	r2, [r4]	@ zero_extendqisi2
	cmp	r2, #0
	bne	.L340
	.loc 1 688 0 is_stmt 0 discriminator 1
	ldr	r1, .L384+24
	ldr	r1, [r1]
	cmp	r3, r1
	beq	.L355
.L340:
	.loc 1 702 0 is_stmt 1
	ldr	r1, .L384+8
	.loc 1 707 0
	ldrb	r1, [r1]	@ zero_extendqisi2
	cmp	r1, #3
	beq	.L342
.LVL177:
.L356:
	.loc 1 757 0
	mov	r0, #0
	ldmfd	sp!, {r3, r4, r5, pc}
.LVL178:
.L377:
	.loc 1 656 0 discriminator 1
	ldr	r2, .L384+28
	ldr	r2, [r2]
	cmp	r2, #0
	beq	.L325
	.loc 1 656 0 is_stmt 0 discriminator 2
	ldr	r2, .L384+12
	ldr	r2, [r2]
	cmp	r2, #0
	bne	.L326
	.loc 1 656 0 discriminator 4
	ldr	r2, .L384+32
	ldr	r2, [r2]
	cmp	r2, #0
	bne	.L327
.L326:
	.loc 1 657 0 is_stmt 1 discriminator 5
	ldr	r2, .L384+8
	.loc 1 656 0 discriminator 5
	ldrb	r2, [r2]	@ zero_extendqisi2
	cmp	r2, #0
	bne	.L325
	.loc 1 659 0
	ldrb	r0, [r4]	@ zero_extendqisi2
.LVL179:
	cmp	r0, #1
	beq	.L381
	.loc 1 661 0
	cmp	r0, #0
	bne	.L375
	.loc 1 661 0 is_stmt 0 discriminator 1
	ldr	ip, .L384+36
	ldr	r2, [ip, r3, asl #2]
	cmp	r2, #0
	bne	.L375
	.loc 1 663 0 is_stmt 1
	mov	lr, #1
	.loc 1 667 0
	ldr	r1, .L384+40
	ldr	r4, .L384+44
.LVL180:
	ldr	r0, [r1]
	ldr	r2, [r4]
	ldr	r1, .L384+48
	.loc 1 663 0
	str	lr, [ip, r3, asl #2]
	b	.L334
.L333:
	.loc 1 667 0 discriminator 1
	cmp	r0, r2
	beq	.L382
.L334:
	.loc 1 665 0
	add	r2, r2, #1
	cmp	r2, #3
	movgt	r2, #0
	.loc 1 667 0
	ldr	r3, [r1, r2, asl #2]
	cmp	r3, #0
	beq	.L333
	str	r2, [r4]
.L335:
	.loc 1 669 0
	bl	ST_Start
.LVL181:
	.loc 1 670 0
	bl	HU_Start
.LVL182:
	.loc 1 671 0
	mov	r3, #284
	ldr	r1, [r4]
	ldr	r2, .L384+52
	mul	r3, r3, r1
	ldr	r0, [r2, r3]
	bl	S_UpdateSounds
.LVL183:
	.loc 1 672 0
	bl	R_ActivateSectorInterpolations
.LVL184:
	.loc 1 673 0
	mov	r0, #0
	bl	R_SmoothPlaying_Reset
.LVL185:
	.loc 1 675 0
	mov	r0, #1
	ldmfd	sp!, {r3, r4, r5, pc}
.LVL186:
.L351:
	.loc 1 746 0
	ldr	r2, [r4, #4]
	ldr	r3, .L384+36
	and	r2, r2, #1
	str	r2, [r3, #2088]
	.loc 1 747 0
	ldr	r2, [r4, #4]
	.loc 1 752 0
	mov	r0, #1
	.loc 1 747 0
	and	r2, r2, #2
	str	r2, [r3, #2092]
	.loc 1 748 0
	ldr	r2, [r4, #4]
	and	r2, r2, #4
	str	r2, [r3, #2096]
	.loc 1 749 0
	ldr	r2, [r4, #4]
	and	r2, r2, #8
	str	r2, [r3, #2100]
	.loc 1 750 0
	ldr	r1, [r4, #8]
	.loc 1 751 0
	ldr	r2, [r4, #12]
	.loc 1 750 0
	str	r1, [r3, #2052]
	.loc 1 751 0
	str	r2, [r3, #2048]
	.loc 1 752 0
	ldmfd	sp!, {r3, r4, r5, pc}
.L350:
	.loc 1 731 0
	ldr	r3, [r4, #4]
	ldr	r1, .L384+36
	and	r3, r3, #1
	str	r3, [r1, #2072]
	.loc 1 732 0
	ldr	r3, [r4, #4]
	.loc 1 742 0
	ldr	lr, .L384+56
	.loc 1 732 0
	and	r3, r3, #2
	str	r3, [r1, #2076]
	.loc 1 733 0
	ldr	r3, [r4, #4]
	.loc 1 741 0
	ldr	r2, .L384+60
	.loc 1 733 0
	and	r3, r3, #4
	str	r3, [r1, #2080]
	.loc 1 741 0
	ldr	ip, [r4, #8]
	.loc 1 742 0
	ldr	r0, [r4, #12]
	ldr	r3, [lr]
	.loc 1 741 0
	ldr	r2, [r2]
	.loc 1 742 0
	mul	r3, r3, r0
	.loc 1 741 0
	mul	r2, r2, ip
	ldr	lr, .L384+64
	mov	ip, r2, asr #31
	smull	r2, r0, lr, r2
	.loc 1 742 0
	smull	r2, lr, lr, r3
	.loc 1 741 0
	ldr	r5, [r1, #2060]
	.loc 1 742 0
	mov	r2, r3, asr #31
	ldr	r4, [r1, #2056]
.LVL187:
	rsb	r3, r2, lr, asr #2
	.loc 1 741 0
	rsb	r0, ip, r0, asr #2
	add	r2, r0, r5
	.loc 1 742 0
	add	r3, r3, r4
	.loc 1 741 0
	str	r2, [r1, #2060]
	.loc 1 742 0
	str	r3, [r1, #2056]
.L375:
	.loc 1 743 0
	mov	r0, #1
	ldmfd	sp!, {r3, r4, r5, pc}
.LVL188:
.L349:
	.loc 1 726 0
	ldr	r3, [r4, #4]
	cmp	r3, #512
	bge	.L356
	.loc 1 727 0
	mov	r2, #0
	ldr	r1, .L384+36
	.loc 1 728 0
	mov	r0, r2
	.loc 1 727 0
	str	r2, [r1, r3, asl #2]
	ldmfd	sp!, {r3, r4, r5, pc}
.L347:
	.loc 1 716 0
	ldr	r2, .L384+24
	ldr	r3, [r4, #4]
	ldr	r2, [r2]
	cmp	r3, r2
	beq	.L383
	.loc 1 721 0
	cmp	r3, #512
	bge	.L375
	.loc 1 722 0
	mov	r2, #1
	ldr	r1, .L384+36
	.loc 1 723 0
	mov	r0, r2
	.loc 1 722 0
	str	r2, [r1, r3, asl #2]
	ldmfd	sp!, {r3, r4, r5, pc}
.LVL189:
.L346:
	.loc 1 710 0 discriminator 1
	mov	r0, r4
.LVL190:
	bl	F_Responder
.LVL191:
	cmp	r0, #0
	beq	.L352
	b	.L375
.LVL192:
.L379:
	.loc 1 688 0
	ldr	r1, .L384+24
	ldr	r1, [r1]
	cmp	r3, r1
	bne	.L342
.L355:
	.loc 1 690 0
	ldr	r2, .L384+16
	ldr	r3, [r2]
	eor	r3, r3, #2
	cmp	r3, #0
	str	r3, [r2]
	beq	.L341
	.loc 1 691 0
	bl	S_PauseSound
.LVL193:
	.loc 1 694 0
	mov	r0, #1
	ldmfd	sp!, {r3, r4, r5, pc}
.LVL194:
.L327:
	.loc 1 685 0
	ldr	r2, .L384+4
	ldrb	r2, [r2]	@ zero_extendqisi2
	cmp	r2, #0
	beq	.L354
	b	.L336
.LVL195:
.L381:
	.loc 1 660 0
	ldr	r1, .L384+36
	str	r2, [r1, r3, asl #2]
	ldmfd	sp!, {r3, r4, r5, pc}
.L383:
	.loc 1 718 0
	mvn	r2, #126
	ldr	r3, .L384+36
	.loc 1 719 0
	mov	r0, #1
	.loc 1 718 0
	strb	r2, [r3, #2064]
	.loc 1 719 0
	ldmfd	sp!, {r3, r4, r5, pc}
.LVL196:
.L341:
	.loc 1 693 0
	bl	S_ResumeSound
.LVL197:
	.loc 1 694 0
	mov	r0, #1
	ldmfd	sp!, {r3, r4, r5, pc}
.LVL198:
.L382:
	str	r0, [r4]
	b	.L335
.LVL199:
.L380:
	.loc 1 705 0
	cmp	r3, #0
	bne	.L344
	b	.L356
.L385:
	.align	2
.L384:
	.word	key_spy
	.word	gameaction
	.word	gamestate
	.word	demoplayback
	.word	paused
	.word	automapmode
	.word	key_pause
	.word	netgame
	.word	deathmatch
	.word	.LANCHOR0
	.word	consoleplayer
	.word	displayplayer
	.word	playeringame
	.word	players
	.word	mouseSensitivity_vert
	.word	mouseSensitivity_horiz
	.word	1717986919
	.cfi_endproc
.LFE11:
	.size	G_Responder, .-G_Responder
	.align	2
	.global	G_ChangedPlayerColour
	.type	G_ChangedPlayerColour, %function
G_ChangedPlayerColour:
.LFB14:
	.loc 1 992 0
	.cfi_startproc
	@ args = 0, pretend = 0, frame = 0
	@ frame_needed = 0, uses_anonymous_args = 0
	@ link register save eliminated.
.LVL200:
	.loc 1 995 0
	ldr	r3, .L388
	ldr	r3, [r3]
	cmp	r3, #0
	bxeq	lr
	b	G_ChangedPlayerColour.part.1
.LVL201:
.L389:
	.align	2
.L388:
	.word	netgame
	.cfi_endproc
.LFE14:
	.size	G_ChangedPlayerColour, .-G_ChangedPlayerColour
	.align	2
	.global	G_PlayerReborn
	.type	G_PlayerReborn, %function
G_PlayerReborn:
.LFB15:
	.loc 1 1017 0
	.cfi_startproc
	@ args = 0, pretend = 0, frame = 16
	@ frame_needed = 0, uses_anonymous_args = 0
.LVL202:
	.loc 1 1025 0
	mov	ip, #284
	.loc 1 1017 0
	stmfd	sp!, {r4, r5, r6, r7, r8, r9, r10, fp, lr}
	.cfi_def_cfa_offset 36
	.cfi_offset 4, -36
	.cfi_offset 5, -32
	.cfi_offset 6, -28
	.cfi_offset 7, -24
	.cfi_offset 8, -20
	.cfi_offset 9, -16
	.cfi_offset 10, -12
	.cfi_offset 11, -8
	.cfi_offset 14, -4
	.loc 1 1025 0
	ldr	r4, .L392
	.loc 1 1017 0
	sub	sp, sp, #20
	.cfi_def_cfa_offset 56
	.loc 1 1025 0
	mla	r4, ip, r0, r4
	add	r5, r4, #104
	ldmia	r5, {r0, r1, r2, r3}
.LVL203:
	stmia	sp, {r0, r1, r2, r3}
.LBB64:
	.loc 1 1035 0
	mov	r2, ip
	mov	r0, r4
	mov	r1, #0
.LBE64:
	.loc 1 1027 0
	ldr	r10, [r4, #212]
	.loc 1 1026 0
	ldr	r9, [r4, #208]
.LVL204:
	.loc 1 1028 0
	ldr	r8, [r4, #216]
.LVL205:
.LBB65:
	.loc 1 1034 0
	ldr	fp, [r4, #200]
.LVL206:
	.loc 1 1035 0
	bl	memset
.LVL207:
.LBE65:
	.loc 1 1039 0
	ldmia	sp, {r0, r1, r2, r3}
	.loc 1 1044 0
	mov	ip, #1
	.loc 1 1045 0
	mov	lr, #0
	.loc 1 1039 0
	stmia	r5, {r0, r1, r2, r3}
	.loc 1 1046 0
	ldr	r1, .L392+4
	.loc 1 1050 0
	ldr	r2, .L392+8
	.loc 1 1046 0
	ldr	r6, [r1]
	.loc 1 1050 0
	ldr	r5, [r2]
	.loc 1 1053 0
	ldr	r3, .L392+12
	ldmia	r3, {r0, r1, r2, r3}
.LBB66:
	.loc 1 1036 0
	str	fp, [r4, #200]
.LBE66:
	.loc 1 1041 0
	str	r10, [r4, #212]
	.loc 1 1040 0
	str	r9, [r4, #208]
	.loc 1 1042 0
	str	r8, [r4, #216]
	.loc 1 1045 0
	strb	lr, [r4, #4]
	.loc 1 1046 0
	str	r6, [r4, #40]
	.loc 1 1050 0
	str	r5, [r4, #160]
.LVL208:
	.loc 1 1053 0
	str	r0, [r4, #176]
.LVL209:
	str	r1, [r4, #180]
.LVL210:
	str	r2, [r4, #184]
.LVL211:
	str	r3, [r4, #188]
.LVL212:
	.loc 1 1048 0
	str	ip, [r4, #124]
	.loc 1 1047 0
	strb	ip, [r4, #121]
	.loc 1 1044 0
	str	ip, [r4, #192]
	str	ip, [r4, #196]
	.loc 1 1047 0
	strb	ip, [r4, #120]
	.loc 1 1049 0
	str	ip, [r4, #128]
	.loc 1 1054 0
	add	sp, sp, #20
	.cfi_def_cfa_offset 36
	@ sp needed
	ldmfd	sp!, {r4, r5, r6, r7, r8, r9, r10, fp, pc}
.LVL213:
.L393:
	.align	2
.L392:
	.word	players
	.word	initial_health
	.word	initial_bullets
	.word	maxammo
	.cfi_endproc
.LFE15:
	.size	G_PlayerReborn, .-G_PlayerReborn
	.align	2
	.global	G_DeathMatchSpawnPlayer
	.type	G_DeathMatchSpawnPlayer, %function
G_DeathMatchSpawnPlayer:
.LFB17:
	.loc 1 1168 0
	.cfi_startproc
	@ args = 0, pretend = 0, frame = 0
	@ frame_needed = 0, uses_anonymous_args = 0
.LVL214:
	stmfd	sp!, {r4, r5, r6, r7, r8, lr}
	.cfi_def_cfa_offset 24
	.cfi_offset 4, -24
	.cfi_offset 5, -20
	.cfi_offset 6, -16
	.cfi_offset 7, -12
	.cfi_offset 8, -8
	.cfi_offset 14, -4
	.loc 1 1169 0
	ldr	r3, .L402
	ldr	r8, .L402+4
	ldr	r3, [r3]
	ldr	r6, [r8]
	.loc 1 1168 0
	mov	r7, r0
	.loc 1 1169 0
	rsb	r3, r6, r3
	mov	r3, r3, asr #1
	add	r6, r3, r3, asl #1
	add	r6, r6, r6, asl #4
	add	r6, r6, r6, asl #8
	add	r6, r6, r6, asl #16
	add	r6, r3, r6, asl #2
.LVL215:
	.loc 1 1171 0
	cmp	r6, #3
	ble	.L400
.LVL216:
.L395:
	.loc 1 1168 0 discriminator 1
	mov	r5, #20
.LVL217:
.L397:
.LBB67:
	.loc 1 1177 0
	mov	r0, #26
	bl	P_Random
.LVL218:
	mov	r1, r6
	bl	__aeabi_idivmod
.LVL219:
	.loc 1 1178 0
	ldr	r3, [r8]
	add	r1, r1, r1, asl #2
	mov	r4, r1, asl #1
	add	r1, r3, r4
	mov	r0, r7
	bl	G_CheckSpot
.LVL220:
	cmp	r0, #0
	ldr	r3, .L402+4
	bne	.L401
.LBE67:
	.loc 1 1175 0 discriminator 2
	subs	r5, r5, #1
.LVL221:
	bne	.L397
	.loc 1 1187 0
	ldr	r3, .L402+8
	add	r1, r7, r7, asl #2
	mov	r0, r7
	.loc 1 1188 0
	ldmfd	sp!, {r4, r5, r6, r7, r8, lr}
	.cfi_remember_state
	.cfi_restore 14
	.cfi_restore 8
	.cfi_restore 7
	.cfi_restore 6
	.cfi_restore 5
	.cfi_restore 4
	.cfi_def_cfa_offset 0
.LVL222:
	.loc 1 1187 0
	add	r1, r3, r1, asl #1
	b	P_SpawnPlayer
.LVL223:
.L401:
	.cfi_restore_state
.LBB68:
	.loc 1 1180 0
	ldr	r1, [r3]
	add	r3, r7, #1
	uxth	r3, r3
	add	r1, r1, r4
	mov	r2, r3, lsr #8
	.loc 1 1181 0
	mov	r0, r7
.LBE68:
	.loc 1 1188 0
	ldmfd	sp!, {r4, r5, r6, r7, r8, lr}
	.cfi_remember_state
	.cfi_restore 14
	.cfi_restore 8
	.cfi_restore 7
	.cfi_restore 6
	.cfi_restore 5
	.cfi_restore 4
	.cfi_def_cfa_offset 0
.LVL224:
.LBB69:
	.loc 1 1180 0
	strb	r3, [r1, #6]
	strb	r2, [r1, #7]
	.loc 1 1181 0
	b	P_SpawnPlayer
.LVL225:
.L400:
	.cfi_restore_state
.LBE69:
	.loc 1 1172 0
	ldr	r0, .L402+12
.LVL226:
	mov	r1, r6
	mov	r2, #4
	bl	I_Error
.LVL227:
	b	.L395
.L403:
	.align	2
.L402:
	.word	deathmatch_p
	.word	deathmatchstarts
	.word	playerstarts
	.word	.LC9
	.cfi_endproc
.LFE17:
	.size	G_DeathMatchSpawnPlayer, .-G_DeathMatchSpawnPlayer
	.align	2
	.global	G_DoReborn
	.type	G_DoReborn, %function
G_DoReborn:
.LFB18:
	.loc 1 1195 0
	.cfi_startproc
	@ args = 0, pretend = 0, frame = 0
	@ frame_needed = 0, uses_anonymous_args = 0
.LVL228:
	.loc 1 1196 0
	ldr	r3, .L418
	ldr	r3, [r3]
	cmp	r3, #0
	beq	.L415
.LBB74:
	.loc 1 1203 0
	mov	r3, #284
	mov	r2, #0
	mul	r3, r3, r0
	.loc 1 1206 0
	ldr	r1, .L418+4
	.loc 1 1203 0
	ldr	ip, .L418+8
	.loc 1 1206 0
	ldr	r1, [r1]
	.loc 1 1203 0
	ldr	r3, [ip, r3]
	.loc 1 1206 0
	cmp	r1, r2
.LBE74:
	.loc 1 1195 0
	stmfd	sp!, {r4, r5, r6, r7, r8, lr}
	.cfi_def_cfa_offset 24
	.cfi_offset 4, -24
	.cfi_offset 5, -20
	.cfi_offset 6, -16
	.cfi_offset 7, -12
	.cfi_offset 8, -8
	.cfi_offset 14, -4
	mov	r5, r0
.LBB75:
	.loc 1 1203 0
	str	r2, [r3, #156]
	.loc 1 1206 0
	bne	.L416
.LVL229:
.LBE75:
.LBB76:
.LBB77:
	.loc 1 1212 0
	ldr	r8, .L418+12
	add	r7, r0, r0, asl #2
	add	r7, r8, r7, asl #1
	mov	r1, r7
	bl	G_CheckSpot
.LVL230:
	cmp	r0, #0
	moveq	r4, r0
	bne	.L414
.L408:
	add	r6, r8, r4
	.loc 1 1221 0
	mov	r1, r6
	mov	r0, r5
	bl	G_CheckSpot
.LVL231:
	cmp	r0, #0
	add	r4, r4, #10
	bne	.L417
	.loc 1 1219 0
	cmp	r4, #40
	bne	.L408
.L414:
	.loc 1 1228 0
	mov	r0, r5
	mov	r1, r7
.LBE77:
.LBE76:
	.loc 1 1230 0
	ldmfd	sp!, {r4, r5, r6, r7, r8, lr}
	.cfi_remember_state
	.cfi_restore 14
	.cfi_restore 8
	.cfi_restore 7
	.cfi_restore 6
	.cfi_restore 5
	.cfi_restore 4
	.cfi_def_cfa_offset 0
.LVL232:
.LBB81:
.LBB78:
	.loc 1 1228 0
	b	P_SpawnPlayer
.LVL233:
.L416:
	.cfi_restore_state
.LBE78:
.LBE81:
	.loc 1 1230 0
	ldmfd	sp!, {r4, r5, r6, r7, r8, lr}
	.cfi_restore 14
	.cfi_restore 8
	.cfi_restore 7
	.cfi_restore 6
	.cfi_restore 5
	.cfi_restore 4
	.cfi_def_cfa_offset 0
.LBB82:
	.loc 1 1208 0
	b	G_DeathMatchSpawnPlayer
.LVL234:
.L415:
.LBE82:
	.loc 1 1197 0
	mov	r2, #1
	ldr	r3, .L418+16
	strb	r2, [r3]
	bx	lr
.LVL235:
.L417:
	.cfi_def_cfa_offset 24
	.cfi_offset 4, -24
	.cfi_offset 5, -20
	.cfi_offset 6, -16
	.cfi_offset 7, -12
	.cfi_offset 8, -8
	.cfi_offset 14, -4
.LBB83:
.LBB79:
	.loc 1 1223 0
	mov	r0, r5
	mov	r1, r6
.LBE79:
.LBE83:
	.loc 1 1230 0
	ldmfd	sp!, {r4, r5, r6, r7, r8, lr}
	.cfi_restore 14
	.cfi_restore 8
	.cfi_restore 7
	.cfi_restore 6
	.cfi_restore 5
	.cfi_restore 4
	.cfi_def_cfa_offset 0
.LVL236:
.LBB84:
.LBB80:
	.loc 1 1223 0
	b	P_SpawnPlayer
.LVL237:
.L419:
	.align	2
.L418:
	.word	netgame
	.word	deathmatch
	.word	players
	.word	playerstarts
	.word	gameaction
.LBE80:
.LBE84:
	.cfi_endproc
.LFE18:
	.size	G_DoReborn, .-G_DoReborn
	.align	2
	.global	G_ExitLevel
	.type	G_ExitLevel, %function
G_ExitLevel:
.LFB19:
	.loc 1 1251 0
	.cfi_startproc
	@ args = 0, pretend = 0, frame = 0
	@ frame_needed = 0, uses_anonymous_args = 0
	@ link register save eliminated.
	.loc 1 1252 0
	mov	r0, #0
	.loc 1 1253 0
	mov	r2, #6
	.loc 1 1252 0
	ldr	r1, .L421
	.loc 1 1253 0
	ldr	r3, .L421+4
	.loc 1 1252 0
	str	r0, [r1, #2268]
	.loc 1 1253 0
	strb	r2, [r3]
	bx	lr
.L422:
	.align	2
.L421:
	.word	.LANCHOR0
	.word	gameaction
	.cfi_endproc
.LFE19:
	.size	G_ExitLevel, .-G_ExitLevel
	.align	2
	.global	G_SecretExitLevel
	.type	G_SecretExitLevel, %function
G_SecretExitLevel:
.LFB20:
	.loc 1 1260 0
	.cfi_startproc
	@ args = 0, pretend = 0, frame = 0
	@ frame_needed = 0, uses_anonymous_args = 0
	@ link register save eliminated.
	.loc 1 1261 0
	ldr	r3, .L430
	ldrb	r3, [r3]	@ zero_extendqisi2
	cmp	r3, #2
	ldr	r3, .L430+4
	beq	.L429
.L424:
	.loc 1 1262 0
	mov	r2, #1
	str	r2, [r3, #2268]
.L426:
	.loc 1 1265 0
	mov	r2, #6
	ldr	r3, .L430+8
	strb	r2, [r3]
	bx	lr
.L429:
	.loc 1 1261 0 discriminator 1
	ldr	r2, [r3, #2108]
	cmp	r2, #0
	.loc 1 1264 0 discriminator 1
	streq	r2, [r3, #2268]
	.loc 1 1261 0 discriminator 1
	beq	.L426
	b	.L424
.L431:
	.align	2
.L430:
	.word	gamemode
	.word	.LANCHOR0
	.word	gameaction
	.cfi_endproc
.LFE20:
	.size	G_SecretExitLevel, .-G_SecretExitLevel
	.align	2
	.global	G_DoCompleted
	.type	G_DoCompleted, %function
G_DoCompleted:
.LFB21:
	.loc 1 1273 0
	.cfi_startproc
	@ args = 0, pretend = 0, frame = 8
	@ frame_needed = 0, uses_anonymous_args = 0
	.loc 1 1276 0
	mov	r3, #0
	.loc 1 1273 0
	stmfd	sp!, {r4, r5, r6, r7, r8, r9, r10, fp, lr}
	.cfi_def_cfa_offset 36
	.cfi_offset 4, -36
	.cfi_offset 5, -32
	.cfi_offset 6, -28
	.cfi_offset 7, -24
	.cfi_offset 8, -20
	.cfi_offset 9, -16
	.cfi_offset 10, -12
	.cfi_offset 11, -8
	.cfi_offset 14, -4
	ldr	r6, .L487
.LBB87:
.LBB88:
	.loc 1 975 0
	mov	r5, r3
.LBE88:
.LBE87:
	.loc 1 1276 0
	mov	r7, r6
	ldr	r2, .L487+4
	ldr	r4, .L487+8
	.loc 1 1273 0
	sub	sp, sp, #12
	.cfi_def_cfa_offset 48
	.loc 1 1276 0
	strb	r3, [r2]
.LVL238:
	add	r8, r4, #1136
.LVL239:
.L434:
	.loc 1 1279 0
	ldr	r3, [r7], #4
	cmp	r3, #0
	bne	.L483
.L433:
	add	r4, r4, #284
	.loc 1 1278 0 discriminator 2
	cmp	r4, r8
	bne	.L434
	.loc 1 1282 0
	ldr	r10, .L487+12
	ldrb	r3, [r10]	@ zero_extendqisi2
	tst	r3, #1
	bne	.L484
.L435:
	.loc 1 1285 0
	ldr	r3, .L487+16
	ldrb	r3, [r3]	@ zero_extendqisi2
	cmp	r3, #2
	str	r3, [sp, #4]
	beq	.L436
	.loc 1 1286 0
	ldr	r3, .L487+20
	ldr	r9, [r3]
	cmp	r9, #9
	bne	.L475
.LVL240:
	.loc 1 1295 0 discriminator 1
	mov	r0, #284
	.loc 1 1291 0 discriminator 1
	mov	r1, #1
	.loc 1 1297 0 discriminator 1
	mov	ip, #8
	.loc 1 1295 0 discriminator 1
	ldr	r2, .L487+24
	.loc 1 1291 0 discriminator 1
	ldr	r3, .L487+28
	.loc 1 1295 0 discriminator 1
	ldr	r2, [r2]
	.loc 1 1296 0 discriminator 1
	ldr	r4, .L487+32
	.loc 1 1295 0 discriminator 1
	mla	r0, r0, r2, r3
	.loc 1 1322 0 discriminator 1
	ldr	lr, .L487+36
	.loc 1 1291 0 discriminator 1
	str	r1, [r3, #280]
.LVL241:
	str	r1, [r3, #564]
.LVL242:
	str	r1, [r3, #848]
.LVL243:
	str	r1, [r3, #1132]
.LVL244:
	.loc 1 1296 0 discriminator 1
	ldr	fp, [r4]
	.loc 1 1322 0 discriminator 1
	ldr	lr, [lr, #2268]
	.loc 1 1295 0 discriminator 1
	ldr	r5, .L487+40
	ldr	r1, [r0, #280]
	.loc 1 1296 0 discriminator 1
	sub	r3, fp, #1
	.loc 1 1322 0 discriminator 1
	cmp	lr, #0
	.loc 1 1297 0 discriminator 1
	stmib	r5, {r1, ip}
	.loc 1 1296 0 discriminator 1
	str	r3, [r5]
	.loc 1 1322 0 discriminator 1
	beq	.L485
.LVL245:
.L439:
	.loc 1 1323 0
	mov	r3, #8
	str	r3, [r5, #12]
	b	.L446
.L475:
	.loc 1 1295 0
	mov	r1, #284
	ldr	r2, .L487+24
	ldr	r3, .L487+28
	ldr	r2, [r2]
	.loc 1 1296 0
	ldr	r0, .L487+32
	.loc 1 1295 0
	mla	r3, r1, r2, r3
	.loc 1 1322 0
	ldr	r1, .L487+36
	.loc 1 1296 0
	ldr	fp, [r0]
	.loc 1 1322 0
	ldr	ip, [r1, #2268]
	.loc 1 1295 0
	ldr	r5, .L487+40
	ldr	r0, [r3, #280]
	.loc 1 1296 0
	sub	r1, fp, #1
	.loc 1 1297 0
	sub	r3, r9, #1
	.loc 1 1322 0
	cmp	ip, #0
	.loc 1 1295 0
	str	r0, [r5, #4]
	.loc 1 1296 0
	str	r1, [r5]
	.loc 1 1297 0
	str	r3, [r5, #8]
	.loc 1 1322 0
	bne	.L439
	.loc 1 1345 0
	str	r9, [r5, #12]
.L446:
	.loc 1 1351 0
	mov	r1, #0
	.loc 1 1356 0
	ldr	r0, .L487+44
	add	r3, fp, fp, asl #2
	add	r3, r9, r3, asl #1
	add	r3, r0, r3, asl #2
	ldr	r3, [r3, #156]
	.loc 1 1348 0
	ldr	lr, .L487+48
	.loc 1 1349 0
	ldr	ip, .L487+52
	.loc 1 1350 0
	ldr	r0, .L487+56
	.loc 1 1356 0
	add	r3, r3, r3, asl #2
	.loc 1 1348 0
	ldr	lr, [lr]
	.loc 1 1349 0
	ldr	ip, [ip]
	.loc 1 1350 0
	ldr	r0, [r0]
	.loc 1 1356 0
	rsb	r3, r3, r3, asl #3
	str	r3, [r5, #32]
	.loc 1 1348 0
	str	lr, [r5, #16]
	.loc 1 1349 0
	str	ip, [r5, #20]
	.loc 1 1350 0
	str	r0, [r5, #24]
	.loc 1 1351 0
	str	r1, [r5, #28]
.L460:
	.loc 1 1358 0
	str	r2, [r5, #36]
.LVL246:
	ldr	r5, .L487+40
	ldr	r3, .L487+60
	mov	ip, r5
	ldr	r7, [r3]
	ldr	lr, .L487+28
	add	r8, r5, #160
.LVL247:
.L453:
	.loc 1 1362 0 discriminator 3
	ldr	r0, [r6], #4
	.loc 1 1365 0 discriminator 3
	add	r1, lr, #208
	ldmia	r1, {r1, r2, r3}
	.loc 1 1362 0 discriminator 3
	str	r0, [ip, #40]
	.loc 1 1363 0 discriminator 3
	str	r1, [ip, #44]
	.loc 1 1364 0 discriminator 3
	str	r2, [ip, #48]
	.loc 1 1365 0 discriminator 3
	str	r3, [ip, #52]
	.loc 1 1366 0 discriminator 3
	str	r7, [ip, #56]
	.loc 1 1367 0 discriminator 3
	add	r4, ip, #60
	add	ip, ip, #40
	add	r3, lr, #104
	.loc 1 1360 0 discriminator 3
	cmp	ip, r8
	.loc 1 1367 0 discriminator 3
	ldmia	r3, {r0, r1, r2, r3}
	add	lr, lr, #284
	stmia	r4, {r0, r1, r2, r3}
	.loc 1 1360 0 discriminator 3
	bne	.L453
	.loc 1 1378 0
	mov	r1, #1
	.loc 1 1376 0
	ldr	r0, .L487+64
	mov	r3, r7, asr #31
	smull	r2, r0, r0, r7
	ldr	r2, .L487+68
	add	r7, r0, r7
	.loc 1 1383 0
	ldr	r0, .L487+72
	.loc 1 1376 0
	rsb	r7, r3, r7, asr #5
	.loc 1 1383 0
	ldr	lr, [r0]
	.loc 1 1376 0
	ldr	r3, [r2]
	.loc 1 1379 0
	ldrb	r0, [r10]	@ zero_extendqisi2
	.loc 1 1376 0
	add	r7, r7, r7, asl #2
	rsb	r7, r7, r7, asl #3
	.loc 1 1378 0
	ldr	ip, .L487+76
	.loc 1 1376 0
	add	r3, r7, r3
	.loc 1 1379 0
	bic	r0, r0, #1
	.loc 1 1383 0
	cmp	lr, #0
	.loc 1 1376 0
	str	r3, [r2]
	str	r3, [r5, #200]
	.loc 1 1379 0
	strb	r0, [r10]
	.loc 1 1378 0
	strb	r1, [ip]
	.loc 1 1383 0
	beq	.L454
	.loc 1 1383 0 is_stmt 0 discriminator 1
	ldr	r3, .L487+80
	ldr	r3, [r3]
	cmp	r3, #0
	bne	.L455
	.loc 1 1383 0 discriminator 2
	ldr	r3, .L487+84
	ldr	r3, [r3]
	cmp	r3, #0
	beq	.L454
.L455:
	.loc 1 1384 0 is_stmt 1
	ldr	r3, [sp, #4]
	cmp	r3, #2
	beq	.L486
	.loc 1 1387 0
	mov	r2, fp
	mov	r3, r9
	mov	r0, #1
	ldr	r1, .L487+88
	bl	lprintf
.LVL248:
.L454:
	.loc 1 1390 0
	ldr	r0, .L487+40
	.loc 1 1391 0
	add	sp, sp, #12
	.cfi_remember_state
	.cfi_def_cfa_offset 36
	@ sp needed
	ldmfd	sp!, {r4, r5, r6, r7, r8, r9, r10, fp, lr}
	.cfi_restore 14
	.cfi_restore 11
	.cfi_restore 10
	.cfi_restore 9
	.cfi_restore 8
	.cfi_restore 7
	.cfi_restore 6
	.cfi_restore 5
	.cfi_restore 4
	.cfi_def_cfa_offset 0
	.loc 1 1390 0
	b	WI_Start
.LVL249:
.L483:
	.cfi_restore_state
.LBB90:
.LBB89:
	.loc 1 975 0
	mov	r3, r4
	str	r5, [r3], #4
	add	r3, r3, #4
	str	r5, [r4, #4]
	str	r5, [r3], #4
	str	r5, [r3], #4
	str	r5, [r3], #4
	.loc 1 976 0
	add	r0, r4, #24
	mov	r1, #0
	mov	r2, #24
	.loc 1 975 0
	str	r5, [r3]
	.loc 1 976 0
	bl	memset
.LVL250:
	.loc 1 977 0
	str	r5, [r4, #-52]
	.loc 1 978 0
	str	r5, [r4, #184]
	.loc 1 979 0
	str	r5, [r4, #188]
	.loc 1 980 0
	str	r5, [r4, #172]
	.loc 1 981 0
	str	r5, [r4, #176]
	b	.L433
.L484:
.LBE89:
.LBE90:
	.loc 1 1283 0
	bl	AM_Stop
.LVL251:
	b	.L435
.L436:
	.loc 1 1295 0
	mov	r1, #284
	ldr	r2, .L487+24
	ldr	r3, .L487+28
	ldr	r2, [r2]
	.loc 1 1296 0
	ldr	ip, .L487+32
	.loc 1 1295 0
	mla	r3, r1, r2, r3
	.loc 1 1297 0
	ldr	r0, .L487+20
	.loc 1 1302 0
	ldr	r1, .L487+36
	.loc 1 1296 0
	ldr	fp, [ip]
	.loc 1 1297 0
	ldr	r9, [r0]
	.loc 1 1302 0
	ldr	ip, [r1, #2268]
	.loc 1 1295 0
	ldr	r5, .L487+40
	ldr	r0, [r3, #280]
	.loc 1 1297 0
	sub	r1, r9, #1
	.loc 1 1296 0
	sub	r3, fp, #1
	.loc 1 1302 0
	cmp	ip, #0
	.loc 1 1295 0
	str	r0, [r5, #4]
	.loc 1 1296 0
	str	r3, [r5]
	.loc 1 1297 0
	str	r1, [r5, #8]
	.loc 1 1302 0
	bne	.L458
	.loc 1 1311 0
	sub	r3, r9, #31
	cmp	r3, #1
	.loc 1 1315 0
	movls	r3, #15
	strls	r3, [r5, #12]
	.loc 1 1311 0
	bls	.L441
.L444:
	.loc 1 1317 0
	str	r9, [r5, #12]
.L441:
	.loc 1 1351 0
	mov	r0, #0
	.loc 1 1354 0
	ldr	r3, .L487+44
	.loc 1 1348 0
	ldr	ip, .L487+48
	.loc 1 1354 0
	add	r3, r3, r1, asl #2
	ldr	r3, [r3, #28]
	.loc 1 1349 0
	ldr	r4, .L487+52
	.loc 1 1350 0
	ldr	r1, .L487+56
	.loc 1 1348 0
	ldr	lr, [ip]
	.loc 1 1354 0
	add	r3, r3, r3, asl #2
	.loc 1 1349 0
	ldr	ip, [r4]
	.loc 1 1350 0
	ldr	r1, [r1]
	.loc 1 1354 0
	rsb	r3, r3, r3, asl #3
	str	r3, [r5, #32]
	.loc 1 1348 0
	str	lr, [r5, #16]
	.loc 1 1349 0
	str	ip, [r5, #20]
	.loc 1 1350 0
	str	r1, [r5, #24]
	.loc 1 1351 0
	str	r0, [r5, #28]
	b	.L460
.LVL252:
.L485:
	.loc 1 1328 0
	cmp	r3, #3
	ldrls	pc, [pc, r3, asl #2]
	b	.L446
.L449:
	.word	.L448
	.word	.L450
	.word	.L451
	.word	.L452
.LVL253:
.L458:
	.loc 1 1303 0
	cmp	r9, #15
	beq	.L442
	cmp	r9, #31
	beq	.L444
	b	.L441
.L486:
	.loc 1 1385 0
	mov	r2, r9
	ldr	r1, .L487+92
	mov	r0, #1
	bl	lprintf
.LVL254:
	b	.L454
.LVL255:
.L452:
	.loc 1 1340 0
	mov	r3, #2
	str	r3, [r5, #12]
	.loc 1 1341 0
	b	.L446
.L451:
	.loc 1 1337 0
	mov	r3, #6
	str	r3, [r5, #12]
	.loc 1 1338 0
	b	.L446
.L450:
	.loc 1 1334 0
	mov	r3, #5
	str	r3, [r5, #12]
	.loc 1 1335 0
	b	.L446
.L448:
	.loc 1 1331 0
	mov	r3, #3
	str	r3, [r5, #12]
	.loc 1 1332 0
	b	.L446
.LVL256:
.L442:
	.loc 1 1306 0
	mov	r3, #30
	str	r3, [r5, #12]
	b	.L441
.L488:
	.align	2
.L487:
	.word	playeringame
	.word	gameaction
	.word	players+52
	.word	automapmode
	.word	gamemode
	.word	gamemap
	.word	consoleplayer
	.word	players
	.word	gameepisode
	.word	.LANCHOR0
	.word	wminfo
	.word	.LANCHOR1
	.word	totalkills
	.word	totalitems
	.word	totalsecret
	.word	leveltime
	.word	-368140053
	.word	totalleveltimes
	.word	nodrawers
	.word	gamestate
	.word	demoplayback
	.word	timingdemo
	.word	.LC11
	.word	.LC10
	.cfi_endproc
.LFE21:
	.size	G_DoCompleted, .-G_DoCompleted
	.align	2
	.global	G_WorldDone
	.type	G_WorldDone, %function
G_WorldDone:
.LFB22:
	.loc 1 1398 0
	.cfi_startproc
	@ args = 0, pretend = 0, frame = 0
	@ frame_needed = 0, uses_anonymous_args = 0
	.loc 1 1399 0
	mov	r1, #8
	.loc 1 1401 0
	ldr	r2, .L499
	.loc 1 1399 0
	ldr	r3, .L499+4
	.loc 1 1401 0
	ldr	r2, [r2, #2268]
	.loc 1 1398 0
	str	lr, [sp, #-4]!
	.cfi_def_cfa_offset 4
	.cfi_offset 14, -4
	.loc 1 1401 0
	cmp	r2, #0
	.loc 1 1399 0
	strb	r1, [r3]
	.loc 1 1401 0
	beq	.L490
	.loc 1 1402 0
	mov	lr, #284
	mov	ip, #1
	ldr	r0, .L499+8
	ldr	r1, .L499+12
	ldr	r0, [r0]
	mla	r1, lr, r0, r1
	str	ip, [r1, #280]
.L490:
	.loc 1 1404 0
	ldr	r1, .L499+16
	ldrb	r1, [r1]	@ zero_extendqisi2
	cmp	r1, #2
	beq	.L498
	.loc 1 1420 0
	ldr	r2, .L499+20
	ldr	r2, [r2]
	cmp	r2, #8
	.loc 1 1421 0
	moveq	r2, #7
	streqb	r2, [r3]
	ldr	pc, [sp], #4
.L498:
	.loc 1 1406 0
	ldr	r3, .L499+20
	ldr	r3, [r3]
	sub	r3, r3, #6
	cmp	r3, #25
	ldrhi	pc, [sp], #4
	mov	r1, #1
	ldr	r0, .L499+24
	mov	r3, r1, asl r3
	and	r0, r0, r3
	cmp	r0, #0
	bne	.L493
	ldr	r1, .L499+28
	and	r1, r1, r3
	.loc 1 1410 0
	cmp	r2, #0
	cmpne	r1, #0
	ldreq	pc, [sp], #4
.L493:
	.loc 1 1422 0
	ldr	lr, [sp], #4
	.cfi_restore 14
	.cfi_def_cfa_offset 0
	.loc 1 1416 0
	b	F_StartFinale
.LVL257:
.L500:
	.align	2
.L499:
	.word	.LANCHOR0
	.word	gameaction
	.word	consoleplayer
	.word	players
	.word	gamemode
	.word	gamemap
	.word	16793633
	.word	33554944
	.cfi_endproc
.LFE22:
	.size	G_WorldDone, .-G_WorldDone
	.align	2
	.global	G_DoWorldDone
	.type	G_DoWorldDone, %function
G_DoWorldDone:
.LFB23:
	.loc 1 1425 0
	.cfi_startproc
	@ args = 0, pretend = 0, frame = 0
	@ frame_needed = 0, uses_anonymous_args = 0
	stmfd	sp!, {r4, lr}
	.cfi_def_cfa_offset 8
	.cfi_offset 4, -8
	.cfi_offset 14, -4
	.loc 1 1426 0
	mvn	r0, #0
	.loc 1 1427 0
	mov	r4, #0
	.loc 1 1428 0
	ldr	r3, .L503
	ldr	ip, .L503+4
	ldr	r3, [r3, #12]
	.loc 1 1426 0
	ldr	r1, .L503+8
	.loc 1 1427 0
	ldr	r2, .L503+12
	.loc 1 1428 0
	add	r3, r3, #1
	str	r3, [ip]
	.loc 1 1427 0
	strb	r4, [r2]
	.loc 1 1426 0
	str	r0, [r1]
	.loc 1 1429 0
	bl	G_DoLoadLevel
.LVL258:
	.loc 1 1430 0
	ldr	r3, .L503+16
	strb	r4, [r3]
	.loc 1 1432 0
	ldmfd	sp!, {r4, lr}
	.cfi_restore 14
	.cfi_restore 4
	.cfi_def_cfa_offset 0
	.loc 1 1431 0
	b	AM_clearMarks
.LVL259:
.L504:
	.align	2
.L503:
	.word	wminfo
	.word	gamemap
	.word	idmusnum
	.word	gamestate
	.word	gameaction
	.cfi_endproc
.LFE23:
	.size	G_DoWorldDone, .-G_DoWorldDone
	.align	2
	.global	G_ForcedLoadGame
	.type	G_ForcedLoadGame, %function
G_ForcedLoadGame:
.LFB26:
	.loc 1 1493 0
	.cfi_startproc
	@ args = 0, pretend = 0, frame = 0
	@ frame_needed = 0, uses_anonymous_args = 0
	@ link register save eliminated.
	.loc 1 1496 0
	mov	r0, #3
	.loc 1 1497 0
	mov	r2, #1
	.loc 1 1496 0
	ldr	r1, .L506
	.loc 1 1497 0
	ldr	r3, .L506+4
	.loc 1 1496 0
	strb	r0, [r1]
	.loc 1 1497 0
	str	r2, [r3, #2272]
	bx	lr
.L507:
	.align	2
.L506:
	.word	gameaction
	.word	.LANCHOR0
	.cfi_endproc
.LFE26:
	.size	G_ForcedLoadGame, .-G_ForcedLoadGame
	.align	2
	.global	G_LoadGame
	.type	G_LoadGame, %function
G_LoadGame:
.LFB27:
	.loc 1 1503 0
	.cfi_startproc
	@ args = 0, pretend = 0, frame = 0
	@ frame_needed = 0, uses_anonymous_args = 0
.LVL260:
	.loc 1 1504 0
	ldr	r2, .L513
	ldr	r3, [r2]
	orrs	r3, r1, r3
	beq	.L512
	.loc 1 1503 0
	stmfd	sp!, {r4, r5, lr}
	.cfi_def_cfa_offset 12
	.cfi_offset 4, -12
	.cfi_offset 5, -8
	.cfi_offset 14, -4
	.loc 1 1514 0
	mov	ip, #0
	.loc 1 1513 0
	mov	r5, #3
	.loc 1 1514 0
	ldr	r3, .L513+4
	.loc 1 1513 0
	ldr	r4, .L513+8
	.loc 1 1519 0
	ldr	lr, .L513+12
	.loc 1 1515 0
	strb	r0, [r3, #2276]
	.loc 1 1513 0
	strb	r5, [r4]
	.loc 1 1519 0
	str	ip, [lr]
	.loc 1 1522 0
	mov	r0, #0
.LVL261:
	.loc 1 1523 0
	ldmfd	sp!, {r4, r5, lr}
	.cfi_restore 14
	.cfi_restore 5
	.cfi_restore 4
	.cfi_def_cfa_offset 0
	.loc 1 1516 0
	str	ip, [r2]
	.loc 1 1514 0
	str	ip, [r3, #2272]
	.loc 1 1521 0
	str	r1, [r3, #2132]
	.loc 1 1522 0
	b	R_SmoothPlaying_Reset
.LVL262:
.L512:
	.loc 1 1509 0
	mov	r0, r0, asl #2
.LVL263:
	.loc 1 1508 0
	and	r0, r0, #28
	mvn	r0, r0, asl #25
	mvn	r0, r0, lsr #25
	.loc 1 1510 0
	ldr	r2, .L513+12
	.loc 1 1508 0
	ldr	r3, .L513+4
	.loc 1 1510 0
	ldr	r2, [r2]
	.loc 1 1508 0
	strb	r0, [r3, #2064]
	.loc 1 1522 0
	mov	r0, #0
	.loc 1 1510 0
	str	r2, [r3, #2272]
	.loc 1 1521 0
	str	r1, [r3, #2132]
	.loc 1 1522 0
	b	R_SmoothPlaying_Reset
.LVL264:
.L514:
	.align	2
.L513:
	.word	demoplayback
	.word	.LANCHOR0
	.word	gameaction
	.word	netgame
	.cfi_endproc
.LFE27:
	.size	G_LoadGame, .-G_LoadGame
	.align	2
	.global	CheckSaveGame
	.type	CheckSaveGame, %function
CheckSaveGame:
.LFB31:
	.loc 1 1734 0
	.cfi_startproc
	@ args = 0, pretend = 0, frame = 0
	@ frame_needed = 0, uses_anonymous_args = 0
.LVL265:
	stmfd	sp!, {r4, r5, r6, lr}
	.cfi_def_cfa_offset 16
	.cfi_offset 4, -16
	.cfi_offset 5, -12
	.cfi_offset 6, -8
	.cfi_offset 14, -4
	.loc 1 1735 0
	ldr	r5, .L518
	ldr	r6, .L518+4
	ldr	r2, [r5, #2128]
.LVL266:
	ldr	r4, [r6]
	.loc 1 1751 0
	ldr	lr, .L518+8
	.loc 1 1735 0
	rsb	r4, r2, r4
.LVL267:
	.loc 1 1750 0
	add	r3, r0, #1024
.LVL268:
	.loc 1 1751 0
	ldr	ip, [lr, #316]
	add	r3, r3, r4
.LVL269:
	cmp	r3, ip
	ldmlsfd	sp!, {r4, r5, r6, pc}
	.loc 1 1752 0
	add	r3, r0, #2032
	add	r3, r3, #15
	bic	r3, r3, #1020
	bic	r3, r3, #3
	add	ip, r3, ip
	mov	r0, r2
.LVL270:
	mov	r1, ip
.LVL271:
	mov	r2, #1
	mov	r3, #0
	str	ip, [lr, #316]
	bl	Z_Realloc
.LVL272:
	.loc 1 1753 0
	add	r4, r0, r4
.LVL273:
	.loc 1 1752 0
	str	r4, [r6]
	str	r0, [r5, #2128]
	ldmfd	sp!, {r4, r5, r6, pc}
.L519:
	.align	2
.L518:
	.word	.LANCHOR0
	.word	save_p
	.word	.LANCHOR1
	.cfi_endproc
.LFE31:
	.size	CheckSaveGame, .-CheckSaveGame
	.align	2
	.global	G_SaveGameName
	.type	G_SaveGameName, %function
G_SaveGameName:
.LFB32:
	.loc 1 1762 0
	.cfi_startproc
	@ args = 0, pretend = 0, frame = 0
	@ frame_needed = 0, uses_anonymous_args = 0
.LVL274:
	str	lr, [sp, #-4]!
	.cfi_def_cfa_offset 4
	.cfi_offset 14, -4
	.loc 1 1763 0
	cmp	r3, #0
	ldreq	r3, .L524
.LVL275:
	ldrne	ip, .L524+4
	ldreq	ip, [r3]
.LVL276:
	.loc 1 1762 0
	sub	sp, sp, #12
	.cfi_def_cfa_offset 16
	.loc 1 1764 0
	ldr	r3, .L524+8
	str	ip, [sp]
	ldr	r3, [r3]
	str	r2, [sp, #4]
	ldr	r2, .L524+12
.LVL277:
	bl	doom_snprintf
.LVL278:
	.loc 1 1765 0
	add	sp, sp, #12
	.cfi_def_cfa_offset 4
	@ sp needed
	ldr	pc, [sp], #4
.L525:
	.align	2
.L524:
	.word	savegamename
	.word	.LC12
	.word	basesavegame
	.word	.LC13
	.cfi_endproc
.LFE32:
	.size	G_SaveGameName, .-G_SaveGameName
	.align	2
	.global	G_DeferedInitNew
	.type	G_DeferedInitNew, %function
G_DeferedInitNew:
.LFB34:
	.loc 1 1902 0
	.cfi_startproc
	@ args = 0, pretend = 0, frame = 0
	@ frame_needed = 0, uses_anonymous_args = 0
.LVL279:
	str	lr, [sp, #-4]!
	.cfi_def_cfa_offset 4
	.cfi_offset 14, -4
	.loc 1 1906 0
	mov	lr, #2
	.loc 1 1903 0
	ldr	r3, .L528
	.loc 1 1906 0
	ldr	ip, .L528+4
	.loc 1 1903 0
	strb	r0, [r3, #2277]
	.loc 1 1906 0
	strb	lr, [ip]
	.loc 1 1904 0
	str	r1, [r3, #2280]
	.loc 1 1905 0
	str	r2, [r3, #2284]
	ldr	pc, [sp], #4
.L529:
	.align	2
.L528:
	.word	.LANCHOR0
	.word	gameaction
	.cfi_endproc
.LFE34:
	.size	G_DeferedInitNew, .-G_DeferedInitNew
	.align	2
	.global	G_Compatibility
	.type	G_Compatibility, %function
G_Compatibility:
.LFB35:
	.loc 1 1922 0
	.cfi_startproc
	@ args = 0, pretend = 0, frame = 0
	@ frame_needed = 0, uses_anonymous_args = 0
.LVL280:
	ldr	ip, .L538
	mov	r3, #0
	mov	r2, ip
	ldr	r1, .L538+4
	stmfd	sp!, {r4, r5, r6, r7, r8, lr}
	.cfi_def_cfa_offset 24
	.cfi_offset 4, -24
	.cfi_offset 5, -20
	.cfi_offset 6, -16
	.cfi_offset 7, -12
	.cfi_offset 8, -8
	.cfi_offset 14, -4
	ldrb	r0, [r1]	@ zero_extendqisi2
	.loc 1 1987 0
	ldr	lr, .L538+8
.LVL281:
.L532:
	.loc 1 1986 0
	ldrb	r1, [r2, #1]	@ zero_extendqisi2
	add	r2, r2, #2
	cmp	r1, r0
	bls	.L531
	.loc 1 1987 0
	ldrb	r1, [ip, r3, asl #1]	@ zero_extendqisi2
	cmp	r1, r0
	movls	r1, #0
	movhi	r1, #1
	str	r1, [lr, r3, asl #2]
.L531:
	.loc 1 1985 0 discriminator 2
	add	r3, r3, #1
.LVL282:
	cmp	r3, #25
	bne	.L532
	.loc 1 1989 0
	cmp	r0, #10
	ldmhifd	sp!, {r4, r5, r6, r7, r8, pc}
	.loc 1 1991 0
	mov	r3, #0
.LVL283:
	.loc 1 1990 0
	mov	r2, #1
	ldr	r8, .L538+12
	.loc 1 1991 0
	ldr	r7, .L538+16
	.loc 1 1992 0
	ldr	r6, .L538+20
	.loc 1 1993 0
	ldr	r5, .L538+24
	.loc 1 1994 0
	ldr	r4, .L538+28
	.loc 1 1997 0
	ldr	lr, .L538+32
	.loc 1 1998 0
	ldr	ip, .L538+36
	.loc 1 2001 0
	ldr	r1, .L538+40
	.loc 1 2004 0
	cmp	r0, #6
	.loc 1 1990 0
	str	r2, [r8]
	.loc 1 1991 0
	str	r3, [r7]
	.loc 1 1992 0
	str	r3, [r6]
	.loc 1 1993 0
	str	r3, [r5]
	.loc 1 1994 0
	str	r3, [r4]
	.loc 1 1997 0
	str	r3, [lr]
	.loc 1 1998 0
	str	r3, [ip]
	.loc 1 2001 0
	str	r3, [r1]
	.loc 1 2004 0
	ldmhifd	sp!, {r4, r5, r6, r7, r8, pc}
.LBB93:
	.loc 1 2005 0
	ldr	r4, .L538+44
	.loc 1 2006 0
	ldr	lr, .L538+48
	.loc 1 2007 0
	ldr	ip, .L538+52
	.loc 1 2008 0
	ldr	r0, .L538+56
	.loc 1 2009 0
	ldr	r1, .L538+60
	.loc 1 2005 0
	str	r3, [r4]
	.loc 1 2006 0
	str	r3, [lr]
	.loc 1 2007 0
	str	r3, [ip]
	.loc 1 2008 0
	str	r3, [r0]
	.loc 1 2009 0
	str	r2, [r1]
	ldmfd	sp!, {r4, r5, r6, r7, r8, pc}
.L539:
	.align	2
.L538:
	.word	.LANCHOR2
	.word	compatibility_level
	.word	comp
	.word	monster_infighting
	.word	monster_backing
	.word	monster_avoid_hazards
	.word	monster_friction
	.word	help_friends
	.word	dogs
	.word	dog_jumping
	.word	monkeys
	.word	allow_pushers
	.word	variable_friction
	.word	monsters_remember
	.word	weapon_recoil
	.word	player_bobbing
.LBE93:
	.cfi_endproc
.LFE35:
	.size	G_Compatibility, .-G_Compatibility
	.align	2
	.global	G_ReloadDefaults
	.type	G_ReloadDefaults, %function
G_ReloadDefaults:
.LFB37:
	.loc 1 2029 0
	.cfi_startproc
	@ args = 0, pretend = 0, frame = 0
	@ frame_needed = 0, uses_anonymous_args = 0
	stmfd	sp!, {r3, r4, r5, r6, r7, r8, r9, r10, fp, lr}
	.cfi_def_cfa_offset 40
	.cfi_offset 3, -40
	.cfi_offset 4, -36
	.cfi_offset 5, -32
	.cfi_offset 6, -28
	.cfi_offset 7, -24
	.cfi_offset 8, -20
	.cfi_offset 9, -16
	.cfi_offset 10, -12
	.cfi_offset 11, -8
	.cfi_offset 14, -4
	.loc 1 2048 0
	ldr	r4, .L557
	.loc 1 2034 0
	ldr	lr, .L557+4
	.loc 1 2036 0
	ldr	ip, .L557+8
	.loc 1 2039 0
	ldr	r0, .L557+12
	.loc 1 2040 0
	ldr	r1, .L557+16
	.loc 1 2043 0
	ldr	r2, .L557+20
	.loc 1 2045 0
	ldr	r3, .L557+24
	.loc 1 2048 0
	ldr	r10, [r4]
	.loc 1 2036 0
	ldr	r7, [ip]
	.loc 1 2034 0
	ldr	r9, [lr]
	.loc 1 2039 0
	ldr	r5, [r0]
	.loc 1 2040 0
	ldr	lr, [r1]
	.loc 1 2043 0
	ldr	r0, [r2]
	.loc 1 2034 0
	ldr	r8, .L557+28
	.loc 1 2045 0
	ldr	r2, [r3]
	.loc 1 2036 0
	ldr	r6, .L557+32
	.loc 1 2039 0
	ldr	r4, .L557+36
	.loc 1 2040 0
	ldr	ip, .L557+40
	.loc 1 2043 0
	ldr	r1, .L557+44
	.loc 1 2045 0
	ldr	r3, .L557+48
	.loc 1 2048 0
	cmp	r10, #0
	.loc 1 2043 0
	str	r0, [r1]
	.loc 1 2034 0
	str	r9, [r8]
	.loc 1 2036 0
	str	r7, [r6]
	.loc 1 2039 0
	str	r5, [r4]
	.loc 1 2040 0
	str	lr, [ip]
	.loc 1 2045 0
	str	r2, [r3]
	.loc 1 2048 0
	movne	r0, #0
	beq	.L554
.L541:
	.loc 1 2072 0 discriminator 4
	ldr	r3, .L557+52
	.loc 1 2052 0 discriminator 4
	ldr	r9, .L557+56
	.loc 1 2072 0 discriminator 4
	ldrsb	r2, [r3]
	.loc 1 2052 0 discriminator 4
	ldr	r9, [r9]
	.loc 1 2072 0 discriminator 4
	cmn	r2, #1
	.loc 1 2058 0 discriminator 4
	ldr	r10, .L557+60
	.loc 1 2052 0 discriminator 4
	ldr	r2, .L557+64
	.loc 1 2058 0 discriminator 4
	ldr	fp, [r10]
	.loc 1 2052 0 discriminator 4
	str	r9, [r2]
	.loc 1 2058 0 discriminator 4
	ldr	r2, .L557+68
	.loc 1 2060 0 discriminator 4
	ldr	r8, .L557+72
	.loc 1 2058 0 discriminator 4
	str	fp, [r2]
	.loc 1 2048 0 discriminator 4
	ldr	r2, .L557+76
	.loc 1 2062 0 discriminator 4
	ldr	r6, .L557+80
	.loc 1 2048 0 discriminator 4
	str	r0, [r2]
	.loc 1 2073 0 discriminator 4
	ldreq	r2, .L557+84
	.loc 1 2066 0 discriminator 4
	ldr	r4, .L557+88
	.loc 1 2073 0 discriminator 4
	ldreq	r2, [r2]
	.loc 1 2067 0 discriminator 4
	ldr	ip, .L557+92
	.loc 1 2073 0 discriminator 4
	subeq	r2, r2, #1
	streqb	r2, [r3]
	.loc 1 2075 0 discriminator 4
	mov	r3, #0
	.loc 1 2068 0 discriminator 4
	ldr	r1, .L557+96
	.loc 1 2049 0 discriminator 4
	ldr	r5, .L557+100
	.loc 1 2060 0 discriminator 4
	ldr	r10, [r8]
	.loc 1 2049 0 discriminator 4
	ldr	r5, [r5]
	.loc 1 2062 0 discriminator 4
	ldr	r8, [r6]
	.loc 1 2056 0 discriminator 4
	ldr	lr, .L557+104
	.loc 1 2066 0 discriminator 4
	ldr	r6, [r4]
	.loc 1 2067 0 discriminator 4
	ldr	r4, [ip]
	.loc 1 2068 0 discriminator 4
	ldr	ip, [r1]
	.loc 1 2049 0 discriminator 4
	ldr	r1, .L557+108
	.loc 1 2056 0 discriminator 4
	ldr	lr, [lr]
	.loc 1 2049 0 discriminator 4
	str	r5, [r1]
	.loc 1 2054 0 discriminator 4
	ldr	r7, .L557+112
	.loc 1 2056 0 discriminator 4
	ldr	r1, .L557+116
	.loc 1 2054 0 discriminator 4
	ldr	r7, [r7]
	.loc 1 2056 0 discriminator 4
	str	lr, [r1]
	.loc 1 2054 0 discriminator 4
	ldr	r5, .L557+120
	.loc 1 2068 0 discriminator 4
	ldr	r1, .L557+124
	.loc 1 2054 0 discriminator 4
	str	r7, [r5]
	.loc 1 2068 0 discriminator 4
	str	ip, [r1]
	.loc 1 2062 0 discriminator 4
	ldr	r7, .L557+128
	.loc 1 2066 0 discriminator 4
	ldr	r5, .L557+132
	.loc 1 2067 0 discriminator 4
	ldr	lr, .L557+136
	.loc 1 2084 0 discriminator 4
	ldr	r1, .L557+140
	.loc 1 2080 0 discriminator 4
	ldr	r2, .L557+144
	.loc 1 2066 0 discriminator 4
	str	r6, [r5]
	.loc 1 2067 0 discriminator 4
	str	r4, [lr]
	.loc 1 2062 0 discriminator 4
	str	r8, [r7]
	.loc 1 2076 0 discriminator 4
	ldr	lr, .L557+148
	.loc 1 2084 0 discriminator 4
	ldrb	r7, [r1]	@ zero_extendqisi2
	.loc 1 2077 0 discriminator 4
	ldr	ip, .L557+152
	.loc 1 2082 0 discriminator 4
	ldr	r1, .L557+156
	.loc 1 2060 0 discriminator 4
	ldr	r9, .L557+160
	.loc 1 2084 0 discriminator 4
	ldr	r4, .L557+164
	.loc 1 2075 0 discriminator 4
	ldr	r5, .L557+168
.LBB98:
	.loc 1 2086 0 discriminator 4
	ldr	r0, .L557+172
.LBE98:
	.loc 1 2080 0 discriminator 4
	str	r3, [r2, #8]
	str	r3, [r2]
	str	r3, [r2, #4]
	.loc 1 2060 0 discriminator 4
	str	r10, [r9]
	.loc 1 2080 0 discriminator 4
	add	r6, r2, #8
	.loc 1 2084 0 discriminator 4
	strb	r7, [r4]
	.loc 1 2075 0 discriminator 4
	str	r3, [r5]
	.loc 1 2076 0 discriminator 4
	str	r3, [lr]
	.loc 1 2077 0 discriminator 4
	str	r3, [ip, #2288]
	.loc 1 2082 0 discriminator 4
	str	r3, [r1]
.LBB100:
	.loc 1 2086 0 discriminator 4
	bl	M_CheckParm
.LVL284:
	.loc 1 2087 0 discriminator 4
	cmp	r0, #0
	beq	.L553
	.loc 1 2087 0 is_stmt 0 discriminator 1
	ldr	r3, .L557+176
	add	r0, r0, #1
.LVL285:
	ldr	r3, [r3]
	cmp	r0, r3
	blt	.L555
.LVL286:
.L553:
	ldrb	r0, [r4]	@ zero_extendqisi2
.L546:
.LBE100:
	.loc 1 2095 0 is_stmt 1
	cmp	r0, #10
	bls	.L549
	.loc 1 2096 0
	ldr	r0, .L557+180
	ldr	r1, .L557+184
	mov	r2, #128
	bl	memcpy
.LVL287:
.L549:
	.loc 1 2097 0
	bl	G_Compatibility
.LVL288:
	.loc 1 2100 0
	ldr	r3, .L557+188
	ldr	r2, .L557+192
	ldr	r3, [r3]
	sub	r3, r3, #1
	clz	r3, r3
	mov	r3, r3, lsr #5
	str	r3, [r2]
	.loc 1 2102 0
	bl	I_GetRandomTimeSeed
.LVL289:
	ldr	r2, .L557+196
	ldr	r3, .L557+200
	ldr	r1, [r2]
	ldr	r3, [r3]
	add	r3, r3, r1
	add	r0, r3, r0
	str	r0, [r2]
	ldmfd	sp!, {r3, r4, r5, r6, r7, r8, r9, r10, fp, pc}
.L554:
.LBB101:
.LBB102:
	.loc 1 2017 0
	ldr	r0, .L557+204
	bl	M_CheckParm
.LVL290:
	.loc 1 2019 0
	cmp	r0, #0
	beq	.L556
.L542:
	.loc 1 2021 0
	ldr	r3, .L557+176
	add	r0, r0, #1
.LVL291:
	ldr	r3, [r3]
	cmp	r0, r3
	movge	r0, #1
.LVL292:
	bge	.L541
	ldr	r3, .L557+208
	ldr	r3, [r3]
	ldr	r0, [r3, r0, asl #2]
	bl	atoi
.LVL293:
	b	.L541
.LVL294:
.L555:
.LBE102:
.LBE101:
.LBB104:
.LBB99:
	.loc 1 2088 0
	ldr	r3, .L557+208
	ldr	r3, [r3]
	ldr	r0, [r3, r0, asl #2]
.LVL295:
	bl	atoi
.LVL296:
	.loc 1 2089 0
	cmn	r0, #1
	uxtbge	r0, r0
.LVL297:
	strgeb	r0, [r4]
	bge	.L546
	b	.L553
.LVL298:
.L556:
.LBE99:
.LBE104:
.LBB105:
.LBB103:
	.loc 1 2020 0
	ldr	r0, .L557+212
.LVL299:
	bl	M_CheckParm
.LVL300:
	.loc 1 2021 0
	cmp	r0, #0
	bne	.L542
	ldr	r3, .L557+216
	ldr	r0, [r3]
.LVL301:
	b	.L541
.L558:
	.align	2
.L557:
	.word	netgame
	.word	default_weapon_recoil
	.word	default_player_bobbing
	.word	default_variable_friction
	.word	default_allow_pushers
	.word	default_monsters_remember
	.word	default_monster_infighting
	.word	weapon_recoil
	.word	player_bobbing
	.word	variable_friction
	.word	allow_pushers
	.word	monsters_remember
	.word	monster_infighting
	.word	startskill
	.word	default_distfriend
	.word	default_monster_friction
	.word	distfriend
	.word	monster_friction
	.word	default_help_friends
	.word	dogs
	.word	default_monkeys
	.word	defaultskill
	.word	clrespawnparm
	.word	clfastparm
	.word	clnomonsters
	.word	default_dog_jumping
	.word	default_monster_avoid_hazards
	.word	dog_jumping
	.word	default_monster_backing
	.word	monster_avoid_hazards
	.word	monster_backing
	.word	nomonsters
	.word	monkeys
	.word	respawnparm
	.word	fastparm
	.word	default_compatibility_level
	.word	playeringame+4
	.word	singledemo
	.word	.LANCHOR0
	.word	consoleplayer
	.word	help_friends
	.word	compatibility_level
	.word	demoplayback
	.word	.LC16
	.word	myargc
	.word	comp
	.word	default_comp
	.word	default_demo_insurance
	.word	demo_insurance
	.word	rngseed
	.word	gametic
	.word	.LC14
	.word	myargv
	.word	.LC15
	.word	default_dogs
.LBE103:
.LBE105:
	.cfi_endproc
.LFE37:
	.size	G_ReloadDefaults, .-G_ReloadDefaults
	.align	2
	.global	G_SetFastParms
	.type	G_SetFastParms, %function
G_SetFastParms:
.LFB39:
	.loc 1 2121 0
	.cfi_startproc
	@ args = 0, pretend = 0, frame = 0
	@ frame_needed = 0, uses_anonymous_args = 0
	@ link register save eliminated.
.LVL302:
	.loc 1 2124 0
	ldr	r3, .L570
	ldr	r2, [r3, #2292]
	cmp	r2, r0
	bxeq	lr
	.loc 1 2125 0
	cmp	r0, #0
	str	r0, [r3, #2292]
	beq	.L565
.LBB108:
.LBB109:
	.loc 1 2128 0
	ldr	r3, .L570+4
	mov	r0, #0
.LVL303:
	ldr	r1, .L570+8
	ldrb	ip, [r3]	@ zero_extendqisi2
	b	.L564
.LVL304:
.L562:
	.loc 1 2129 0
	mov	r2, r2, asr #1
	.loc 1 2127 0
	cmp	r0, #364
	.loc 1 2129 0
	str	r2, [r3]
	.loc 1 2127 0
	beq	.L569
.L564:
	add	r3, r0, #13312
	add	r3, r3, #52
	.loc 1 2128 0
	ldr	r2, [r1, r3]
	add	r0, r0, #28
	cmp	r2, #1
	add	r3, r1, r3
	bne	.L562
	cmp	ip, #6
	bls	.L562
	.loc 1 2127 0
	cmp	r0, #364
	bne	.L564
.L569:
	.loc 1 2130 0
	mov	r2, #1310720
	ldr	r3, .L570+12
	str	r2, [r3, #1724]
	.loc 1 2131 0
	str	r2, [r3, #3388]
	.loc 1 2132 0
	str	r2, [r3, #3284]
	bx	lr
.LVL305:
.L565:
	ldr	r1, .L570+8
.LVL306:
.L561:
	add	r3, r0, #13312
	add	r3, r3, #52
.LBE109:
.LBE108:
	.loc 1 2137 0 discriminator 3
	ldr	r2, [r1, r3]
	add	r0, r0, #28
	mov	r2, r2, asl #1
	.loc 1 2136 0 discriminator 3
	cmp	r0, #364
	.loc 1 2137 0 discriminator 3
	str	r2, [r1, r3]
.LVL307:
	.loc 1 2136 0 discriminator 3
	bne	.L561
	.loc 1 2139 0
	mov	r2, #655360
	.loc 1 2138 0
	mov	r1, #983040
	ldr	r3, .L570+12
	str	r1, [r3, #1724]
	.loc 1 2139 0
	str	r2, [r3, #3388]
	.loc 1 2140 0
	str	r2, [r3, #3284]
	bx	lr
.L571:
	.align	2
.L570:
	.word	.LANCHOR0
	.word	compatibility_level
	.word	states
	.word	mobjinfo
	.cfi_endproc
.LFE39:
	.size	G_SetFastParms, .-G_SetFastParms
	.align	2
	.global	G_InitNew
	.type	G_InitNew, %function
G_InitNew:
.LFB40:
	.loc 1 2152 0
	.cfi_startproc
	@ args = 0, pretend = 0, frame = 0
	@ frame_needed = 0, uses_anonymous_args = 0
.LVL308:
	stmfd	sp!, {r3, r4, r5, r6, r7, r8, r9, r10, fp, lr}
	.cfi_def_cfa_offset 40
	.cfi_offset 3, -40
	.cfi_offset 4, -36
	.cfi_offset 5, -32
	.cfi_offset 6, -28
	.cfi_offset 7, -24
	.cfi_offset 8, -20
	.cfi_offset 9, -16
	.cfi_offset 10, -12
	.cfi_offset 11, -8
	.cfi_offset 14, -4
	.loc 1 2155 0
	ldr	r7, .L600
	.loc 1 2152 0
	mov	r4, r0
	.loc 1 2155 0
	ldr	r3, [r7]
	.loc 1 2152 0
	mov	r6, r1
	.loc 1 2155 0
	cmp	r3, #0
	.loc 1 2152 0
	mov	r5, r2
	.loc 1 2155 0
	bne	.L596
.LVL309:
.L573:
	cmp	r4, #4
	.loc 1 2167 0
	ldr	r3, .L600+4
	movge	r4, #4
.LVL310:
	.loc 1 2164 0
	cmp	r6, #0
	.loc 1 2167 0
	ldrb	r3, [r3]	@ zero_extendqisi2
	.loc 1 2164 0
	ble	.L574
	.loc 1 2167 0
	cmp	r3, #3
	beq	.L597
.LVL311:
.L575:
	.loc 1 2173 0
	cmp	r3, #0
	.loc 1 2176 0
	moveq	r6, #1
	.loc 1 2173 0
	bne	.L598
.L576:
.LVL312:
	.loc 1 2182 0
	cmp	r5, #0
	.loc 1 2183 0
	movle	r5, #1
.LVL313:
	.loc 1 2182 0
	ble	.L577
.LVL314:
	.loc 1 2185 0
	cmp	r3, #2
	cmpne	r5, #9
	movgt	r5, #9
.LVL315:
.L577:
	.loc 1 2187 0
	ldr	r3, .L600+8
	ldr	r0, [r3]
	cmp	r0, #0
	bne	.L578
	.loc 1 2187 0 is_stmt 0 discriminator 2
	cmp	r4, #4
	beq	.L599
	.loc 1 2187 0
	bl	G_SetFastParms
.LVL316:
	.loc 1 2189 0 is_stmt 1
	bl	M_ClearRandom
.LVL317:
.L583:
	.loc 1 2191 0 discriminator 2
	ldr	r3, .L600+12
	ldr	r0, [r3]
	adds	r0, r0, #0
	movne	r0, #1
.L581:
	.loc 1 2195 0 discriminator 6
	mov	r2, #2
	.loc 1 2198 0 discriminator 6
	mov	ip, #0
	.loc 1 2197 0 discriminator 6
	mov	fp, #1
	.loc 1 2199 0 discriminator 6
	ldr	lr, .L600+16
	.loc 1 2195 0 discriminator 6
	ldr	r3, .L600+20
	.loc 1 2199 0 discriminator 6
	ldrb	r1, [lr]	@ zero_extendqisi2
	.loc 1 2197 0 discriminator 6
	ldr	r10, .L600+24
	.loc 1 2199 0 discriminator 6
	bic	r1, r1, #1
	strb	r1, [lr]
	.loc 1 2204 0 discriminator 6
	ldr	r9, .L600+28
	.loc 1 2200 0 discriminator 6
	ldr	lr, .L600+32
	.loc 1 2191 0 discriminator 6
	ldr	r8, .L600+36
	.loc 1 2201 0 discriminator 6
	ldr	r1, .L600+40
	.loc 1 2195 0 discriminator 6
	strb	r2, [r3, #4]
	strb	r2, [r3, #288]
	strb	r2, [r3, #572]
	strb	r2, [r3, #856]
	.loc 1 2202 0 discriminator 6
	ldr	r3, .L600+44
	.loc 1 2197 0 discriminator 6
	str	fp, [r10]
	.loc 1 2198 0 discriminator 6
	str	ip, [r7]
	.loc 1 2204 0 discriminator 6
	str	ip, [r9]
	.loc 1 2191 0 discriminator 6
	str	r0, [r8]
.LVL318:
	.loc 1 2200 0 discriminator 6
	str	r6, [lr]
	.loc 1 2201 0 discriminator 6
	str	r5, [r1]
	.loc 1 2202 0 discriminator 6
	strb	r4, [r3]
	.loc 1 2207 0 discriminator 6
	bl	AM_clearMarks
.LVL319:
	.loc 1 2210 0 discriminator 6
	ldmfd	sp!, {r3, r4, r5, r6, r7, r8, r9, r10, fp, lr}
	.cfi_remember_state
	.cfi_restore 14
	.cfi_restore 11
	.cfi_restore 10
	.cfi_restore 9
	.cfi_restore 8
	.cfi_restore 7
	.cfi_restore 6
	.cfi_restore 5
	.cfi_restore 4
	.cfi_restore 3
	.cfi_def_cfa_offset 0
.LVL320:
	.loc 1 2209 0 discriminator 6
	b	G_DoLoadLevel
.LVL321:
.L578:
	.cfi_restore_state
	.loc 1 2187 0 discriminator 6
	mov	r0, #1
	bl	G_SetFastParms
.LVL322:
	.loc 1 2189 0 discriminator 6
	bl	M_ClearRandom
.LVL323:
	.loc 1 2191 0 discriminator 6
	cmp	r4, #4
	moveq	r0, #1
	bne	.L583
	b	.L581
.LVL324:
.L598:
	cmp	r6, #3
	movge	r6, #3
	b	.L576
.LVL325:
.L596:
	.loc 1 2157 0
	mov	r3, #0
	str	r3, [r7]
	.loc 1 2158 0
	bl	S_ResumeSound
.LVL326:
	b	.L573
.LVL327:
.L597:
	.loc 1 2169 0
	cmp	r6, #4
	.loc 1 2170 0
	movgt	r6, #4
.LVL328:
	.loc 1 2169 0
	bgt	.L576
.LVL329:
.L582:
	.loc 1 2176 0
	mov	r3, #3
	b	.L576
.LVL330:
.L574:
	.loc 1 2167 0
	cmp	r3, #3
	.loc 1 2165 0
	mov	r6, #1
	.loc 1 2167 0
	bne	.L575
	b	.L582
.LVL331:
.L599:
	.loc 1 2187 0
	mov	r0, #1
	bl	G_SetFastParms
.LVL332:
	.loc 1 2189 0
	bl	M_ClearRandom
.LVL333:
	.loc 1 2191 0
	mov	r0, #1
	b	.L581
.L601:
	.align	2
.L600:
	.word	paused
	.word	gamemode
	.word	fastparm
	.word	respawnparm
	.word	automapmode
	.word	players
	.word	usergame
	.word	totalleveltimes
	.word	gameepisode
	.word	respawnmonsters
	.word	gamemap
	.word	gameskill
	.cfi_endproc
.LFE40:
	.size	G_InitNew, .-G_InitNew
	.align	2
	.global	G_DoNewGame
	.type	G_DoNewGame, %function
G_DoNewGame:
.LFB38:
	.loc 1 2106 0
	.cfi_startproc
	@ args = 0, pretend = 0, frame = 0
	@ frame_needed = 0, uses_anonymous_args = 0
	stmfd	sp!, {r4, lr}
	.cfi_def_cfa_offset 8
	.cfi_offset 4, -8
	.cfi_offset 14, -4
	.loc 1 2108 0
	mov	r4, #0
	.loc 1 2107 0
	bl	G_ReloadDefaults
.LVL334:
	.loc 1 2110 0
	ldr	r3, .L604
	.loc 1 2108 0
	ldr	lr, .L604+4
	.loc 1 2110 0
	add	r2, r3, #2272
	.loc 1 2109 0
	ldr	ip, .L604+8
	.loc 1 2110 0
	ldrsb	r0, [r2, #5]
	ldr	r1, [r3, #2280]
	ldr	r2, [r3, #2284]
	.loc 1 2108 0
	str	r4, [lr]
	.loc 1 2109 0
	str	r4, [ip]
	.loc 1 2110 0
	bl	G_InitNew
.LVL335:
	.loc 1 2111 0
	ldr	r3, .L604+12
	strb	r4, [r3]
	.loc 1 2115 0
	ldmfd	sp!, {r4, lr}
	.cfi_restore 14
	.cfi_restore 4
	.cfi_def_cfa_offset 0
	.loc 1 2114 0
	b	ST_Start
.LVL336:
.L605:
	.align	2
.L604:
	.word	.LANCHOR0
	.word	netgame
	.word	deathmatch
	.word	gameaction
	.cfi_endproc
.LFE38:
	.size	G_DoNewGame, .-G_DoNewGame
	.align	2
	.global	G_WriteOptions
	.type	G_WriteOptions, %function
G_WriteOptions:
.LFB44:
	.loc 1 2347 0
	.cfi_startproc
	@ args = 0, pretend = 0, frame = 0
	@ frame_needed = 0, uses_anonymous_args = 0
.LVL337:
	.loc 1 2358 0
	mov	r1, #0
	.loc 1 2405 0
	mov	r2, r0
	.loc 1 2347 0
	stmfd	sp!, {r3, r4, r5, r6, r7, r8, r9, r10, fp, lr}
	.cfi_def_cfa_offset 40
	.cfi_offset 3, -40
	.cfi_offset 4, -36
	.cfi_offset 5, -32
	.cfi_offset 6, -28
	.cfi_offset 7, -24
	.cfi_offset 8, -20
	.cfi_offset 9, -16
	.cfi_offset 10, -12
	.cfi_offset 11, -8
	.cfi_offset 14, -4
	.loc 1 2350 0
	ldr	r3, .L616
	.loc 1 2352 0
	ldr	ip, .L616+4
	.loc 1 2350 0
	ldr	lr, [r3]
	.loc 1 2354 0
	ldr	r3, .L616+8
	.loc 1 2350 0
	strb	lr, [r0]
	.loc 1 2352 0
	ldr	lr, [ip]
	.loc 1 2356 0
	ldr	ip, .L616+12
	.loc 1 2352 0
	strb	lr, [r0, #1]
	.loc 1 2354 0
	ldr	lr, [r3]
	.loc 1 2367 0
	ldr	r9, .L616+16
	.loc 1 2354 0
	strb	lr, [r0, #2]
	.loc 1 2356 0
	ldr	lr, [ip]
	.loc 1 2370 0
	ldr	r3, .L616+20
	.loc 1 2356 0
	strb	lr, [r0, #3]
	.loc 1 2360 0
	ldr	r6, .L616+24
	.loc 1 2363 0
	ldr	r5, .L616+28
	.loc 1 2364 0
	ldr	r4, .L616+32
	.loc 1 2365 0
	ldr	lr, .L616+36
	.loc 1 2370 0
	ldr	r3, [r3]
	.loc 1 2367 0
	ldr	fp, [r9]
	.loc 1 2388 0
	ldr	ip, .L616+40
	.loc 1 2360 0
	ldr	r6, [r6]
	.loc 1 2363 0
	ldr	r5, [r5]
	.loc 1 2364 0
	ldr	r4, [r4]
	.loc 1 2365 0
	ldr	lr, [lr]
	.loc 1 2377 0
	ldr	r8, .L616+44
	.loc 1 2380 0
	ldr	r7, .L616+48
	.loc 1 2388 0
	ldr	ip, [ip]
	.loc 1 2367 0
	strb	fp, [r0, #9]
	.loc 1 2370 0
	mov	fp, r3, lsr #24
	.loc 1 2377 0
	ldr	r10, [r8]
	.loc 1 2380 0
	ldr	r9, [r7]
	.loc 1 2360 0
	strb	r6, [r0, #5]
	.loc 1 2363 0
	strb	r5, [r0, #6]
	.loc 1 2364 0
	strb	r4, [r0, #7]
	.loc 1 2365 0
	strb	lr, [r0, #8]
	.loc 1 2400 0
	ldr	r4, .L616+52
	.loc 1 2370 0
	strb	fp, [r0, #10]
	.loc 1 2391 0
	ldr	r8, .L616+56
	.loc 1 2371 0
	mov	fp, r3, lsr #16
	.loc 1 2393 0
	ldr	r7, .L616+60
	.loc 1 2395 0
	ldr	r6, .L616+64
	.loc 1 2397 0
	ldr	r5, .L616+68
	.loc 1 2405 0
	ldr	lr, .L616+72
	.loc 1 2373 0
	strb	r3, [r0, #13]
	.loc 1 2371 0
	strb	fp, [r0, #11]
	.loc 1 2372 0
	mov	r3, r3, lsr #8
	.loc 1 2388 0
	mov	fp, ip, asr #8
	.loc 1 2372 0
	strb	r3, [r0, #12]
	.loc 1 2389 0
	strb	ip, [r0, #19]
	.loc 1 2358 0
	strb	r1, [r0, #4]
	.loc 1 2385 0
	strb	r1, [r0, #16]
	.loc 1 2377 0
	strb	r10, [r0, #14]
	.loc 1 2380 0
	strb	r9, [r0, #15]
	.loc 1 2388 0
	strb	fp, [r0, #18]
	.loc 1 2386 0
	strb	r1, [r0, #17]
	.loc 1 2400 0
	ldr	ip, [r4]
	.loc 1 2391 0
	ldr	r8, [r8]
	.loc 1 2393 0
	ldr	r7, [r7]
	.loc 1 2395 0
	ldr	r6, [r6]
	.loc 1 2397 0
	ldr	r5, [r5]
	.loc 1 2405 0
	ldr	r3, [lr]
	ldr	r1, .L616+76
	.loc 1 2400 0
	strb	ip, [r0, #24]
	.loc 1 2391 0
	strb	r8, [r0, #20]
	.loc 1 2393 0
	strb	r7, [r0, #21]
	.loc 1 2395 0
	strb	r6, [r0, #22]
	.loc 1 2397 0
	strb	r5, [r0, #23]
	.loc 1 2348 0
	add	r4, r0, #64
.LVL338:
	.loc 1 2405 0
	strb	r3, [r2, #25]!
.LVL339:
	add	ip, r0, #57
.LVL340:
.L607:
.LBB110:
	.loc 1 2410 0 discriminator 3
	ldr	r3, [r1, #4]!
	adds	r3, r3, #0
	movne	r3, #1
	strb	r3, [r2, #1]!
.LVL341:
	.loc 1 2409 0 discriminator 3
	cmp	r2, ip
	bne	.L607
.LBE110:
	.loc 1 2413 0
	ldr	r2, .L616+80
.LVL342:
	add	r3, r0, #58
	ldrb	r2, [r2]	@ zero_extendqisi2
	add	ip, r0, #59
.LVL343:
	cmp	r2, #12
	movls	r2, #0
	bls	.L608
	.loc 1 2413 0 is_stmt 0 discriminator 1
	ldr	r2, .L616+84
	ldr	r2, [r2]
	adds	r2, r2, #0
	movne	r2, #1
.L608:
	.loc 1 2418 0 is_stmt 1 discriminator 6
	cmp	r4, ip
	.loc 1 2413 0 discriminator 6
	strb	r2, [r0, #58]
	.loc 1 2418 0 discriminator 6
	bls	.L609
	.loc 1 2418 0 is_stmt 0
	mov	r2, ip
	.loc 1 2419 0 is_stmt 1
	mov	r1, #0
.LVL344:
.L610:
	strb	r1, [r2], #1
.LVL345:
	.loc 1 2418 0
	cmp	r4, r2
	bne	.L610
	rsb	r3, r3, #63
	add	r3, r0, r3
	add	ip, ip, r3
.LVL346:
.L609:
	.loc 1 2421 0
	cmp	ip, r4
	beq	.L611
	.loc 1 2422 0
	ldr	r0, .L616+88
	bl	I_Error
.LVL347:
.L611:
	.loc 1 2425 0
	mov	r0, r4
	ldmfd	sp!, {r3, r4, r5, r6, r7, r8, r9, r10, fp, pc}
.L617:
	.align	2
.L616:
	.word	monsters_remember
	.word	variable_friction
	.word	weapon_recoil
	.word	allow_pushers
	.word	demo_insurance
	.word	rngseed
	.word	player_bobbing
	.word	respawnparm
	.word	fastparm
	.word	nomonsters
	.word	distfriend
	.word	monster_infighting
	.word	dogs
	.word	dog_jumping
	.word	monster_backing
	.word	monster_avoid_hazards
	.word	monster_friction
	.word	help_friends
	.word	monkeys
	.word	comp-4
	.word	compatibility_level
	.word	forceOldBsp
	.word	.LC17
	.cfi_endproc
.LFE44:
	.size	G_WriteOptions, .-G_WriteOptions
	.align	2
	.global	G_ReadOptions
	.type	G_ReadOptions, %function
G_ReadOptions:
.LFB45:
	.loc 1 2432 0
	.cfi_startproc
	@ args = 0, pretend = 0, frame = 0
	@ frame_needed = 0, uses_anonymous_args = 0
.LVL348:
	stmfd	sp!, {r3, r4, r5, r6, r7, r8, r9, r10, fp, lr}
	.cfi_def_cfa_offset 40
	.cfi_offset 3, -40
	.cfi_offset 4, -36
	.cfi_offset 5, -32
	.cfi_offset 6, -28
	.cfi_offset 7, -24
	.cfi_offset 8, -20
	.cfi_offset 9, -16
	.cfi_offset 10, -12
	.cfi_offset 11, -8
	.cfi_offset 14, -4
	.loc 1 2435 0
	ldr	r2, .L623
	ldrb	r1, [r0]	@ zero_extendqisi2
	.loc 1 2437 0
	ldr	r3, .L623+4
	.loc 1 2435 0
	str	r1, [r2]
	.loc 1 2437 0
	ldrb	r2, [r0, #1]	@ zero_extendqisi2
	.loc 1 2440 0
	ldr	lr, .L623+8
	.loc 1 2437 0
	str	r2, [r3]
	.loc 1 2440 0
	ldrb	r4, [r0, #2]	@ zero_extendqisi2
	.loc 1 2460 0
	ldrb	ip, [r0, #10]	@ zero_extendqisi2
	.loc 1 2469 0
	ldr	r1, .L623+12
	.loc 1 2462 0
	ldrb	r3, [r0, #11]	@ zero_extendqisi2
	.loc 1 2440 0
	str	r4, [lr]
	.loc 1 2464 0
	ldrb	r2, [r0, #12]	@ zero_extendqisi2
	.loc 1 2443 0
	ldrb	r9, [r0, #3]	@ zero_extendqisi2
	.loc 1 2469 0
	ldrb	r10, [r1]	@ zero_extendqisi2
	.loc 1 2462 0
	add	r3, r3, ip, asl #8
	.loc 1 2466 0
	ldrb	fp, [r0, #13]	@ zero_extendqisi2
	.loc 1 2443 0
	ldr	r8, .L623+16
	.loc 1 2464 0
	add	r3, r2, r3, asl #8
	.loc 1 2452 0
	ldrb	r4, [r0, #6]	@ zero_extendqisi2
	.loc 1 2466 0
	add	r3, fp, r3, asl #8
	.loc 1 2443 0
	str	r9, [r8]
	.loc 1 2466 0
	ldr	r7, .L623+20
	.loc 1 2448 0
	ldrb	r6, [r0, #5]	@ zero_extendqisi2
	ldr	r5, .L623+24
	.loc 1 2452 0
	ldr	lr, .L623+28
	.loc 1 2453 0
	ldrb	ip, [r0, #7]	@ zero_extendqisi2
	ldr	r1, .L623+32
	.loc 1 2454 0
	ldrb	r2, [r0, #8]	@ zero_extendqisi2
	ldr	fp, .L623+36
	.loc 1 2469 0
	cmp	r10, #10
	.loc 1 2456 0
	ldr	r8, .L623+40
	ldrb	r10, [r0, #9]	@ zero_extendqisi2
	.loc 1 2452 0
	str	r4, [lr]
	.loc 1 2466 0
	str	r3, [r7]
	.loc 1 2448 0
	str	r6, [r5]
	.loc 1 2453 0
	str	ip, [r1]
	.loc 1 2454 0
	str	r2, [fp]
	.loc 1 2456 0
	str	r10, [r8]
	.loc 1 2433 0
	add	r4, r0, #64
.LVL349:
	.loc 1 2469 0
	bls	.L619
.LVL350:
	.loc 1 2498 0
	mov	r2, r0
	.loc 1 2481 0
	ldrb	r7, [r0, #18]	@ zero_extendqisi2
	.loc 1 2482 0
	ldrb	ip, [r0, #19]	@ zero_extendqisi2
	.loc 1 2498 0
	ldrb	r8, [r2, #25]!	@ zero_extendqisi2
	ldr	r5, .L623+44
	.loc 1 2482 0
	ldr	r6, .L623+48
	.loc 1 2471 0
	ldr	r1, .L623+52
	ldrb	lr, [r0, #14]	@ zero_extendqisi2
	.loc 1 2474 0
	ldr	r3, .L623+56
	ldrb	fp, [r0, #15]	@ zero_extendqisi2
	.loc 1 2482 0
	add	ip, ip, r7, asl #8
	.loc 1 2498 0
	str	r8, [r5]
	.loc 1 2471 0
	str	lr, [r1]
.LVL351:
	.loc 1 2482 0
	str	ip, [r6]
	.loc 1 2474 0
	str	fp, [r3]
.LVL352:
	.loc 1 2490 0
	ldr	ip, .L623+60
	.loc 1 2484 0
	ldr	r9, .L623+64
	ldrb	r10, [r0, #20]	@ zero_extendqisi2
	.loc 1 2486 0
	ldr	r7, .L623+68
	ldrb	r8, [r0, #21]	@ zero_extendqisi2
	.loc 1 2488 0
	ldr	r5, .L623+72
	ldrb	r6, [r0, #22]	@ zero_extendqisi2
	.loc 1 2490 0
	ldrb	lr, [r0, #23]	@ zero_extendqisi2
	.loc 1 2493 0
	ldr	r1, .L623+76
	ldrb	fp, [r0, #24]	@ zero_extendqisi2
	ldr	r3, .L623+80
	.loc 1 2490 0
	str	lr, [ip]
	.loc 1 2484 0
	str	r10, [r9]
.LVL353:
	.loc 1 2486 0
	str	r8, [r7]
.LVL354:
	.loc 1 2488 0
	str	r6, [r5]
.LVL355:
	.loc 1 2493 0
	str	fp, [r1]
.LVL356:
	add	ip, r3, #128
.LVL357:
.L620:
.LBB111:
	.loc 1 2503 0 discriminator 3
	ldrb	r1, [r2, #1]!	@ zero_extendqisi2
.LVL358:
	str	r1, [r3, #4]!
.LVL359:
	.loc 1 2502 0 discriminator 3
	cmp	r3, ip
	bne	.L620
.LVL360:
.LBE111:
	.loc 1 2506 0
	ldrb	r2, [r0, #58]	@ zero_extendqisi2
.LVL361:
	ldr	r3, .L623+84
	str	r2, [r3]
.LVL362:
.L619:
	.loc 1 2513 0
	bl	G_Compatibility
.LVL363:
	.loc 1 2515 0
	mov	r0, r4
	ldmfd	sp!, {r3, r4, r5, r6, r7, r8, r9, r10, fp, pc}
.L624:
	.align	2
.L623:
	.word	monsters_remember
	.word	variable_friction
	.word	weapon_recoil
	.word	compatibility_level
	.word	allow_pushers
	.word	rngseed
	.word	player_bobbing
	.word	respawnparm
	.word	fastparm
	.word	nomonsters
	.word	demo_insurance
	.word	monkeys
	.word	distfriend
	.word	monster_infighting
	.word	dogs
	.word	help_friends
	.word	monster_backing
	.word	monster_avoid_hazards
	.word	monster_friction
	.word	dog_jumping
	.word	comp-4
	.word	forceOldBsp
	.cfi_endproc
.LFE45:
	.size	G_ReadOptions, .-G_ReadOptions
	.align	2
	.type	G_ReadDemoHeader, %function
G_ReadDemoHeader:
.LFB50:
	.loc 1 2677 0
	.cfi_startproc
	@ args = 0, pretend = 0, frame = 8
	@ frame_needed = 0, uses_anonymous_args = 0
.LVL364:
	stmfd	sp!, {r4, r5, r6, r7, r8, r9, r10, fp, lr}
	.cfi_def_cfa_offset 36
	.cfi_offset 4, -36
	.cfi_offset 5, -32
	.cfi_offset 6, -28
	.cfi_offset 7, -24
	.cfi_offset 8, -20
	.cfi_offset 9, -16
	.cfi_offset 10, -12
	.cfi_offset 11, -8
	.cfi_offset 14, -4
	.loc 1 2688 0
	ldr	ip, .L705
	ldr	r3, .L705+4
	ldr	ip, [ip]
.LBB133:
.LBB134:
	.loc 1 2666 0
	subs	r6, r1, #0
.LBE134:
.LBE133:
	.loc 1 2677 0
	sub	sp, sp, #12
	.cfi_def_cfa_offset 48
	.loc 1 2677 0
	mov	r4, r0
.LVL365:
	mov	r7, r2
	.loc 1 2688 0
	str	ip, [r3]
.LVL366:
.LBB137:
.LBB135:
	.loc 1 2666 0
	beq	.L626
.LVL367:
.L629:
.LBE135:
.LBE137:
	.loc 1 2698 0
	ldrb	r5, [r4]	@ zero_extendqisi2
	.loc 1 2699 0
	mov	r2, #0
	.loc 1 2706 0
	sub	r3, r5, #104
	cmp	r5, #4
	cmphi	r3, #7
	.loc 1 2699 0
	ldr	r8, .L705+8
	.loc 1 2698 0
	ldr	r3, .L705+12
	.loc 1 2699 0
	str	r2, [r8]
	.loc 1 2698 0
	str	r5, [r3]
	.loc 1 2706 0
	bls	.L628
	.loc 1 2708 0 discriminator 1
	sub	r2, r5, #200
	.loc 1 2706 0 discriminator 1
	cmp	r2, #14
	bhi	.L699
.L628:
	.loc 1 2713 0
	cmp	r5, #199
	bgt	.L631
.L704:
	.loc 1 2715 0
	cmp	r5, #110
	movgt	r2, #1
	strgt	r2, [r8]
	.loc 1 2719 0
	mov	r2, #0
	.loc 1 2725 0
	mov	r0, #1
	.loc 1 2719 0
	ldr	r10, .L705+16
	.loc 1 2721 0
	ldr	r9, .L705+20
	.loc 1 2723 0
	ldr	lr, .L705+24
	.loc 1 2728 0
	ldr	ip, .L705+28
	.loc 1 2729 0
	ldr	r1, .L705+32
	.loc 1 2743 0
	uxtb	r8, r5
.LVL368:
	sxtb	fp, r8
	.loc 1 2719 0
	str	r2, [r10]
	.loc 1 2721 0
	str	r2, [r9]
	.loc 1 2723 0
	str	r2, [lr]
	.loc 1 2728 0
	str	r2, [ip]
	.loc 1 2729 0
	str	r2, [r1]
	.loc 1 2743 0
	cmp	fp, #99
	.loc 1 2734 0
	ldr	r10, .L705+36
	.loc 1 2732 0
	ldr	fp, .L705+40
	.loc 1 2736 0
	ldr	r9, .L705+44
	.loc 1 2737 0
	ldr	lr, .L705+48
	.loc 1 2738 0
	ldr	ip, .L705+52
	.loc 1 2725 0
	ldr	r1, .L705+56
	.loc 1 2732 0
	str	r2, [fp]
	.loc 1 2734 0
	str	r2, [r10]
	.loc 1 2736 0
	str	r2, [r9]
	.loc 1 2737 0
	str	r2, [lr]
	.loc 1 2738 0
	str	r2, [ip]
	.loc 1 2725 0
	str	r0, [r1]
	.loc 1 2743 0
	ble	.L633
.LVL369:
.LBB138:
.LBB139:
	.loc 1 2666 0
	cmp	r6, #8
	bls	.L700
.L634:
.LVL370:
.LBE139:
.LBE138:
.LBB141:
.LBB142:
.LBB143:
	.loc 1 2648 0
	ldr	r0, .L705+60
	bl	M_CheckParm
.LVL371:
	.loc 1 2649 0
	cmp	r0, #0
	beq	.L639
	ldr	r3, .L705+64
	add	r0, r0, #1
.LVL372:
	ldr	r3, [r3]
	cmp	r0, r3
	blt	.L701
.LVL373:
.L639:
.LBE143:
	.loc 1 2656 0
	cmp	r5, #106
	ble	.L702
	.loc 1 2657 0
	ldr	r3, .L705+68
	ldrb	r8, [r3]	@ zero_extendqisi2
	cmp	r8, #3
	beq	.L637
	.loc 1 2658 0
	ldr	r3, .L705+72
	ldrb	r8, [r3]	@ zero_extendqisi2
	cmp	r8, #1
	movhi	r8, #4
	movls	r8, #2
.L637:
.LBE142:
.LBE141:
	.loc 1 2753 0
	ldr	lr, .L705+76
	ldrb	fp, [r4, #4]	@ zero_extendqisi2
	.loc 1 2754 0
	ldr	r0, .L705+80
	.loc 1 2755 0
	ldr	r2, .L705+84
	.loc 1 2749 0
	ldr	r5, .L705+88
.LVL374:
	.loc 1 2754 0
	ldrb	ip, [r4, #5]	@ zero_extendqisi2
	.loc 1 2755 0
	ldrb	r1, [r4, #6]	@ zero_extendqisi2
	.loc 1 2751 0
	ldrb	r10, [r4, #2]	@ zero_extendqisi2
	.loc 1 2752 0
	ldrb	r9, [r4, #3]	@ zero_extendqisi2
	.loc 1 2756 0
	ldrb	r3, [r4, #7]	@ zero_extendqisi2
	.loc 1 2749 0
	strb	r8, [r5]
.LVL375:
	.loc 1 2750 0
	ldrb	r8, [r4, #1]	@ zero_extendqisi2
.LVL376:
	.loc 1 2753 0
	str	fp, [lr]
.LVL377:
	.loc 1 2755 0
	str	r1, [r2]
	.loc 1 2757 0
	ldr	lr, .L705+92
	.loc 1 2754 0
	str	ip, [r0]
.LVL378:
	.loc 1 2756 0
	ldr	r2, .L705+96
	.loc 1 2757 0
	ldrb	r0, [r4, #8]	@ zero_extendqisi2
	.loc 1 2756 0
	str	r3, [r2]
	.loc 1 2757 0
	str	r0, [lr]
	add	fp, r4, #9
.LVL379:
	b	.L640
.LVL380:
.L631:
	.loc 1 2776 0
	sub	r5, r5, #200
	.loc 1 2775 0
	add	r9, r4, #7
.LVL381:
	.loc 1 2776 0
	cmp	r5, #14
	ldrls	pc, [pc, r5, asl #2]
	b	.L644
.L646:
	.word	.L645
	.word	.L645
	.word	.L647
	.word	.L648
	.word	.L644
	.word	.L644
	.word	.L644
	.word	.L644
	.word	.L644
	.word	.L644
	.word	.L649
	.word	.L650
	.word	.L651
	.word	.L652
	.word	.L653
.L647:
.LVL382:
.LBB148:
.LBB149:
	.loc 1 2666 0
	cmp	r6, #8
	bcc	.L658
.L661:
.LVL383:
.LBE149:
.LBE148:
	.loc 1 2793 0
	ldrb	r2, [r4, #7]	@ zero_extendqisi2
	add	r9, r4, #8
.LVL384:
	cmp	r2, #0
	bne	.L695
	.loc 1 2794 0
	mov	r2, #9
	ldr	r5, .L705+88
	strb	r2, [r5]
.LVL385:
.L644:
.LBB151:
.LBB152:
	.loc 1 2665 0
	rsb	r2, r4, r9
	.loc 1 2666 0
	add	r2, r2, #5
	cmp	r6, r2
	bcc	.L664
.L667:
.LVL386:
.LBE152:
.LBE151:
	.loc 1 2842 0
	add	r5, r9, #5
.LBB154:
.LBB155:
	.loc 1 2665 0
	rsb	r2, r4, r5
.LBE155:
.LBE154:
	.loc 1 2841 0
	ldrb	lr, [r9, #3]	@ zero_extendqisi2
	.loc 1 2842 0
	ldrb	r0, [r9, #4]	@ zero_extendqisi2
.LBB160:
.LBB156:
	.loc 1 2666 0
	add	r2, r2, #64
.LBE156:
.LBE160:
	.loc 1 2841 0
	ldr	ip, .L705+76
	.loc 1 2842 0
	ldr	r1, .L705+92
.LBB161:
.LBB157:
	.loc 1 2666 0
	cmp	r6, r2
.LBE157:
.LBE161:
	.loc 1 2838 0
	ldrb	r8, [r9]	@ zero_extendqisi2
.LVL387:
	.loc 1 2839 0
	ldrb	r10, [r9, #1]	@ zero_extendqisi2
.LVL388:
	.loc 1 2840 0
	ldrb	r9, [r9, #2]	@ zero_extendqisi2
.LVL389:
	.loc 1 2841 0
	str	lr, [ip]
	.loc 1 2842 0
	str	r0, [r1]
.LVL390:
.LBB162:
.LBB158:
	.loc 1 2666 0
	bcc	.L703
.LVL391:
.L666:
.LBE158:
.LBE162:
	.loc 1 2852 0
	mov	r0, r5
	str	r3, [sp, #4]
	bl	G_ReadOptions
.LVL392:
	.loc 1 2854 0
	ldr	r3, [sp, #4]
	ldr	r5, .L705+88
.LVL393:
	ldr	r3, [r3]
	.loc 1 2852 0
	mov	fp, r0
.LVL394:
	.loc 1 2854 0
	cmp	r3, #200
	.loc 1 2855 0
	addeq	fp, r0, #192
.LVL395:
.L643:
	.loc 1 2860 0
	ldrb	r2, [r5]	@ zero_extendqisi2
	ldr	r3, .L705+100
	mov	r0, #1
	add	r3, r3, r2, asl #2
	ldr	r2, [r3, #320]
	ldr	r1, .L705+104
	bl	lprintf
.LVL396:
	.loc 1 2863 0
	ldrb	r3, [r5]	@ zero_extendqisi2
.LBB163:
.LBB164:
	.loc 1 2665 0
	rsb	r4, r4, fp
.LVL397:
.LBE164:
.LBE163:
	.loc 1 2863 0
	cmp	r3, #6
.LBB168:
.LBB165:
	.loc 1 2666 0
	add	r4, r4, #4
.LBE165:
.LBE168:
	.loc 1 2863 0
	bhi	.L669
.LVL398:
.LBB169:
.LBB166:
	.loc 1 2666 0
	cmp	r6, r4
	bcc	.L670
.L672:
.LVL399:
	ldr	r0, .L705+108
	add	r4, fp, #4
.LVL400:
	mov	r3, r0
.LVL401:
.L671:
.LBE166:
.LBE169:
	.loc 1 2870 0 discriminator 3
	ldrb	r2, [fp], #1	@ zero_extendqisi2
.LVL402:
	.loc 1 2869 0 discriminator 3
	cmp	fp, r4
	.loc 1 2870 0 discriminator 3
	str	r2, [r3], #4
.LVL403:
	.loc 1 2869 0 discriminator 3
	bne	.L671
.LVL404:
.L673:
	.loc 1 2885 0
	ldr	r3, [r0, #4]
	cmp	r3, #0
	.loc 1 2887 0
	movne	r3, #1
	ldrne	r1, .L705+112
	.loc 1 2888 0
	ldrne	r2, .L705+116
	.loc 1 2887 0
	strne	r3, [r1]
	.loc 1 2888 0
	strne	r3, [r2, #2288]
	.loc 1 2891 0
	ldr	r3, .L705+120
	ldrb	r3, [r3]	@ zero_extendqisi2
	cmp	r3, #3
	beq	.L678
	.loc 1 2892 0
	sxtb	r0, r8
	mov	r1, r10
	mov	r2, r9
	bl	G_InitNew
.LVL405:
.L678:
	.loc 1 2896 0 discriminator 1
	mov	r2, #0
	.loc 1 2898 0 discriminator 1
	mov	r0, r4
	.loc 1 2896 0 discriminator 1
	ldr	r3, .L705+124
	str	r2, [r3, #200]
.LVL406:
	str	r2, [r3, #484]
.LVL407:
	str	r2, [r3, #768]
.LVL408:
	str	r2, [r3, #1052]
.LVL409:
	.loc 1 2899 0 discriminator 1
	add	sp, sp, #12
	.cfi_remember_state
	.cfi_def_cfa_offset 36
	@ sp needed
	ldmfd	sp!, {r4, r5, r6, r7, r8, r9, r10, fp, pc}
.LVL410:
.L669:
	.cfi_restore_state
.LBB170:
.LBB171:
	.loc 1 2666 0
	cmp	r6, r4
	bcc	.L674
.L676:
.LVL411:
	ldr	r0, .L705+108
.LBE171:
.LBE170:
.LBB173:
.LBB145:
	.loc 1 2658 0
	mov	r3, fp
	mov	r2, r0
	add	ip, fp, #4
.LVL412:
.L675:
.LBE145:
.LBE173:
	.loc 1 2881 0 discriminator 3
	ldrb	r1, [r3], #1	@ zero_extendqisi2
.LVL413:
	.loc 1 2880 0 discriminator 3
	cmp	r3, ip
	.loc 1 2881 0 discriminator 3
	str	r1, [r2], #4
.LVL414:
	.loc 1 2880 0 discriminator 3
	bne	.L675
	.loc 1 2882 0
	add	r4, fp, #32
.LVL415:
	b	.L673
.LVL416:
.L626:
.LBB174:
.LBB136:
	mov	r0, r2
.LVL417:
	bl	CheckForOverrun.part.0
.LVL418:
.LBE136:
.LBE174:
	.loc 1 2695 0
	cmp	r0, #0
	beq	.L629
.LVL419:
.L635:
	.loc 1 2696 0
	mov	r0, #0
	.loc 1 2899 0
	add	sp, sp, #12
	.cfi_remember_state
	.cfi_def_cfa_offset 36
	@ sp needed
	ldmfd	sp!, {r4, r5, r6, r7, r8, r9, r10, fp, pc}
.LVL420:
.L633:
	.cfi_restore_state
.LBB175:
.LBB176:
	.loc 1 2666 0
	cmp	r6, #2
	bls	.L641
.L642:
.LBE176:
.LBE175:
	.loc 1 2765 0
	mov	r3, #0
	.loc 1 2769 0
	ldr	lr, .L705+92
	ldr	ip, .L705+96
	.loc 1 2768 0
	ldr	r0, .L705+84
	ldr	r1, .L705+80
	ldr	r2, .L705+76
	.loc 1 2765 0
	ldr	r5, .L705+88
	.loc 1 2766 0
	ldrb	r10, [r4, #1]	@ zero_extendqisi2
	.loc 1 2767 0
	ldrb	r9, [r4, #2]	@ zero_extendqisi2
	.loc 1 2765 0
	strb	r3, [r5]
.LVL421:
	.loc 1 2769 0
	str	r3, [lr]
	str	r3, [ip]
	.loc 1 2768 0
	str	r3, [r0]
	str	r3, [r1]
	str	r3, [r2]
	.loc 1 2767 0
	add	fp, r4, #3
.LVL422:
.L640:
	.loc 1 2771 0
	bl	G_Compatibility
.LVL423:
	b	.L643
.LVL424:
.L699:
	.loc 1 2710 0
	mov	r1, r5
	ldr	r0, .L705+128
	str	r3, [sp, #4]
	bl	I_Error
.LVL425:
	ldr	r3, [sp, #4]
	ldr	r5, [r3]
	.loc 1 2713 0
	cmp	r5, #199
	bgt	.L631
	b	.L704
.LVL426:
.L641:
.LBB178:
.LBB177:
	mov	r0, r7
	bl	CheckForOverrun.part.0
.LVL427:
.LBE177:
.LBE178:
	.loc 1 2762 0
	cmp	r0, #0
	beq	.L642
	b	.L635
.LVL428:
.L700:
.LBB179:
.LBB140:
	mov	r0, r7
	str	r3, [sp, #4]
	bl	CheckForOverrun.part.0
.LVL429:
.LBE140:
.LBE179:
	.loc 1 2746 0
	cmp	r0, #0
	ldr	r3, [sp, #4]
	bne	.L635
	ldr	r5, [r3]
	b	.L634
.LVL430:
.L645:
.LBB180:
.LBB181:
	.loc 1 2666 0
	cmp	r6, #8
	bcc	.L654
.L657:
.LVL431:
.LBE181:
.LBE180:
	.loc 1 2783 0
	ldrb	r2, [r4, #7]	@ zero_extendqisi2
	add	r9, r4, #8
.LVL432:
	cmp	r2, #0
	bne	.L695
	.loc 1 2784 0
	mov	r2, #8
	ldr	r5, .L705+88
	strb	r2, [r5]
	b	.L644
.LVL433:
.L653:
	.loc 1 2829 0
	mov	r2, #17
	.loc 1 2830 0
	mov	r1, #1
	.loc 1 2829 0
	ldr	r5, .L705+88
	.loc 1 2830 0
	str	r1, [r8]
.LVL434:
	.loc 1 2829 0
	strb	r2, [r5]
	.loc 1 2831 0
	add	r9, r4, #8
.LVL435:
	.loc 1 2832 0
	b	.L644
.L652:
	.loc 1 2825 0
	mov	r2, #16
	ldr	r5, .L705+88
	.loc 1 2826 0
	add	r9, r4, #8
.LVL436:
	.loc 1 2825 0
	strb	r2, [r5]
.LVL437:
	.loc 1 2827 0
	b	.L644
.L651:
	.loc 1 2821 0
	mov	r2, #15
	ldr	r5, .L705+88
	.loc 1 2822 0
	add	r9, r4, #8
.LVL438:
	.loc 1 2821 0
	strb	r2, [r5]
.LVL439:
	.loc 1 2823 0
	b	.L644
.L650:
	.loc 1 2817 0
	mov	r2, #14
	ldr	r5, .L705+88
	.loc 1 2818 0
	add	r9, r4, #8
.LVL440:
	.loc 1 2817 0
	strb	r2, [r5]
.LVL441:
	.loc 1 2819 0
	b	.L644
.L649:
	.loc 1 2813 0
	mov	r2, #13
	ldr	r5, .L705+88
	.loc 1 2814 0
	add	r9, r4, #8
.LVL442:
	.loc 1 2813 0
	strb	r2, [r5]
.LVL443:
	.loc 1 2815 0
	b	.L644
.L648:
	.loc 1 2801 0
	ldrb	r2, [r4, #2]	@ zero_extendqisi2
	cmp	r2, #66
	beq	.L662
	cmp	r2, #77
	.loc 1 2807 0
	moveq	r2, #11
	ldreq	r5, .L705+88
	.loc 1 2808 0
	addeq	r9, r4, #8
.LVL444:
	.loc 1 2807 0
	streqb	r2, [r5]
.LVL445:
	.loc 1 2809 0
	b	.L644
.LVL446:
.L664:
.LBB183:
.LBB153:
	mov	r0, r7
	str	r3, [sp, #4]
	bl	CheckForOverrun.part.0
.LVL447:
.LBE153:
.LBE183:
	.loc 1 2835 0
	cmp	r0, #0
	ldr	r3, [sp, #4]
	beq	.L667
	b	.L635
.LVL448:
.L703:
.LBB184:
.LBB159:
	mov	r0, r7
	str	r3, [sp, #4]
	bl	CheckForOverrun.part.0
.LVL449:
.LBE159:
.LBE184:
	.loc 1 2849 0
	cmp	r0, #0
	ldr	r3, [sp, #4]
	bne	.L635
	b	.L666
.LVL450:
.L670:
.LBB185:
.LBB167:
	mov	r0, r7
	bl	CheckForOverrun.part.0
.LVL451:
.LBE167:
.LBE185:
	.loc 1 2866 0
	cmp	r0, #0
	beq	.L672
	b	.L635
.LVL452:
.L674:
.LBB186:
.LBB172:
	mov	r0, r7
	bl	CheckForOverrun.part.0
.LVL453:
.LBE172:
.LBE186:
	.loc 1 2877 0
	cmp	r0, #0
	beq	.L676
	b	.L635
.LVL454:
.L702:
.LBB187:
.LBB146:
	.loc 1 2656 0
	mov	r8, #1
	b	.L637
.LVL455:
.L662:
.LBE146:
.LBE187:
	.loc 1 2804 0
	mov	r2, #10
	ldr	r5, .L705+88
	strb	r2, [r5]
	.loc 1 2805 0
	b	.L644
.LVL456:
.L654:
.LBB188:
.LBB182:
	mov	r0, r7
	str	r3, [sp, #4]
	bl	CheckForOverrun.part.0
.LVL457:
.LBE182:
.LBE188:
	.loc 1 2780 0
	cmp	r0, #0
	ldr	r3, [sp, #4]
	beq	.L657
	b	.L635
.LVL458:
.L658:
.LBB189:
.LBB150:
	mov	r0, r7
	str	r3, [sp, #4]
	bl	CheckForOverrun.part.0
.LVL459:
.LBE150:
.LBE189:
	.loc 1 2790 0
	cmp	r0, #0
	ldr	r3, [sp, #4]
	beq	.L661
	b	.L635
.LVL460:
.L695:
	.loc 1 2796 0
	mov	r2, #7
	ldr	r5, .L705+88
	strb	r2, [r5]
	b	.L644
.LVL461:
.L701:
.LBB190:
.LBB147:
.LBB144:
	.loc 1 2651 0
	ldr	r3, .L705+132
	ldr	r3, [r3]
	ldr	r0, [r3, r0, asl #2]
.LVL462:
	bl	atoi
.LVL463:
	.loc 1 2652 0
	cmp	r0, #0
	uxtbge	r8, r0
.LVL464:
	bge	.L637
	b	.L639
.L706:
	.align	2
.L705:
	.word	gametic
	.word	basetic
	.word	longtics
	.word	demover
	.word	variable_friction
	.word	weapon_recoil
	.word	allow_pushers
	.word	dogs
	.word	dog_jumping
	.word	monster_avoid_hazards
	.word	monster_backing
	.word	monster_friction
	.word	help_friends
	.word	monkeys
	.word	monster_infighting
	.word	.LC16
	.word	myargc
	.word	gamemode
	.word	gamemission
	.word	deathmatch
	.word	respawnparm
	.word	fastparm
	.word	compatibility_level
	.word	consoleplayer
	.word	nomonsters
	.word	.LANCHOR1
	.word	.LC19
	.word	playeringame
	.word	netgame
	.word	.LANCHOR0
	.word	gameaction
	.word	players
	.word	.LC18
	.word	myargv
.LBE144:
.LBE147:
.LBE190:
	.cfi_endproc
.LFE50:
	.size	G_ReadDemoHeader, .-G_ReadDemoHeader
	.align	2
	.global	G_RecordDemo
	.type	G_RecordDemo, %function
G_RecordDemo:
.LFB43:
	.loc 1 2283 0
	.cfi_startproc
	@ args = 0, pretend = 0, frame = 200
	@ frame_needed = 0, uses_anonymous_args = 0
.LVL465:
	stmfd	sp!, {r4, r5, r6, r7, r8, r9, r10, fp, lr}
	.cfi_def_cfa_offset 36
	.cfi_offset 4, -36
	.cfi_offset 5, -32
	.cfi_offset 6, -28
	.cfi_offset 7, -24
	.cfi_offset 8, -20
	.cfi_offset 9, -16
	.cfi_offset 10, -12
	.cfi_offset 11, -8
	.cfi_offset 14, -4
	.loc 1 2285 0
	mov	r4, #0
	ldr	r3, .L734
	.loc 1 2283 0
	sub	sp, sp, #204
	.cfi_def_cfa_offset 240
	.loc 1 2285 0
	str	r4, [r3]
	.loc 1 2283 0
	mov	r10, r0
	.loc 1 2286 0
	bl	strlen
.LVL466:
	mov	r2, r4
	mov	r1, #1
	add	r0, r0, #5
	bl	Z_Malloc
.LVL467:
	mov	r6, r0
.LVL468:
	.loc 1 2288 0
	mov	r8, #1
	.loc 1 2287 0
	mov	r1, r10
	bl	strcpy
.LVL469:
	ldr	r1, .L734+4
	bl	AddDefaultExtension
.LVL470:
	.loc 1 2288 0
	ldr	r3, .L734+8
	.loc 1 2292 0
	mov	r1, r4
	mov	r0, r6
	.loc 1 2288 0
	str	r8, [r3]
	.loc 1 2292 0
	bl	access
.LVL471:
	subs	r7, r0, #0
	.loc 1 2293 0
	mov	r0, r6
	.loc 1 2292 0
	beq	.L708
	.loc 1 2293 0
	ldr	r1, .L734+12
	bl	fopen
.LVL472:
	ldr	r3, .L734+16
	str	r0, [r3, #2296]
.L709:
	.loc 1 2332 0
	cmp	r0, #0
	beq	.L720
	.loc 1 2333 0
	mov	r0, r6
	bl	Z_Free
.LVL473:
	.loc 1 2334 0
	add	sp, sp, #204
	.cfi_remember_state
	.cfi_def_cfa_offset 36
	@ sp needed
	ldmfd	sp!, {r4, r5, r6, r7, r8, r9, r10, fp, pc}
.LVL474:
.L708:
	.cfi_restore_state
	.loc 1 2295 0
	ldr	r1, .L734+20
	bl	fopen
.LVL475:
	ldr	r4, .L734+16
	.loc 1 2296 0
	cmp	r0, #0
	.loc 1 2295 0
	str	r0, [r4, #2296]
	.loc 1 2296 0
	beq	.L720
.LVL476:
.LBB191:
.LBB192:
	.loc 1 2304 0
	mov	r3, r0
	mov	r1, r8
	mov	r2, #200
	mov	r0, sp
	bl	fread
.LVL477:
	.loc 1 2305 0
	mov	r2, r7
	.loc 1 2304 0
	mov	r1, r0
.LVL478:
	.loc 1 2305 0
	mov	r0, sp
.LVL479:
	bl	G_ReadDemoHeader
.LVL480:
	.loc 1 2306 0
	cmp	r0, #0
	.loc 1 2304 0
	mov	r5, sp
	.loc 1 2306 0
	beq	.L721
	.loc 1 2308 0
	mov	r2, r7
	rsb	r1, r5, r0
	ldr	r0, [r4, #2296]
.LVL481:
	bl	fseek
.LVL482:
.LBE192:
	.loc 1 2311 0
	ldr	r3, .L734+24
	mvn	fp, #0
	ldr	r3, [r3]
	cmp	r3, #0
	movne	r7, #5
	moveq	r7, #4
.LBB193:
	.loc 1 2319 0
	add	r3, sp, #200
.LBE193:
	.loc 1 2311 0
	mov	r8, r7
.LVL483:
.LBB194:
	.loc 1 2319 0
	add	r9, r3, r7
	b	.L716
.LVL484:
.L715:
.LBE194:
	.loc 1 2322 0
	cmp	r8, r0
	bne	.L717
.LVL485:
.L716:
.LBB195:
	.loc 1 2317 0
	ldr	r3, [r4, #2296]
	mov	r0, r5
	mov	r1, #1
	mov	r2, r7
	bl	fread
.LVL486:
	.loc 1 2318 0
	ldrb	r3, [sp]	@ zero_extendqisi2
	cmp	r3, #128
	beq	.L717
	.loc 1 2319 0
	ldrb	r3, [r9, #-201]	@ zero_extendqisi2
	tst	r3, #128
	beq	.L715
	.loc 1 2320 0
	and	r2, r3, #3
	cmp	r2, #2
	.loc 1 2321 0
	andeq	fp, r3, #28
	moveq	fp, fp, asr #2
.LVL487:
.LBE195:
	.loc 1 2322 0
	cmp	r8, r0
	beq	.L716
.LVL488:
.L717:
	.loc 1 2324 0
	cmn	fp, #1
	rsb	r7, r0, #0
.LVL489:
	beq	.L721
.LVL490:
.L719:
	.loc 1 2327 0
	mov	r2, #1
	mov	r1, r7
	ldr	r0, [r4, #2296]
	bl	fseek
.LVL491:
	.loc 1 2328 0
	mov	r0, fp
	mov	r1, #0
	bl	G_LoadGame
.LVL492:
	.loc 1 2329 0
	mov	r2, #0
	ldr	r3, .L734+28
	ldr	r0, [r4, #2296]
	str	r2, [r3]
	b	.L709
.L720:
.LBE191:
	.loc 1 2332 0
	mov	r1, r10
	ldr	r0, .L734+32
	bl	I_Error
.LVL493:
	.loc 1 2333 0
	mov	r0, r6
	bl	Z_Free
.LVL494:
	.loc 1 2334 0
	add	sp, sp, #204
	.cfi_remember_state
	.cfi_def_cfa_offset 36
	@ sp needed
	ldmfd	sp!, {r4, r5, r6, r7, r8, r9, r10, fp, pc}
.LVL495:
.L721:
	.cfi_restore_state
.LBB196:
	.loc 1 2324 0 discriminator 1
	ldr	r0, .L734+36
	bl	I_Error
.LVL496:
	mvn	fp, #0
	b	.L719
.L735:
	.align	2
.L734:
	.word	usergame
	.word	.LC20
	.word	demorecording
	.word	.LC21
	.word	.LANCHOR0
	.word	.LC22
	.word	longtics
	.word	autostart
	.word	.LC23
	.word	.LC24
.LBE196:
	.cfi_endproc
.LFE43:
	.size	G_RecordDemo, .-G_RecordDemo
	.align	2
	.global	G_BeginRecording
	.type	G_BeginRecording, %function
G_BeginRecording:
.LFB46:
	.loc 1 2518 0
	.cfi_startproc
	@ args = 0, pretend = 0, frame = 0
	@ frame_needed = 0, uses_anonymous_args = 0
	stmfd	sp!, {r4, r5, r6, r7, r8, r9, r10, lr}
	.cfi_def_cfa_offset 32
	.cfi_offset 4, -32
	.cfi_offset 5, -28
	.cfi_offset 6, -24
	.cfi_offset 7, -20
	.cfi_offset 8, -16
	.cfi_offset 9, -12
	.cfi_offset 10, -8
	.cfi_offset 14, -4
	.loc 1 2522 0
	mov	r4, #0
	.loc 1 2521 0
	mov	r0, #1000
	mov	r1, #1
	mov	r2, r4
	bl	Z_Malloc
.LVL497:
	.loc 1 2525 0
	ldr	r3, .L769
	.loc 1 2522 0
	ldr	r6, .L769+4
	.loc 1 2525 0
	ldrb	r3, [r3]	@ zero_extendqisi2
	.loc 1 2521 0
	mov	r5, r0
.LVL498:
	.loc 1 2525 0
	cmp	r3, #10
	.loc 1 2522 0
	str	r4, [r6]
	.loc 1 2525 0
	bls	.L737
.LVL499:
.LBB197:
	.loc 1 2528 0
	sub	r3, r3, #11
	cmp	r3, #6
	ldrls	pc, [pc, r3, asl #2]
	b	.L758
.L740:
	.word	.L739
	.word	.L758
	.word	.L741
	.word	.L742
	.word	.L743
	.word	.L744
	.word	.L745
.LVL500:
.L737:
.LBE197:
	.loc 1 2572 0
	cmp	r3, #7
	bls	.L749
.LVL501:
.LBB198:
	.loc 1 2574 0
	cmp	r3, #8
	.loc 1 2576 0
	moveq	r4, #201
	.loc 1 2574 0
	beq	.L751
	cmp	r3, #9
	.loc 1 2577 0
	moveq	r4, #202
	.loc 1 2574 0
	bne	.L768
.LVL502:
.L751:
	.loc 1 2585 0
	mov	r3, #111
	.loc 1 2583 0
	mov	r10, #29
	.loc 1 2584 0
	mov	r9, #66
	.loc 1 2591 0
	mov	r2, #0
	.loc 1 2587 0
	mov	r0, #109
	.loc 1 2588 0
	mvn	r1, #25
	.loc 1 2594 0
	ldr	r7, .L769+8
	.loc 1 2595 0
	ldr	r6, .L769+12
	.loc 1 2596 0
	ldr	r8, .L769+16
	.loc 1 2597 0
	ldr	lr, .L769+20
	.loc 1 2593 0
	ldr	ip, .L769+24
	.loc 1 2580 0
	strb	r4, [r5]
.LVL503:
	.loc 1 2585 0
	strb	r3, [r5, #3]
	.loc 1 2583 0
	strb	r10, [r5, #1]
.LVL504:
	.loc 1 2584 0
	strb	r9, [r5, #2]
.LVL505:
	.loc 1 2593 0
	ldrb	ip, [ip]	@ zero_extendqisi2
	.loc 1 2594 0
	ldr	r7, [r7]
	.loc 1 2595 0
	ldr	r6, [r6]
	.loc 1 2596 0
	ldr	r4, [r8]
.LVL506:
	.loc 1 2597 0
	ldr	lr, [lr]
	.loc 1 2586 0
	strb	r3, [r5, #4]
.LVL507:
	.loc 1 2593 0
	strb	ip, [r5, #8]
	.loc 1 2587 0
	strb	r0, [r5, #5]
.LVL508:
	.loc 1 2591 0
	strb	r2, [r5, #7]
	.loc 1 2594 0
	strb	r7, [r5, #9]
	.loc 1 2595 0
	strb	r6, [r5, #10]
	.loc 1 2596 0
	strb	r4, [r5, #11]
	.loc 1 2597 0
	strb	lr, [r5, #12]
	.loc 1 2588 0
	strb	r1, [r5, #6]
.LVL509:
	.loc 1 2599 0
	add	r0, r5, #13
.LVL510:
	bl	G_WriteOptions
.LVL511:
	ldr	r2, .L769+28
	sub	r3, r0, #1
	add	ip, r0, #3
.LVL512:
.L753:
	.loc 1 2602 0 discriminator 3
	ldr	r1, [r2], #4
	strb	r1, [r3, #1]!
.LVL513:
	.loc 1 2601 0 discriminator 3
	cmp	r3, ip
	bne	.L753
	.loc 1 2609 0
	mov	r2, #0
	add	r3, r0, #4
.LVL514:
	add	r0, r0, #32
.L754:
.LVL515:
	.loc 1 2609 0 is_stmt 0 discriminator 2
	strb	r2, [r3], #1
.LVL516:
	.loc 1 2608 0 is_stmt 1 discriminator 2
	cmp	r3, r0
	bne	.L754
.LVL517:
.L748:
.LBE198:
	.loc 1 2625 0
	ldr	r1, .L769+32
	rsb	r4, r5, r3
	mov	r2, r4
	ldr	r3, [r1, #2296]
.LVL518:
	mov	r0, r5
	mov	r1, #1
	bl	fwrite
.LVL519:
	cmp	r4, r0
	beq	.L757
	.loc 1 2626 0
	ldr	r0, .L769+36
	bl	I_Error
.LVL520:
.L757:
	.loc 1 2627 0
	mov	r0, r5
	.loc 1 2628 0
	ldmfd	sp!, {r4, r5, r6, r7, r8, r9, r10, lr}
	.cfi_remember_state
	.cfi_restore 14
	.cfi_restore 10
	.cfi_restore 9
	.cfi_restore 8
	.cfi_restore 7
	.cfi_restore 6
	.cfi_restore 5
	.cfi_restore 4
	.cfi_def_cfa_offset 0
.LVL521:
	.loc 1 2627 0
	b	Z_Free
.LVL522:
.L749:
	.cfi_restore_state
	.loc 1 2611 0
	ldr	r0, .L769+40
.LVL523:
	bl	M_CheckParm
.LVL524:
	.loc 1 2612 0
	cmp	r0, #0
	movne	r1, #111
	moveq	r1, #109
	.loc 1 2620 0
	mov	r3, r5
	.loc 1 2613 0
	ldr	r2, .L769+24
	.loc 1 2611 0
	str	r0, [r6]
.LVL525:
	.loc 1 2612 0
	strb	r1, [r5]
.LVL526:
	.loc 1 2613 0
	ldrb	r1, [r2]	@ zero_extendqisi2
	.loc 1 2614 0
	ldr	r2, .L769+8
	.loc 1 2613 0
	strb	r1, [r5, #1]
.LVL527:
	.loc 1 2614 0
	ldr	r1, [r2]
	.loc 1 2615 0
	ldr	r2, .L769+12
	.loc 1 2614 0
	strb	r1, [r5, #2]
.LVL528:
	.loc 1 2615 0
	ldr	r4, [r2]
	.loc 1 2616 0
	ldr	lr, .L769+16
	.loc 1 2617 0
	ldr	ip, .L769+44
	.loc 1 2618 0
	ldr	r0, .L769+48
	.loc 1 2619 0
	ldr	r1, .L769+52
	.loc 1 2620 0
	ldr	r2, .L769+20
	.loc 1 2615 0
	strb	r4, [r5, #3]
.LVL529:
	.loc 1 2616 0
	ldr	r4, [lr]
	.loc 1 2617 0
	ldr	lr, [ip]
	.loc 1 2618 0
	ldr	ip, [r0]
	.loc 1 2619 0
	ldr	r0, [r1]
	.loc 1 2620 0
	ldr	r1, [r2]
	ldr	r2, .L769+28
	.loc 1 2619 0
	strb	r0, [r5, #7]
	.loc 1 2616 0
	strb	r4, [r5, #4]
.LVL530:
	.loc 1 2617 0
	strb	lr, [r5, #5]
.LVL531:
	.loc 1 2618 0
	strb	ip, [r5, #6]
.LVL532:
	add	r0, r5, #12
	.loc 1 2620 0
	strb	r1, [r3, #8]!
.LVL533:
.L756:
	.loc 1 2622 0 discriminator 3
	ldr	r1, [r2], #4
	strb	r1, [r3, #1]!
.LVL534:
	.loc 1 2621 0 discriminator 3
	cmp	r3, r0
	bne	.L756
	add	r3, r5, #13
.LVL535:
	b	.L748
.LVL536:
.L768:
.LBB199:
	.loc 1 2578 0
	ldr	r0, .L769+56
.LVL537:
	bl	I_Error
.LVL538:
	b	.L751
.LVL539:
.L742:
.LBE199:
.LBB200:
	.loc 1 2531 0
	mov	r10, #211
.LVL540:
.L738:
.LBE200:
	.loc 1 2543 0
	mov	r9, #29
	.loc 1 2544 0
	mov	r8, #77
	.loc 1 2545 0
	mov	r7, #66
	.loc 1 2548 0
	mov	r3, #0
	.loc 1 2547 0
	mvn	r2, #25
	.loc 1 2546 0
	mov	r1, #70
	.loc 1 2555 0
	ldr	r6, .L769+8
	.loc 1 2556 0
	ldr	r4, .L769+12
	.loc 1 2557 0
	ldr	lr, .L769+16
	.loc 1 2558 0
	ldr	ip, .L769+20
	.loc 1 2554 0
	ldr	r0, .L769+24
.LVL541:
.LBB201:
	.loc 1 2539 0
	strb	r10, [r5]
.LVL542:
.LBE201:
	.loc 1 2543 0
	strb	r9, [r5, #1]
.LVL543:
	.loc 1 2544 0
	strb	r8, [r5, #2]
.LVL544:
	.loc 1 2545 0
	strb	r7, [r5, #3]
.LVL545:
	.loc 1 2558 0
	ldr	ip, [ip]
	.loc 1 2554 0
	ldrb	r0, [r0]	@ zero_extendqisi2
	.loc 1 2555 0
	ldr	r6, [r6]
	.loc 1 2556 0
	ldr	r4, [r4]
	.loc 1 2557 0
	ldr	lr, [lr]
	.loc 1 2558 0
	strb	ip, [r5, #12]
	.loc 1 2554 0
	strb	r0, [r5, #8]
	.loc 1 2547 0
	strb	r2, [r5, #5]
	.loc 1 2548 0
	strb	r3, [r5, #6]
	.loc 1 2552 0
	strb	r3, [r5, #7]
	.loc 1 2555 0
	strb	r6, [r5, #9]
	.loc 1 2556 0
	strb	r4, [r5, #10]
	.loc 1 2557 0
	strb	lr, [r5, #11]
	.loc 1 2546 0
	strb	r1, [r5, #4]
.LVL546:
	.loc 1 2560 0
	add	r0, r5, #13
.LVL547:
	bl	G_WriteOptions
.LVL548:
	ldr	r2, .L769+28
	sub	r3, r0, #1
	add	ip, r0, #3
.LVL549:
.L746:
	.loc 1 2563 0 discriminator 3
	ldr	r1, [r2], #4
	strb	r1, [r3, #1]!
.LVL550:
	.loc 1 2562 0 discriminator 3
	cmp	r3, ip
	bne	.L746
	.loc 1 2570 0
	mov	r2, #0
	add	r3, r0, #4
.LVL551:
	add	r0, r0, #32
.L747:
.LVL552:
	.loc 1 2570 0 is_stmt 0 discriminator 2
	strb	r2, [r3], #1
.LVL553:
	.loc 1 2569 0 is_stmt 1 discriminator 2
	cmp	r3, r0
	bne	.L747
	b	.L748
.LVL554:
.L743:
.LBB202:
	.loc 1 2532 0
	mov	r10, #212
	b	.L738
.LVL555:
.L744:
	.loc 1 2533 0
	mov	r10, #213
	b	.L738
.LVL556:
.L745:
	.loc 1 2536 0
	mov	r3, #1
	.loc 1 2535 0
	mov	r10, #214
	.loc 1 2536 0
	str	r3, [r6]
	.loc 1 2537 0
	b	.L738
.LVL557:
.L739:
	.loc 1 2529 0
	mov	r10, #203
	b	.L738
.L741:
.LVL558:
	.loc 1 2530 0
	mov	r10, #210
	b	.L738
.LVL559:
.L758:
	.loc 1 2527 0
	mov	r10, #0
	b	.L738
.L770:
	.align	2
.L769:
	.word	compatibility_level
	.word	longtics
	.word	gameepisode
	.word	gamemap
	.word	deathmatch
	.word	consoleplayer
	.word	gameskill
	.word	playeringame
	.word	.LANCHOR0
	.word	.LC27
	.word	.LC26
	.word	respawnparm
	.word	fastparm
	.word	nomonsters
	.word	.LC25
.LBE202:
	.cfi_endproc
.LFE46:
	.size	G_BeginRecording, .-G_BeginRecording
	.align	2
	.global	G_DeferedPlayDemo
	.type	G_DeferedPlayDemo, %function
G_DeferedPlayDemo:
.LFB47:
	.loc 1 2637 0
	.cfi_startproc
	@ args = 0, pretend = 0, frame = 0
	@ frame_needed = 0, uses_anonymous_args = 0
	@ link register save eliminated.
.LVL560:
	.loc 1 2639 0
	mov	r1, #5
	ldr	r2, .L772
	.loc 1 2638 0
	ldr	r3, .L772+4
	.loc 1 2639 0
	strb	r1, [r2]
	.loc 1 2638 0
	str	r0, [r3, #2300]
	bx	lr
.L773:
	.align	2
.L772:
	.word	gameaction
	.word	.LANCHOR0
	.cfi_endproc
.LFE47:
	.size	G_DeferedPlayDemo, .-G_DeferedPlayDemo
	.align	2
	.global	G_DoPlayDemo
	.type	G_DoPlayDemo, %function
G_DoPlayDemo:
.LFB51:
	.loc 1 2902 0
	.cfi_startproc
	@ args = 0, pretend = 0, frame = 16
	@ frame_needed = 0, uses_anonymous_args = 0
	stmfd	sp!, {r4, r5, r6, lr}
	.cfi_def_cfa_offset 16
	.cfi_offset 4, -16
	.cfi_offset 5, -12
	.cfi_offset 6, -8
	.cfi_offset 14, -4
	.loc 1 2906 0
	mov	r5, #0
	.loc 1 2905 0
	ldr	r4, .L776
	.loc 1 2902 0
	sub	sp, sp, #16
	.cfi_def_cfa_offset 32
	.loc 1 2905 0
	add	r1, sp, #4
	ldr	r0, [r4, #2300]
	bl	ExtractFileBase
.LVL561:
	.loc 1 2909 0
	add	r0, sp, #4
	.loc 1 2906 0
	strb	r5, [sp, #12]
	.loc 1 2909 0
	bl	W_GetNumForName
.LVL562:
	ldr	r6, .L776+4
	str	r0, [r6, #392]
	.loc 1 2910 0
	bl	W_CacheLumpNum
.LVL563:
	str	r0, [r4, #2304]
	.loc 1 2911 0
	ldr	r0, [r6, #392]
	bl	W_LumpLength
.LVL564:
	mov	r3, r0
	.loc 1 2913 0
	mov	r1, r0
	mov	r2, #1
	ldr	r0, [r4, #2304]
	.loc 1 2911 0
	str	r3, [r4, #2308]
	.loc 1 2913 0
	bl	G_ReadDemoHeader
.LVL565:
	.loc 1 2918 0
	mov	r2, #1
	.loc 1 2915 0
	ldr	ip, .L776+8
	.loc 1 2916 0
	ldr	r1, .L776+12
	.loc 1 2918 0
	ldr	r3, .L776+16
	.loc 1 2913 0
	str	r0, [r4, #2312]
	.loc 1 2919 0
	mov	r0, r5
	.loc 1 2918 0
	str	r2, [r3]
	.loc 1 2915 0
	strb	r5, [ip]
	.loc 1 2916 0
	str	r5, [r1]
	.loc 1 2919 0
	bl	R_SmoothPlaying_Reset
.LVL566:
	.loc 1 2921 0
	bl	I_GetTime_RealTime
.LVL567:
	ldr	r3, .L776+20
	str	r0, [r3]
	.loc 1 2922 0
	add	sp, sp, #16
	.cfi_def_cfa_offset 16
	@ sp needed
	ldmfd	sp!, {r4, r5, r6, pc}
.L777:
	.align	2
.L776:
	.word	.LANCHOR0
	.word	.LANCHOR1
	.word	gameaction
	.word	usergame
	.word	demoplayback
	.word	starttime
	.cfi_endproc
.LFE51:
	.size	G_DoPlayDemo, .-G_DoPlayDemo
	.align	2
	.global	G_DoLoadGame
	.type	G_DoLoadGame, %function
G_DoLoadGame:
.LFB29:
	.loc 1 1568 0
	.cfi_startproc
	@ args = 0, pretend = 0, frame = 16
	@ frame_needed = 0, uses_anonymous_args = 0
.LVL568:
	.loc 1 1574 0
	mov	r0, #0
	.loc 1 1568 0
	stmfd	sp!, {r4, r5, r6, r7, r8, r9, r10, lr}
	.cfi_def_cfa_offset 32
	.cfi_offset 4, -32
	.cfi_offset 5, -28
	.cfi_offset 6, -24
	.cfi_offset 7, -20
	.cfi_offset 8, -16
	.cfi_offset 9, -12
	.cfi_offset 10, -8
	.cfi_offset 14, -4
	.loc 1 1574 0
	ldr	r8, .L830
	ldr	r4, .L830+4
	.loc 1 1568 0
	sub	sp, sp, #16
	.cfi_def_cfa_offset 48
	.loc 1 1574 0
	ldr	r3, [r4]
	mov	r1, r0
	ldrb	r2, [r8, #2276]	@ zero_extendqisi2
	bl	G_SaveGameName
.LVL569:
	.loc 1 1575 0
	add	r6, r0, #1
	mov	r1, #1
	mov	r2, #0
	mov	r0, r6
.LVL570:
	bl	Z_Malloc
.LVL571:
	.loc 1 1576 0
	mov	r1, r6
	.loc 1 1575 0
	mov	r5, r0
.LVL572:
	.loc 1 1576 0
	ldr	r3, [r4]
	ldrb	r2, [r8, #2276]	@ zero_extendqisi2
	bl	G_SaveGameName
.LVL573:
	.loc 1 1578 0
	mov	r3, #0
	ldr	r9, .L830+8
	.loc 1 1580 0
	mov	r0, r5
	add	r1, r8, #2128
	.loc 1 1578 0
	strb	r3, [r9]
	.loc 1 1580 0
	bl	M_ReadFile
.LVL574:
	.loc 1 1581 0
	cmp	r0, #0
	ble	.L823
.LVL575:
.L779:
	.loc 1 1587 0
	mov	r4, #0
	.loc 1 1583 0
	mov	r0, r5
	bl	Z_Free
.LVL576:
	.loc 1 1584 0
	ldr	r3, [r8, #2128]
	ldr	r6, .L830+12
	add	r3, r3, #24
	ldr	r5, .L830+16
.LVL577:
	str	r3, [r6]
.LVL578:
.L783:
.LBB203:
	.loc 1 1590 0
	ldmib	r5, {r1, r2}
	mov	r0, sp
	bl	sprintf
.LVL579:
	.loc 1 1592 0
	ldr	r7, [r6]
	mov	r1, sp
	mov	r0, r7
	mov	r2, #16
	bl	strncmp
.LVL580:
	cmp	r0, #0
	bne	.L780
	.loc 1 1593 0
	ldr	r3, .L830+20
	add	r4, r4, r4, asl #1
.LVL581:
	add	r4, r3, r4, asl #2
	ldr	r4, [r4, #52]
.LVL582:
.LBE203:
	.loc 1 1597 0
	cmn	r4, #1
	bne	.L782
.LVL583:
.L781:
	.loc 1 1598 0
	ldr	r3, [r8, #2272]
	cmp	r3, #0
	.loc 1 1599 0
	movne	r4, #17
	.loc 1 1598 0
	beq	.L824
.LVL584:
.L782:
	.loc 1 1606 0
	add	r7, r7, #16
	str	r7, [r6]
.LBB204:
	.loc 1 1613 0
	bl	G_Signature
.LVL585:
	.loc 1 1615 0
	ldr	r5, [r6]
	.loc 1 1613 0
	strd	r0, [sp]
	.loc 1 1615 0
	mov	r2, #8
	mov	r0, sp
	mov	r1, r5
	bl	memcmp
.LVL586:
	cmp	r0, #0
.LBE204:
	.loc 1 1606 0
	ldr	r7, .L830+12
.LBB207:
	.loc 1 1615 0
	beq	.L786
	.loc 1 1616 0
	ldr	r10, [r8, #2272]
	cmp	r10, #0
	bne	.L787
.LBB205:
	.loc 1 1617 0
	add	r0, r5, #8
	bl	strlen
.LVL587:
	mov	r2, r10
	mov	r1, #1
	add	r0, r0, #128
	bl	Z_Malloc
.LVL588:
	mov	r4, r0
.LVL589:
	.loc 1 1618 0
	ldr	ip, .L830+24
	ldmia	ip!, {r0, r1, r2, r3}
.LVL590:
	str	r0, [r4]	@ unaligned
	str	r1, [r4, #4]	@ unaligned
	ldmia	ip!, {r0, r1}
	ldrh	ip, [ip]	@ unaligned
	.loc 1 1619 0
	ldr	r5, [r7]
	.loc 1 1618 0
	str	r2, [r4, #8]	@ unaligned
	str	r3, [r4, #12]	@ unaligned
	str	r0, [r4, #16]	@ unaligned
	strh	ip, [r4, #24]	@ unaligned
	str	r1, [r4, #20]	@ unaligned
	.loc 1 1619 0
	ldrb	r3, [r5, #8]	@ zero_extendqisi2
	cmp	r3, #0
	bne	.L825
.L788:
	.loc 1 1621 0
	mov	r0, r4
	bl	strlen
.LVL591:
	mov	lr, r0
	ldr	r3, .L830+28
	add	ip, r4, r0
	ldmia	r3!, {r0, r1, r2}
	ldrh	r5, [r3]	@ unaligned
	ldrb	r3, [r3, #2]	@ zero_extendqisi2
	str	r0, [r4, lr]	@ unaligned
	.loc 1 1622 0
	mov	r0, r4
	.loc 1 1621 0
	str	r1, [ip, #4]	@ unaligned
	str	r2, [ip, #8]	@ unaligned
	strh	r5, [ip, #12]	@ unaligned
	strb	r3, [ip, #14]
	.loc 1 1622 0
	bl	G_LoadGameErr
.LVL592:
	.loc 1 1623 0
	mov	r0, r4
	bl	Z_Free
.LVL593:
.L778:
.LBE205:
.LBE207:
	.loc 1 1706 0
	add	sp, sp, #16
	.cfi_remember_state
	.cfi_def_cfa_offset 32
	@ sp needed
	ldmfd	sp!, {r4, r5, r6, r7, r8, r9, r10, pc}
.LVL594:
.L787:
	.cfi_restore_state
.LBB208:
	.loc 1 1626 0
	mov	r0, #4
	ldr	r1, .L830+32
	bl	lprintf
.LVL595:
	ldr	r5, [r7]
.L786:
	.loc 1 1628 0
	add	r5, r5, #8
.LBE208:
	.loc 1 1631 0
	mov	r0, r5
.LBB209:
	.loc 1 1628 0
	str	r5, [r6]
.LBE209:
	.loc 1 1631 0
	bl	strlen
.LVL596:
	add	r0, r0, #1
	add	r2, r5, r0
	.loc 1 1633 0
	cmp	r4, #14
	.loc 1 1631 0
	str	r2, [r6]
	.loc 1 1633 0
	bgt	.L826
	ldr	r5, .L830+36
	.loc 1 1633 0 is_stmt 0 discriminator 2
	uxtb	r1, r4
.L790:
	.loc 1 1635 0 is_stmt 1
	ldr	r3, .L830+20
	add	r3, r3, r1
	ldrb	r3, [r3, #88]	@ zero_extendqisi2
	strb	r3, [r5]
.L791:
	.loc 1 1638 0
	add	r3, r2, #2
	str	r3, [r6]
	.loc 1 1639 0
	add	r3, r2, #3
	.loc 1 1638 0
	ldrb	ip, [r2, #1]	@ zero_extendqisi2
	.loc 1 1639 0
	str	r3, [r6]
	ldrb	r1, [r2, #2]	@ zero_extendqisi2
	ldr	r10, .L830+40
	.loc 1 1640 0
	add	r3, r2, #4
	.loc 1 1639 0
	str	r1, [r10]
	.loc 1 1640 0
	str	r3, [r6]
	.loc 1 1638 0
	ldr	r4, .L830+44
.LVL597:
	.loc 1 1640 0
	ldrb	r0, [r2, #3]	@ zero_extendqisi2
	ldr	r7, .L830+48
	ldr	r1, .L830+52
	.loc 1 1638 0
	strb	ip, [r4]
	.loc 1 1640 0
	str	r0, [r7]
.LVL598:
	add	lr, r2, #8
.LVL599:
.L792:
	.loc 1 1643 0 discriminator 3
	add	r3, r3, #1
	str	r3, [r6]
	ldrb	r0, [r3, #-1]	@ zero_extendqisi2
	.loc 1 1642 0 discriminator 3
	cmp	r3, lr
	.loc 1 1643 0 discriminator 3
	str	r0, [r1], #4
	ldr	ip, .L830+12
	.loc 1 1642 0 discriminator 3
	bne	.L792
	.loc 1 1646 0
	ldrb	r3, [r2, #36]	@ zero_extendqisi2
	add	r0, r2, #37
	.loc 1 1647 0
	cmp	r3, #255
	mvneq	r2, #0
	.loc 1 1646 0
	ldrne	r2, .L830+56
	.loc 1 1647 0
	ldreq	r3, .L830+56
	.loc 1 1646 0
	strne	r3, [r2]
	.loc 1 1647 0
	streq	r2, [r3]
	.loc 1 1646 0
	str	r0, [ip]
	.loc 1 1654 0
	bl	G_ReadOptions
.LVL600:
	.loc 1 1657 0
	ldr	r1, [r10]
	.loc 1 1654 0
	str	r0, [r6]
	.loc 1 1657 0
	ldr	r2, [r7]
	ldrsb	r0, [r4]
	bl	G_InitNew
.LVL601:
	.loc 1 1660 0
	ldr	r2, [r6]
	.loc 1 1664 0
	ldrb	ip, [r5]	@ zero_extendqisi2
	.loc 1 1660 0
	mov	r3, r2
	ldr	r1, .L830+60
	ldr	r0, [r3], #4	@ unaligned
	.loc 1 1664 0
	cmp	ip, #12
	.loc 1 1660 0
	str	r0, [r1]	@ unaligned
	.loc 1 1668 0
	movls	r1, #0
	.loc 1 1661 0
	str	r3, [r6]
	.loc 1 1665 0
	ldrhi	r0, [r3]	@ unaligned
	ldrhi	r1, .L830+64
	.loc 1 1668 0
	ldrls	r2, .L830+64
	.loc 1 1666 0
	addhi	r3, r2, #8
	.loc 1 1668 0
	strls	r1, [r2]
	.loc 1 1665 0
	strhi	r0, [r1]	@ unaligned
	.loc 1 1671 0
	ldr	r2, .L830+68
	add	r1, r3, #1
	str	r1, [r6]
	ldrb	r1, [r3]	@ zero_extendqisi2
	ldr	r3, [r2]
	ldr	r2, .L830+72
	rsb	r3, r1, r3
	str	r3, [r2]
	.loc 1 1674 0
	bl	P_MapStart
.LVL602:
	.loc 1 1675 0
	bl	P_UnArchivePlayers
.LVL603:
	.loc 1 1676 0
	bl	P_UnArchiveWorld
.LVL604:
	.loc 1 1677 0
	bl	P_UnArchiveThinkers
.LVL605:
	.loc 1 1678 0
	bl	P_UnArchiveSpecials
.LVL606:
	.loc 1 1679 0
	bl	P_UnArchiveRNG
.LVL607:
	.loc 1 1680 0
	bl	P_UnArchiveMap
.LVL608:
	.loc 1 1681 0
	bl	P_MapEnd
.LVL609:
	.loc 1 1682 0
	mov	r0, #0
	bl	R_SmoothPlaying_Reset
.LVL610:
	.loc 1 1684 0
	ldr	r3, [r6]
	ldrb	r3, [r3]	@ zero_extendqisi2
	cmp	r3, #230
	beq	.L797
	.loc 1 1685 0
	ldr	r0, .L830+76
	bl	I_Error
.LVL611:
.L797:
	.loc 1 1688 0
	ldr	r0, [r8, #2128]
	bl	Z_Free
.LVL612:
	.loc 1 1690 0
	ldr	r3, .L830+80
	ldr	r3, [r3]
	cmp	r3, #0
	bne	.L827
.L798:
	.loc 1 1694 0
	bl	R_FillBackScreen
.LVL613:
	.loc 1 1697 0
	ldr	r3, [r8, #2132]
	cmp	r3, #0
	beq	.L828
	.loc 1 1700 0
	ldr	r3, .L830+84
	ldr	r3, [r3]
	cmp	r3, #0
	bne	.L829
	.loc 1 1704 0
	ldr	r3, .L830+88
	ldr	r3, [r3]
	cmp	r3, #0
	beq	.L778
	.loc 1 1705 0
	bl	G_BeginRecording
.LVL614:
	.loc 1 1706 0
	add	sp, sp, #16
	.cfi_remember_state
	.cfi_def_cfa_offset 32
	@ sp needed
	ldmfd	sp!, {r4, r5, r6, r7, r8, r9, r10, pc}
.LVL615:
.L780:
	.cfi_restore_state
	.loc 1 1587 0 discriminator 2
	add	r4, r4, #1
.LVL616:
	cmp	r4, #3
	add	r5, r5, #12
	bne	.L783
	b	.L781
.LVL617:
.L826:
	.loc 1 1633 0 discriminator 1
	ldrb	r1, [r5, r0]	@ zero_extendqisi2
	ldr	r5, .L830+36
	.loc 1 1634 0 discriminator 1
	cmp	r4, #16
	.loc 1 1633 0 discriminator 1
	strb	r1, [r5]
	.loc 1 1634 0 discriminator 1
	bgt	.L791
	b	.L790
.LVL618:
.L828:
	.loc 1 1698 0
	ldr	r2, .L830+84
	str	r3, [r2]
	.loc 1 1706 0
	add	sp, sp, #16
	.cfi_remember_state
	.cfi_def_cfa_offset 32
	@ sp needed
	ldmfd	sp!, {r4, r5, r6, r7, r8, r9, r10, pc}
.LVL619:
.L824:
	.cfi_restore_state
	.loc 1 1601 0
	ldr	r0, .L830+92
	bl	G_LoadGameErr
.LVL620:
	.loc 1 1706 0
	add	sp, sp, #16
	.cfi_remember_state
	.cfi_def_cfa_offset 32
	@ sp needed
	ldmfd	sp!, {r4, r5, r6, r7, r8, r9, r10, pc}
.LVL621:
.L825:
	.cfi_restore_state
.LBB210:
.LBB206:
	.loc 1 1620 0
	ldr	ip, .L830+96
	add	lr, r4, #25
	ldmia	ip!, {r0, r1, r2, r3}
	ldrb	ip, [ip]	@ zero_extendqisi2
	str	r0, [r4, #25]	@ unaligned
	str	r1, [lr, #4]	@ unaligned
	strb	ip, [lr, #16]
	str	r2, [lr, #8]	@ unaligned
	str	r3, [lr, #12]	@ unaligned
	add	r1, r5, #8
	add	r0, r4, #41
	bl	strcpy
.LVL622:
	b	.L788
.LVL623:
.L827:
.LBE206:
.LBE210:
	.loc 1 1691 0
	bl	R_ExecuteSetViewSize
.LVL624:
	b	.L798
.LVL625:
.L823:
	.loc 1 1582 0
	ldr	r0, .L830+100
.LVL626:
	mov	r1, r5
	ldr	r2, .L830+104
	bl	I_Error
.LVL627:
	b	.L779
.LVL628:
.L829:
	.loc 1 1701 0
	mov	r3, #3
	strb	r3, [r9]
	.loc 1 1702 0
	bl	G_DoPlayDemo
.LVL629:
	b	.L778
.L831:
	.align	2
.L830:
	.word	.LANCHOR0
	.word	demoplayback
	.word	gameaction
	.word	save_p
	.word	.LANCHOR2+52
	.word	.LANCHOR2
	.word	.LC31
	.word	.LC33
	.word	.LC34
	.word	compatibility_level
	.word	gameepisode
	.word	gameskill
	.word	gamemap
	.word	playeringame
	.word	idmusnum
	.word	leveltime
	.word	totalleveltimes
	.word	gametic
	.word	basetic
	.word	.LC35
	.word	setsizeneeded
	.word	singledemo
	.word	demorecording
	.word	.LC30
	.word	.LC32
	.word	.LC28
	.word	.LC29
	.cfi_endproc
.LFE29:
	.size	G_DoLoadGame, .-G_DoLoadGame
	.global	__aeabi_ui2d
	.global	__aeabi_dmul
	.global	__aeabi_ddiv
	.align	2
	.global	G_CheckDemoStatus
	.type	G_CheckDemoStatus, %function
G_CheckDemoStatus:
.LFB52:
	.loc 1 2930 0
	.cfi_startproc
	@ args = 0, pretend = 0, frame = 0
	@ frame_needed = 0, uses_anonymous_args = 0
	stmfd	sp!, {r4, r5, r6, r7, lr}
	.cfi_def_cfa_offset 20
	.cfi_offset 4, -20
	.cfi_offset 5, -16
	.cfi_offset 6, -12
	.cfi_offset 7, -8
	.cfi_offset 14, -4
	sub	sp, sp, #12
	.cfi_def_cfa_offset 32
	.loc 1 2931 0
	bl	P_ChecksumFinal
.LVL630:
	.loc 1 2933 0
	ldr	r3, .L851
	ldr	r2, [r3]
	cmp	r2, #0
	bne	.L848
	.loc 1 2941 0
	ldr	r3, .L851+4
	ldr	r3, [r3]
	cmp	r3, #0
	bne	.L849
.L835:
	.loc 1 2951 0
	ldr	r3, .L851+8
	ldr	r0, [r3]
	cmp	r0, #0
	beq	.L834
.LBB215:
.LBB216:
	.loc 1 2953 0
	ldr	r3, .L851+12
	ldr	r3, [r3]
	cmp	r3, #0
	bne	.L850
	.loc 1 2956 0
	ldr	r4, .L851+16
	ldr	r0, [r4, #392]
	cmn	r0, #1
	beq	.L837
	.loc 1 2958 0
	bl	W_UnlockLumpNum
.LVL631:
	.loc 1 2959 0
	mvn	r3, #0
	str	r3, [r4, #392]
.L837:
	.loc 1 2961 0
	bl	G_ReloadDefaults
.LVL632:
	.loc 1 2962 0
	mov	r3, #0
	ldr	r1, .L851+20
	.loc 1 2963 0
	ldr	r2, .L851+24
	.loc 1 2962 0
	str	r3, [r1]
	.loc 1 2963 0
	str	r3, [r2]
	.loc 1 2964 0
	bl	D_AdvanceDemo
.LVL633:
	mov	r0, #1
.L834:
.LBE216:
.LBE215:
	.loc 1 2968 0
	add	sp, sp, #12
	.cfi_remember_state
	.cfi_def_cfa_offset 20
	@ sp needed
	ldmfd	sp!, {r4, r5, r6, r7, pc}
.L849:
	.cfi_restore_state
.LBB218:
	.loc 1 2943 0
	bl	I_GetTime_RealTime
.LVL634:
	.loc 1 2945 0
	ldr	r2, .L851+28
	.loc 1 2948 0
	ldr	r3, .L851+32
	.loc 1 2945 0
	ldr	r4, [r2]
	.loc 1 2948 0
	ldr	r5, [r3]
	.loc 1 2945 0
	rsb	r4, r4, r0
.LVL635:
	.loc 1 2948 0
	mov	r0, r5
.LVL636:
	bl	__aeabi_ui2d
.LVL637:
	mov	r2, #0
	ldr	r3, .L851+36
	bl	__aeabi_dmul
.LVL638:
	mov	r6, r0
	.loc 1 2946 0
	mov	r0, r4
	.loc 1 2948 0
	mov	r7, r1
	.loc 1 2946 0
	bl	__aeabi_ui2d
.LVL639:
	mov	r2, r0
	mov	r3, r1
	mov	r0, r6
	mov	r1, r7
	bl	__aeabi_ddiv
.LVL640:
	mov	r2, r4
	strd	r0, [sp]
	mov	r1, r5
	ldr	r0, .L851+40
	bl	I_Error
.LVL641:
	b	.L835
.LVL642:
.L848:
.LBE218:
	.loc 1 2935 0
	mov	r4, #0
	.loc 1 2936 0
	ldr	r2, .L851+44
	mov	r0, #128
	ldr	r1, [r2, #2296]
	.loc 1 2935 0
	str	r4, [r3]
	.loc 1 2936 0
	bl	fputc
.LVL643:
	.loc 1 2937 0
	ldr	r0, .L851+48
	bl	I_Error
.LVL644:
	.loc 1 2938 0
	mov	r0, r4
	.loc 1 2968 0
	add	sp, sp, #12
	.cfi_remember_state
	.cfi_def_cfa_offset 20
	@ sp needed
	ldmfd	sp!, {r4, r5, r6, r7, pc}
.L850:
	.cfi_restore_state
.LBB219:
.LBB217:
	.loc 1 2954 0
	mov	r0, #0
	bl	exit
.LVL645:
.L852:
	.align	2
.L851:
	.word	demorecording
	.word	timingdemo
	.word	demoplayback
	.word	singledemo
	.word	.LANCHOR1
	.word	netgame
	.word	deathmatch
	.word	starttime
	.word	gametic
	.word	1078034432
	.word	.LC37
	.word	.LANCHOR0
	.word	.LC36
.LBE217:
.LBE219:
	.cfi_endproc
.LFE52:
	.size	G_CheckDemoStatus, .-G_CheckDemoStatus
	.align	2
	.global	G_ReadDemoTiccmd
	.type	G_ReadDemoTiccmd, %function
G_ReadDemoTiccmd:
.LFB41:
	.loc 1 2219 0
	.cfi_startproc
	@ args = 0, pretend = 0, frame = 0
	@ frame_needed = 0, uses_anonymous_args = 0
.LVL646:
	stmfd	sp!, {r3, r4, r5, lr}
	.cfi_def_cfa_offset 16
	.cfi_offset 3, -16
	.cfi_offset 4, -12
	.cfi_offset 5, -8
	.cfi_offset 14, -4
	.loc 1 2222 0
	ldr	r2, .L865
	ldr	r3, [r2, #2312]
	ldrb	r1, [r3]	@ zero_extendqisi2
	cmp	r1, #128
	beq	.L863
	.loc 1 2224 0
	ldr	ip, .L865+4
	ldr	ip, [ip]
	cmp	ip, #0
	ldr	ip, .L865+8
	bne	.L864
	ldr	ip, [ip]
.L857:
	.loc 1 2231 0
	strb	r1, [r0]
	.loc 1 2232 0
	ldrb	lr, [r3, #1]	@ zero_extendqisi2
	.loc 1 2233 0
	cmp	ip, #0
	.loc 1 2232 0
	add	r1, r3, #2
	strb	lr, [r0, #1]
.LBB220:
	.loc 1 2237 0
	ldrneb	ip, [r3, #3]	@ zero_extendqisi2
.LBE220:
	.loc 1 2232 0
	str	r1, [r2, #2312]
.LBB221:
	.loc 1 2237 0
	ldrneb	r1, [r3, #2]	@ zero_extendqisi2
.LBE221:
	.loc 1 2234 0
	ldreqb	lr, [r3, #2]	@ zero_extendqisi2
.LVL647:
.LBB222:
	.loc 1 2237 0
	addne	r1, r1, ip, asl #8
.LBE222:
	.loc 1 2241 0
	ldr	ip, .L865+12
	.loc 1 2234 0
	moveq	r1, lr, asl #8
	addeq	r3, r3, #3
.LVL648:
.LBB223:
	.loc 1 2237 0
	addne	r3, r3, #4
.LVL649:
	strh	r1, [r0, #2]	@ movhi
.LVL650:
.LBE223:
	.loc 1 2241 0
	ldrb	ip, [ip]	@ zero_extendqisi2
	.loc 1 2239 0
	ldrb	r1, [r3]	@ zero_extendqisi2
	.loc 1 2220 0
	movne	lr, #0
.LVL651:
	.loc 1 2239 0
	add	r3, r3, #1
	.loc 1 2241 0
	cmp	ip, #6
	.loc 1 2239 0
	strb	r1, [r0, #7]
	str	r3, [r2, #2312]
	.loc 1 2241 0
	ldmnefd	sp!, {r3, r4, r5, pc}
.LBB224:
	.loc 1 2243 0
	ldrb	r2, [r0]	@ zero_extendqisi2
.LVL652:
	.loc 1 2244 0
	ldrb	r3, [r0, #1]	@ zero_extendqisi2
	.loc 1 2246 0
	mov	r1, r1, asl #8
	strh	r1, [r0, #2]	@ movhi
	.loc 1 2247 0
	strb	r2, [r0, #7]
	.loc 1 2244 0
	strb	r3, [r0]
	.loc 1 2245 0
	strb	lr, [r0, #1]
	ldmfd	sp!, {r3, r4, r5, pc}
.LVL653:
.L864:
.LBE224:
	.loc 1 2224 0 discriminator 1
	ldr	ip, [ip]
	ldr	lr, [r2, #2304]
	cmp	ip, #0
	moveq	r4, #4
	movne	r4, #5
	ldr	r5, [r2, #2308]
	add	r4, r3, r4
	add	lr, lr, r5
	cmp	r4, lr
	bls	.L857
	.loc 1 2226 0
	mov	r0, #4
.LVL654:
	ldr	r1, .L865+16
	bl	lprintf
.LVL655:
.L863:
	.loc 1 2250 0
	ldmfd	sp!, {r3, r4, r5, lr}
	.cfi_restore 14
	.cfi_restore 5
	.cfi_restore 4
	.cfi_restore 3
	.cfi_def_cfa_offset 0
	.loc 1 2227 0
	b	G_CheckDemoStatus
.LVL656:
.L866:
	.align	2
.L865:
	.word	.LANCHOR0
	.word	demoplayback
	.word	longtics
	.word	compatibility_level
	.word	.LC38
	.cfi_endproc
.LFE41:
	.size	G_ReadDemoTiccmd, .-G_ReadDemoTiccmd
	.align	2
	.global	G_WriteDemoTiccmd
	.type	G_WriteDemoTiccmd, %function
G_WriteDemoTiccmd:
.LFB42:
	.loc 1 2256 0
	.cfi_startproc
	@ args = 0, pretend = 0, frame = 8
	@ frame_needed = 0, uses_anonymous_args = 0
.LVL657:
	stmfd	sp!, {r4, r5, r6, lr}
	.cfi_def_cfa_offset 16
	.cfi_offset 4, -16
	.cfi_offset 5, -12
	.cfi_offset 6, -8
	.cfi_offset 14, -4
	sub	sp, sp, #8
	.cfi_def_cfa_offset 24
.LVL658:
	.loc 1 2270 0
	mov	r5, sp
	.loc 1 2262 0
	ldr	r3, .L875
	.loc 1 2260 0
	ldrb	r2, [r0]	@ zero_extendqisi2
	.loc 1 2262 0
	ldr	r1, [r3]
	.loc 1 2261 0
	ldrb	r3, [r0, #1]	@ zero_extendqisi2
	.loc 1 2262 0
	cmp	r1, #0
	.loc 1 2261 0
	strb	r3, [sp, #1]
	.loc 1 2263 0
	ldreqsh	r3, [r0, #2]
.LBB225:
	.loc 1 2265 0
	ldrneh	r3, [r0, #2]
.LBE225:
	.loc 1 2263 0
	addeq	r3, r3, #128
	moveq	r3, r3, asr #8
	.loc 1 2260 0
	strb	r2, [sp]
.LVL659:
	.loc 1 2263 0
	streqb	r3, [sp, #2]
.LBB226:
	.loc 1 2267 0
	movne	r2, r3, lsr #8
	.loc 1 2266 0
	strneb	r3, [sp, #2]
.LVL660:
.LBE226:
	.loc 1 2269 0
	ldrb	r3, [r0, #7]	@ zero_extendqisi2
.LVL661:
	.loc 1 2263 0
	addeq	r1, sp, #3
.LBB227:
	.loc 1 2267 0
	addne	r1, sp, #4
.LVL662:
.LBE227:
	.loc 1 2270 0
	ldr	r6, .L875+4
.LBB228:
	.loc 1 2267 0
	strneb	r2, [sp, #3]
.LBE228:
	.loc 1 2269 0
	strb	r3, [r1], #1
.LVL663:
	.loc 1 2256 0
	mov	r4, r0
	.loc 1 2270 0
	rsb	r1, r5, r1
.LVL664:
	mov	r0, sp
.LVL665:
	ldr	r3, [r6, #2296]
	mov	r2, #1
	bl	fwrite
.LVL666:
	cmp	r0, #1
	beq	.L870
	.loc 1 2271 0
	ldr	r0, .L875+8
	bl	I_Error
.LVL667:
.L870:
	.loc 1 2275 0
	mov	r0, r4
	.loc 1 2274 0
	str	r5, [r6, #2312]
	.loc 1 2275 0
	bl	G_ReadDemoTiccmd
.LVL668:
	.loc 1 2276 0
	add	sp, sp, #8
	.cfi_def_cfa_offset 16
	@ sp needed
	ldmfd	sp!, {r4, r5, r6, pc}
.LVL669:
.L876:
	.align	2
.L875:
	.word	longtics
	.word	.LANCHOR0
	.word	.LC39
	.cfi_endproc
.LFE42:
	.size	G_WriteDemoTiccmd, .-G_WriteDemoTiccmd
	.align	2
	.global	doom_printf
	.type	doom_printf, %function
doom_printf:
.LFB53:
	.loc 1 2980 0
	.cfi_startproc
	@ args = 4, pretend = 16, frame = 8
	@ frame_needed = 0, uses_anonymous_args = 1
.LVL670:
	stmfd	sp!, {r0, r1, r2, r3}
	.cfi_def_cfa_offset 16
	.cfi_offset 0, -16
	.cfi_offset 1, -12
	.cfi_offset 2, -8
	.cfi_offset 3, -4
	stmfd	sp!, {r4, lr}
	.cfi_def_cfa_offset 24
	.cfi_offset 4, -24
	.cfi_offset 14, -20
	.loc 1 2984 0
	ldr	r4, .L879
	.loc 1 2980 0
	sub	sp, sp, #8
	.cfi_def_cfa_offset 32
	.loc 1 2983 0
	add	ip, sp, #20
	.loc 1 2984 0
	mov	r3, ip
	ldr	r2, [sp, #16]
	mov	r0, r4
	mov	r1, #1024
	.loc 1 2983 0
	str	ip, [sp, #4]
	.loc 1 2984 0
	bl	doom_vsnprintf
.LVL671:
	.loc 1 2986 0
	mov	r1, #284
	ldr	r2, .L879+4
	ldr	r3, .L879+8
	ldr	r2, [r2]
	mla	r3, r1, r2, r3
	str	r4, [r3, #220]
	.loc 1 2987 0
	add	sp, sp, #8
	.cfi_def_cfa_offset 24
	@ sp needed
	ldmfd	sp!, {r4, lr}
	.cfi_restore 14
	.cfi_restore 4
	.cfi_def_cfa_offset 16
	add	sp, sp, #16
	.cfi_restore 3
	.cfi_restore 2
	.cfi_restore 1
	.cfi_restore 0
	.cfi_def_cfa_offset 0
	bx	lr
.L880:
	.align	2
.L879:
	.word	.LANCHOR0+2316
	.word	consoleplayer
	.word	players
	.cfi_endproc
.LFE53:
	.size	doom_printf, .-doom_printf
	.align	2
	.type	G_DoSaveGame, %function
G_DoSaveGame:
.LFB33:
	.loc 1 1768 0
	.cfi_startproc
	@ args = 0, pretend = 0, frame = 32
	@ frame_needed = 0, uses_anonymous_args = 0
.LVL672:
	stmfd	sp!, {r4, r5, r6, r7, r8, r9, r10, fp, lr}
	.cfi_def_cfa_offset 36
	.cfi_offset 4, -36
	.cfi_offset 5, -32
	.cfi_offset 6, -28
	.cfi_offset 7, -24
	.cfi_offset 8, -20
	.cfi_offset 9, -16
	.cfi_offset 10, -12
	.cfi_offset 11, -8
	.cfi_offset 14, -4
	.loc 1 1777 0
	clz	r4, r0
	.loc 1 1774 0
	mov	r5, #0
	.loc 1 1777 0
	ldr	r7, .L897
	ldr	r2, .L897+4
	ldr	r3, [r7]
	.loc 1 1774 0
	ldr	ip, .L897+8
	.loc 1 1777 0
	mov	r4, r4, lsr #5
	.loc 1 1768 0
	sub	sp, sp, #36
	.cfi_def_cfa_offset 72
	.loc 1 1777 0
	cmp	r3, r5
	moveq	r3, #0
	andne	r3, r4, #1
	mov	r1, r5
	ldrb	r2, [r2, #2276]	@ zero_extendqisi2
	mov	r0, r5
.LVL673:
	.loc 1 1774 0
	strb	r5, [ip]
	.loc 1 1777 0
	bl	G_SaveGameName
.LVL674:
	.loc 1 1778 0
	add	r6, r0, #1
	mov	r2, r5
	mov	r1, #1
	mov	r0, r6
.LVL675:
	bl	Z_Malloc
.LVL676:
	.loc 1 1779 0
	ldr	r3, [r7]
	ldr	r2, .L897+4
	cmp	r3, r5
	moveq	r3, #0
	andne	r3, r4, #1
	mov	r1, r6
	ldrb	r2, [r2, #2276]	@ zero_extendqisi2
	.loc 1 1778 0
	str	r0, [sp, #4]
.LVL677:
	.loc 1 1779 0
	bl	G_SaveGameName
.LVL678:
	.loc 1 1783 0
	ldr	r3, .L897+12
	mov	r2, r5
	ldr	r0, [r3, #316]
	mov	r1, #1
	bl	Z_Malloc
.LVL679:
	mov	r3, r0
	ldr	r4, .L897+16
	ldr	ip, .L897+4
	.loc 1 1785 0
	mov	r0, #48
	ldr	r1, .L897+20
	ldr	r2, .L897+24
	.loc 1 1783 0
	str	r3, [ip, #2128]
	str	r3, [r4]
	.loc 1 1785 0
	bl	CheckSaveGame
.LVL680:
	.loc 1 1786 0
	ldr	r2, .L897+28
	ldr	r0, .L897+28
	ldr	r3, [r4]
	ldr	r1, [r2]	@ unaligned
	ldr	r2, [r2, #4]	@ unaligned
	ldr	ip, [r0, #8]	@ unaligned
	ldr	r0, [r0, #12]	@ unaligned
	str	r2, [r3, #4]	@ unaligned
	ldr	r2, .L897+28
	str	r1, [r3]	@ unaligned
	str	ip, [r3, #8]	@ unaligned
	str	r0, [r3, #12]	@ unaligned
	ldr	r1, [r2, #16]	@ unaligned
	.loc 1 1787 0
	ldr	ip, [r4]
	.loc 1 1786 0
	ldr	r2, [r2, #20]	@ unaligned
	.loc 1 1787 0
	add	ip, ip, #24
	.loc 1 1786 0
	str	r1, [r3, #16]	@ unaligned
	str	r2, [r3, #20]	@ unaligned
	.loc 1 1794 0
	ldr	r1, .L897+32
	mov	r2, #212
	add	r0, sp, #16
	.loc 1 1787 0
	str	ip, [r4]
	.loc 1 1788 0
	str	r5, [sp, #16]
	str	r5, [sp, #20]
	str	r5, [sp, #24]
	str	r5, [sp, #28]
.LVL681:
	.loc 1 1794 0
	bl	sprintf
.LVL682:
	.loc 1 1795 0
	ldr	lr, [r4]
	add	ip, sp, #16
	ldmia	ip!, {r0, r1, r2, r3}
	str	r0, [lr]	@ unaligned
	.loc 1 1799 0
	ldr	r0, [r4]
	.loc 1 1795 0
	str	r2, [lr, #8]	@ unaligned
	.loc 1 1799 0
	add	r0, r0, #16
	.loc 1 1795 0
	str	r1, [lr, #4]	@ unaligned
	str	r3, [lr, #12]	@ unaligned
.LVL683:
	.loc 1 1799 0
	str	r0, [r4]
.LBB229:
	.loc 1 1802 0
	bl	G_Signature
.LVL684:
	add	r2, sp, #32
	strd	r0, [r2, #-24]!
	.loc 1 1803 0
	ldr	ip, [r4]
.LBE229:
.LBB230:
	.loc 1 1811 0
	ldr	r9, .L897+36
.LBE230:
.LBB234:
	.loc 1 1803 0
	ldmia	r2!, {r0, r1}
	str	r0, [ip]	@ unaligned
	.loc 1 1804 0
	ldr	r2, [r4]
.LBE234:
.LBB235:
	.loc 1 1811 0
	ldr	r0, [r9]
.LBE235:
.LBB236:
	.loc 1 1804 0
	add	r2, r2, #8
.LBE236:
.LBB237:
	.loc 1 1811 0
	cmp	r0, r5
.LBE237:
.LBB238:
	.loc 1 1803 0
	str	r1, [ip, #4]	@ unaligned
	.loc 1 1804 0
	str	r2, [r4]
.LVL685:
.LBE238:
.LBB239:
	.loc 1 1811 0
	beq	.L882
.LBB231:
	.loc 1 1817 0
	mov	r8, #10
.LBE231:
	.loc 1 1811 0
	mov	r6, r5
.LVL686:
	ldr	fp, .L897+40
.LVL687:
.L883:
.LBB232:
	.loc 1 1813 0 discriminator 3
	ldr	r2, [fp]
.LBE232:
	.loc 1 1811 0 discriminator 3
	add	r6, r6, #1
.LVL688:
.LBB233:
	.loc 1 1813 0 discriminator 3
	ldr	r7, [r2, r5]
.LVL689:
	add	r5, r5, #12
	.loc 1 1814 0 discriminator 3
	mov	r0, r7
	bl	strlen
.LVL690:
	ldr	r2, .L897+44
	ldr	r1, .L897+20
	add	r0, r0, #2
	bl	CheckSaveGame
.LVL691:
	.loc 1 1815 0 discriminator 3
	mov	r1, r7
	ldr	r0, [r4]
	bl	strcpy
.LVL692:
	.loc 1 1816 0 discriminator 3
	ldr	r10, [r4]
	.loc 1 1815 0 discriminator 3
	ldr	r7, .L897+16
.LVL693:
	.loc 1 1816 0 discriminator 3
	mov	r0, r10
	bl	strlen
.LVL694:
	add	r1, r10, r0
	.loc 1 1817 0 discriminator 3
	add	r1, r1, #1
	str	r1, [r4]
	strb	r8, [r10, r0]
.LBE233:
	.loc 1 1811 0 discriminator 3
	ldr	r2, [r9]
	cmp	r2, r6
	bhi	.L883
	ldr	r2, [r7]
.LVL695:
.L882:
	.loc 1 1819 0
	mov	r3, #0
	add	r1, r2, #1
	str	r1, [r4]
.LBE239:
	.loc 1 1822 0
	mov	r0, #110
.LBB240:
	.loc 1 1819 0
	strb	r3, [r2]
.LBE240:
	.loc 1 1822 0
	ldr	r1, .L897+20
	ldr	r2, .L897+48
	.loc 1 1824 0
	ldr	r6, .L897+52
	.loc 1 1822 0
	bl	CheckSaveGame
.LVL696:
	.loc 1 1824 0
	ldr	r3, [r4]
	ldrb	r1, [r6]	@ zero_extendqisi2
	add	r2, r3, #1
	str	r2, [r4]
	strb	r1, [r3]
	.loc 1 1826 0
	ldr	r2, .L897+56
	ldr	r3, [r4]
	ldrb	r1, [r2]	@ zero_extendqisi2
	add	r2, r3, #1
	str	r2, [r4]
	strb	r1, [r3]
	.loc 1 1827 0
	ldr	r2, .L897+60
	ldr	r3, [r4]
	ldr	r2, [r2]
	add	r1, r3, #1
	str	r1, [r4]
	strb	r2, [r3]
	.loc 1 1828 0
	ldr	r1, .L897+64
	ldr	r2, [r4]
	ldr	r1, [r1]
	ldr	r3, .L897+68
	add	r0, r2, #1
	str	r0, [r4]
	add	ip, r3, #16
	strb	r1, [r2]
.LVL697:
.L884:
	.loc 1 1831 0 discriminator 3
	ldr	r2, [r4]
	ldr	r1, [r3], #4
	add	r0, r2, #1
	.loc 1 1830 0 discriminator 3
	cmp	r3, ip
	.loc 1 1831 0 discriminator 3
	str	r0, [r4]
	strb	r1, [r2]
	.loc 1 1830 0 discriminator 3
	bne	.L884
	mov	r5, #28
	.loc 1 1834 0
	mov	r1, #0
.L885:
.LVL698:
	.loc 1 1834 0 is_stmt 0 discriminator 2
	ldr	r3, [r4]
	.loc 1 1833 0 is_stmt 1 discriminator 2
	subs	r5, r5, #1
.LVL699:
	.loc 1 1834 0 discriminator 2
	add	r2, r3, #1
	str	r2, [r4]
	ldr	r7, .L897+16
	strb	r1, [r3]
.LVL700:
	.loc 1 1833 0 discriminator 2
	bne	.L885
	.loc 1 1836 0
	ldr	r2, .L897+72
	ldr	r3, [r7]
	ldr	r2, [r2]
	add	r1, r3, #1
	str	r1, [r7]
	strb	r2, [r3]
	.loc 1 1838 0
	ldr	r0, [r7]
	bl	G_WriteOptions
.LVL701:
	mov	r3, r0
	.loc 1 1842 0
	ldr	r2, .L897+76
	.loc 1 1838 0
	str	r0, [r7]
	.loc 1 1842 0
	ldr	r0, [r2]	@ unaligned
	str	r0, [r3]	@ unaligned
	.loc 1 1846 0
	ldrb	r2, [r6]	@ zero_extendqisi2
	.loc 1 1843 0
	ldr	r3, [r7]
	.loc 1 1846 0
	cmp	r2, #12
	.loc 1 1847 0
	ldrhi	r1, .L897+80
	.loc 1 1843 0
	add	r2, r3, #4
	.loc 1 1847 0
	ldrhi	r0, [r1]	@ unaligned
	.loc 1 1850 0
	ldrls	r3, .L897+80
	.loc 1 1848 0
	addhi	r2, r3, #8
	.loc 1 1847 0
	strhi	r0, [r3, #4]	@ unaligned
	.loc 1 1850 0
	strls	r5, [r3]
	.loc 1 1853 0
	ldr	r1, .L897+84
	ldr	r3, .L897+88
	ldr	r0, [r1]
	ldr	r3, [r3]
	add	r1, r2, #1
	rsb	r3, r0, r3
	str	r1, [r4]
	strb	r3, [r2]
	.loc 1 1856 0
	bl	Z_CheckHeap
.LVL702:
	.loc 1 1857 0
	bl	P_ArchivePlayers
.LVL703:
	.loc 1 1858 0
	bl	Z_CheckHeap
.LVL704:
	.loc 1 1864 0
	bl	P_ThinkerToIndex
.LVL705:
	.loc 1 1866 0
	bl	P_ArchiveWorld
.LVL706:
	.loc 1 1867 0
	bl	Z_CheckHeap
.LVL707:
	.loc 1 1868 0
	bl	P_ArchiveThinkers
.LVL708:
	.loc 1 1873 0
	bl	P_IndexToThinker
.LVL709:
	.loc 1 1875 0
	bl	Z_CheckHeap
.LVL710:
	.loc 1 1876 0
	bl	P_ArchiveSpecials
.LVL711:
	.loc 1 1877 0
	bl	P_ArchiveRNG
.LVL712:
	.loc 1 1878 0
	bl	Z_CheckHeap
.LVL713:
	.loc 1 1879 0
	bl	P_ArchiveMap
.LVL714:
	.loc 1 1881 0
	mvn	r2, #25
	ldr	r3, [r4]
	add	r1, r3, #1
	str	r1, [r4]
	strb	r2, [r3]
	.loc 1 1883 0
	ldr	r2, .L897+4
	ldr	r3, [r4]
	ldr	r5, [r2, #2128]
	rsb	r5, r5, r3
.LVL715:
	.loc 1 1885 0
	bl	Z_CheckHeap
.LVL716:
	.loc 1 1886 0
	ldr	r3, .L897+4
	mov	r2, r5
	ldr	r1, [r3, #2128]
	ldr	r0, [sp, #4]
	bl	M_WriteFile
.LVL717:
	cmp	r0, #0
	ldrne	r3, .L897+92
	ldreq	r1, .L897+96
	ldrne	r1, [r3]
	ldr	r0, .L897+100
	bl	doom_printf
.LVL718:
	.loc 1 1890 0
	ldr	r3, .L897+4
	ldr	r0, [r3, #2128]
	bl	Z_Free
.LVL719:
	.loc 1 1891 0
	mov	r3, #0
	ldr	r2, .L897+4
	.loc 1 1894 0
	ldr	r0, [sp, #4]
	.loc 1 1891 0
	str	r3, [r2, #2128]
	.loc 1 1893 0
	ldr	r2, .L897+28
	.loc 1 1891 0
	str	r3, [r4]
	.loc 1 1893 0
	strb	r3, [r2]
	.loc 1 1894 0
	bl	Z_Free
.LVL720:
	.loc 1 1895 0
	add	sp, sp, #36
	.cfi_def_cfa_offset 36
	@ sp needed
	ldmfd	sp!, {r4, r5, r6, r7, r8, r9, r10, fp, pc}
.LVL721:
.L898:
	.align	2
.L897:
	.word	demoplayback
	.word	.LANCHOR0
	.word	gameaction
	.word	.LANCHOR1
	.word	save_p
	.word	.LC41
	.word	1785
	.word	savedescription
	.word	.LC42
	.word	numwadfiles
	.word	wadfiles
	.word	1814
	.word	1822
	.word	compatibility_level
	.word	gameskill
	.word	gameepisode
	.word	gamemap
	.word	playeringame
	.word	idmusnum
	.word	leveltime
	.word	totalleveltimes
	.word	basetic
	.word	gametic
	.word	s_GGSAVED
	.word	.LC40
	.word	.LC43
	.cfi_endproc
.LFE33:
	.size	G_DoSaveGame, .-G_DoSaveGame
	.align	2
	.global	G_SaveGame
	.type	G_SaveGame, %function
G_SaveGame:
.LFB30:
	.loc 1 1715 0
	.cfi_startproc
	@ args = 0, pretend = 0, frame = 0
	@ frame_needed = 0, uses_anonymous_args = 0
.LVL722:
	stmfd	sp!, {r3, r4, r5, lr}
	.cfi_def_cfa_offset 16
	.cfi_offset 3, -16
	.cfi_offset 4, -12
	.cfi_offset 5, -8
	.cfi_offset 14, -4
	.loc 1 1715 0
	mov	r4, r0
	.loc 1 1716 0
	ldr	r0, .L905
.LVL723:
	bl	strcpy
.LVL724:
	.loc 1 1717 0
	ldr	r3, .L905+4
	.loc 1 1721 0
	ldr	r5, .L905+8
	.loc 1 1717 0
	ldr	r3, [r3]
	cmp	r3, #0
	beq	.L900
	.loc 1 1722 0
	mov	r0, #1
	.loc 1 1721 0
	strb	r4, [r5, #2276]
	.loc 1 1722 0
	bl	G_DoSaveGame
.LVL725:
.L900:
	.loc 1 1726 0
	mov	r0, r4, asl #2
	.loc 1 1725 0
	and	r0, r0, #28
	mvn	r0, r0
	and	r0, r0, #125
	mvn	r0, r0
	strb	r0, [r5, #2064]
	ldmfd	sp!, {r3, r4, r5, pc}
.L906:
	.align	2
.L905:
	.word	savedescription
	.word	demoplayback
	.word	.LANCHOR0
	.cfi_endproc
.LFE30:
	.size	G_SaveGame, .-G_SaveGame
	.global	__aeabi_idiv
	.align	2
	.global	G_Ticker
	.type	G_Ticker, %function
G_Ticker:
.LFB12:
	.loc 1 766 0
	.cfi_startproc
	@ args = 0, pretend = 0, frame = 16
	@ frame_needed = 0, uses_anonymous_args = 0
	stmfd	sp!, {r4, r5, r6, r7, r8, r9, r10, fp, lr}
	.cfi_def_cfa_offset 36
	.cfi_offset 4, -36
	.cfi_offset 5, -32
	.cfi_offset 6, -28
	.cfi_offset 7, -24
	.cfi_offset 8, -20
	.cfi_offset 9, -16
	.cfi_offset 10, -12
	.cfi_offset 11, -8
	.cfi_offset 14, -4
	.loc 1 771 0
	ldr	r8, .L1006
	.loc 1 766 0
	sub	sp, sp, #20
	.cfi_def_cfa_offset 56
	.loc 1 771 0
	ldr	r3, [r8]
	cmp	r3, #0
	bne	.L908
	.loc 1 771 0 is_stmt 0 discriminator 1
	ldr	r2, .L1006+4
	ldr	r3, .L1006+8
	ldr	r0, [r2]
	ldr	r2, .L1006+12
	ldr	r3, [r3, r0, asl #2]
	ldr	r1, [r2]
	cmp	r3, r1
	beq	.L908
.LVL726:
.LBB241:
.LBB242:
.LBB243:
	.loc 1 995 0 is_stmt 1
	ldr	r3, .L1006+16
	ldr	r3, [r3]
	cmp	r3, #0
	bne	.L995
.LVL727:
.L908:
	ldr	r5, .L1006+20
.LBE243:
.LBE242:
.LBE241:
	.loc 1 779 0
	bl	P_MapStart
.LVL728:
	mov	r9, r5
	mov	r6, r5
	.loc 1 781 0
	mov	r4, #0
	ldr	r7, .L1006+24
.LVL729:
.L910:
	.loc 1 782 0
	ldr	r3, [r7, r4, asl #2]
	cmp	r3, #0
	beq	.L909
	.loc 1 782 0 is_stmt 0 discriminator 1
	ldrb	r3, [r6, #4]	@ zero_extendqisi2
	cmp	r3, #2
	beq	.L996
.L909:
	.loc 1 781 0 is_stmt 1 discriminator 2
	add	r4, r4, #1
.LVL730:
	cmp	r4, #4
	add	r6, r6, #284
	bne	.L910
	.loc 1 784 0
	bl	P_MapEnd
.LVL731:
	.loc 1 794 0
	mov	r6, #2
	ldr	r4, .L1006+28
.LVL732:
.L911:
	ldrb	r2, [r4]	@ zero_extendqisi2
	.loc 1 789 0
	sub	r3, r2, #1
.L912:
	.loc 1 787 0
	cmp	r2, #0
	beq	.L997
	.loc 1 789 0
	cmp	r3, #7
	ldrls	pc, [pc, r3, asl #2]
	b	.L912
.L914:
	.word	.L913
	.word	.L915
	.word	.L916
	.word	.L917
	.word	.L918
	.word	.L919
	.word	.L920
	.word	.L921
.L920:
	.loc 1 813 0
	bl	F_StartFinale
.LVL733:
	.loc 1 814 0
	b	.L911
.L919:
	.loc 1 810 0
	bl	G_DoCompleted
.LVL734:
	.loc 1 811 0
	b	.L911
.L918:
	.loc 1 807 0
	bl	G_DoPlayDemo
.LVL735:
	.loc 1 808 0
	b	.L911
.L917:
	.loc 1 804 0
	mov	r0, #0
	bl	G_DoSaveGame
.LVL736:
	.loc 1 805 0
	b	.L911
.L916:
	.loc 1 801 0
	bl	G_DoLoadGame
.LVL737:
	.loc 1 802 0
	b	.L911
.L915:
	.loc 1 798 0
	bl	G_DoNewGame
.LVL738:
	.loc 1 799 0
	b	.L911
.L913:
.LVL739:
	.loc 1 794 0 discriminator 1
	strb	r6, [r9, #4]
.LVL740:
	strb	r6, [r9, #288]
.LVL741:
	strb	r6, [r9, #572]
.LVL742:
	strb	r6, [r9, #856]
.LVL743:
	.loc 1 795 0 discriminator 1
	bl	G_DoLoadLevel
.LVL744:
	.loc 1 796 0 discriminator 1
	b	.L911
.LVL745:
.L921:
	.loc 1 816 0
	bl	G_DoWorldDone
.LVL746:
	.loc 1 817 0
	b	.L911
.L997:
	.loc 1 823 0
	ldr	r3, .L1006+32
	ldr	r3, [r3]
	tst	r3, #2
	bne	.L924
	.loc 1 823 0 is_stmt 0 discriminator 1
	ldr	r3, [r8]
	cmp	r3, #0
	beq	.L998
.L925:
.LVL747:
.LBB246:
	.loc 1 827 0 is_stmt 1
	ldr	r3, .L1006+36
.LVL748:
	.loc 1 829 0
	mov	r6, #0
	.loc 1 827 0
	ldr	r0, [r3]
	ldr	r3, .L1006+40
.LVL749:
	ldr	fp, .L1006+44
	ldr	r1, [r3]
	bl	__aeabi_idiv
.LVL750:
	ldr	ip, .L1006+48
	str	r5, [sp, #4]
	mov	r5, ip
	ldr	r2, .L1006+52
	mov	r3, r0, asr #31
	smull	r1, r2, r2, r0
	rsb	r2, r3, r2, asr #1
	add	r2, r2, r2, asl #1
	ldr	r9, .L1006+56
	sub	r2, r0, r2, asl #2
	ldr	r10, .L1006+20
.LBB247:
	.loc 1 838 0
	ldr	r3, .L1006+60
	add	fp, fp, r2, asl #1
	add	r9, r9, r2, asl #3
.LVL751:
.L937:
.LBE247:
	.loc 1 830 0
	ldr	r2, [r7, r6, asl #2]
	cmp	r2, #0
	bne	.L999
.L928:
	.loc 1 829 0 discriminator 2
	add	r6, r6, #1
.LVL752:
	cmp	r6, #4
	add	fp, fp, #24
	add	r10, r10, #284
	add	r9, r9, #96
	bne	.L937
	.loc 1 906 0
	mov	r10, #0
	mov	ip, r5
	ldr	r7, .L1006+24
	ldr	r5, [sp, #4]
	ldr	r9, .L1006+64
	.loc 1 883 0
	ldr	fp, .L1006+68
	.loc 1 895 0
	ldr	r2, .L1006+16
.LVL753:
.L946:
	.loc 1 868 0
	ldr	r3, [r7], #4
	cmp	r3, #0
	beq	.L938
	.loc 1 870 0
	ldrb	r3, [r5, #13]	@ zero_extendqisi2
	tst	r3, #128
	bne	.L1000
.L938:
	add	r5, r5, #284
	.loc 1 867 0 discriminator 2
	cmp	r5, r9
	bne	.L946
	b	.L926
.L998:
.LBE246:
	.loc 1 823 0 discriminator 2
	ldr	r3, .L1006+72
	ldrb	r3, [r3]	@ zero_extendqisi2
	cmp	r3, #0
	beq	.L925
	.loc 1 823 0 is_stmt 0 discriminator 3
	ldr	r3, .L1006+16
	ldr	r3, [r3]
	cmp	r3, #0
	bne	.L925
.L924:
	.loc 1 824 0 is_stmt 1
	ldr	r2, .L1006+76
	ldr	ip, .L1006+48
	ldr	r3, [r2]
	add	r3, r3, #1
	str	r3, [r2]
.L926:
	.loc 1 913 0
	ldr	r4, .L1006+80
	ldrb	r2, [ip, #3340]	@ zero_extendqisi2
	ldrb	r3, [r4]	@ zero_extendqisi2
	cmp	r3, r2
	beq	.L947
	.loc 1 914 0
	cmp	r2, #1
	beq	.L1001
.L948:
	.loc 1 929 0
	strb	r3, [ip, #3340]
.L947:
	.loc 1 935 0
	ldr	r2, .L1006+32
	ldr	r2, [r2]
	tst	r2, #2
	beq	.L950
	.loc 1 935 0 is_stmt 0 discriminator 1
	cmp	r3, #0
	bne	.L907
.L952:
	.loc 1 942 0 is_stmt 1
	bl	P_Ticker
.LVL754:
	.loc 1 943 0
	bl	ST_Ticker
.LVL755:
	.loc 1 944 0
	bl	AM_Ticker
.LVL756:
	.loc 1 960 0
	add	sp, sp, #20
	.cfi_remember_state
	.cfi_def_cfa_offset 36
	@ sp needed
	ldmfd	sp!, {r4, r5, r6, r7, r8, r9, r10, fp, lr}
	.cfi_restore 14
	.cfi_restore 11
	.cfi_restore 10
	.cfi_restore 9
	.cfi_restore 8
	.cfi_restore 7
	.cfi_restore 6
	.cfi_restore 5
	.cfi_restore 4
	.cfi_def_cfa_offset 0
	.loc 1 945 0
	b	HU_Ticker
.LVL757:
.L950:
	.cfi_restore_state
	.loc 1 939 0
	cmp	r3, #3
	ldrls	pc, [pc, r3, asl #2]
	b	.L907
.L953:
	.word	.L952
	.word	.L954
	.word	.L955
	.word	.L956
.L1001:
	str	ip, [sp, #4]
	.loc 1 925 0
	bl	WI_End
.LVL758:
	ldrb	r3, [r4]	@ zero_extendqisi2
	ldr	ip, [sp, #4]
	b	.L948
.L907:
	.loc 1 960 0
	add	sp, sp, #20
	.cfi_remember_state
	.cfi_def_cfa_offset 36
	@ sp needed
	ldmfd	sp!, {r4, r5, r6, r7, r8, r9, r10, fp, pc}
.LVL759:
.L999:
	.cfi_restore_state
.LBB253:
.LBB249:
	.loc 1 836 0
	ldr	r2, [r8]
	.loc 1 834 0
	ldr	r0, [r9]	@ unaligned
	ldr	r1, [r9, #4]	@ unaligned
	.loc 1 836 0
	cmp	r2, #0
	add	r2, r10, #6
.LVL760:
	.loc 1 834 0
	str	r0, [r10, #6]	@ unaligned
	str	r1, [r2, #4]	@ unaligned
	.loc 1 836 0
	bne	.L1002
.LVL761:
.L929:
	.loc 1 838 0
	ldr	r1, [r3]
	cmp	r1, #0
	bne	.L1003
.L930:
	.loc 1 844 0
	ldr	r2, .L1006+16
	ldr	r2, [r2]
	cmp	r2, #0
	bne	.L931
	.loc 1 844 0 is_stmt 0 discriminator 2
	ldr	r1, [r8]
	cmp	r1, #0
	beq	.L928
	.loc 1 844 0
	ldrsb	r1, [r10, #6]
	cmp	r1, #50
	ble	.L928
	.loc 1 845 0 is_stmt 1
	ldr	r1, .L1006+36
	ldr	r1, [r1]
	.loc 1 844 0
	tst	r1, #31
	beq	.L960
	b	.L928
.LVL762:
.L996:
.LBE249:
.LBE253:
	.loc 1 783 0
	mov	r0, r4
	bl	G_DoReborn
.LVL763:
	b	.L909
.LVL764:
.L931:
.LBB254:
.LBB250:
	.loc 1 844 0
	ldrsb	r1, [r10, #6]
	cmp	r1, #50
	ble	.L958
	.loc 1 845 0
	ldr	r1, .L1006+36
	ldr	r1, [r1]
	.loc 1 844 0
	tst	r1, #31
	bne	.L958
.L960:
	.loc 1 845 0
	mov	r1, r1, asr #5
	and	r1, r1, #3
	cmp	r1, r6
	beq	.L1004
.L934:
	.loc 1 852 0
	cmp	r2, #0
	beq	.L928
.L958:
	ldr	r2, [r5, #2288]
	cmp	r2, #0
	bne	.L928
	str	r3, [sp, #12]
	.loc 1 852 0 is_stmt 0 discriminator 2
	ldr	r3, .L1006+36
	ldr	r2, [r3]
	ldr	r3, .L1006+40
	mov	r0, r2
	ldr	r1, [r3]
	str	r2, [sp, #8]
	bl	__aeabi_idivmod
.LVL765:
	cmp	r1, #0
	ldr	r2, [sp, #8]
	ldr	r3, [sp, #12]
	bne	.L928
	.loc 1 854 0 is_stmt 1
	cmp	r2, #12
	ble	.L935
	.loc 1 855 0
	ldrsh	r2, [fp]
	ldrsh	r1, [r10, #10]
	cmp	r2, r1
	beq	.L935
	.loc 1 856 0
	ldr	r0, .L1006+84
	str	r3, [sp, #8]
	bl	I_Error
.LVL766:
	ldr	r3, [sp, #8]
.L935:
	.loc 1 858 0
	ldr	r2, [r10]
	cmp	r2, #0
	.loc 1 859 0
	ldrne	r2, [r2, #24]
	.loc 1 861 0
	strh	r2, [fp]	@ movhi
	b	.L928
.LVL767:
.L1000:
.LBE250:
	.loc 1 872 0
	and	r1, r3, #3
	cmp	r1, #2
	beq	.L940
	cmp	r1, #3
	beq	.L941
	cmp	r1, #1
	beq	.L1005
	.loc 1 894 0
	mov	r1, #3
	.loc 1 893 0
	and	r3, r3, #28
	mov	r3, r3, asr #2
	.loc 1 892 0
	strb	r3, [ip, #2276]
	.loc 1 895 0
	ldr	r3, [r2]
	.loc 1 896 0
	str	r10, [ip, #2132]
	.loc 1 894 0
	strb	r1, [r4]
	.loc 1 895 0
	str	r3, [ip, #2272]
.L944:
	.loc 1 906 0
	strb	r10, [r5, #13]
	b	.L938
.L954:
.LBE254:
	.loc 1 960 0
	add	sp, sp, #20
	.cfi_remember_state
	.cfi_def_cfa_offset 36
	@ sp needed
	ldmfd	sp!, {r4, r5, r6, r7, r8, r9, r10, fp, lr}
	.cfi_restore 14
	.cfi_restore 11
	.cfi_restore 10
	.cfi_restore 9
	.cfi_restore 8
	.cfi_restore 7
	.cfi_restore 6
	.cfi_restore 5
	.cfi_restore 4
	.cfi_def_cfa_offset 0
	.loc 1 949 0
	b	WI_Ticker
.LVL768:
.L955:
	.cfi_restore_state
	.loc 1 960 0
	add	sp, sp, #20
	.cfi_remember_state
	.cfi_def_cfa_offset 36
	@ sp needed
	ldmfd	sp!, {r4, r5, r6, r7, r8, r9, r10, fp, lr}
	.cfi_restore 14
	.cfi_restore 11
	.cfi_restore 10
	.cfi_restore 9
	.cfi_restore 8
	.cfi_restore 7
	.cfi_restore 6
	.cfi_restore 5
	.cfi_restore 4
	.cfi_def_cfa_offset 0
	.loc 1 953 0
	b	F_Ticker
.LVL769:
.L956:
	.cfi_restore_state
	.loc 1 960 0
	add	sp, sp, #20
	.cfi_remember_state
	.cfi_def_cfa_offset 36
	@ sp needed
	ldmfd	sp!, {r4, r5, r6, r7, r8, r9, r10, fp, lr}
	.cfi_restore 14
	.cfi_restore 11
	.cfi_restore 10
	.cfi_restore 9
	.cfi_restore 8
	.cfi_restore 7
	.cfi_restore 6
	.cfi_restore 5
	.cfi_restore 4
	.cfi_def_cfa_offset 0
	.loc 1 957 0
	b	D_PageTicker
.LVL770:
.L995:
	.cfi_restore_state
.LBB255:
.LBB245:
.LBB244:
	bl	G_ChangedPlayerColour.part.1
.LVL771:
	b	.L908
.LVL772:
.L1003:
.LBE244:
.LBE245:
.LBE255:
.LBB256:
.LBB251:
	.loc 1 839 0
	mov	r0, r2
	str	r3, [sp, #8]
	bl	G_WriteDemoTiccmd
.LVL773:
	ldr	r3, [sp, #8]
	b	.L930
.LVL774:
.L1002:
	.loc 1 837 0
	mov	r0, r2
	str	r3, [sp, #12]
	str	r2, [sp, #8]
	bl	G_ReadDemoTiccmd
.LVL775:
	ldr	r3, [sp, #12]
	ldr	r2, [sp, #8]
	b	.L929
.LVL776:
.L940:
.LBE251:
	.loc 1 883 0
	ldrb	r1, [fp]	@ zero_extendqisi2
	cmp	r1, #0
	bne	.L945
	.loc 1 884 0
	ldr	lr, .L1006+88
	ldmia	lr!, {r0, r1}
	ldrb	lr, [lr]	@ zero_extendqisi2
	str	r0, [fp]	@ unaligned
	strb	lr, [fp, #8]
	str	r1, [fp, #4]	@ unaligned
.L945:
	.loc 1 886 0
	and	r3, r3, #28
	mov	r3, r3, asr #2
	.loc 1 885 0
	strb	r3, [ip, #2276]
	.loc 1 887 0
	strb	r6, [r4]
	.loc 1 888 0
	b	.L944
.L941:
	.loc 1 901 0
	ldr	r3, [r8]
	cmp	r3, #0
	bne	.L944
	.loc 1 901 0 is_stmt 0 discriminator 1
	ldr	r3, .L1006+92
	ldrb	r3, [r3]	@ zero_extendqisi2
	cmp	r3, #9
	.loc 1 903 0 is_stmt 1 discriminator 1
	movhi	r3, #1
	strhib	r3, [r4]
	.loc 1 904 0 discriminator 1
	b	.L944
.L1005:
	.loc 1 875 0
	ldr	r3, .L1006+32
	ldr	r1, .L1006+32
	ldr	r3, [r3]
	stmib	sp, {r2, ip}
	eor	r3, r3, #1
	.loc 1 876 0
	cmp	r3, #0
	.loc 1 875 0
	str	r3, [r1]
	.loc 1 876 0
	beq	.L943
	.loc 1 877 0
	bl	S_PauseSound
.LVL777:
	ldmib	sp, {r2, ip}
	b	.L944
.L943:
	.loc 1 879 0
	bl	S_ResumeSound
.LVL778:
	ldmib	sp, {r2, ip}
	b	.L944
.LVL779:
.L1004:
	str	r3, [sp, #8]
.LBB252:
.LBB248:
	.loc 1 849 0
	ldr	r3, .L1006+96
	ldr	r0, .L1006+100
	ldr	r1, [r3, r6, asl #2]
	bl	doom_printf
.LVL780:
	ldr	r3, .L1006+16
	ldr	r2, [r3]
	ldr	r3, [sp, #8]
	b	.L934
.L1007:
	.align	2
.L1006:
	.word	demoplayback
	.word	consoleplayer
	.word	mapcolor_plyr
	.word	mapcolor_me
	.word	netgame
	.word	players
	.word	playeringame
	.word	gameaction
	.word	paused
	.word	gametic
	.word	ticdup
	.word	.LANCHOR0+2136
	.word	.LANCHOR0
	.word	715827883
	.word	netcmds
	.word	demorecording
	.word	players+1136
	.word	savedescription
	.word	menuactive
	.word	basetic
	.word	gamestate
	.word	.LC45
	.word	.LC46
	.word	compatibility_level
	.word	player_names
	.word	.LC44
.LBE248:
.LBE252:
.LBE256:
	.cfi_endproc
.LFE12:
	.size	G_Ticker, .-G_Ticker
	.global	comp_lev_str
	.global	cpars
	.global	pars
	.global	bodyque
	.comm	bodyquesize,4,4
	.comm	bodyqueslot,4,4
	.comm	defaultskill,4,4
	.comm	savedescription,32,4
	.global	angleturn
	.global	sidemove
	.global	forwardmove
	.comm	joybspeed,4,4
	.comm	joybuse,4,4
	.comm	joybstrafe,4,4
	.comm	joybfire,4,4
	.comm	mouse_double_click_use,4,4
	.comm	mousebuse,4,4
	.comm	mousebbackward,4,4
	.comm	mousebforward,4,4
	.comm	mousebstrafe,4,4
	.comm	mousebfire,4,4
	.comm	key_screenshot,4,4
	.comm	key_weapon9,4,4
	.comm	key_weapon8,4,4
	.comm	key_weapon7,4,4
	.comm	key_weapon6,4,4
	.comm	key_weapon5,4,4
	.comm	key_weapon4,4,4
	.comm	key_weapon3,4,4
	.comm	key_weapon2,4,4
	.comm	key_weapon1,4,4
	.comm	key_weapontoggle,4,4
	.comm	destination_keys,16,4
	.comm	key_setup,4,4
	.comm	key_pause,4,4
	.comm	key_spy,4,4
	.comm	key_gamma,4,4
	.comm	key_quit,4,4
	.comm	key_quickload,4,4
	.comm	key_messages,4,4
	.comm	key_endgame,4,4
	.comm	key_quicksave,4,4
	.comm	key_hud,4,4
	.comm	key_soundvolume,4,4
	.global	key_help
	.comm	key_map_rotate,4,4
	.comm	key_map_overlay,4,4
	.comm	key_map_grid,4,4
	.comm	key_map_clear,4,4
	.comm	key_map_mark,4,4
	.comm	key_map_follow,4,4
	.comm	key_map_gobig,4,4
	.comm	key_map,4,4
	.comm	key_map_zoomout,4,4
	.comm	key_map_zoomin,4,4
	.comm	key_map_down,4,4
	.comm	key_map_up,4,4
	.comm	key_map_left,4,4
	.comm	key_map_right,4,4
	.comm	key_enter,4,4
	.comm	key_backspace,4,4
	.comm	key_chat,4,4
	.comm	key_zoomout,4,4
	.comm	key_zoomin,4,4
	.comm	key_reverse,4,4
	.comm	key_autorun,4,4
	.comm	key_loadgame,4,4
	.comm	key_savegame,4,4
	.global	key_escape
	.comm	key_speed,4,4
	.comm	key_strafe,4,4
	.comm	key_use,4,4
	.comm	key_fire,4,4
	.comm	key_straferight,4,4
	.comm	key_strafeleft,4,4
	.comm	key_menu_enter,4,4
	.comm	key_menu_escape,4,4
	.comm	key_menu_backspace,4,4
	.comm	key_menu_down,4,4
	.comm	key_menu_up,4,4
	.comm	key_menu_left,4,4
	.comm	key_menu_right,4,4
	.comm	key_down,4,4
	.comm	key_up,4,4
	.comm	key_left,4,4
	.comm	key_right,4,4
	.comm	longtics,4,4
	.comm	totalleveltimes,4,4
	.global	autorun
	.global	haswolflevels
	.comm	wminfo,204,4
	.comm	singledemo,4,4
	.comm	demover,4,4
	.comm	demoplayback,4,4
	.comm	demorecording,4,4
	.comm	totalsecret,4,4
	.comm	totalitems,4,4
	.comm	totallive,4,4
	.comm	totalkills,4,4
	.comm	basetic,4,4
	.comm	gametic,4,4
	.comm	displayplayer,4,4
	.comm	consoleplayer,4,4
	.comm	players,1136,4
	.comm	playeringame,16,4
	.comm	netgame,4,4
	.comm	deathmatch,4,4
	.comm	starttime,4,4
	.comm	noblit,4,4
	.comm	nodrawers,4,4
	.comm	fastdemo,4,4
	.comm	timingdemo,4,4
	.comm	usergame,4,4
	.comm	paused,4,4
	.comm	gamemap,4,4
	.comm	gameepisode,4,4
	.comm	respawnmonsters,4,4
	.comm	gameskill,1,1
	.comm	gamestate,1,1
	.comm	gameaction,1,1
	.section	.rodata
	.align	2
	.set	.LANCHOR2,. + 0
	.type	levels.10557, %object
	.size	levels.10557, 50
levels.10557:
	.byte	11
	.byte	11
	.byte	11
	.byte	11
	.byte	8
	.byte	11
	.byte	8
	.byte	11
	.byte	8
	.byte	11
	.byte	8
	.byte	11
	.byte	8
	.byte	11
	.byte	8
	.byte	11
	.byte	8
	.byte	11
	.byte	11
	.byte	11
	.byte	7
	.byte	11
	.byte	8
	.byte	11
	.byte	11
	.byte	11
	.byte	9
	.byte	11
	.byte	11
	.byte	11
	.byte	10
	.byte	11
	.byte	9
	.byte	11
	.byte	11
	.byte	11
	.byte	8
	.byte	11
	.byte	10
	.byte	13
	.byte	13
	.byte	13
	.byte	7
	.byte	14
	.byte	3
	.byte	15
	.byte	15
	.byte	15
	.byte	1
	.byte	15
	.space	2
	.type	version_headers, %object
	.size	version_headers, 36
version_headers:
	.word	14
	.word	.LC42
	.word	210
	.word	16
	.word	.LC42
	.word	211
	.word	17
	.word	.LC42
	.word	212
	.type	map_old_comp_levels, %object
	.size	map_old_comp_levels, 15
map_old_comp_levels:
	.byte	0
	.byte	1
	.byte	2
	.byte	4
	.byte	5
	.byte	7
	.byte	8
	.byte	9
	.byte	10
	.byte	11
	.byte	12
	.byte	13
	.byte	14
	.byte	15
	.byte	16
	.data
	.align	2
	.set	.LANCHOR1,. + 0
	.type	angleturn, %object
	.size	angleturn, 12
angleturn:
	.word	640
	.word	1280
	.word	320
	.type	forwardmove, %object
	.size	forwardmove, 8
forwardmove:
	.word	25
	.word	50
	.type	sidemove, %object
	.size	sidemove, 8
sidemove:
	.word	24
	.word	40
	.type	cpars, %object
	.size	cpars, 128
cpars:
	.word	30
	.word	90
	.word	120
	.word	120
	.word	90
	.word	150
	.word	120
	.word	120
	.word	270
	.word	90
	.word	210
	.word	150
	.word	150
	.word	150
	.word	210
	.word	150
	.word	420
	.word	150
	.word	210
	.word	150
	.word	240
	.word	150
	.word	180
	.word	150
	.word	150
	.word	300
	.word	330
	.word	420
	.word	300
	.word	180
	.word	120
	.word	30
	.type	pars, %object
	.size	pars, 160
pars:
	.word	0
	.space	36
	.word	0
	.word	30
	.word	75
	.word	120
	.word	90
	.word	165
	.word	180
	.word	180
	.word	30
	.word	165
	.word	0
	.word	90
	.word	90
	.word	90
	.word	120
	.word	90
	.word	360
	.word	240
	.word	30
	.word	170
	.word	0
	.word	90
	.word	45
	.word	90
	.word	150
	.word	90
	.word	90
	.word	165
	.word	30
	.word	135
	.type	savegamesize, %object
	.size	savegamesize, 4
savegamesize:
	.word	131072
	.type	comp_lev_str, %object
	.size	comp_lev_str, 72
comp_lev_str:
	.word	.LC47
	.word	.LC48
	.word	.LC49
	.word	.LC50
	.word	.LC51
	.word	.LC52
	.word	.LC53
	.word	.LC54
	.word	.LC55
	.word	.LC56
	.word	.LC57
	.word	.LC58
	.word	.LC59
	.word	.LC60
	.word	.LC61
	.word	.LC62
	.word	.LC63
	.word	.LC64
	.type	demolumpnum, %object
	.size	demolumpnum, 4
demolumpnum:
	.word	-1
	.type	key_help, %object
	.size	key_help, 4
key_help:
	.word	187
	.type	key_escape, %object
	.size	key_escape, 4
key_escape:
	.word	27
	.section	.rodata.str1.4,"aMS",%progbits,1
	.align	2
.LC0:
	.ascii	"F_SKY1\000"
	.space	1
.LC1:
	.ascii	"SKY3\000"
	.space	3
.LC2:
	.ascii	"SKY1\000"
	.space	3
.LC3:
	.ascii	"SKY2\000"
	.space	3
.LC4:
	.ascii	"SKY4\000"
	.space	3
.LC5:
	.ascii	"map%02d\000"
.LC6:
	.ascii	"E%dM%d\000"
	.space	1
.LC7:
	.ascii	"G_CheckSpot: unexpected angle %d\012\000"
	.space	2
.LC8:
	.ascii	"G_ReadDemoHeader: wrong demo header\012\000"
	.space	3
.LC9:
	.ascii	"G_DeathMatchSpawnPlayer: Only %i deathmatch spots, "
	.ascii	"%d required\000"
	.space	1
.LC10:
	.ascii	"FINISHED: MAP%02d\012\000"
	.space	1
.LC11:
	.ascii	"FINISHED: E%dM%d\012\000"
	.space	2
.LC12:
	.ascii	"demosav\000"
.LC13:
	.ascii	"%s/%s%d.dsg\000"
.LC14:
	.ascii	"-dog\000"
	.space	3
.LC15:
	.ascii	"-dogs\000"
	.space	2
.LC16:
	.ascii	"-complevel\000"
	.space	1
.LC17:
	.ascii	"G_WriteOptions: GAME_OPTION_SIZE is too small\000"
	.space	2
.LC18:
	.ascii	"G_ReadDemoHeader: Unknown demo format %d.\000"
	.space	2
.LC19:
	.ascii	"G_DoPlayDemo: playing demo with %s compatibility\012"
	.ascii	"\000"
	.space	2
.LC20:
	.ascii	".lmp\000"
	.space	3
.LC21:
	.ascii	"wb\000"
	.space	1
.LC22:
	.ascii	"r+\000"
	.space	1
.LC23:
	.ascii	"G_RecordDemo: failed to open %s\000"
.LC24:
	.ascii	"G_RecordDemo: No save in demo, can't continue\000"
	.space	2
.LC25:
	.ascii	"G_BeginRecording: Boom compatibility level unrecogn"
	.ascii	"ised?\000"
	.space	3
.LC26:
	.ascii	"-longtics\000"
	.space	2
.LC27:
	.ascii	"G_BeginRecording: Error writing demo header\000"
.LC28:
	.ascii	"Couldn't read file %s: %s\000"
	.space	2
.LC29:
	.ascii	"(Unknown Error)\000"
.LC30:
	.ascii	"Unrecognised savegame version!\012Are you sure? (y/"
	.ascii	"n) \000"
.LC31:
	.ascii	"Incompatible Savegame!!!\012\000"
	.space	2
.LC32:
	.ascii	"Wads expected:\012\012\000"
	.space	3
.LC33:
	.ascii	"\012Are you sure?\000"
	.space	1
.LC34:
	.ascii	"G_DoLoadGame: Incompatible savegame\012\000"
	.space	3
.LC35:
	.ascii	"G_DoLoadGame: Bad savegame\000"
	.space	1
.LC36:
	.ascii	"G_CheckDemoStatus: Demo recorded\000"
	.space	3
.LC37:
	.ascii	"Timed %u gametics in %u realtics = %-.1f frames per"
	.ascii	" second\000"
	.space	1
.LC38:
	.ascii	"G_ReadDemoTiccmd: missing DEMOMARKER\012\000"
	.space	2
.LC39:
	.ascii	"G_WriteDemoTiccmd: error writing demo\000"
	.space	2
.LC40:
	.ascii	"Game save failed!\000"
	.space	2
.LC41:
	.ascii	"c:/devl/prboom3ds/src/g_game.c\000"
	.space	1
.LC42:
	.ascii	"PrBoom %d\000"
	.space	2
.LC43:
	.ascii	"%s\000"
	.space	1
.LC44:
	.ascii	"%s is turbo!\000"
	.space	3
.LC45:
	.ascii	"G_Ticker: Consistency failure (%i should be %i)\000"
.LC46:
	.ascii	"NET GAME\000"
	.space	3
.LC47:
	.ascii	"doom v1.2\000"
	.space	2
.LC48:
	.ascii	"doom v1.666\000"
.LC49:
	.ascii	"doom/doom2 v1.9\000"
.LC50:
	.ascii	"ultimate doom\000"
	.space	2
.LC51:
	.ascii	"final doom\000"
	.space	1
.LC52:
	.ascii	"dosdoom compatibility\000"
	.space	2
.LC53:
	.ascii	"tasdoom compatibility\000"
	.space	2
.LC54:
	.ascii	"\"boom compatibility\"\000"
	.space	3
.LC55:
	.ascii	"boom v2.01\000"
	.space	1
.LC56:
	.ascii	"boom v2.02\000"
	.space	1
.LC57:
	.ascii	"lxdoom v1.3.2+\000"
	.space	1
.LC58:
	.ascii	"MBF\000"
.LC59:
	.ascii	"PrBoom 2.03beta\000"
.LC60:
	.ascii	"PrBoom v2.1.0-2.1.1\000"
.LC61:
	.ascii	"PrBoom v2.1.2-v2.2.6\000"
	.space	3
.LC62:
	.ascii	"PrBoom v2.3.x\000"
	.space	2
.LC63:
	.ascii	"PrBoom 2.4.0\000"
	.space	3
.LC64:
	.ascii	"Current PrBoom\000"
	.bss
	.align	3
	.set	.LANCHOR0,. + 0
	.type	gamekeydown, %object
	.size	gamekeydown, 2048
gamekeydown:
	.space	2048
	.type	joyymove, %object
	.size	joyymove, 4
joyymove:
	.space	4
	.type	joyxmove, %object
	.size	joyxmove, 4
joyxmove:
	.space	4
	.type	mousey, %object
	.size	mousey, 4
mousey:
	.space	4
	.type	mousex, %object
	.size	mousex, 4
mousex:
	.space	4
	.type	special_event, %object
	.size	special_event, 1
special_event:
	.space	1
	.space	3
	.type	mousearray, %object
	.size	mousearray, 16
mousearray:
	.space	16
	.type	joyarray, %object
	.size	joyarray, 20
joyarray:
	.space	20
	.type	computed.10456, %object
	.size	computed.10456, 4
computed.10456:
	.space	4
	.type	haswolflevels, %object
	.size	haswolflevels, 4
haswolflevels:
	.space	4
	.type	s.10455, %object
	.size	s.10455, 8
s.10455:
	.space	8
	.type	queuesize.10357, %object
	.size	queuesize.10357, 4
queuesize.10357:
	.space	4
	.type	bodyque, %object
	.size	bodyque, 4
bodyque:
	.space	4
	.type	savebuffer, %object
	.size	savebuffer, 4
savebuffer:
	.space	4
	.type	command_loadgame, %object
	.size	command_loadgame, 4
command_loadgame:
	.space	4
	.type	consistancy, %object
	.size	consistancy, 96
consistancy:
	.space	96
	.type	autorun, %object
	.size	autorun, 4
autorun:
	.space	4
	.type	turnheld, %object
	.size	turnheld, 4
turnheld:
	.space	4
	.type	dclicks, %object
	.size	dclicks, 4
dclicks:
	.space	4
	.type	dclickstate, %object
	.size	dclickstate, 4
dclickstate:
	.space	4
	.type	dclicktime, %object
	.size	dclicktime, 4
dclicktime:
	.space	4
	.type	dclickstate2, %object
	.size	dclickstate2, 4
dclickstate2:
	.space	4
	.type	dclicktime2, %object
	.size	dclicktime2, 4
dclicktime2:
	.space	4
	.type	dclicks2, %object
	.size	dclicks2, 4
dclicks2:
	.space	4
	.type	c.10214, %object
	.size	c.10214, 4
c.10214:
	.space	4
	.type	secretexit, %object
	.size	secretexit, 4
secretexit:
	.space	4
	.type	forced_loadgame, %object
	.size	forced_loadgame, 4
forced_loadgame:
	.space	4
	.type	savegameslot, %object
	.size	savegameslot, 1
savegameslot:
	.space	1
	.type	d_skill, %object
	.size	d_skill, 1
d_skill:
	.space	1
	.space	2
	.type	d_episode, %object
	.size	d_episode, 4
d_episode:
	.space	4
	.type	d_map, %object
	.size	d_map, 4
d_map:
	.space	4
	.type	netdemo, %object
	.size	netdemo, 4
netdemo:
	.space	4
	.type	fast.10577, %object
	.size	fast.10577, 4
fast.10577:
	.space	4
	.type	demofp, %object
	.size	demofp, 4
demofp:
	.space	4
	.type	defdemoname, %object
	.size	defdemoname, 4
defdemoname:
	.space	4
	.type	demobuffer, %object
	.size	demobuffer, 4
demobuffer:
	.space	4
	.type	demolength, %object
	.size	demolength, 4
demolength:
	.space	4
	.type	demo_p, %object
	.size	demo_p, 4
demo_p:
	.space	4
	.type	msg.10741, %object
	.size	msg.10741, 1024
msg.10741:
	.space	1024
	.type	prevgamestate.10276, %object
	.size	prevgamestate.10276, 1
prevgamestate.10276:
	.space	1
	.text
.Letext0:
	.file 3 "c:\\devkitpro\\devkitarm\\lib\\gcc\\arm-none-eabi\\4.9.2\\include\\stddef.h"
	.file 4 "c:\\devkitpro\\devkitarm\\lib\\gcc\\arm-none-eabi\\4.9.2\\include\\stdarg.h"
	.file 5 "c:\\devkitpro\\devkitarm\\arm-none-eabi\\include\\sys\\lock.h"
	.file 6 "c:\\devkitpro\\devkitarm\\arm-none-eabi\\include\\sys\\_types.h"
	.file 7 "c:\\devkitpro\\devkitarm\\arm-none-eabi\\include\\sys\\reent.h"
	.file 8 "<built-in>"
	.file 9 "c:\\devkitpro\\devkitarm\\arm-none-eabi\\include\\stdio.h"
	.file 10 "c:/devl/prboom3ds/src/z_zone.h"
	.file 11 "c:/devl/prboom3ds/src/doomdef.h"
	.file 12 "c:/devl/prboom3ds/src/doomtype.h"
	.file 13 "c:/devl/prboom3ds/src/m_fixed.h"
	.file 14 "c:/devl/prboom3ds/src/tables.h"
	.file 15 "c:/devl/prboom3ds/src/d_think.h"
	.file 16 "c:/devl/prboom3ds/src/info.h"
	.file 17 "c:/devl/prboom3ds/src/p_pspr.h"
	.file 18 "c:/devl/prboom3ds/src/doomdata.h"
	.file 19 "c:/devl/prboom3ds/src/p_mobj.h"
	.file 20 "c:/devl/prboom3ds/src/r_defs.h"
	.file 21 "c:/devl/prboom3ds/src/d_player.h"
	.file 22 "c:/devl/prboom3ds/src/d_ticcmd.h"
	.file 23 "c:/devl/prboom3ds/src/doomstat.h"
	.file 24 "c:/devl/prboom3ds/src/d_event.h"
	.file 25 "c:/devl/prboom3ds/src/m_random.h"
	.file 26 "c:/devl/prboom3ds/src/sounds.h"
	.file 27 "c:/devl/prboom3ds/src/lprintf.h"
	.file 28 "c:/devl/prboom3ds/src/z_bmalloc.h"
	.file 29 "c:/devl/prboom3ds/src/m_argv.h"
	.file 30 "c:/devl/prboom3ds/src/p_saveg.h"
	.file 31 "c:/devl/prboom3ds/src/d_main.h"
	.file 32 "c:/devl/prboom3ds/src/am_map.h"
	.file 33 "c:/devl/prboom3ds/src/r_draw.h"
	.file 34 "c:/devl/prboom3ds/src/s_sound.h"
	.file 35 "c:/devl/prboom3ds/src/r_sky.h"
	.file 36 "c:/devl/prboom3ds/src/d_deh.h"
	.file 37 "c:/devl/prboom3ds/src/p_inter.h"
	.file 38 "c:/devl/prboom3ds/src/r_data.h"
	.file 39 "c:/devl/prboom3ds/src/p_setup.h"
	.file 40 "c:/devl/prboom3ds/src/st_stuff.h"
	.file 41 "c:/devl/prboom3ds/src/hu_stuff.h"
	.file 42 "c:/devl/prboom3ds/src/p_map.h"
	.file 43 "c:/devl/prboom3ds/src/r_main.h"
	.file 44 "c:/devl/prboom3ds/src/m_menu.h"
	.file 45 "c:/devl/prboom3ds/src/r_fps.h"
	.file 46 "c:/devl/prboom3ds/src/r_demo.h"
	.file 47 "c:/devl/prboom3ds/src/f_finale.h"
	.file 48 "c:/devl/prboom3ds/src/wi_stuff.h"
	.file 49 "c:\\devkitpro\\devkitarm\\arm-none-eabi\\include\\stdlib.h"
	.file 50 "c:/devl/prboom3ds/src/i_system.h"
	.file 51 "c:\\devkitpro\\devkitarm\\arm-none-eabi\\include\\string.h"
	.file 52 "c:\\devkitpro\\devkitarm\\arm-none-eabi\\include\\sys\\unistd.h"
	.file 53 "c:/devl/prboom3ds/src/m_misc.h"
	.file 54 "c:/devl/prboom3ds/src/p_checksum.h"
	.file 55 "c:/devl/prboom3ds/src/p_tick.h"