	.arch armv6k
	.fpu softvfp
	.eabi_attribute 23, 1
	.eabi_attribute 24, 1
	.eabi_attribute 25, 1
	.eabi_attribute 26, 1
	.eabi_attribute 30, 2
	.eabi_attribute 34, 1
	.eabi_attribute 18, 4
	.file	"hu_lib.c"
	.text
.Ltext0:
	.cfi_sections	.debug_frame
	.align	2
	.global	HUlib_clearTextLine
	.type	HUlib_clearTextLine, %function
HUlib_clearTextLine:
.LFB5:
	.file 1 "c:/devl/prboom3ds/src/hu_lib.c"
	.loc 1 71 0
	.cfi_startproc
	@ args = 0, pretend = 0, frame = 0
	@ frame_needed = 0, uses_anonymous_args = 0
	@ link register save eliminated.
.LVL0:
	.loc 1 73 0
	mov	r3, #0
	.loc 1 75 0
	mov	r2, #1
	.loc 1 73 0
	str	r3, [r0, #2028]
	.loc 1 75 0
	str	r2, [r0, #2032]
	.loc 1 72 0
	str	r3, [r0, #20]
	.loc 1 74 0
	strb	r3, [r0, #24]
	bx	lr
	.cfi_endproc
.LFE5:
	.size	HUlib_clearTextLine, .-HUlib_clearTextLine
	.align	2
	.global	HUlib_initTextLine
	.type	HUlib_initTextLine, %function
HUlib_initTextLine:
.LFB6:
	.loc 1 90 0
	.cfi_startproc
	@ args = 8, pretend = 0, frame = 0
	@ frame_needed = 0, uses_anonymous_args = 0
.LVL1:
	stmfd	sp!, {r4, r5, lr}
	.cfi_def_cfa_offset 12
	.cfi_offset 4, -12
	.cfi_offset 5, -8
	.cfi_offset 14, -4
.LBB48:
.LBB49:
	.loc 1 73 0
	mov	ip, #0
	.loc 1 75 0
	mov	lr, #1
.LBE49:
.LBE48:
	.loc 1 90 0
	ldr	r5, [sp, #12]
	ldr	r4, [sp, #16]
	.loc 1 94 0
	stmia	r0, {r1, r2, r3, r5}
	.loc 1 95 0
	str	r4, [r0, #16]
.LVL2:
.LBB51:
.LBB50:
	.loc 1 75 0
	str	lr, [r0, #2032]
	.loc 1 73 0
	str	ip, [r0, #2028]
	.loc 1 72 0
	str	ip, [r0, #20]
	.loc 1 74 0
	strb	ip, [r0, #24]
	ldmfd	sp!, {r4, r5, pc}
.LBE50:
.LBE51:
	.cfi_endproc
.LFE6:
	.size	HUlib_initTextLine, .-HUlib_initTextLine
	.align	2
	.global	HUlib_addCharToTextLine
	.type	HUlib_addCharToTextLine, %function
HUlib_addCharToTextLine:
.LFB7:
	.loc 1 110 0
	.cfi_startproc
	@ args = 0, pretend = 0, frame = 0
	@ frame_needed = 0, uses_anonymous_args = 0
.LVL3:
	.loc 1 112 0
	ldr	r2, [r0, #20]
	.loc 1 110 0
	mov	r3, r0
	.loc 1 112 0
	cmp	r2, #80
	beq	.L8
	.loc 1 117 0
	cmp	r1, #10
	.loc 1 118 0
	moveq	r2, #0
	.loc 1 116 0
	addne	r2, r2, #1
	.loc 1 110 0
	stmfd	sp!, {r4, r5, lr}
	.cfi_def_cfa_offset 12
	.cfi_offset 4, -12
	.cfi_offset 5, -8
	.cfi_offset 14, -4
	.loc 1 118 0
	str	r2, [r0, #20]
	.loc 1 120 0
	ldr	r2, [r0, #2028]
	.loc 1 123 0
	mov	r0, #1
.LVL4:
	.loc 1 121 0
	mov	r5, #0
	.loc 1 122 0
	mov	lr, #4
	.loc 1 120 0
	add	ip, r2, r0
	.loc 1 121 0
	add	r4, r3, ip
	.loc 1 120 0
	add	r2, r3, r2
	str	ip, [r3, #2028]
	strb	r1, [r2, #24]
	.loc 1 121 0
	strb	r5, [r4, #24]
	.loc 1 122 0
	str	lr, [r3, #2032]
	.loc 1 123 0
	ldmfd	sp!, {r4, r5, pc}
.LVL5:
.L8:
	.cfi_def_cfa_offset 0
	.cfi_restore 4
	.cfi_restore 5
	.cfi_restore 14
	.loc 1 113 0
	mov	r0, #0
.LVL6:
	bx	lr
	.cfi_endproc
.LFE7:
	.size	HUlib_addCharToTextLine, .-HUlib_addCharToTextLine
	.align	2
	.global	HUlib_drawTextLine
	.type	HUlib_drawTextLine, %function
HUlib_drawTextLine:
.LFB9:
	.loc 1 158 0
	.cfi_startproc
	@ args = 0, pretend = 0, frame = 8
	@ frame_needed = 0, uses_anonymous_args = 0
.LVL7:
	stmfd	sp!, {r4, r5, r6, r7, r8, r9, r10, fp, lr}
	.cfi_def_cfa_offset 36
	.cfi_offset 4, -36
	.cfi_offset 5, -32
	.cfi_offset 6, -28
	.cfi_offset 7, -24
	.cfi_offset 8, -20
	.cfi_offset 9, -16
	.cfi_offset 10, -12
	.cfi_offset 11, -8
	.cfi_offset 14, -4
	.loc 1 169 0
	ldr	ip, [r0, #2028]
	.loc 1 164 0
	ldr	r3, [r0, #16]
	.loc 1 158 0
	sub	sp, sp, #20
	.cfi_def_cfa_offset 56
	.loc 1 169 0
	cmp	ip, #0
	.loc 1 158 0
	mov	r5, r0
	.loc 1 168 0
	ldmia	r0, {r0, r7}
.LVL8:
	.loc 1 158 0
	str	r1, [sp, #12]
	.loc 1 164 0
	str	r3, [sp, #8]
.LVL9:
	.loc 1 169 0
	ble	.L13
	mov	r4, #0
	ldr	r6, .L35
	.loc 1 196 0
	ldr	r9, .L35+4
	.loc 1 190 0
	ldr	fp, .L35+8
	.loc 1 176 0
	ldr	r10, .L35+12
	b	.L21
.LVL10:
.L18:
	.loc 1 177 0
	cmp	r2, #27
	beq	.L33
	.loc 1 183 0
	cmp	r2, #32
	beq	.L20
	.loc 1 183 0 is_stmt 0 discriminator 1
	ldr	r1, [r5, #12]
	cmp	r2, r1
	blt	.L20
	.loc 1 183 0 discriminator 2
	tst	r3, #128
	bne	.L20
	.loc 1 185 0 is_stmt 1
	ldr	r3, [r5, #8]
	rsb	r2, r1, r2
.LVL11:
	add	r2, r2, r2, asl #2
	.loc 1 186 0
	ldr	r8, [r3, r2, asl #2]
	.loc 1 185 0
	add	r2, r3, r2, asl #2
.LVL12:
	.loc 1 186 0
	add	r8, r0, r8
	cmp	r8, #320
	bgt	.L13
	.loc 1 190 0
	mov	r1, #6
.LVL13:
	ldr	r3, [r2, #16]
.LVL14:
	ldr	r2, [r5, #16]
	str	r1, [sp, #4]
.LVL15:
	str	r2, [sp]
	ldr	ip, [fp]
	mov	r1, r7
	mov	r2, #0
	blx	ip
.LVL16:
	.loc 1 191 0
	mov	r0, r8
	ldr	ip, [r5, #2028]
.LVL17:
.L17:
	.loc 1 169 0 discriminator 2
	add	r4, r4, #1
.LVL18:
	cmp	ip, r4
	ble	.L13
.LVL19:
.L21:
.LBB52:
	.loc 1 171 0
	add	r3, r5, r4
	ldrb	r3, [r3, #24]	@ zero_extendqisi2
.LVL20:
	ldr	r2, [r6]
	add	r2, r2, r3
	ldrb	r2, [r2, #1]	@ zero_extendqisi2
	and	r2, r2, #3
	cmp	r2, #2
	subeq	r3, r3, #32
.LVL21:
.LBE52:
	uxtb	r2, r3
.LVL22:
	.loc 1 173 0
	cmp	r2, #10
	.loc 1 174 0
	addeq	r7, r7, #8
.LVL23:
	moveq	r0, #0
.LVL24:
	.loc 1 173 0
	beq	.L17
	.loc 1 175 0
	cmp	r2, #9
	bne	.L18
	.loc 1 176 0
	smull	r2, r3, r10, r0
.LVL25:
	mov	r0, r0, asr #31
	rsb	r0, r0, r3, asr #5
	add	r0, r0, r0, asl #2
	.loc 1 169 0
	add	r4, r4, #1
.LVL26:
	.loc 1 176 0
	mov	r0, r0, asl #4
	.loc 1 169 0
	cmp	ip, r4
	.loc 1 176 0
	add	r0, r0, #80
.LVL27:
	.loc 1 169 0
	bgt	.L21
.LVL28:
.L13:
	.loc 1 203 0
	ldr	r3, [sp, #12]
	cmp	r3, #0
	.loc 1 200 0
	ldr	r3, [sp, #8]
	str	r3, [r5, #16]
	.loc 1 203 0
	beq	.L12
	.loc 1 203 0 is_stmt 0 discriminator 1
	ldr	r3, [r5, #12]
	ldr	r2, [r5, #8]
	rsb	r3, r3, #95
	add	r3, r3, r3, asl #2
	mov	r3, r3, asl #2
	ldr	r1, [r2, r3]
	add	r3, r2, r3
	add	r2, r0, r1
	cmp	r2, #320
	ble	.L34
.L12:
	.loc 1 209 0 is_stmt 1
	add	sp, sp, #20
	.cfi_remember_state
	.cfi_def_cfa_offset 36
	@ sp needed
	ldmfd	sp!, {r4, r5, r6, r7, r8, r9, r10, fp, pc}
.LVL29:
.L20:
	.cfi_restore_state
	.loc 1 195 0
	add	r0, r0, #4
.LVL30:
	.loc 1 196 0
	cmp	r0, r9
	ble	.L17
	b	.L13
.LVL31:
.L33:
	.loc 1 179 0
	add	r4, r4, #1
.LVL32:
	cmp	r4, ip
	bge	.L17
	.loc 1 180 0
	add	r3, r5, r4
	ldrb	r3, [r3, #24]	@ zero_extendqisi2
	sub	r3, r3, #48
	uxtb	r2, r3
.LVL33:
	cmp	r2, #9
	.loc 1 181 0
	strls	r3, [r5, #16]
.LVL34:
	b	.L17
.LVL35:
.L34:
	.loc 1 207 0
	mov	lr, #6
	mov	ip, #4
	ldr	r2, .L35+8
	ldr	r3, [r3, #16]
	str	lr, [sp]
	str	ip, [sp, #4]
	ldr	ip, [r2]
	mov	r1, r7
	mov	r2, #0
	blx	ip
.LVL36:
	.loc 1 209 0
	add	sp, sp, #20
	.cfi_def_cfa_offset 36
	@ sp needed
	ldmfd	sp!, {r4, r5, r6, r7, r8, r9, r10, fp, pc}
.LVL37:
.L36:
	.align	2
.L35:
	.word	__ctype_ptr__
	.word	319
	.word	V_DrawNumPatch
	.word	1717986919
	.cfi_endproc
.LFE9:
	.size	HUlib_drawTextLine, .-HUlib_drawTextLine
	.align	2
	.global	HUlib_eraseTextLine
	.type	HUlib_eraseTextLine, %function
HUlib_eraseTextLine:
.LFB10:
	.loc 1 221 0
	.cfi_startproc
	@ args = 0, pretend = 0, frame = 0
	@ frame_needed = 0, uses_anonymous_args = 0
.LVL38:
	stmfd	sp!, {r3, r4, r5, r6, r7, r8, r9, r10, fp, lr}
	.cfi_def_cfa_offset 40
	.cfi_offset 3, -40
	.cfi_offset 4, -36
	.cfi_offset 5, -32
	.cfi_offset 6, -28
	.cfi_offset 7, -24
	.cfi_offset 8, -20
	.cfi_offset 9, -16
	.cfi_offset 10, -12
	.cfi_offset 11, -8
	.cfi_offset 14, -4
	.loc 1 229 0
	ldr	r3, .L55
	.loc 1 221 0
	mov	fp, r0
	.loc 1 229 0
	ldrb	r3, [r3]	@ zero_extendqisi2
	tst	r3, #1
	bne	.L41
	.loc 1 229 0 is_stmt 0 discriminator 1
	ldr	r6, .L55+4
	ldr	r3, [r6]
	cmp	r3, #0
	bne	.L53
.LVL39:
.L41:
	.loc 1 246 0 is_stmt 1
	ldr	r3, [fp, #2032]
	cmp	r3, #0
	beq	.L54
.L39:
	.loc 1 246 0 is_stmt 0 discriminator 1
	sub	r3, r3, #1
	str	r3, [fp, #2032]
	ldmfd	sp!, {r3, r4, r5, r6, r7, r8, r9, r10, fp, pc}
.LVL40:
.L53:
	.loc 1 229 0 is_stmt 1 discriminator 2
	ldr	r3, [r0, #2032]
	cmp	r3, #0
	ldmeqfd	sp!, {r3, r4, r5, r6, r7, r8, r9, r10, fp, pc}
	.loc 1 231 0
	ldr	r2, [r0, #8]
	.loc 1 232 0
	ldr	r4, [r0, #4]
	.loc 1 231 0
	ldr	r5, [r2, #4]
	add	r5, r5, #1
.LVL41:
	.loc 1 232 0
	add	r2, r5, r4
	cmp	r4, r2
	bge	.L39
	ldr	r7, .L55+8
	.loc 1 235 0
	ldr	r8, .L55+12
	.loc 1 234 0
	ldr	r9, .L55+16
	.loc 1 241 0
	ldr	r10, .L55+20
	b	.L47
.LVL42:
.L44:
	.loc 1 235 0
	ldr	r2, [r8]
	bl	R_VideoErase
.LVL43:
.L46:
	.loc 1 232 0 discriminator 2
	ldr	r3, [fp, #4]
	add	r4, r4, #1
.LVL44:
	add	r3, r5, r3
	cmp	r3, r4
	ble	.L41
.L47:
	.loc 1 234 0
	ldr	r3, [r7]
	.loc 1 235 0
	mov	r0, #0
	.loc 1 234 0
	cmp	r3, r4
	.loc 1 235 0
	mov	r1, r4
	.loc 1 234 0
	bgt	.L44
.LVL45:
	.loc 1 234 0 is_stmt 0 discriminator 1
	ldr	r2, [r9]
	add	r3, r3, r2
	cmp	r3, r4
	ble	.L44
	.loc 1 239 0 is_stmt 1
	ldr	r2, [r6]
	bl	R_VideoErase
.LVL46:
	.loc 1 241 0
	ldr	r3, [r6]
	ldr	r0, [r10]
	mov	r2, r3
	add	r0, r3, r0
	mov	r1, r4
	bl	R_VideoErase
.LVL47:
	b	.L46
.LVL48:
.L54:
	ldmfd	sp!, {r3, r4, r5, r6, r7, r8, r9, r10, fp, pc}
.L56:
	.align	2
.L55:
	.word	automapmode
	.word	viewwindowx
	.word	viewwindowy
	.word	SCREENWIDTH
	.word	viewheight
	.word	viewwidth
	.cfi_endproc
.LFE10:
	.size	HUlib_eraseTextLine, .-HUlib_eraseTextLine
	.align	2
	.global	HUlib_initSText
	.type	HUlib_initSText, %function
HUlib_initSText:
.LFB11:
	.loc 1 273 0
	.cfi_startproc
	@ args = 16, pretend = 0, frame = 0
	@ frame_needed = 0, uses_anonymous_args = 0
.LVL49:
	stmfd	sp!, {r4, r5, r6, r7, r8, r9, lr}
	.cfi_def_cfa_offset 28
	.cfi_offset 4, -28
	.cfi_offset 5, -24
	.cfi_offset 6, -20
	.cfi_offset 7, -16
	.cfi_offset 8, -12
	.cfi_offset 9, -8
	.cfi_offset 14, -4
	.loc 1 280 0
	mov	lr, #0
	.loc 1 279 0
	mov	r7, #1
	.loc 1 273 0
	ldr	r4, [sp, #40]
	.loc 1 277 0
	add	ip, r0, #4096
	.loc 1 273 0
	add	r6, sp, #28
	.loc 1 281 0
	cmp	r3, lr
	.loc 1 277 0
	str	r3, [ip, #4048]
	.loc 1 278 0
	str	r4, [ip, #4056]
	.loc 1 279 0
	str	r7, [ip, #4060]
	.loc 1 280 0
	str	lr, [ip, #4052]
.LVL50:
	.loc 1 273 0
	ldmia	r6, {r6, r8, r9}
	.loc 1 281 0
	ldmlefd	sp!, {r4, r5, r6, r7, r8, r9, pc}
.LBB53:
.LBB54:
.LBB55:
.LBB56:
	.loc 1 73 0
	mov	r5, lr
.LVL51:
.L59:
.LBE56:
.LBE55:
.LBE54:
.LBE53:
	.loc 1 286 0 discriminator 3
	ldr	ip, [r6, #4]
.LBB66:
.LBB63:
.LBB60:
.LBB57:
	.loc 1 75 0 discriminator 3
	mov	r4, r0
.LBE57:
.LBE60:
.LBE63:
.LBE66:
	.loc 1 286 0 discriminator 3
	mvn	ip, ip
	.loc 1 282 0 discriminator 3
	mla	ip, lr, ip, r2
.LVL52:
	.loc 1 281 0 discriminator 3
	add	lr, lr, #1
.LVL53:
.LBB67:
.LBB64:
	.loc 1 91 0 discriminator 3
	stmia	r0, {r1, ip}
	.loc 1 93 0 discriminator 3
	str	r6, [r0, #8]
	.loc 1 94 0 discriminator 3
	str	r8, [r0, #12]
	.loc 1 95 0 discriminator 3
	str	r9, [r0, #16]
.LVL54:
.LBB61:
.LBB58:
	.loc 1 73 0 discriminator 3
	str	r5, [r0, #2028]
	.loc 1 72 0 discriminator 3
	str	r5, [r0, #20]
	.loc 1 74 0 discriminator 3
	strb	r5, [r0, #24]
.LBE58:
.LBE61:
.LBE64:
.LBE67:
	.loc 1 281 0 discriminator 3
	cmp	lr, r3
.LBB68:
.LBB65:
.LBB62:
.LBB59:
	.loc 1 75 0 discriminator 3
	str	r7, [r4, #2032]!
	add	r0, r4, #4
.LBE59:
.LBE62:
.LBE65:
.LBE68:
	.loc 1 281 0 discriminator 3
	bne	.L59
	ldmfd	sp!, {r4, r5, r6, r7, r8, r9, pc}
	.cfi_endproc
.LFE11:
	.size	HUlib_initSText, .-HUlib_initSText
	.align	2
	.global	HUlib_addMessageToSText
	.type	HUlib_addMessageToSText, %function
HUlib_addMessageToSText:
.LFB13:
	.loc 1 326 0
	.cfi_startproc
	@ args = 0, pretend = 0, frame = 0
	@ frame_needed = 0, uses_anonymous_args = 0
.LVL55:
.LBB69:
.LBB70:
	.loc 1 307 0
	add	ip, r0, #4096
.LBE70:
.LBE69:
	.loc 1 326 0
	stmfd	sp!, {r4, r5, r6, r7, r8, r9, r10, fp, lr}
	.cfi_def_cfa_offset 36
	.cfi_offset 4, -36
	.cfi_offset 5, -32
	.cfi_offset 6, -28
	.cfi_offset 7, -24
	.cfi_offset 8, -20
	.cfi_offset 9, -16
	.cfi_offset 10, -12
	.cfi_offset 11, -8
	.cfi_offset 14, -4
.LBB78:
.LBB77:
	.loc 1 307 0
	ldr	r5, [ip, #4052]
	ldr	lr, [ip, #4048]
	add	r5, r5, #1
	cmp	r5, lr
	.loc 1 308 0
	moveq	r3, #0
	.loc 1 307 0
	str	r5, [ip, #4052]
	.loc 1 308 0
	moveq	r5, r3
.LVL56:
.LBB71:
.LBB72:
	.loc 1 73 0
	mov	r4, #0
	.loc 1 75 0
	mov	r7, #1
.LBE72:
.LBE71:
	.loc 1 308 0
	streq	r3, [ip, #4052]
.LBB75:
.LBB73:
	.loc 1 73 0
	mov	r3, r5, asl #7
	rsb	ip, r5, r3
	add	ip, r5, ip, asl #2
	add	ip, r0, ip, asl #2
.LBE73:
.LBE75:
	.loc 1 312 0
	cmp	lr, r4
.LBB76:
.LBB74:
	.loc 1 72 0
	add	r8, ip, #16
	.loc 1 73 0
	str	r4, [ip, #2028]
	.loc 1 72 0
	str	r4, [ip, #20]
	.loc 1 74 0
	strb	r4, [ip, #24]
	.loc 1 75 0
	str	r7, [ip, #2032]
.LVL57:
.LBE74:
.LBE76:
	.loc 1 312 0
	ble	.L69
	mov	ip, r0
	.loc 1 313 0
	mov	r4, #4
	rsb	r6, lr, lr, asl #7
	add	lr, lr, r6, asl #2
	add	lr, r0, lr, asl #2
.LVL58:
.L68:
	str	r4, [ip, #2032]!
	add	ip, ip, #4
	.loc 1 312 0
	cmp	ip, lr
	bne	.L68
.L69:
.LBE77:
.LBE78:
	.loc 1 328 0
	cmp	r1, #0
	beq	.L67
.LBB79:
.LBB80:
	.loc 1 121 0
	mov	r6, #0
	.loc 1 122 0
	mov	r7, #4
	.loc 1 112 0
	rsb	lr, r5, r3
	add	lr, r5, lr, asl #2
	add	lr, r0, lr, asl #2
	sub	r1, r1, #1
.LVL59:
	.loc 1 120 0
	add	r8, lr, #2016
.LVL60:
.L70:
.LBE80:
.LBE79:
	.loc 1 329 0
	ldrb	r4, [r1, #1]!	@ zero_extendqisi2
.LVL61:
.LBB84:
.LBB81:
	.loc 1 112 0
	add	r9, lr, #16
.LBE81:
.LBE84:
	.loc 1 329 0
	cmp	r4, #0
	beq	.L67
.LVL62:
.L75:
.LBB85:
.LBB82:
	.loc 1 112 0
	ldr	ip, [r9, #4]
	cmp	ip, #80
	.loc 1 116 0
	add	ip, ip, #1
	.loc 1 112 0
	beq	.L70
	.loc 1 117 0
	cmp	r4, #10
	.loc 1 116 0
	strne	ip, [r9, #4]
	.loc 1 120 0
	ldr	ip, [r8, #12]
	.loc 1 118 0
	streq	r6, [r9, #4]
	.loc 1 120 0
	add	r10, ip, #1
	.loc 1 121 0
	add	fp, lr, r10
	.loc 1 120 0
	add	ip, lr, ip
	str	r10, [r8, #12]
	strb	r4, [ip, #24]
	.loc 1 121 0
	strb	r6, [fp, #24]
	.loc 1 122 0
	str	r7, [lr, #2032]
.LVL63:
.LBE82:
.LBE85:
	.loc 1 329 0
	ldrb	r4, [r1, #1]!	@ zero_extendqisi2
.LVL64:
.LBB86:
.LBB83:
	.loc 1 112 0
	add	r9, lr, #16
.LBE83:
.LBE86:
	.loc 1 329 0
	cmp	r4, #0
	bne	.L75
.LVL65:
.L67:
.LBB87:
.LBB88:
	.loc 1 112 0
	rsb	r3, r5, r3
	add	r5, r5, r3, asl #2
.LVL66:
	add	r0, r0, r5, asl #2
.LVL67:
	.loc 1 122 0
	mov	r6, #4
	.loc 1 121 0
	mov	r5, #0
	sub	r2, r2, #1
.LVL68:
	.loc 1 120 0
	add	r7, r0, #2016
.LVL69:
.L71:
.LBE88:
.LBE87:
	.loc 1 332 0
	ldrb	r1, [r2, #1]!	@ zero_extendqisi2
.LVL70:
.LBB92:
.LBB89:
	.loc 1 112 0
	add	ip, r0, #16
.LBE89:
.LBE92:
	.loc 1 332 0
	cmp	r1, #0
	beq	.L88
.LVL71:
.L79:
.LBB93:
.LBB90:
	.loc 1 112 0
	ldr	r3, [ip, #4]
	cmp	r3, #80
	.loc 1 116 0
	add	r3, r3, #1
	.loc 1 112 0
	beq	.L71
	.loc 1 117 0
	cmp	r1, #10
	.loc 1 116 0
	strne	r3, [ip, #4]
	.loc 1 120 0
	ldr	r3, [r7, #12]
	.loc 1 118 0
	streq	r5, [ip, #4]
	.loc 1 120 0
	add	lr, r3, #1
	.loc 1 121 0
	add	r4, r0, lr
	.loc 1 120 0
	add	r3, r0, r3
	str	lr, [r7, #12]
	strb	r1, [r3, #24]
	.loc 1 121 0
	strb	r5, [r4, #24]
	.loc 1 122 0
	str	r6, [r0, #2032]
.LVL72:
.LBE90:
.LBE93:
	.loc 1 332 0
	ldrb	r1, [r2, #1]!	@ zero_extendqisi2
.LVL73:
.LBB94:
.LBB91:
	.loc 1 112 0
	add	ip, r0, #16
.LBE91:
.LBE94:
	.loc 1 332 0
	cmp	r1, #0
	bne	.L79
.LVL74:
.L88:
	.loc 1 334 0
	ldmfd	sp!, {r4, r5, r6, r7, r8, r9, r10, fp, pc}
	.cfi_endproc
.LFE13:
	.size	HUlib_addMessageToSText, .-HUlib_addMessageToSText
	.align	2
	.global	HUlib_drawSText
	.type	HUlib_drawSText, %function
HUlib_drawSText:
.LFB14:
	.loc 1 345 0
	.cfi_startproc
	@ args = 0, pretend = 0, frame = 0
	@ frame_needed = 0, uses_anonymous_args = 0
.LVL75:
	stmfd	sp!, {r4, r5, r6, lr}
	.cfi_def_cfa_offset 16
	.cfi_offset 4, -16
	.cfi_offset 5, -12
	.cfi_offset 6, -8
	.cfi_offset 14, -4
	.loc 1 349 0
	add	r5, r0, #4096
	ldr	r3, [r5, #4056]
	ldr	r3, [r3]
	cmp	r3, #0
	ldmeqfd	sp!, {r4, r5, r6, pc}
.LVL76:
	.loc 1 353 0 discriminator 1
	ldr	r2, [r5, #4048]
	cmp	r2, #0
	ldmlefd	sp!, {r4, r5, r6, pc}
	mov	r6, r0
	.loc 1 353 0 is_stmt 0
	mov	r4, #0
.LVL77:
.L93:
	.loc 1 355 0 is_stmt 1
	ldr	r3, [r5, #4052]
.LVL78:
	.loc 1 362 0
	mov	r1, #0
	.loc 1 356 0
	subs	r3, r3, r4
.LVL79:
	.loc 1 357 0
	addmi	r3, r3, r2
.LVL80:
	.loc 1 359 0
	rsb	r2, r3, r3, asl #7
	add	r0, r3, r2, asl #2
	.loc 1 362 0
	add	r0, r6, r0, asl #2
	bl	HUlib_drawTextLine
.LVL81:
	.loc 1 353 0
	ldr	r2, [r5, #4048]
	add	r4, r4, #1
.LVL82:
	cmp	r2, r4
	bgt	.L93
	ldmfd	sp!, {r4, r5, r6, pc}
	.cfi_endproc
.LFE14:
	.size	HUlib_drawSText, .-HUlib_drawSText
	.align	2
	.global	HUlib_eraseSText
	.type	HUlib_eraseSText, %function
HUlib_eraseSText:
.LFB15:
	.loc 1 375 0
	.cfi_startproc
	@ args = 0, pretend = 0, frame = 0
	@ frame_needed = 0, uses_anonymous_args = 0
.LVL83:
	stmfd	sp!, {r3, r4, r5, r6, r7, lr}
	.cfi_def_cfa_offset 24
	.cfi_offset 3, -24
	.cfi_offset 4, -20
	.cfi_offset 5, -16
	.cfi_offset 6, -12
	.cfi_offset 7, -8
	.cfi_offset 14, -4
	.loc 1 378 0
	add	r6, r0, #4096
	ldr	r3, [r6, #4048]
	cmp	r3, #0
	movgt	r4, r0
	movgt	r5, #0
	.loc 1 381 0
	movgt	r7, #4
	.loc 1 378 0
	ble	.L100
.LVL84:
.L99:
	.loc 1 380 0
	ldr	r3, [r6, #4060]
	.loc 1 382 0
	mov	r0, r4
	.loc 1 380 0
	cmp	r3, #0
	.loc 1 378 0
	add	r5, r5, #1
.LVL85:
	.loc 1 380 0
	beq	.L98
	.loc 1 380 0 is_stmt 0 discriminator 1
	ldr	r3, [r6, #4056]
	ldr	r3, [r3]
	cmp	r3, #0
	.loc 1 381 0 is_stmt 1 discriminator 1
	streq	r7, [r4, #2032]
.L98:
	.loc 1 382 0 discriminator 2
	bl	HUlib_eraseTextLine
.LVL86:
	.loc 1 378 0 discriminator 2
	ldr	r3, [r6, #4048]
	add	r4, r4, #2032
	cmp	r3, r5
	add	r4, r4, #4
	bgt	.L99
.LVL87:
.L100:
	.loc 1 384 0
	ldr	r3, [r6, #4056]
	ldr	r3, [r3]
	str	r3, [r6, #4060]
	ldmfd	sp!, {r3, r4, r5, r6, r7, pc}
	.cfi_endproc
.LFE15:
	.size	HUlib_eraseSText, .-HUlib_eraseSText
	.align	2
	.global	HUlib_initMText
	.type	HUlib_initMText, %function
HUlib_initMText:
.LFB16:
	.loc 1 408 0
	.cfi_startproc
	@ args = 24, pretend = 0, frame = 0
	@ frame_needed = 0, uses_anonymous_args = 0
.LVL88:
	stmfd	sp!, {r4, r5, r6, r7, r8, r9, r10, fp, lr}
	.cfi_def_cfa_offset 36
	.cfi_offset 4, -36
	.cfi_offset 5, -32
	.cfi_offset 6, -28
	.cfi_offset 7, -24
	.cfi_offset 8, -20
	.cfi_offset 9, -16
	.cfi_offset 10, -12
	.cfi_offset 11, -8
	.cfi_offset 14, -4
	.loc 1 411 0
	mov	r7, #0
	.loc 1 419 0
	mov	lr, #1
	.loc 1 413 0
	mvn	r10, #0
	.loc 1 419 0
	mov	r5, r7
.LBB95:
.LBB96:
.LBB97:
.LBB98:
	.loc 1 73 0
	mov	r4, r7
	.loc 1 75 0
	mov	r6, lr
.LBE98:
.LBE97:
.LBE96:
.LBE95:
	.loc 1 408 0
	ldr	r9, [sp, #36]
	ldr	r8, [sp, #52]
	mov	ip, r0
	ldr	fp, .L113
	.loc 1 411 0
	add	r0, r0, #28672
.LVL89:
	.loc 1 416 0
	str	r3, [r0, #3924]
	.loc 1 408 0
	ldr	r3, [sp, #56]
.LVL90:
	.loc 1 413 0
	str	r10, [r0, #3912]
	.loc 1 417 0
	str	r9, [r0, #3928]
	.loc 1 418 0
	str	r8, [r0, #3932]
	ldr	fp, [fp]
	.loc 1 408 0
	ldr	r10, [sp, #40]
	ldr	r9, [sp, #44]
	ldr	r8, [sp, #48]
	.loc 1 414 0
	str	r1, [r0, #3916]
	.loc 1 415 0
	str	r2, [r0, #3920]
	.loc 1 419 0
	str	r3, [r0, #3936]
.LVL91:
	.loc 1 411 0
	str	r7, [r0, #3904]
	.loc 1 412 0
	str	r7, [r0, #3908]
.LVL92:
.L110:
	.loc 1 426 0
	cmp	fp, #0
	moveq	r0, r5
.LVL93:
.LBB108:
.LBB105:
.LBB102:
.LBB99:
	.loc 1 75 0
	mov	r3, ip
	movne	r0, lr, asl #3
.LVL94:
.LBE99:
.LBE102:
.LBE105:
.LBE108:
	.loc 1 422 0
	add	r0, r0, r2
.LVL95:
	add	lr, lr, #1
.LVL96:
.LBB109:
.LBB106:
	.loc 1 92 0
	str	r0, [ip, #4]
	.loc 1 91 0
	str	r1, [ip]
	.loc 1 93 0
	str	r10, [ip, #8]
	.loc 1 94 0
	str	r9, [ip, #12]
	.loc 1 95 0
	str	r8, [ip, #16]
.LVL97:
.LBB103:
.LBB100:
	.loc 1 73 0
	str	r4, [ip, #2028]
	.loc 1 72 0
	str	r4, [ip, #20]
	.loc 1 74 0
	strb	r4, [ip, #24]
.LBE100:
.LBE103:
.LBE106:
.LBE109:
	.loc 1 420 0
	cmp	lr, #17
.LBB110:
.LBB107:
.LBB104:
.LBB101:
	.loc 1 75 0
	str	r6, [r3, #2032]!
.LVL98:
	add	ip, r3, #4
	add	r5, r5, #8
.LBE101:
.LBE104:
.LBE107:
.LBE110:
	.loc 1 420 0
	bne	.L110
	.loc 1 432 0
	ldmfd	sp!, {r4, r5, r6, r7, r8, r9, r10, fp, pc}
.L114:
	.align	2
.L113:
	.word	hud_list_bgon
	.cfi_endproc
.LFE16:
	.size	HUlib_initMText, .-HUlib_initMText
	.align	2
	.global	HUlib_addMessageToMText
	.type	HUlib_addMessageToMText, %function
HUlib_addMessageToMText:
.LFB18:
	.loc 1 465 0
	.cfi_startproc
	@ args = 0, pretend = 0, frame = 0
	@ frame_needed = 0, uses_anonymous_args = 0
.LVL99:
	stmfd	sp!, {r4, r5, r6, r7, r8, r9, r10, fp, lr}
	.cfi_def_cfa_offset 36
	.cfi_offset 4, -36
	.cfi_offset 5, -32
	.cfi_offset 6, -28
	.cfi_offset 7, -24
	.cfi_offset 8, -20
	.cfi_offset 9, -16
	.cfi_offset 10, -12
	.cfi_offset 11, -8
	.cfi_offset 14, -4
.LBB111:
.LBB112:
	.loc 1 445 0
	ldr	r3, .L140
	add	lr, r0, #28672
	ldr	r5, [lr, #3912]
	ldr	r7, [r3]
	add	r5, r5, #1
	cmp	r5, r7
	.loc 1 446 0
	moveq	r3, #0
	.loc 1 445 0
	str	r5, [lr, #3912]
	.loc 1 446 0
	moveq	r5, r3
.LVL100:
.LBB113:
.LBB114:
	.loc 1 73 0
	mov	r4, #0
	.loc 1 75 0
	mov	r8, #1
.LBE114:
.LBE113:
	.loc 1 453 0
	mov	r6, #4
	.loc 1 446 0
	streq	r3, [lr, #3912]
.LBB116:
.LBB115:
	.loc 1 73 0
	mov	r3, r5, asl #7
	rsb	ip, r5, r3
	add	ip, r5, ip, asl #2
	add	ip, r0, ip, asl #2
	str	r4, [ip, #2028]
	.loc 1 72 0
	str	r4, [ip, #20]
	.loc 1 74 0
	strb	r4, [ip, #24]
	.loc 1 75 0
	str	r8, [ip, #2032]
	.loc 1 72 0
	add	r9, ip, #16
.LBE115:
.LBE116:
	.loc 1 449 0
	ldr	ip, [lr, #3904]
	cmp	r7, ip
	.loc 1 450 0
	addgt	ip, ip, r8
	strgt	ip, [lr, #3904]
	.loc 1 453 0
	rsb	lr, r5, r3
	add	lr, r5, lr, asl #2
	add	lr, r0, lr, asl #2
.LBE112:
.LBE111:
	.loc 1 467 0
	cmp	r1, #0
.LBB118:
.LBB117:
	.loc 1 453 0
	str	r6, [lr, #2032]
.LBE117:
.LBE118:
	.loc 1 467 0
	beq	.L118
.LBB119:
.LBB120:
	.loc 1 121 0
	mov	r7, #0
	sub	r1, r1, #1
.LVL101:
	.loc 1 120 0
	add	r8, lr, #2016
.LVL102:
.L119:
.LBE120:
.LBE119:
	.loc 1 468 0
	ldrb	r4, [r1, #1]!	@ zero_extendqisi2
.LVL103:
.LBB124:
.LBB121:
	.loc 1 112 0
	add	r9, lr, #16
.LBE121:
.LBE124:
	.loc 1 468 0
	cmp	r4, #0
	beq	.L118
.LVL104:
.L124:
.LBB125:
.LBB122:
	.loc 1 112 0
	ldr	ip, [r9, #4]
	cmp	ip, #80
	.loc 1 116 0
	add	ip, ip, #1
	.loc 1 112 0
	beq	.L119
	.loc 1 117 0
	cmp	r4, #10
	.loc 1 116 0
	strne	ip, [r9, #4]
	.loc 1 120 0
	ldr	ip, [r8, #12]
	.loc 1 118 0
	streq	r7, [r9, #4]
	.loc 1 120 0
	add	r10, ip, #1
	.loc 1 121 0
	add	fp, lr, r10
	.loc 1 120 0
	add	ip, lr, ip
	str	r10, [r8, #12]
	strb	r4, [ip, #24]
	.loc 1 121 0
	strb	r7, [fp, #24]
	.loc 1 122 0
	str	r6, [lr, #2032]
.LVL105:
.LBE122:
.LBE125:
	.loc 1 468 0
	ldrb	r4, [r1, #1]!	@ zero_extendqisi2
.LVL106:
.LBB126:
.LBB123:
	.loc 1 112 0
	add	r9, lr, #16
.LBE123:
.LBE126:
	.loc 1 468 0
	cmp	r4, #0
	bne	.L124
.LVL107:
.L118:
.LBB127:
.LBB128:
	.loc 1 112 0
	rsb	r3, r5, r3
	add	r5, r5, r3, asl #2
.LVL108:
	add	r0, r0, r5, asl #2
.LVL109:
	.loc 1 122 0
	mov	r6, #4
	.loc 1 121 0
	mov	r5, #0
	sub	r2, r2, #1
.LVL110:
	.loc 1 120 0
	add	r7, r0, #2016
.LVL111:
.L120:
.LBE128:
.LBE127:
	.loc 1 471 0
	ldrb	r1, [r2, #1]!	@ zero_extendqisi2
.LVL112:
.LBB132:
.LBB129:
	.loc 1 112 0
	add	ip, r0, #16
.LBE129:
.LBE132:
	.loc 1 471 0
	cmp	r1, #0
	beq	.L139
.LVL113:
.L128:
.LBB133:
.LBB130:
	.loc 1 112 0
	ldr	r3, [ip, #4]
	cmp	r3, #80
	.loc 1 116 0
	add	r3, r3, #1
	.loc 1 112 0
	beq	.L120
	.loc 1 117 0
	cmp	r1, #10
	.loc 1 116 0
	strne	r3, [ip, #4]
	.loc 1 120 0
	ldr	r3, [r7, #12]
	.loc 1 118 0
	streq	r5, [ip, #4]
	.loc 1 120 0
	add	lr, r3, #1
	.loc 1 121 0
	add	r4, r0, lr
	.loc 1 120 0
	add	r3, r0, r3
	str	lr, [r7, #12]
	strb	r1, [r3, #24]
	.loc 1 121 0
	strb	r5, [r4, #24]
	.loc 1 122 0
	str	r6, [r0, #2032]
.LVL114:
.LBE130:
.LBE133:
	.loc 1 471 0
	ldrb	r1, [r2, #1]!	@ zero_extendqisi2
.LVL115:
.LBB134:
.LBB131:
	.loc 1 112 0
	add	ip, r0, #16
.LBE131:
.LBE134:
	.loc 1 471 0
	cmp	r1, #0
	bne	.L128
.LVL116:
.L139:
	.loc 1 473 0
	ldmfd	sp!, {r4, r5, r6, r7, r8, r9, r10, fp, pc}
.L141:
	.align	2
.L140:
	.word	hud_msg_lines
	.cfi_endproc
.LFE18:
	.size	HUlib_addMessageToMText, .-HUlib_addMessageToMText
	.align	2
	.global	HUlib_drawMBg
	.type	HUlib_drawMBg, %function
HUlib_drawMBg:
.LFB19:
	.loc 1 491 0
	.cfi_startproc
	@ args = 4, pretend = 0, frame = 24
	@ frame_needed = 0, uses_anonymous_args = 0
.LVL117:
	stmfd	sp!, {r4, r5, r6, r7, r8, r9, r10, fp, lr}
	.cfi_def_cfa_offset 36
	.cfi_offset 4, -36
	.cfi_offset 5, -32
	.cfi_offset 6, -28
	.cfi_offset 7, -24
	.cfi_offset 8, -20
	.cfi_offset 9, -16
	.cfi_offset 10, -12
	.cfi_offset 11, -8
	.cfi_offset 14, -4
	.loc 1 498 0
	mov	r10, #6
	mov	r4, #4
	.loc 1 491 0
	mov	r8, r0
	sub	sp, sp, #36
	.cfi_def_cfa_offset 72
	.loc 1 491 0
	ldr	r6, [sp, #72]
	mov	r5, r2
	.loc 1 492 0
	ldr	r9, [r6]
.LVL118:
	.loc 1 498 0
	ldr	r2, [r6, #16]
.LVL119:
	ldr	r7, .L169
	str	r10, [sp]
	str	r4, [sp, #4]
	.loc 1 493 0
	ldr	lr, [r6, #4]
	.loc 1 491 0
	str	r3, [sp, #28]
	.loc 1 498 0
	ldr	ip, [r7]
	mov	r3, r2
.LVL120:
	mov	r2, #0
	.loc 1 491 0
	str	r0, [sp, #12]
	.loc 1 493 0
	str	lr, [sp, #16]
.LVL121:
	.loc 1 491 0
	mov	fp, r1
	.loc 1 498 0
	blx	ip
.LVL122:
	.loc 1 499 0
	mov	r3, r8
	add	r5, r8, r5
.LVL123:
	add	r3, r3, r9
	rsb	r8, r9, r5
.LVL124:
	cmp	r3, r8
	str	r3, [sp, #8]
.LVL125:
	bge	.L143
	.loc 1 499 0 is_stmt 0 discriminator 3
	mov	r5, r3
	.loc 1 500 0 is_stmt 1 discriminator 3
	str	r10, [sp, #20]
	str	r4, [sp, #24]
.LVL126:
.L144:
	ldr	r2, [sp, #20]
	ldr	r3, [r6, #36]
	str	r2, [sp]
	ldr	r2, [sp, #24]
	ldr	ip, [r7]
	str	r2, [sp, #4]
	mov	r0, r5
	mov	r1, fp
	.loc 1 499 0 discriminator 3
	add	r5, r5, r9
.LVL127:
	.loc 1 500 0 discriminator 3
	mov	r2, #0
	blx	ip
.LVL128:
	.loc 1 499 0 discriminator 3
	cmp	r5, r8
	.loc 1 500 0 discriminator 3
	ldr	r4, .L169
	mov	r10, #6
	mov	ip, #4
	.loc 1 499 0 discriminator 3
	blt	.L144
	.loc 1 501 0
	ldr	r3, [r6, #56]
	stmia	sp, {r10, ip}
	mov	r0, r5
	mov	r2, #0
	ldr	r5, [r4]
.LVL129:
	mov	r1, fp
	str	ip, [sp, #24]
	blx	r5
.LVL130:
	.loc 1 504 0
	ldr	r3, [sp, #28]
	ldr	r2, [sp, #16]
	add	r3, fp, r3
	rsb	r3, r2, r3
	add	r5, fp, r2
.LVL131:
	cmp	r5, r3
	str	r3, [sp, #20]
	ldr	ip, [sp, #24]
	bge	.L168
.L152:
	.loc 1 506 0
	mov	fp, #6
.LVL132:
	mov	r10, #4
.L148:
	ldr	r3, [r6, #76]
	ldr	ip, [r7]
	str	fp, [sp]
	str	r10, [sp, #4]
	ldr	r0, [sp, #12]
	mov	r1, r5
	mov	r2, #0
	blx	ip
.LVL133:
	.loc 1 507 0
	ldr	r3, [sp, #8]
	cmp	r3, r8
	bge	.L155
	.loc 1 507 0 is_stmt 0 discriminator 3
	mov	r4, r3
.LVL134:
.L147:
	.loc 1 508 0 is_stmt 1 discriminator 3
	ldr	r3, [r6, #96]
	mov	r0, r4
	str	fp, [sp]
	str	r10, [sp, #4]
	ldr	ip, [r7]
	mov	r1, r5
	.loc 1 507 0 discriminator 3
	add	r4, r4, r9
.LVL135:
	.loc 1 508 0 discriminator 3
	mov	r2, #0
	blx	ip
.LVL136:
	.loc 1 507 0 discriminator 3
	cmp	r4, r8
	blt	.L147
.LVL137:
.L146:
	.loc 1 504 0 discriminator 2
	ldr	lr, [sp, #16]
	.loc 1 509 0 discriminator 2
	ldr	r3, [r6, #116]
	mov	r1, r5
	mov	r0, r4
	mov	r2, #0
	str	fp, [sp]
	str	r10, [sp, #4]
	ldr	ip, [r7]
	.loc 1 504 0 discriminator 2
	add	r5, r5, lr
.LVL138:
	.loc 1 509 0 discriminator 2
	blx	ip
.LVL139:
	.loc 1 504 0 discriminator 2
	ldr	r3, [sp, #20]
	.loc 1 509 0 discriminator 2
	ldr	r2, .L169
	.loc 1 504 0 discriminator 2
	cmp	r5, r3
	.loc 1 509 0 discriminator 2
	mov	r0, #6
	mov	r1, #4
	.loc 1 504 0 discriminator 2
	blt	.L148
	.loc 1 513 0
	ldr	r3, [r6, #136]
	stmia	sp, {r0, r1}
	ldr	r0, [sp, #12]
	ldr	ip, [r2]
	mov	r1, r5
	mov	r2, #0
	blx	ip
.LVL140:
	.loc 1 514 0
	ldr	r3, [sp, #8]
	cmp	r3, r8
	bge	.L149
.L151:
	.loc 1 515 0 discriminator 3
	mov	r10, #6
	mov	r4, #4
	ldr	fp, [sp, #8]
.LVL141:
.L150:
	ldr	r3, [r6, #156]
	mov	r0, fp
	str	r10, [sp]
	str	r4, [sp, #4]
	ldr	ip, [r7]
	mov	r1, r5
	.loc 1 514 0 discriminator 3
	add	fp, fp, r9
.LVL142:
	.loc 1 515 0 discriminator 3
	mov	r2, #0
	blx	ip
.LVL143:
	.loc 1 514 0 discriminator 3
	cmp	fp, r8
	blt	.L150
	str	fp, [sp, #8]
.LVL144:
.L149:
	.loc 1 516 0
	mov	lr, #6
	mov	r2, #4
	ldr	r3, [r6, #176]
	ldr	ip, [r7]
	str	r2, [sp, #4]
	ldr	r0, [sp, #8]
	mov	r1, r5
	str	lr, [sp]
	mov	r2, #0
	blx	ip
.LVL145:
	.loc 1 517 0
	add	sp, sp, #36
	.cfi_remember_state
	.cfi_def_cfa_offset 36
	@ sp needed
	ldmfd	sp!, {r4, r5, r6, r7, r8, r9, r10, fp, pc}
.LVL146:
.L155:
	.cfi_restore_state
	.loc 1 507 0
	ldr	r4, [sp, #8]
	b	.L146
.LVL147:
.L143:
	.loc 1 501 0
	ldr	r3, [r6, #56]
.LVL148:
	mov	r2, #0
	str	r10, [sp]
	str	r4, [sp, #4]
	ldr	ip, [r7]
	ldr	r0, [sp, #8]
	mov	r1, fp
	blx	ip
.LVL149:
	.loc 1 504 0
	ldr	r3, [sp, #28]
	ldr	r2, [sp, #16]
	add	r3, fp, r3
	rsb	r3, r2, r3
	add	r5, fp, r2
.LVL150:
	cmp	r5, r3
	str	r3, [sp, #20]
	blt	.L152
	.loc 1 513 0
	ldr	r3, [r6, #136]
	ldr	r0, [sp, #12]
	str	r10, [sp]
	str	r4, [sp, #4]
	ldr	ip, [r7]
	mov	r1, r5
	mov	r2, #0
	blx	ip
.LVL151:
	b	.L149
.LVL152:
.L168:
	ldr	r3, [r6, #136]
	stmia	sp, {r10, ip}
	ldr	r0, [sp, #12]
	ldr	ip, [r4]
	mov	r1, r5
	mov	r2, #0
	blx	ip
.LVL153:
	b	.L151
.L170:
	.align	2
.L169:
	.word	V_DrawNumPatch
	.cfi_endproc
.LFE19:
	.size	HUlib_drawMBg, .-HUlib_drawMBg
	.align	2
	.global	HUlib_drawMText
	.type	HUlib_drawMText, %function
HUlib_drawMText:
.LFB20:
	.loc 1 528 0
	.cfi_startproc
	@ args = 0, pretend = 0, frame = 0
	@ frame_needed = 0, uses_anonymous_args = 0
.LVL154:
	stmfd	sp!, {r4, r5, r6, r7, r8, r9, lr}
	.cfi_def_cfa_offset 28
	.cfi_offset 4, -28
	.cfi_offset 5, -24
	.cfi_offset 6, -20
	.cfi_offset 7, -16
	.cfi_offset 8, -12
	.cfi_offset 9, -8
	.cfi_offset 14, -4
	.loc 1 532 0
	add	r5, r0, #28672
	ldr	r3, [r5, #3936]
	.loc 1 528 0
	sub	sp, sp, #12
	.cfi_def_cfa_offset 40
	.loc 1 532 0
	ldr	r3, [r3]
	cmp	r3, #0
	beq	.L171
	.loc 1 536 0
	ldr	r7, .L186
	mov	r8, r0
	ldr	r3, [r7]
	cmp	r3, #0
	bne	.L184
.LVL155:
.L173:
	.loc 1 539 0 discriminator 1
	ldr	r2, [r5, #3904]
	cmp	r2, #0
	ble	.L171
	.loc 1 539 0 is_stmt 0
	mov	r6, #1
	mov	r4, #0
	b	.L178
.LVL156:
.L185:
	.loc 1 549 0 is_stmt 1
	mov	r9, r6
	.loc 1 548 0
	ldr	r2, [r5, #3916]
	add	r2, r2, #4
	str	r2, [r8, r3, asl #2]
	.loc 1 549 0
	ldr	r3, [r5, #3920]
	add	r3, r3, r6, asl #3
	str	r3, [r0, #4]
.L177:
	.loc 1 558 0 discriminator 2
	mov	r1, #0
	bl	HUlib_drawTextLine
.LVL157:
	.loc 1 539 0 discriminator 2
	ldr	r2, [r5, #3904]
	add	r4, r4, #1
	cmp	r2, r9
	add	r6, r6, #1
.LVL158:
	ble	.L171
.LVL159:
.L178:
	.loc 1 541 0
	ldr	r3, [r5, #3912]
.LVL160:
	.loc 1 546 0
	ldr	r1, [r7]
	.loc 1 542 0
	subs	r3, r3, r4
.LVL161:
	.loc 1 543 0
	addmi	r3, r3, r2
.LVL162:
	.loc 1 545 0
	rsb	r2, r3, r3, asl #7
	add	r3, r3, r2, asl #2
.LVL163:
	.loc 1 546 0
	cmp	r1, #0
	.loc 1 545 0
	add	r0, r8, r3, asl #2
.LVL164:
	.loc 1 546 0
	bne	.L185
	.loc 1 553 0
	ldr	r2, [r5, #3916]
	mov	r9, r6
	str	r2, [r8, r3, asl #2]
	.loc 1 554 0
	ldr	r3, [r5, #3920]
	add	r3, r3, r4, asl #3
	str	r3, [r0, #4]
	b	.L177
.LVL165:
.L171:
	.loc 1 560 0
	add	sp, sp, #12
	.cfi_remember_state
	.cfi_def_cfa_offset 28
	@ sp needed
	ldmfd	sp!, {r4, r5, r6, r7, r8, r9, pc}
.LVL166:
.L184:
	.cfi_restore_state
	.loc 1 537 0
	add	r1, r5, #3920
	ldr	r0, [r5, #3916]
.LVL167:
	ldmia	r1, {r1, r2, r3, ip}
	str	ip, [sp]
	bl	HUlib_drawMBg
.LVL168:
	b	.L173
.L187:
	.align	2
.L186:
	.word	hud_list_bgon
	.cfi_endproc
.LFE20:
	.size	HUlib_drawMText, .-HUlib_drawMText
	.align	2
	.global	HUlib_eraseMText
	.type	HUlib_eraseMText, %function
HUlib_eraseMText:
.LFB22:
	.loc 1 607 0
	.cfi_startproc
	@ args = 0, pretend = 0, frame = 0
	@ frame_needed = 0, uses_anonymous_args = 0
.LVL169:
	stmfd	sp!, {r3, r4, r5, r6, r7, r8, r9, r10, fp, lr}
	.cfi_def_cfa_offset 40
	.cfi_offset 3, -40
	.cfi_offset 4, -36
	.cfi_offset 5, -32
	.cfi_offset 6, -28
	.cfi_offset 7, -24
	.cfi_offset 8, -20
	.cfi_offset 9, -16
	.cfi_offset 10, -12
	.cfi_offset 11, -8
	.cfi_offset 14, -4
	.loc 1 610 0
	ldr	r3, .L209
	.loc 1 607 0
	mov	r4, r0
	.loc 1 610 0
	ldr	r3, [r3]
	cmp	r3, #0
	bne	.L189
.L206:
	add	r6, r4, #28672
.LVL170:
.L191:
	.loc 1 613 0
	ldr	r3, [r6, #3904]
	cmp	r3, #0
	ble	.L208
	mov	r5, #0
	.loc 1 615 0
	mov	r7, #4
.LVL171:
.L196:
	.loc 1 615 0 is_stmt 0 discriminator 3
	str	r7, [r4, #2032]
	.loc 1 616 0 is_stmt 1 discriminator 3
	mov	r0, r4
	bl	HUlib_eraseTextLine
.LVL172:
	.loc 1 613 0 discriminator 3
	ldr	r3, [r6, #3904]
	add	r5, r5, #1
.LVL173:
	add	r4, r4, #2032
	cmp	r3, r5
	add	r4, r4, #4
	bgt	.L196
	ldmfd	sp!, {r3, r4, r5, r6, r7, r8, r9, r10, fp, pc}
.LVL174:
.L189:
.LBB137:
.LBB138:
	.loc 1 579 0
	ldr	r3, .L209+4
	ldrb	r3, [r3]	@ zero_extendqisi2
	tst	r3, #1
	bne	.L206
	ldr	r10, .L209+8
	ldr	r3, [r10]
	cmp	r3, #0
	beq	.L206
	.loc 1 581 0
	ldr	r3, [r0, #8]
	.loc 1 582 0
	ldr	r8, .L209+12
	.loc 1 581 0
	ldr	r5, [r3, #4]
	.loc 1 582 0
	ldr	r2, [r8]
	add	r6, r0, #28672
	ldr	fp, [r6, #3920]
	.loc 1 581 0
	add	r5, r5, #1
.LVL175:
	.loc 1 582 0
	add	r2, r2, #2
	mla	r2, r2, r5, fp
	cmp	fp, r2
	bge	.L191
	ldr	r7, .L209+16
	.loc 1 584 0
	ldr	r9, .L209+20
	b	.L195
.LVL176:
.L192:
	.loc 1 585 0
	ldr	r3, .L209+24
	mov	r1, fp
	ldr	r2, [r3]
	bl	R_VideoErase
.LVL177:
.L194:
	.loc 1 582 0
	ldr	r2, [r8]
	ldr	r1, [r6, #3920]
	add	r2, r2, #2
	mla	r2, r2, r5, r1
	add	fp, fp, #1
.LVL178:
	cmp	fp, r2
	bge	.L191
.L195:
	.loc 1 584 0
	ldr	r2, [r7]
	.loc 1 585 0
	mov	r0, #0
	.loc 1 584 0
	cmp	r2, fp
	bgt	.L192
	ldr	r1, [r9]
	add	r2, r2, r1
	cmp	r2, fp
	ble	.L192
	.loc 1 589 0
	mov	r1, fp
	ldr	r2, [r10]
	bl	R_VideoErase
.LVL179:
	.loc 1 591 0
	ldr	r3, .L209+28
	ldr	r1, [r10]
	ldr	r0, [r3]
	mov	r2, r1
	add	r0, r1, r0
	mov	r1, fp
	bl	R_VideoErase
.LVL180:
	b	.L194
.LVL181:
.L208:
	ldmfd	sp!, {r3, r4, r5, r6, r7, r8, r9, r10, fp, pc}
.L210:
	.align	2
.L209:
	.word	hud_list_bgon
	.word	automapmode
	.word	viewwindowx
	.word	hud_msg_lines
	.word	viewwindowy
	.word	viewheight
	.word	SCREENWIDTH
	.word	viewwidth
.LBE138:
.LBE137:
	.cfi_endproc
.LFE22:
	.size	HUlib_eraseMText, .-HUlib_eraseMText
	.align	2
	.global	HUlib_initIText
	.type	HUlib_initIText, %function
HUlib_initIText:
.LFB23:
	.loc 1 643 0
	.cfi_startproc
	@ args = 12, pretend = 0, frame = 0
	@ frame_needed = 0, uses_anonymous_args = 0
.LVL182:
	stmfd	sp!, {r4, r5, r6, lr}
	.cfi_def_cfa_offset 16
	.cfi_offset 4, -16
	.cfi_offset 5, -12
	.cfi_offset 6, -8
	.cfi_offset 14, -4
	.loc 1 644 0
	mov	ip, #0
	.loc 1 646 0
	mov	lr, #1
	.loc 1 643 0
	ldr	r6, [sp, #24]
	ldr	r5, [sp, #16]
	ldr	r4, [sp, #20]
.LBB139:
.LBB140:
	.loc 1 93 0
	stmia	r0, {r1, r2, r3}
.LBE140:
.LBE139:
	.loc 1 645 0
	str	r6, [r0, #2040]
.LBB148:
.LBB145:
	.loc 1 94 0
	str	r5, [r0, #12]
	.loc 1 95 0
	str	r4, [r0, #16]
.LBE145:
.LBE148:
	.loc 1 644 0
	str	ip, [r0, #2036]
.LBB149:
.LBB146:
.LBB141:
.LBB142:
	.loc 1 73 0
	str	ip, [r0, #2028]
	.loc 1 72 0
	str	ip, [r0, #20]
	.loc 1 74 0
	strb	ip, [r0, #24]
.LBE142:
.LBE141:
.LBE146:
.LBE149:
	.loc 1 646 0
	str	lr, [r0, #2044]
.LVL183:
.LBB150:
.LBB147:
.LBB144:
.LBB143:
	.loc 1 75 0
	str	lr, [r0, #2032]
	ldmfd	sp!, {r4, r5, r6, pc}
.LBE143:
.LBE144:
.LBE147:
.LBE150:
	.cfi_endproc
.LFE23:
	.size	HUlib_initIText, .-HUlib_initIText
	.align	2
	.global	HUlib_resetIText
	.type	HUlib_resetIText, %function
HUlib_resetIText:
.LFB26:
	.loc 1 690 0
	.cfi_startproc
	@ args = 0, pretend = 0, frame = 0
	@ frame_needed = 0, uses_anonymous_args = 0
	@ link register save eliminated.
.LVL184:
	.loc 1 691 0
	mov	r3, #0
.LBB151:
.LBB152:
	.loc 1 75 0
	mov	r2, #1
.LBE152:
.LBE151:
	.loc 1 691 0
	str	r3, [r0, #2036]
.LVL185:
.LBB154:
.LBB153:
	.loc 1 75 0
	str	r2, [r0, #2032]
	.loc 1 73 0
	str	r3, [r0, #2028]
	.loc 1 72 0
	str	r3, [r0, #20]
	.loc 1 74 0
	strb	r3, [r0, #24]
	bx	lr
.LBE153:
.LBE154:
	.cfi_endproc
.LFE26:
	.size	HUlib_resetIText, .-HUlib_resetIText
	.align	2
	.global	HUlib_addPrefixToIText
	.type	HUlib_addPrefixToIText, %function
HUlib_addPrefixToIText:
.LFB27:
	.loc 1 707 0
	.cfi_startproc
	@ args = 0, pretend = 0, frame = 0
	@ frame_needed = 0, uses_anonymous_args = 0
.LVL186:
	stmfd	sp!, {r4, r5, r6, lr}
	.cfi_def_cfa_offset 16
	.cfi_offset 4, -16
	.cfi_offset 5, -12
	.cfi_offset 6, -8
	.cfi_offset 14, -4
.LBB155:
.LBB156:
	.loc 1 121 0
	mov	r5, #0
	.loc 1 122 0
	mov	r6, #4
	ldr	ip, [r0, #2028]
	sub	r1, r1, #1
.LVL187:
.L215:
.LBE156:
.LBE155:
	.loc 1 708 0
	ldrb	r2, [r1, #1]!	@ zero_extendqisi2
.LVL188:
	cmp	r2, #0
	beq	.L224
.LVL189:
.L219:
.LBB159:
.LBB157:
	.loc 1 112 0
	ldr	r3, [r0, #20]
	cmp	r3, #80
	.loc 1 116 0
	add	r3, r3, #1
	.loc 1 112 0
	beq	.L215
	.loc 1 117 0
	cmp	r2, #10
	.loc 1 116 0
	strne	r3, [r0, #20]
	.loc 1 120 0
	add	r3, ip, #1
	add	r4, r0, ip
	.loc 1 121 0
	add	lr, r0, r3
	.loc 1 118 0
	streq	r5, [r0, #20]
	.loc 1 120 0
	str	r3, [r0, #2028]
	strb	r2, [r4, #24]
	.loc 1 121 0
	strb	r5, [lr, #24]
	.loc 1 122 0
	str	r6, [r0, #2032]
.LVL190:
.LBE157:
.LBE159:
	.loc 1 708 0
	ldrb	r2, [r1, #1]!	@ zero_extendqisi2
.LVL191:
.LBB160:
.LBB158:
	.loc 1 122 0
	mov	ip, r3
.LBE158:
.LBE160:
	.loc 1 708 0
	cmp	r2, #0
	bne	.L219
.LVL192:
.L224:
	.loc 1 710 0
	str	ip, [r0, #2036]
	ldmfd	sp!, {r4, r5, r6, pc}
	.cfi_endproc
.LFE27:
	.size	HUlib_addPrefixToIText, .-HUlib_addPrefixToIText
	.align	2
	.global	HUlib_keyInIText
	.type	HUlib_keyInIText, %function
HUlib_keyInIText:
.LFB28:
	.loc 1 724 0
	.cfi_startproc
	@ args = 0, pretend = 0, frame = 0
	@ frame_needed = 0, uses_anonymous_args = 0
.LVL193:
	.loc 1 726 0
	sub	r3, r1, #32
	cmp	r3, #63
	.loc 1 724 0
	stmfd	sp!, {r4, r5, r6, lr}
	.cfi_def_cfa_offset 16
	.cfi_offset 4, -16
	.cfi_offset 5, -12
	.cfi_offset 6, -8
	.cfi_offset 14, -4
	.loc 1 724 0
	mov	r3, r0
	.loc 1 726 0
	bhi	.L226
.LVL194:
.LBB161:
.LBB162:
	.loc 1 112 0
	ldr	r2, [r0, #20]
	cmp	r2, #80
	beq	.L230
	.loc 1 121 0
	mov	r6, #0
	.loc 1 122 0
	mov	r4, #4
	.loc 1 120 0
	ldr	r0, [r0, #2028]
.LVL195:
	.loc 1 116 0
	add	r2, r2, #1
	.loc 1 120 0
	add	lr, r0, #1
	add	ip, r3, r0
	.loc 1 121 0
	add	r5, r3, lr
	.loc 1 116 0
	str	r2, [r3, #20]
	.loc 1 120 0
	str	lr, [r3, #2028]
.LBE162:
.LBE161:
	.loc 1 733 0
	mov	r0, #1
.LBB164:
.LBB163:
	.loc 1 120 0
	strb	r1, [ip, #24]
	.loc 1 121 0
	strb	r6, [r5, #24]
	.loc 1 122 0
	str	r4, [r3, #2032]
	ldmfd	sp!, {r4, r5, r6, pc}
.LVL196:
.L226:
.LBE163:
.LBE164:
	.loc 1 728 0
	ldr	r2, .L233
	ldr	r2, [r2]
	cmp	r1, r2
	beq	.L232
	.loc 1 730 0
	ldr	r3, .L233+4
	ldr	r0, [r3]
.LVL197:
	rsb	r0, r0, r1
	clz	r0, r0
	mov	r0, r0, lsr #5
	ldmfd	sp!, {r4, r5, r6, pc}
.LVL198:
.L232:
.LBB165:
.LBB166:
	.loc 1 662 0
	ldr	r1, [r0, #2036]
.LVL199:
	ldr	r2, [r0, #2028]
.LVL200:
.LBB167:
.LBB168:
	.loc 1 138 0
	cmp	r2, #0
	cmpne	r2, r1
	moveq	r1, #1
	movne	r1, #0
	beq	.L230
	.loc 1 142 0
	mov	ip, #4
	.loc 1 141 0
	sub	r2, r2, #1
	add	lr, r0, r2
	str	r2, [r0, #2028]
	strb	r1, [lr, #24]
.LBE168:
.LBE167:
.LBE166:
.LBE165:
	.loc 1 733 0
	mov	r0, #1
.LVL201:
.LBB172:
.LBB171:
.LBB170:
.LBB169:
	.loc 1 142 0
	str	ip, [r3, #2032]
	ldmfd	sp!, {r4, r5, r6, pc}
.LVL202:
.L230:
.LBE169:
.LBE170:
.LBE171:
.LBE172:
	.loc 1 733 0
	mov	r0, #1
.LVL203:
	.loc 1 734 0
	ldmfd	sp!, {r4, r5, r6, pc}
.L234:
	.align	2
.L233:
	.word	key_backspace
	.word	key_enter
	.cfi_endproc
.LFE28:
	.size	HUlib_keyInIText, .-HUlib_keyInIText
	.align	2
	.global	HUlib_drawIText
	.type	HUlib_drawIText, %function
HUlib_drawIText:
.LFB29:
	.loc 1 745 0
	.cfi_startproc
	@ args = 0, pretend = 0, frame = 0
	@ frame_needed = 0, uses_anonymous_args = 0
	@ link register save eliminated.
.LVL204:
	.loc 1 748 0
	ldr	r3, [r0, #2040]
	ldr	r3, [r3]
	cmp	r3, #0
	bxeq	lr
	.loc 1 750 0
	mov	r1, #1
	b	HUlib_drawTextLine
.LVL205:
	.cfi_endproc
.LFE29:
	.size	HUlib_drawIText, .-HUlib_drawIText
	.align	2
	.global	HUlib_eraseIText
	.type	HUlib_eraseIText, %function
HUlib_eraseIText:
.LFB30:
	.loc 1 762 0
	.cfi_startproc
	@ args = 0, pretend = 0, frame = 0
	@ frame_needed = 0, uses_anonymous_args = 0
.LVL206:
	.loc 1 763 0
	ldr	r3, [r0, #2044]
	.loc 1 762 0
	stmfd	sp!, {r4, lr}
	.cfi_def_cfa_offset 8
	.cfi_offset 4, -8
	.cfi_offset 14, -4
	.loc 1 763 0
	cmp	r3, #0
	.loc 1 762 0
	mov	r4, r0
	.loc 1 763 0
	beq	.L238
	.loc 1 763 0 is_stmt 0 discriminator 1
	ldr	r3, [r0, #2040]
	ldr	r3, [r3]
	cmp	r3, #0
	.loc 1 764 0 is_stmt 1 discriminator 1
	moveq	r3, #4
	streq	r3, [r0, #2032]
.L238:
	.loc 1 765 0
	mov	r0, r4
.LVL207:
	bl	HUlib_eraseTextLine
.LVL208:
	.loc 1 766 0
	ldr	r3, [r4, #2040]
	ldr	r3, [r3]
	str	r3, [r4, #2044]
	ldmfd	sp!, {r4, pc}
	.cfi_endproc
.LFE30:
	.size	HUlib_eraseIText, .-HUlib_eraseIText
.Letext0:
	.file 2 "c:/devl/prboom3ds/src/doomtype.h"
	.file 3 "c:/devl/prboom3ds/src/m_fixed.h"
	.file 4 "c:/devl/prboom3ds/src/doomstat.h"
	.file 5 "c:/devl/prboom3ds/src/r_defs.h"
	.file 6 "c:/devl/prboom3ds/src/v_video.h"
	.file 7 "c:/devl/prboom3ds/src/hu_lib.h"
	.file 8 "c:\\devkitpro\\devkitarm\\arm-none-eabi\\include\\ctype.h"
	.file 9 "c:/devl/prboom3ds/src/doomdef.h"
	.file 10 "c:/devl/prboom3ds/src/tables.h"
	.file 11 "c:/devl/prboom3ds/src/hu_stuff.h"
	.file 12 "c:/devl/prboom3ds/src/r_main.h"
	.file 13 "c:/devl/prboom3ds/src/r_draw.h"