	.arch armv6k
	.fpu softvfp
	.eabi_attribute 23, 1
	.eabi_attribute 24, 1
	.eabi_attribute 25, 1
	.eabi_attribute 26, 1
	.eabi_attribute 30, 2
	.eabi_attribute 34, 1
	.eabi_attribute 18, 4
	.file	"lprintf.c"
	.text
.Ltext0:
	.cfi_sections	.debug_frame
	.align	2
	.global	doom_vsnprintf
	.type	doom_vsnprintf, %function
doom_vsnprintf:
.LFB2:
	.file 1 "c:/devl/prboom3ds/src/lprintf.c"
	.loc 1 391 0
	.cfi_startproc
	@ args = 0, pretend = 0, frame = 8
	@ frame_needed = 0, uses_anonymous_args = 0
.LVL0:
	stmfd	sp!, {r4, r5, r6, r7, r8, r9, r10, fp, lr}
	.cfi_def_cfa_offset 36
	.cfi_offset 4, -36
	.cfi_offset 5, -32
	.cfi_offset 6, -28
	.cfi_offset 7, -24
	.cfi_offset 8, -20
	.cfi_offset 9, -16
	.cfi_offset 10, -12
	.cfi_offset 11, -8
	.cfi_offset 14, -4
	.loc 1 395 0
	adds	r6, r1, #0
	movne	r6, #1
	adds	ip, r0, #0
	movne	ip, #1
	cmp	ip, r6
	.loc 1 391 0
	sub	sp, sp, #12
	.cfi_def_cfa_offset 48
	.loc 1 395 0
	bne	.L25
	.loc 1 396 0
	cmp	r2, #0
	mov	r8, r2
	beq	.L26
	mov	r5, r3
	mov	r4, r1
	mov	r9, r0
	.loc 1 398 0
	str	r3, [sp, #4]
	.loc 1 399 0
	bl	vsnprintf
.LVL1:
	.loc 1 402 0
	subs	fp, r0, #0
	blt	.L27
.LVL2:
.L5:
	.loc 1 428 0
	cmp	r4, fp
	movhi	r6, #0
	andls	r6, r6, #1
	cmp	r6, #0
	beq	.L16
	.loc 1 428 0 is_stmt 0 discriminator 1
	sub	r4, r4, #1
.LVL3:
	ldrb	r3, [r9, r4]	@ zero_extendqisi2
	cmp	r3, #0
	.loc 1 429 0 is_stmt 1 discriminator 1
	movne	r3, #0
	strneb	r3, [r9, r4]
.LVL4:
.L16:
	.loc 1 432 0
	mov	r0, fp
	add	sp, sp, #12
	.cfi_remember_state
	.cfi_def_cfa_offset 36
	@ sp needed
	ldmfd	sp!, {r4, r5, r6, r7, r8, r9, r10, fp, pc}
.LVL5:
.L27:
	.cfi_restore_state
	ldr	r10, .L29
	ldr	r7, .L29+4
	ldr	r1, [r10]
.LVL6:
.L6:
.LBB2:
	.loc 1 410 0
	cmp	r4, r1
	.loc 1 408 0
	movcs	r1, r1, asl #1
	strcs	r1, [r10]
	.loc 1 410 0
	bcs	.L6
	.loc 1 412 0
	ldr	r0, [r7]
	bl	realloc
.LVL7:
	.loc 1 413 0
	cmp	r0, #0
	.loc 1 412 0
	str	r0, [r7]
	.loc 1 413 0
	beq	.L28
	.loc 1 416 0
	ldr	r1, [r10]
	mov	r2, r8
	mov	r3, r5
	.loc 1 415 0
	str	r5, [sp, #4]
	.loc 1 416 0
	bl	vsnprintf
.LVL8:
	.loc 1 408 0
	ldr	ip, [r10]
	subs	fp, r0, #0
	mov	r1, ip, asl #1
	str	r1, [r10]
	blt	.L6
	.loc 1 420 0
	cmp	r6, #0
	beq	.L16
.LBB3:
	.loc 1 422 0
	cmp	r4, fp
	movhi	r5, fp
.LVL9:
	subls	r5, r4, #1
.LVL10:
	.loc 1 423 0
	ldr	r1, [r7]
	mov	r0, r9
.LVL11:
	mov	r2, r5
	bl	memmove
.LVL12:
	.loc 1 424 0
	mov	r3, #0
	strb	r3, [r9, r5]
	b	.L5
.LVL13:
.L28:
.LBE3:
	.loc 1 413 0 discriminator 1
	ldr	r0, .L29+8
	ldr	r1, .L29+12
	ldr	r2, .L29+16
	ldr	r3, .L29+20
	bl	__assert_func
.LVL14:
.L26:
.LBE2:
	.loc 1 396 0 discriminator 1
	ldr	r0, .L29+8
.LVL15:
	mov	r1, #396
.LVL16:
	ldr	r2, .L29+16
.LVL17:
	ldr	r3, .L29+24
.LVL18:
	bl	__assert_func
.LVL19:
.L25:
	.loc 1 395 0 discriminator 1
	ldr	r0, .L29+8
.LVL20:
	ldr	r1, .L29+28
.LVL21:
	ldr	r2, .L29+16
.LVL22:
	ldr	r3, .L29+32
.LVL23:
	bl	__assert_func
.LVL24:
.L30:
	.align	2
.L29:
	.word	.LANCHOR1
	.word	.LANCHOR2
	.word	.LC0
	.word	413
	.word	.LANCHOR0
	.word	.LC3
	.word	.LC2
	.word	395
	.word	.LC1
	.cfi_endproc
.LFE2:
	.size	doom_vsnprintf, .-doom_vsnprintf
	.align	2
	.global	lprintf
	.type	lprintf, %function
lprintf:
.LFB0:
	.loc 1 329 0
	.cfi_startproc
	@ args = 4, pretend = 12, frame = 2056
	@ frame_needed = 0, uses_anonymous_args = 1
.LVL25:
	stmfd	sp!, {r1, r2, r3}
	.cfi_def_cfa_offset 12
	.cfi_offset 1, -12
	.cfi_offset 2, -8
	.cfi_offset 3, -4
	stmfd	sp!, {r4, r5, r6, lr}
	.cfi_def_cfa_offset 28
	.cfi_offset 4, -28
	.cfi_offset 5, -24
	.cfi_offset 6, -20
	.cfi_offset 14, -16
	mov	r5, r0
.LVL26:
	sub	sp, sp, #2048
	.cfi_def_cfa_offset 2076
	sub	sp, sp, #12
	.cfi_def_cfa_offset 2088
	.loc 1 335 0
	add	ip, sp, #2080
	.loc 1 339 0
	ldr	r6, .L41
	.loc 1 336 0
	mov	r3, ip
	add	r0, sp, #8
.LVL27:
	mov	r1, #2048
	ldr	r2, [sp, #2076]
	.loc 1 335 0
	str	ip, [sp, #4]
	.loc 1 336 0
	bl	doom_vsnprintf
.LVL28:
	.loc 1 339 0
	ldr	r3, [r6, #4]
	ands	r4, r5, r3
	bne	.L39
.LVL29:
.L32:
	.loc 1 346 0
	mov	r0, #1
	bl	isatty
.LVL30:
	cmp	r0, #0
	bne	.L33
	.loc 1 346 0 is_stmt 0 discriminator 1
	ldr	r3, [r6, #8]
	tst	r5, r3
	bne	.L40
.L33:
	.loc 1 350 0 is_stmt 1
	mov	r0, r4
	add	sp, sp, #2048
	add	sp, sp, #12
	.cfi_remember_state
	.cfi_def_cfa_offset 28
	@ sp needed
	ldmfd	sp!, {r4, r5, r6, lr}
	.cfi_restore 14
	.cfi_restore 6
	.cfi_restore 5
	.cfi_restore 4
	.cfi_def_cfa_offset 12
.LVL31:
	add	sp, sp, #12
	.cfi_restore 3
	.cfi_restore 2
	.cfi_restore 1
	.cfi_def_cfa_offset 0
	bx	lr
.LVL32:
.L40:
	.cfi_restore_state
	.loc 1 347 0
	ldr	r3, .L41+4
	add	r2, sp, #8
	ldr	r3, [r3]
	ldr	r1, .L41+8
	ldr	r0, [r3, #12]
	bl	fprintf
.LVL33:
	mov	r4, r0
.LVL34:
	b	.L33
.LVL35:
.L39:
	.loc 1 341 0
	ldr	r3, .L41+4
	ldr	r1, .L41+8
	ldr	r3, [r3]
	add	r2, sp, #8
	ldr	r0, [r3, #8]
	bl	fprintf
.LVL36:
	mov	r4, r0
.LVL37:
	b	.L32
.L42:
	.align	2
.L41:
	.word	.LANCHOR1
	.word	_impure_ptr
	.word	.LC4
	.cfi_endproc
.LFE0:
	.size	lprintf, .-lprintf
	.align	2
	.global	I_Error
	.type	I_Error, %function
I_Error:
.LFB1:
	.loc 1 362 0
	.cfi_startproc
	@ args = 4, pretend = 16, frame = 2056
	@ frame_needed = 0, uses_anonymous_args = 1
.LVL38:
	stmfd	sp!, {r0, r1, r2, r3}
	.cfi_def_cfa_offset 16
	.cfi_offset 0, -16
	.cfi_offset 1, -12
	.cfi_offset 2, -8
	.cfi_offset 3, -4
	str	lr, [sp, #-4]!
	.cfi_def_cfa_offset 20
	.cfi_offset 14, -20
	sub	sp, sp, #2048
	.cfi_def_cfa_offset 2068
	sub	sp, sp, #12
	.cfi_def_cfa_offset 2080
	.loc 1 365 0
	add	ip, sp, #2064
	add	ip, ip, #4
	.loc 1 366 0
	mov	r3, ip
	ldr	r2, [sp, #2064]
	add	r0, sp, #8
	mov	r1, #2048
	.loc 1 365 0
	str	ip, [sp, #4]
	.loc 1 366 0
	bl	doom_vsnprintf
.LVL39:
	.loc 1 368 0
	add	r2, sp, #8
	ldr	r1, .L45
	mov	r0, #8
	bl	lprintf
.LVL40:
	.loc 1 375 0
	mvn	r0, #0
	bl	I_SafeExit
.LVL41:
	.loc 1 376 0
	add	sp, sp, #2048
	add	sp, sp, #12
	.cfi_def_cfa_offset 20
	@ sp needed
	ldr	lr, [sp], #4
	.cfi_restore 14
	.cfi_def_cfa_offset 16
	add	sp, sp, #16
	.cfi_restore 3
	.cfi_restore 2
	.cfi_restore 1
	.cfi_restore 0
	.cfi_def_cfa_offset 0
	bx	lr
.L46:
	.align	2
.L45:
	.word	.LC5
	.cfi_endproc
.LFE1:
	.size	I_Error, .-I_Error
	.align	2
	.global	doom_snprintf
	.type	doom_snprintf, %function
doom_snprintf:
.LFB3:
	.loc 1 435 0
	.cfi_startproc
	@ args = 4, pretend = 8, frame = 8
	@ frame_needed = 0, uses_anonymous_args = 1
.LVL42:
	stmfd	sp!, {r2, r3}
	.cfi_def_cfa_offset 8
	.cfi_offset 2, -8
	.cfi_offset 3, -4
	str	lr, [sp, #-4]!
	.cfi_def_cfa_offset 12
	.cfi_offset 14, -12
	sub	sp, sp, #12
	.cfi_def_cfa_offset 24
	.loc 1 439 0
	add	ip, sp, #20
	.loc 1 440 0
	mov	r3, ip
	ldr	r2, [sp, #16]
	.loc 1 439 0
	str	ip, [sp, #4]
	.loc 1 440 0
	bl	doom_vsnprintf
.LVL43:
	.loc 1 444 0
	add	sp, sp, #12
	.cfi_def_cfa_offset 12
	@ sp needed
	ldr	lr, [sp], #4
	.cfi_restore 14
	.cfi_def_cfa_offset 8
	add	sp, sp, #8
	.cfi_restore 3
	.cfi_restore 2
	.cfi_def_cfa_offset 0
	bx	lr
	.cfi_endproc
.LFE3:
	.size	doom_snprintf, .-doom_snprintf
	.global	cons_output_mask
	.global	cons_error_mask
	.section	.rodata
	.align	2
	.set	.LANCHOR0,. + 0
	.type	__FUNCTION__.5712, %object
	.size	__FUNCTION__.5712, 15
__FUNCTION__.5712:
	.ascii	"doom_vsnprintf\000"
	.data
	.align	2
	.set	.LANCHOR1,. + 0
	.type	backsize.5714, %object
	.size	backsize.5714, 4
backsize.5714:
	.word	1024
	.type	cons_output_mask, %object
	.size	cons_output_mask, 4
cons_output_mask:
	.word	-1
	.type	cons_error_mask, %object
	.size	cons_error_mask, 4
cons_error_mask:
	.word	-2
	.section	.rodata.str1.4,"aMS",%progbits,1
	.align	2
.LC0:
	.ascii	"c:/devl/prboom3ds/src/lprintf.c\000"
.LC1:
	.ascii	"(max == 0 && buf == NULL) || (max != 0 && buf != NU"
	.ascii	"LL)\000"
	.space	1
.LC2:
	.ascii	"fmt != NULL\000"
.LC3:
	.ascii	"backbuffer != NULL\000"
	.space	1
.LC4:
	.ascii	"%s\000"
	.space	1
.LC5:
	.ascii	"%s\012\000"
	.bss
	.align	2
	.set	.LANCHOR2,. + 0
	.type	backbuffer.5713, %object
	.size	backbuffer.5713, 4
backbuffer.5713:
	.space	4
	.text
.Letext0:
	.file 2 "c:\\devkitpro\\devkitarm\\lib\\gcc\\arm-none-eabi\\4.9.2\\include\\stddef.h"
	.file 3 "c:\\devkitpro\\devkitarm\\lib\\gcc\\arm-none-eabi\\4.9.2\\include\\stdarg.h"
	.file 4 "c:\\devkitpro\\devkitarm\\arm-none-eabi\\include\\sys\\lock.h"
	.file 5 "c:\\devkitpro\\devkitarm\\arm-none-eabi\\include\\sys\\_types.h"
	.file 6 "c:\\devkitpro\\devkitarm\\arm-none-eabi\\include\\sys\\reent.h"
	.file 7 "<built-in>"
	.file 8 "c:\\devkitpro\\devkitarm\\arm-none-eabi\\include\\stdio.h"
	.file 9 "c:/devl/prboom3ds/src/lprintf.h"
	.file 10 "c:\\devkitpro\\devkitarm\\arm-none-eabi\\include\\string.h"
	.file 11 "c:\\devkitpro\\devkitarm\\arm-none-eabi\\include\\stdlib.h"
	.file 12 "c:\\devkitpro\\devkitarm\\arm-none-eabi\\include\\assert.h"
	.file 13 "c:/devl/prboom3ds/src/i_main.h"