	.arch armv6k
	.fpu softvfp
	.eabi_attribute 23, 1
	.eabi_attribute 24, 1
	.eabi_attribute 25, 1
	.eabi_attribute 26, 1
	.eabi_attribute 30, 2
	.eabi_attribute 34, 1
	.eabi_attribute 18, 4
	.file	"m_argv.c"
	.text
.Ltext0:
	.cfi_sections	.debug_frame
	.align	2
	.global	M_CheckParm
	.type	M_CheckParm, %function
M_CheckParm:
.LFB0:
	.file 1 "c:/devl/prboom3ds/src/m_argv.c"
	.loc 1 52 0
	.cfi_startproc
	@ args = 0, pretend = 0, frame = 0
	@ frame_needed = 0, uses_anonymous_args = 0
.LVL0:
	.loc 1 53 0
	ldr	r2, .L8
	.loc 1 55 0
	ldr	r3, .L8+4
	.loc 1 52 0
	stmfd	sp!, {r4, r5, r6, lr}
	.cfi_def_cfa_offset 16
	.cfi_offset 4, -16
	.cfi_offset 5, -12
	.cfi_offset 6, -8
	.cfi_offset 14, -4
	.loc 1 53 0
	ldr	r4, [r2]
.LVL1:
	ldr	r5, [r3]
	.loc 1 52 0
	mov	r6, r0
	add	r5, r5, r4, asl #2
	.loc 1 54 0
	b	.L2
.LVL2:
.L4:
	.loc 1 55 0
	mov	r0, r6
	ldr	r1, [r5, #-4]!
	bl	strcasecmp
.LVL3:
	cmp	r0, #0
	beq	.L5
.L2:
	.loc 1 54 0
	sub	r4, r4, #1
.LVL4:
	cmp	r4, #0
	bgt	.L4
	.loc 1 57 0
	mov	r0, #0
	ldmfd	sp!, {r4, r5, r6, pc}
.L5:
	mov	r0, r4
	.loc 1 58 0
	ldmfd	sp!, {r4, r5, r6, pc}
.L9:
	.align	2
.L8:
	.word	myargc
	.word	myargv
	.cfi_endproc
.LFE0:
	.size	M_CheckParm, .-M_CheckParm
	.comm	myargv,4,4
	.comm	myargc,4,4
.Letext0:
	.file 2 "c:\\devkitpro\\devkitarm\\arm-none-eabi\\include\\string.h"