	.arch armv6k
	.fpu softvfp
	.eabi_attribute 23, 1
	.eabi_attribute 24, 1
	.eabi_attribute 25, 1
	.eabi_attribute 26, 1
	.eabi_attribute 30, 2
	.eabi_attribute 34, 1
	.eabi_attribute 18, 4
	.file	"m_menu.c"
	.text
.Ltext0:
	.cfi_sections	.debug_frame
	.align	2
	.global	M_ReadThis
	.type	M_ReadThis, %function
M_ReadThis:
.LFB11:
	.file 1 "c:/devl/prboom3ds/src/m_menu.c"
	.loc 1 444 0
	.cfi_startproc
	@ args = 0, pretend = 0, frame = 0
	@ frame_needed = 0, uses_anonymous_args = 0
	@ link register save eliminated.
.LVL0:
.LBB276:
.LBB277:
	.loc 1 5385 0
	ldr	r3, .L2
	ldr	r0, .L2+4
.LVL1:
	.loc 1 5386 0
	ldrh	r1, [r3, #20]
	ldr	r2, .L2+8
	.loc 1 5385 0
	str	r3, [r0]
	.loc 1 5386 0
	strh	r1, [r2]	@ movhi
	bx	lr
.L3:
	.align	2
.L2:
	.word	.LANCHOR0
	.word	currentMenu
	.word	itemOn
.LBE277:
.LBE276:
	.cfi_endproc
.LFE11:
	.size	M_ReadThis, .-M_ReadThis
	.align	2
	.global	M_ReadThis2
	.type	M_ReadThis2, %function
M_ReadThis2:
.LFB12:
	.loc 1 449 0
	.cfi_startproc
	@ args = 0, pretend = 0, frame = 0
	@ frame_needed = 0, uses_anonymous_args = 0
	@ link register save eliminated.
.LVL2:
.LBB278:
.LBB279:
	.loc 1 5385 0
	ldr	r3, .L5
	ldr	r0, .L5+4
.LVL3:
	.loc 1 5386 0
	ldrh	r1, [r3, #44]
	ldr	r2, .L5+8
	.loc 1 5385 0
	add	r3, r3, #24
	str	r3, [r0]
	.loc 1 5386 0
	strh	r1, [r2]	@ movhi
	bx	lr
.L6:
	.align	2
.L5:
	.word	.LANCHOR0
	.word	currentMenu
	.word	itemOn
.LBE279:
.LBE278:
	.cfi_endproc
.LFE12:
	.size	M_ReadThis2, .-M_ReadThis2
	.align	2
	.global	M_FinishReadThis
	.type	M_FinishReadThis, %function
M_FinishReadThis:
.LFB13:
	.loc 1 454 0
	.cfi_startproc
	@ args = 0, pretend = 0, frame = 0
	@ frame_needed = 0, uses_anonymous_args = 0
	@ link register save eliminated.
.LVL4:
.LBB280:
.LBB281:
	.loc 1 5385 0
	ldr	r3, .L8
	ldr	r0, .L8+4
.LVL5:
	.loc 1 5386 0
	ldrh	r1, [r3, #68]
	ldr	r2, .L8+8
	.loc 1 5385 0
	add	r3, r3, #48
	str	r3, [r0]
	.loc 1 5386 0
	strh	r1, [r2]	@ movhi
	bx	lr
.L9:
	.align	2
.L8:
	.word	.LANCHOR0
	.word	currentMenu
	.word	itemOn
.LBE281:
.LBE280:
	.cfi_endproc
.LFE13:
	.size	M_FinishReadThis, .-M_FinishReadThis
	.align	2
	.global	M_FinishHelp
	.type	M_FinishHelp, %function
M_FinishHelp:
.LFB14:
	.loc 1 459 0
	.cfi_startproc
	@ args = 0, pretend = 0, frame = 0
	@ frame_needed = 0, uses_anonymous_args = 0
	@ link register save eliminated.
.LVL6:
.LBB282:
.LBB283:
	.loc 1 5385 0
	ldr	r3, .L11
	ldr	r0, .L11+4
.LVL7:
	.loc 1 5386 0
	ldrh	r1, [r3, #68]
	ldr	r2, .L11+8
	.loc 1 5385 0
	add	r3, r3, #48
	str	r3, [r0]
	.loc 1 5386 0
	strh	r1, [r2]	@ movhi
	bx	lr
.L12:
	.align	2
.L11:
	.word	.LANCHOR0
	.word	currentMenu
	.word	itemOn
.LBE283:
.LBE282:
	.cfi_endproc
.LFE14:
	.size	M_FinishHelp, .-M_FinishHelp
	.align	2
	.global	M_Options
	.type	M_Options, %function
M_Options:
.LFB36:
	.loc 1 1014 0
	.cfi_startproc
	@ args = 0, pretend = 0, frame = 0
	@ frame_needed = 0, uses_anonymous_args = 0
	@ link register save eliminated.
.LVL8:
.LBB284:
.LBB285:
	.loc 1 5385 0
	ldr	r3, .L14
	ldr	r0, .L14+4
.LVL9:
	.loc 1 5386 0
	ldrh	r1, [r3, #92]
	ldr	r2, .L14+8
	.loc 1 5385 0
	add	r3, r3, #72
	str	r3, [r0]
	.loc 1 5386 0
	strh	r1, [r2]	@ movhi
	bx	lr
.L15:
	.align	2
.L14:
	.word	.LANCHOR0
	.word	currentMenu
	.word	itemOn
.LBE285:
.LBE284:
	.cfi_endproc
.LFE36:
	.size	M_Options, .-M_Options
	.align	2
	.global	M_Sound
	.type	M_Sound, %function
M_Sound:
.LFB40:
	.loc 1 1139 0
	.cfi_startproc
	@ args = 0, pretend = 0, frame = 0
	@ frame_needed = 0, uses_anonymous_args = 0
	@ link register save eliminated.
.LVL10:
.LBB286:
.LBB287:
	.loc 1 5385 0
	ldr	r3, .L17
	ldr	r0, .L17+4
.LVL11:
	.loc 1 5386 0
	ldrh	r1, [r3, #116]
	ldr	r2, .L17+8
	.loc 1 5385 0
	add	r3, r3, #96
	str	r3, [r0]
	.loc 1 5386 0
	strh	r1, [r2]	@ movhi
	bx	lr
.L18:
	.align	2
.L17:
	.word	.LANCHOR0
	.word	currentMenu
	.word	itemOn
.LBE287:
.LBE286:
	.cfi_endproc
.LFE40:
	.size	M_Sound, .-M_Sound
	.align	2
	.global	M_ChangeSensitivity
	.type	M_ChangeSensitivity, %function
M_ChangeSensitivity:
.LFB44:
	.loc 1 1239 0
	.cfi_startproc
	@ args = 0, pretend = 0, frame = 0
	@ frame_needed = 0, uses_anonymous_args = 0
	@ link register save eliminated.
.LVL12:
.LBB288:
.LBB289:
	.loc 1 5385 0
	ldr	r3, .L20
	ldr	r0, .L20+4
.LVL13:
	.loc 1 5386 0
	ldrh	r1, [r3, #140]
	ldr	r2, .L20+8
	.loc 1 5385 0
	add	r3, r3, #120
	str	r3, [r0]
	.loc 1 5386 0
	strh	r1, [r2]	@ movhi
	bx	lr
.L21:
	.align	2
.L20:
	.word	.LANCHOR0
	.word	currentMenu
	.word	itemOn
.LBE289:
.LBE288:
	.cfi_endproc
.LFE44:
	.size	M_ChangeSensitivity, .-M_ChangeSensitivity
	.align	2
	.global	M_ChangeMessages
	.type	M_ChangeMessages, %function
M_ChangeMessages:
.LFB54:
	.loc 1 1383 0
	.cfi_startproc
	@ args = 0, pretend = 0, frame = 0
	@ frame_needed = 0, uses_anonymous_args = 0
	@ link register save eliminated.
.LVL14:
	.loc 1 1389 0
	mov	r0, #284
	.loc 1 1386 0
	ldr	r2, .L25
	ldr	r3, [r2]
	rsb	r3, r3, #1
	str	r3, [r2]
	.loc 1 1389 0
	ldr	r2, .L25+4
	.loc 1 1388 0
	cmp	r3, #0
	.loc 1 1389 0
	ldr	r2, [r2]
	ldr	r3, .L25+8
	ldreq	r1, .L25+12
	.loc 1 1391 0
	mla	r3, r0, r2, r3
	ldrne	r1, .L25+16
	ldr	r2, [r1]
	str	r2, [r3, #220]
	.loc 1 1393 0
	mov	r2, #1
	ldr	r3, .L25+20
	str	r2, [r3]
	bx	lr
.L26:
	.align	2
.L25:
	.word	showMessages
	.word	consoleplayer
	.word	players
	.word	s_MSGOFF
	.word	s_MSGON
	.word	message_dontfuckwithme
	.cfi_endproc
.LFE54:
	.size	M_ChangeMessages, .-M_ChangeMessages
	.align	2
	.type	M_DoNothing, %function
M_DoNothing:
.LFB56:
	.loc 1 1533 0
	.cfi_startproc
	@ args = 0, pretend = 0, frame = 0
	@ frame_needed = 0, uses_anonymous_args = 0
	@ link register save eliminated.
.LVL15:
	bx	lr
	.cfi_endproc
.LFE56:
	.size	M_DoNothing, .-M_DoNothing
	.align	2
	.global	M_Setup
	.type	M_Setup, %function
M_Setup:
.LFB58:
	.loc 1 1687 0
	.cfi_startproc
	@ args = 0, pretend = 0, frame = 0
	@ frame_needed = 0, uses_anonymous_args = 0
	@ link register save eliminated.
.LVL16:
.LBB290:
.LBB291:
	.loc 1 5385 0
	ldr	r3, .L29
	ldr	r0, .L29+4
.LVL17:
	.loc 1 5386 0
	ldrh	r1, [r3, #164]
	ldr	r2, .L29+8
	.loc 1 5385 0
	add	r3, r3, #144
	str	r3, [r0]
	.loc 1 5386 0
	strh	r1, [r2]	@ movhi
	bx	lr
.L30:
	.align	2
.L29:
	.word	.LANCHOR0
	.word	currentMenu
	.word	itemOn
.LBE291:
.LBE290:
	.cfi_endproc
.LFE58:
	.size	M_Setup, .-M_Setup
	.align	2
	.global	M_KeyBindings
	.type	M_KeyBindings, %function
M_KeyBindings:
.LFB64:
	.loc 1 2312 0
	.cfi_startproc
	@ args = 0, pretend = 0, frame = 0
	@ frame_needed = 0, uses_anonymous_args = 0
.LVL18:
	.loc 1 2318 0
	mov	r2, #0
	.loc 1 2315 0
	mov	r0, #1
.LVL19:
.LBB292:
.LBB293:
	.loc 1 5385 0
	ldr	r1, .L36
.LBE293:
.LBE292:
	.loc 1 2312 0
	stmfd	sp!, {r4, r5, r6, r7, r8, lr}
	.cfi_def_cfa_offset 24
	.cfi_offset 4, -24
	.cfi_offset 5, -20
	.cfi_offset 6, -16
	.cfi_offset 7, -12
	.cfi_offset 8, -8
	.cfi_offset 14, -4
	.loc 1 2322 0
	ldr	r3, [r1, #192]
	.loc 1 2315 0
	ldr	lr, .L36+4
.LBB296:
.LBB294:
	.loc 1 5386 0
	ldrh	r8, [r1, #188]
	ldr	r7, .L36+8
	.loc 1 5385 0
	ldr	r6, .L36+12
.LBE294:
.LBE296:
	.loc 1 2322 0
	ldr	r5, .L36+16
	.loc 1 2316 0
	ldr	r4, .L36+20
	.loc 1 2321 0
	ldr	ip, .L36+24
.LBB297:
.LBB295:
	.loc 1 5385 0
	add	r1, r1, #168
	.loc 1 5386 0
	strh	r8, [r7]	@ movhi
	.loc 1 5385 0
	str	r1, [r6]
.LBE295:
.LBE297:
	.loc 1 2322 0
	str	r3, [r5]
	.loc 1 2316 0
	str	r0, [r4]
	.loc 1 2315 0
	str	r0, [lr]
	.loc 1 2318 0
	stmib	lr, {r0, r2}
	.loc 1 2319 0
	str	r2, [lr, #12]
	.loc 1 2320 0
	str	r2, [lr, #16]
	.loc 1 2321 0
	str	r2, [ip]
	.loc 1 2324 0
	b	.L32
.L33:
	mov	r2, r0
.L32:
	.loc 1 2324 0 is_stmt 0 discriminator 1
	ldr	r1, [r3, #4]
	mov	ip, r3
	tst	r1, #8192
	add	r3, r3, #36
	add	r0, r2, #1
	bne	.L33
	.loc 1 2325 0 is_stmt 1
	orr	r1, r1, #1
	str	r1, [ip, #4]
	str	r2, [lr, #20]
	ldmfd	sp!, {r4, r5, r6, r7, r8, pc}
.L37:
	.align	2
.L36:
	.word	.LANCHOR0
	.word	.LANCHOR1
	.word	itemOn
	.word	currentMenu
	.word	current_setup_menu
	.word	setup_screen
	.word	mult_screens_index
	.cfi_endproc
.LFE64:
	.size	M_KeyBindings, .-M_KeyBindings
	.align	2
	.global	M_Weapons
	.type	M_Weapons, %function
M_Weapons:
.LFB66:
	.loc 1 2423 0
	.cfi_startproc
	@ args = 0, pretend = 0, frame = 0
	@ frame_needed = 0, uses_anonymous_args = 0
.LVL20:
	stmfd	sp!, {r4, r5, r6, r7, r8, r9, lr}
	.cfi_def_cfa_offset 28
	.cfi_offset 4, -28
	.cfi_offset 5, -24
	.cfi_offset 6, -20
	.cfi_offset 7, -16
	.cfi_offset 8, -12
	.cfi_offset 9, -8
	.cfi_offset 14, -4
	.loc 1 2429 0
	mov	r2, #0
	.loc 1 2426 0
	mov	r0, #1
.LVL21:
	.loc 1 2427 0
	mov	r4, #2
.LBB298:
.LBB299:
	.loc 1 5385 0
	ldr	r1, .L42
.LBE299:
.LBE298:
	.loc 1 2426 0
	ldr	lr, .L42+4
.LBB303:
.LBB300:
	.loc 1 5386 0
	ldrh	r9, [r1, #232]
.LBE300:
.LBE303:
	.loc 1 2433 0
	ldr	r3, [r1, #236]
.LBB304:
.LBB301:
	.loc 1 5386 0
	ldr	r8, .L42+8
	.loc 1 5385 0
	ldr	r7, .L42+12
.LBE301:
.LBE304:
	.loc 1 2433 0
	ldr	r6, .L42+16
	.loc 1 2432 0
	ldr	r5, .L42+20
	.loc 1 2427 0
	ldr	ip, .L42+24
.LBB305:
.LBB302:
	.loc 1 5385 0
	add	r1, r1, #212
	.loc 1 5386 0
	strh	r9, [r8]	@ movhi
	.loc 1 5385 0
	str	r1, [r7]
.LBE302:
.LBE305:
	.loc 1 2433 0
	str	r3, [r6]
	.loc 1 2426 0
	str	r0, [lr]
	.loc 1 2428 0
	str	r0, [lr, #24]
	.loc 1 2429 0
	str	r2, [lr, #8]
	.loc 1 2430 0
	str	r2, [lr, #12]
	.loc 1 2431 0
	str	r2, [lr, #16]
	.loc 1 2432 0
	str	r2, [r5]
	.loc 1 2427 0
	str	r4, [ip]
	.loc 1 2435 0
	b	.L39
.L40:
	mov	r2, r0
.L39:
	.loc 1 2435 0 is_stmt 0 discriminator 1
	ldr	r1, [r3, #4]
	mov	ip, r3
	tst	r1, #8192
	add	r3, r3, #36
	add	r0, r2, #1
	bne	.L40
	.loc 1 2436 0 is_stmt 1
	orr	r1, r1, #1
	str	r1, [ip, #4]
	str	r2, [lr, #20]
	ldmfd	sp!, {r4, r5, r6, r7, r8, r9, pc}
.L43:
	.align	2
.L42:
	.word	.LANCHOR0
	.word	.LANCHOR1
	.word	itemOn
	.word	currentMenu
	.word	current_setup_menu
	.word	mult_screens_index
	.word	setup_screen
	.cfi_endproc
.LFE66:
	.size	M_Weapons, .-M_Weapons
	.align	2
	.global	M_StatusBar
	.type	M_StatusBar, %function
M_StatusBar:
.LFB68:
	.loc 1 2510 0
	.cfi_startproc
	@ args = 0, pretend = 0, frame = 0
	@ frame_needed = 0, uses_anonymous_args = 0
.LVL22:
	stmfd	sp!, {r4, r5, r6, r7, r8, r9, lr}
	.cfi_def_cfa_offset 28
	.cfi_offset 4, -28
	.cfi_offset 5, -24
	.cfi_offset 6, -20
	.cfi_offset 7, -16
	.cfi_offset 8, -12
	.cfi_offset 9, -8
	.cfi_offset 14, -4
	.loc 1 2516 0
	mov	r2, #0
	.loc 1 2513 0
	mov	r0, #1
.LVL23:
	.loc 1 2514 0
	mov	r4, #3
.LBB306:
.LBB307:
	.loc 1 5385 0
	ldr	r1, .L48
.LBE307:
.LBE306:
	.loc 1 2513 0
	ldr	lr, .L48+4
.LBB311:
.LBB308:
	.loc 1 5386 0
	add	r3, r1, #264
	ldrh	r9, [r3]
	ldr	r8, .L48+8
.LBE308:
.LBE311:
	.loc 1 2520 0
	ldr	r3, [r1, #268]
.LBB312:
.LBB309:
	.loc 1 5385 0
	ldr	r7, .L48+12
.LBE309:
.LBE312:
	.loc 1 2520 0
	ldr	r6, .L48+16
	.loc 1 2519 0
	ldr	r5, .L48+20
	.loc 1 2514 0
	ldr	ip, .L48+24
.LBB313:
.LBB310:
	.loc 1 5385 0
	add	r1, r1, #244
	.loc 1 5386 0
	strh	r9, [r8]	@ movhi
	.loc 1 5385 0
	str	r1, [r7]
.LBE310:
.LBE313:
	.loc 1 2520 0
	str	r3, [r6]
	.loc 1 2513 0
	str	r0, [lr]
	.loc 1 2515 0
	str	r0, [lr, #28]
	.loc 1 2516 0
	str	r2, [lr, #8]
	.loc 1 2517 0
	str	r2, [lr, #12]
	.loc 1 2518 0
	str	r2, [lr, #16]
	.loc 1 2519 0
	str	r2, [r5]
	.loc 1 2514 0
	str	r4, [ip]
	.loc 1 2522 0
	b	.L45
.L46:
	mov	r2, r0
.L45:
	.loc 1 2522 0 is_stmt 0 discriminator 1
	ldr	r1, [r3, #4]
	mov	ip, r3
	tst	r1, #8192
	add	r3, r3, #36
	add	r0, r2, #1
	bne	.L46
	.loc 1 2523 0 is_stmt 1
	orr	r1, r1, #1
	str	r1, [ip, #4]
	str	r2, [lr, #20]
	ldmfd	sp!, {r4, r5, r6, r7, r8, r9, pc}
.L49:
	.align	2
.L48:
	.word	.LANCHOR0
	.word	.LANCHOR1
	.word	itemOn
	.word	currentMenu
	.word	current_setup_menu
	.word	mult_screens_index
	.word	setup_screen
	.cfi_endproc
.LFE68:
	.size	M_StatusBar, .-M_StatusBar
	.align	2
	.global	M_Automap
	.type	M_Automap, %function
M_Automap:
.LFB70:
	.loc 1 2631 0
	.cfi_startproc
	@ args = 0, pretend = 0, frame = 0
	@ frame_needed = 0, uses_anonymous_args = 0
.LVL24:
	stmfd	sp!, {r4, r5, r6, r7, r8, r9, lr}
	.cfi_def_cfa_offset 28
	.cfi_offset 4, -28
	.cfi_offset 5, -24
	.cfi_offset 6, -20
	.cfi_offset 7, -16
	.cfi_offset 8, -12
	.cfi_offset 9, -8
	.cfi_offset 14, -4
	.loc 1 2637 0
	mov	r2, #0
	.loc 1 2634 0
	mov	r1, #1
	.loc 1 2635 0
	mov	r4, #4
.LBB314:
.LBB315:
	.loc 1 5385 0
	ldr	r3, .L54
.LBE315:
.LBE314:
	.loc 1 2634 0
	ldr	lr, .L54+4
.LBB319:
.LBB316:
	.loc 1 5385 0
	add	r0, r3, #276
.LVL25:
	ldr	r9, .L54+8
.LBE316:
.LBE319:
	.loc 1 2643 0
	ldr	r3, [r3, #300]
.LBB320:
.LBB317:
	.loc 1 5386 0
	ldrh	r8, [r0, #20]
	ldr	r7, .L54+12
.LBE317:
.LBE320:
	.loc 1 2643 0
	ldr	r6, .L54+16
	.loc 1 2642 0
	ldr	r5, .L54+20
	.loc 1 2635 0
	ldr	ip, .L54+24
.LBB321:
.LBB318:
	.loc 1 5385 0
	str	r0, [r9]
	.loc 1 5386 0
	strh	r8, [r7]	@ movhi
.LBE318:
.LBE321:
	.loc 1 2643 0
	str	r3, [r6]
	.loc 1 2634 0
	str	r1, [lr]
	.loc 1 2636 0
	str	r1, [lr, #32]
	.loc 1 2637 0
	str	r2, [lr, #8]
	.loc 1 2638 0
	str	r2, [lr, #36]
	.loc 1 2639 0
	str	r2, [lr, #12]
	.loc 1 2640 0
	str	r2, [lr, #16]
	.loc 1 2642 0
	str	r2, [r5]
	.loc 1 2635 0
	str	r4, [ip]
	.loc 1 2644 0
	b	.L51
.L52:
	mov	r2, r0
.L51:
	.loc 1 2644 0 is_stmt 0 discriminator 1
	ldr	r1, [r3, #4]
	mov	ip, r3
	tst	r1, #8192
	add	r3, r3, #36
	add	r0, r2, #1
	bne	.L52
	.loc 1 2645 0 is_stmt 1
	orr	r1, r1, #1
	str	r1, [ip, #4]
	str	r2, [lr, #20]
	ldmfd	sp!, {r4, r5, r6, r7, r8, r9, pc}
.L55:
	.align	2
.L54:
	.word	.LANCHOR0
	.word	.LANCHOR1
	.word	currentMenu
	.word	itemOn
	.word	current_setup_menu
	.word	mult_screens_index
	.word	setup_screen
	.cfi_endproc
.LFE70:
	.size	M_Automap, .-M_Automap
	.align	2
	.global	M_Enemy
	.type	M_Enemy, %function
M_Enemy:
.LFB73:
	.loc 1 2791 0
	.cfi_startproc
	@ args = 0, pretend = 0, frame = 0
	@ frame_needed = 0, uses_anonymous_args = 0
.LVL26:
	stmfd	sp!, {r4, r5, r6, r7, r8, r9, lr}
	.cfi_def_cfa_offset 28
	.cfi_offset 4, -28
	.cfi_offset 5, -24
	.cfi_offset 6, -20
	.cfi_offset 7, -16
	.cfi_offset 8, -12
	.cfi_offset 9, -8
	.cfi_offset 14, -4
	.loc 1 2797 0
	mov	r2, #0
	.loc 1 2794 0
	mov	r1, #1
	.loc 1 2795 0
	mov	r4, #5
.LBB322:
.LBB323:
	.loc 1 5385 0
	ldr	r3, .L60
.LBE323:
.LBE322:
	.loc 1 2794 0
	ldr	lr, .L60+4
.LBB327:
.LBB324:
	.loc 1 5385 0
	add	r0, r3, #312
.LVL27:
	ldr	r9, .L60+8
.LBE324:
.LBE327:
	.loc 1 2801 0
	ldr	r3, [r3, #336]
.LBB328:
.LBB325:
	.loc 1 5386 0
	ldrh	r8, [r0, #20]
	ldr	r7, .L60+12
.LBE325:
.LBE328:
	.loc 1 2801 0
	ldr	r6, .L60+16
	.loc 1 2800 0
	ldr	r5, .L60+20
	.loc 1 2795 0
	ldr	ip, .L60+24
.LBB329:
.LBB326:
	.loc 1 5385 0
	str	r0, [r9]
	.loc 1 5386 0
	strh	r8, [r7]	@ movhi
.LBE326:
.LBE329:
	.loc 1 2801 0
	str	r3, [r6]
	.loc 1 2794 0
	str	r1, [lr]
	.loc 1 2796 0
	str	r1, [lr, #40]
	.loc 1 2797 0
	str	r2, [lr, #8]
	.loc 1 2798 0
	str	r2, [lr, #12]
	.loc 1 2799 0
	str	r2, [lr, #16]
	.loc 1 2800 0
	str	r2, [r5]
	.loc 1 2795 0
	str	r4, [ip]
	.loc 1 2803 0
	b	.L57
.L58:
	mov	r2, r0
.L57:
	.loc 1 2803 0 is_stmt 0 discriminator 1
	ldr	r1, [r3, #4]
	mov	ip, r3
	tst	r1, #8192
	add	r3, r3, #36
	add	r0, r2, #1
	bne	.L58
	.loc 1 2804 0 is_stmt 1
	orr	r1, r1, #1
	str	r1, [ip, #4]
	str	r2, [lr, #20]
	ldmfd	sp!, {r4, r5, r6, r7, r8, r9, pc}
.L61:
	.align	2
.L60:
	.word	.LANCHOR0
	.word	.LANCHOR1
	.word	currentMenu
	.word	itemOn
	.word	current_setup_menu
	.word	mult_screens_index
	.word	setup_screen
	.cfi_endproc
.LFE73:
	.size	M_Enemy, .-M_Enemy
	.align	2
	.global	M_General
	.type	M_General, %function
M_General:
.LFB78:
	.loc 1 3120 0
	.cfi_startproc
	@ args = 0, pretend = 0, frame = 0
	@ frame_needed = 0, uses_anonymous_args = 0
.LVL28:
	stmfd	sp!, {r4, r5, r6, r7, r8, r9, lr}
	.cfi_def_cfa_offset 28
	.cfi_offset 4, -28
	.cfi_offset 5, -24
	.cfi_offset 6, -20
	.cfi_offset 7, -16
	.cfi_offset 8, -12
	.cfi_offset 9, -8
	.cfi_offset 14, -4
	.loc 1 3126 0
	mov	r2, #0
	.loc 1 3123 0
	mov	r1, #1
	.loc 1 3124 0
	mov	r4, #8
.LBB330:
.LBB331:
	.loc 1 5385 0
	ldr	r3, .L66
.LBE331:
.LBE330:
	.loc 1 3123 0
	ldr	lr, .L66+4
.LBB335:
.LBB332:
	.loc 1 5385 0
	add	r0, r3, #344
.LVL29:
	ldr	r9, .L66+8
.LBE332:
.LBE335:
	.loc 1 3130 0
	ldr	r3, [r3, #368]
.LBB336:
.LBB333:
	.loc 1 5386 0
	ldrh	r8, [r0, #20]
	ldr	r7, .L66+12
.LBE333:
.LBE336:
	.loc 1 3130 0
	ldr	r6, .L66+16
	.loc 1 3129 0
	ldr	r5, .L66+20
	.loc 1 3124 0
	ldr	ip, .L66+24
.LBB337:
.LBB334:
	.loc 1 5385 0
	str	r0, [r9]
	.loc 1 5386 0
	strh	r8, [r7]	@ movhi
.LBE334:
.LBE337:
	.loc 1 3130 0
	str	r3, [r6]
	.loc 1 3123 0
	str	r1, [lr]
	.loc 1 3125 0
	str	r1, [lr, #44]
	.loc 1 3126 0
	str	r2, [lr, #8]
	.loc 1 3127 0
	str	r2, [lr, #12]
	.loc 1 3128 0
	str	r2, [lr, #16]
	.loc 1 3129 0
	str	r2, [r5]
	.loc 1 3124 0
	str	r4, [ip]
	.loc 1 3132 0
	b	.L63
.L64:
	mov	r2, r0
.L63:
	.loc 1 3132 0 is_stmt 0 discriminator 1
	ldr	r1, [r3, #4]
	mov	ip, r3
	tst	r1, #8192
	add	r3, r3, #36
	add	r0, r2, #1
	bne	.L64
	.loc 1 3133 0 is_stmt 1
	orr	r1, r1, #1
	str	r1, [ip, #4]
	str	r2, [lr, #20]
	ldmfd	sp!, {r4, r5, r6, r7, r8, r9, pc}
.L67:
	.align	2
.L66:
	.word	.LANCHOR0
	.word	.LANCHOR1
	.word	currentMenu
	.word	itemOn
	.word	current_setup_menu
	.word	mult_screens_index
	.word	setup_screen
	.cfi_endproc
.LFE78:
	.size	M_General, .-M_General
	.align	2
	.global	M_Compat
	.type	M_Compat, %function
M_Compat:
.LFB80:
	.loc 1 3313 0
	.cfi_startproc
	@ args = 0, pretend = 0, frame = 0
	@ frame_needed = 0, uses_anonymous_args = 0
.LVL30:
	stmfd	sp!, {r4, r5, r6, r7, r8, r9, lr}
	.cfi_def_cfa_offset 28
	.cfi_offset 4, -28
	.cfi_offset 5, -24
	.cfi_offset 6, -20
	.cfi_offset 7, -16
	.cfi_offset 8, -12
	.cfi_offset 9, -8
	.cfi_offset 14, -4
	.loc 1 3319 0
	mov	r2, #0
	.loc 1 3316 0
	mov	r1, #1
	.loc 1 3317 0
	mov	r4, #9
.LBB338:
.LBB339:
	.loc 1 5385 0
	ldr	r3, .L72
.LBE339:
.LBE338:
	.loc 1 3316 0
	ldr	lr, .L72+4
.LBB343:
.LBB340:
	.loc 1 5385 0
	add	r0, r3, #384
.LVL31:
	ldr	r9, .L72+8
.LBE340:
.LBE343:
	.loc 1 3323 0
	ldr	r3, [r3, #408]
.LBB344:
.LBB341:
	.loc 1 5386 0
	ldrh	r8, [r0, #20]
	ldr	r7, .L72+12
.LBE341:
.LBE344:
	.loc 1 3323 0
	ldr	r6, .L72+16
	.loc 1 3322 0
	ldr	r5, .L72+20
	.loc 1 3317 0
	ldr	ip, .L72+24
.LBB345:
.LBB342:
	.loc 1 5385 0
	str	r0, [r9]
	.loc 1 5386 0
	strh	r8, [r7]	@ movhi
.LBE342:
.LBE345:
	.loc 1 3323 0
	str	r3, [r6]
	.loc 1 3316 0
	str	r1, [lr]
	.loc 1 3318 0
	str	r1, [lr, #44]
	.loc 1 3319 0
	str	r2, [lr, #8]
	.loc 1 3320 0
	str	r2, [lr, #12]
	.loc 1 3321 0
	str	r2, [lr, #16]
	.loc 1 3322 0
	str	r2, [r5]
	.loc 1 3317 0
	str	r4, [ip]
	.loc 1 3325 0
	b	.L69
.L70:
	mov	r2, r0
.L69:
	.loc 1 3325 0 is_stmt 0 discriminator 1
	ldr	r1, [r3, #4]
	mov	ip, r3
	tst	r1, #8192
	add	r3, r3, #36
	add	r0, r2, #1
	bne	.L70
	.loc 1 3326 0 is_stmt 1
	orr	r1, r1, #1
	str	r1, [ip, #4]
	str	r2, [lr, #20]
	ldmfd	sp!, {r4, r5, r6, r7, r8, r9, pc}
.L73:
	.align	2
.L72:
	.word	.LANCHOR0
	.word	.LANCHOR1
	.word	currentMenu
	.word	itemOn
	.word	current_setup_menu
	.word	mult_screens_index
	.word	setup_screen
	.cfi_endproc
.LFE80:
	.size	M_Compat, .-M_Compat
	.align	2
	.global	M_Messages
	.type	M_Messages, %function
M_Messages:
.LFB82:
	.loc 1 3433 0
	.cfi_startproc
	@ args = 0, pretend = 0, frame = 0
	@ frame_needed = 0, uses_anonymous_args = 0
.LVL32:
	stmfd	sp!, {r4, r5, r6, r7, r8, r9, lr}
	.cfi_def_cfa_offset 28
	.cfi_offset 4, -28
	.cfi_offset 5, -24
	.cfi_offset 6, -20
	.cfi_offset 7, -16
	.cfi_offset 8, -12
	.cfi_offset 9, -8
	.cfi_offset 14, -4
	.loc 1 3439 0
	mov	r2, #0
	.loc 1 3436 0
	mov	r1, #1
	.loc 1 3437 0
	mov	r4, #6
.LBB346:
.LBB347:
	.loc 1 5385 0
	ldr	r3, .L78
.LBE347:
.LBE346:
	.loc 1 3436 0
	ldr	lr, .L78+4
.LBB351:
.LBB348:
	.loc 1 5385 0
	add	r0, r3, #424
.LVL33:
	ldr	r9, .L78+8
.LBE348:
.LBE351:
	.loc 1 3443 0
	ldr	r3, [r3, #448]
.LBB352:
.LBB349:
	.loc 1 5386 0
	ldrh	r8, [r0, #20]
	ldr	r7, .L78+12
.LBE349:
.LBE352:
	.loc 1 3443 0
	ldr	r6, .L78+16
	.loc 1 3442 0
	ldr	r5, .L78+20
	.loc 1 3437 0
	ldr	ip, .L78+24
.LBB353:
.LBB350:
	.loc 1 5385 0
	str	r0, [r9]
	.loc 1 5386 0
	strh	r8, [r7]	@ movhi
.LBE350:
.LBE353:
	.loc 1 3443 0
	str	r3, [r6]
	.loc 1 3436 0
	str	r1, [lr]
	.loc 1 3438 0
	str	r1, [lr, #48]
	.loc 1 3439 0
	str	r2, [lr, #8]
	.loc 1 3440 0
	str	r2, [lr, #12]
	.loc 1 3441 0
	str	r2, [lr, #16]
	.loc 1 3442 0
	str	r2, [r5]
	.loc 1 3437 0
	str	r4, [ip]
	.loc 1 3445 0
	b	.L75
.L76:
	mov	r2, r0
.L75:
	.loc 1 3445 0 is_stmt 0 discriminator 1
	ldr	r1, [r3, #4]
	mov	ip, r3
	tst	r1, #8192
	add	r3, r3, #36
	add	r0, r2, #1
	bne	.L76
	.loc 1 3446 0 is_stmt 1
	orr	r1, r1, #1
	str	r1, [ip, #4]
	str	r2, [lr, #20]
	ldmfd	sp!, {r4, r5, r6, r7, r8, r9, pc}
.L79:
	.align	2
.L78:
	.word	.LANCHOR0
	.word	.LANCHOR1
	.word	currentMenu
	.word	itemOn
	.word	current_setup_menu
	.word	mult_screens_index
	.word	setup_screen
	.cfi_endproc
.LFE82:
	.size	M_Messages, .-M_Messages
	.align	2
	.global	M_ChatStrings
	.type	M_ChatStrings, %function
M_ChatStrings:
.LFB84:
	.loc 1 3509 0
	.cfi_startproc
	@ args = 0, pretend = 0, frame = 0
	@ frame_needed = 0, uses_anonymous_args = 0
.LVL34:
	stmfd	sp!, {r4, r5, r6, r7, r8, r9, lr}
	.cfi_def_cfa_offset 28
	.cfi_offset 4, -28
	.cfi_offset 5, -24
	.cfi_offset 6, -20
	.cfi_offset 7, -16
	.cfi_offset 8, -12
	.cfi_offset 9, -8
	.cfi_offset 14, -4
	.loc 1 3514 0
	mov	r2, #0
	.loc 1 3511 0
	mov	r1, #1
	.loc 1 3512 0
	mov	r4, #7
.LBB354:
.LBB355:
	.loc 1 5385 0
	ldr	r3, .L84
.LBE355:
.LBE354:
	.loc 1 3511 0
	ldr	lr, .L84+4
.LBB359:
.LBB356:
	.loc 1 5385 0
	add	r0, r3, #456
.LVL35:
	ldr	r9, .L84+8
.LBE356:
.LBE359:
	.loc 1 3518 0
	ldr	r3, [r3, #480]
.LBB360:
.LBB357:
	.loc 1 5386 0
	ldrh	r8, [r0, #20]
	ldr	r7, .L84+12
.LBE357:
.LBE360:
	.loc 1 3518 0
	ldr	r6, .L84+16
	.loc 1 3517 0
	ldr	r5, .L84+20
	.loc 1 3512 0
	ldr	ip, .L84+24
.LBB361:
.LBB358:
	.loc 1 5385 0
	str	r0, [r9]
	.loc 1 5386 0
	strh	r8, [r7]	@ movhi
.LBE358:
.LBE361:
	.loc 1 3518 0
	str	r3, [r6]
	.loc 1 3511 0
	str	r1, [lr]
	.loc 1 3513 0
	str	r1, [lr, #52]
	.loc 1 3514 0
	str	r2, [lr, #8]
	.loc 1 3515 0
	str	r2, [lr, #12]
	.loc 1 3516 0
	str	r2, [lr, #16]
	.loc 1 3517 0
	str	r2, [r5]
	.loc 1 3512 0
	str	r4, [ip]
	.loc 1 3520 0
	b	.L81
.L82:
	mov	r2, r0
.L81:
	.loc 1 3520 0 is_stmt 0 discriminator 1
	ldr	r1, [r3, #4]
	mov	ip, r3
	tst	r1, #8192
	add	r3, r3, #36
	add	r0, r2, #1
	bne	.L82
	.loc 1 3521 0 is_stmt 1
	orr	r1, r1, #1
	str	r1, [ip, #4]
	str	r2, [lr, #20]
	ldmfd	sp!, {r4, r5, r6, r7, r8, r9, pc}
.L85:
	.align	2
.L84:
	.word	.LANCHOR0
	.word	.LANCHOR1
	.word	currentMenu
	.word	itemOn
	.word	current_setup_menu
	.word	mult_screens_index
	.word	setup_screen
	.cfi_endproc
.LFE84:
	.size	M_ChatStrings, .-M_ChatStrings
	.align	2
	.global	M_ExtHelp
	.type	M_ExtHelp, %function
M_ExtHelp:
.LFB91:
	.loc 1 3771 0
	.cfi_startproc
	@ args = 0, pretend = 0, frame = 0
	@ frame_needed = 0, uses_anonymous_args = 0
.LVL36:
	.loc 1 3773 0
	mov	r1, #1
.LBB362:
.LBB363:
	.loc 1 5385 0
	ldr	r3, .L88
.LBE363:
.LBE362:
	.loc 1 3771 0
	str	lr, [sp, #-4]!
	.cfi_def_cfa_offset 4
	.cfi_offset 14, -4
.LBB366:
.LBB364:
	.loc 1 5386 0
	ldrh	ip, [r3, #20]
	.loc 1 5385 0
	ldr	lr, .L88+4
	.loc 1 5386 0
	ldr	r0, .L88+8
.LBE364:
.LBE366:
	.loc 1 3773 0
	ldr	r2, .L88+12
.LBB367:
.LBB365:
	.loc 1 5385 0
	str	r3, [lr]
	.loc 1 5386 0
	strh	ip, [r0]	@ movhi
.LBE365:
.LBE367:
	.loc 1 3773 0
	str	r1, [r2]
.LVL37:
	ldr	pc, [sp], #4
.L89:
	.align	2
.L88:
	.word	.LANCHOR0+488
	.word	currentMenu
	.word	itemOn
	.word	extended_help_index
	.cfi_endproc
.LFE91:
	.size	M_ExtHelp, .-M_ExtHelp
	.align	2
	.type	M_DrawString, %function
M_DrawString:
.LFB94:
	.loc 1 3970 0
	.cfi_startproc
	@ args = 0, pretend = 0, frame = 0
	@ frame_needed = 0, uses_anonymous_args = 0
.LVL38:
	stmfd	sp!, {r4, r5, r6, r7, r8, r9, r10, fp, lr}
	.cfi_def_cfa_offset 36
	.cfi_offset 4, -36
	.cfi_offset 5, -32
	.cfi_offset 6, -28
	.cfi_offset 7, -24
	.cfi_offset 8, -20
	.cfi_offset 9, -16
	.cfi_offset 10, -12
	.cfi_offset 11, -8
	.cfi_offset 14, -4
	mov	r4, r0
	mov	r10, r1
	mov	r9, r2
.LBB368:
	.loc 1 3976 0
	ldr	r7, .L99
.LBE368:
	.loc 1 3982 0
	ldr	r8, .L99+4
	.loc 1 3990 0
	ldr	fp, .L99+8
	.loc 1 3970 0
	sub	sp, sp, #12
	.cfi_def_cfa_offset 48
	sub	r6, r3, #1
.LVL39:
.L91:
	.loc 1 3974 0
	ldrb	r3, [r6, #1]!	@ zero_extendqisi2
.LVL40:
	cmp	r3, #0
	beq	.L90
.LVL41:
.L96:
.LBB369:
	.loc 1 3976 0
	ldr	r2, [r7]
	add	r2, r2, r3
	ldrb	r2, [r2, #1]	@ zero_extendqisi2
	and	r2, r2, #3
	cmp	r2, #2
	subeq	r3, r3, #32
.LVL42:
.LBE369:
	sub	r3, r3, #33
.LVL43:
	.loc 1 3977 0
	cmp	r3, #95
	.loc 1 3982 0
	add	r2, r3, r3, asl #2
	.loc 1 3979 0
	addhi	r4, r4, #4
.LVL44:
	.loc 1 3977 0
	bhi	.L91
	.loc 1 3982 0
	ldr	r5, [r8, r2, asl #2]
.LVL45:
	add	r1, r8, r2, asl #2
	.loc 1 3983 0
	add	r3, r4, r5
.LVL46:
	cmp	r3, #320
	bgt	.L90
	.loc 1 3990 0
	mov	r2, #6
	ldr	r3, [r1, #16]
	str	r2, [sp, #4]
	str	r9, [sp]
	mov	r0, r4
	ldr	ip, [fp]
	mov	r1, r10
	mov	r2, #0
	blx	ip
.LVL47:
	.loc 1 3974 0
	ldrb	r3, [r6, #1]!	@ zero_extendqisi2
	.loc 1 3993 0
	sub	r5, r5, #1
.LVL48:
	.loc 1 3974 0
	cmp	r3, #0
	.loc 1 3993 0
	add	r4, r4, r5
.LVL49:
	.loc 1 3974 0
	bne	.L96
.LVL50:
.L90:
	.loc 1 3995 0
	add	sp, sp, #12
	.cfi_def_cfa_offset 36
	@ sp needed
	ldmfd	sp!, {r4, r5, r6, r7, r8, r9, r10, fp, pc}
.LVL51:
.L100:
	.align	2
.L99:
	.word	__ctype_ptr__
	.word	hu_font
	.word	V_DrawNumPatch
	.cfi_endproc
.LFE94:
	.size	M_DrawString, .-M_DrawString
	.align	2
	.type	M_GetPixelWidth, %function
M_GetPixelWidth:
.LFB96:
	.loc 1 4008 0
	.cfi_startproc
	@ args = 0, pretend = 0, frame = 0
	@ frame_needed = 0, uses_anonymous_args = 0
.LVL52:
.LBB370:
	.loc 1 4014 0
	ldr	r3, .L109
.LBE370:
	.loc 1 4008 0
	stmfd	sp!, {r4, lr}
	.cfi_def_cfa_offset 8
	.cfi_offset 4, -8
	.cfi_offset 14, -4
	sub	ip, r0, #1
.LBB371:
	.loc 1 4014 0
	ldr	lr, [r3]
.LBE371:
	.loc 1 4009 0
	mov	r1, #0
	.loc 1 4020 0
	ldr	r4, .L109+4
	.loc 1 4012 0
	b	.L102
.LVL53:
.L106:
.LBB372:
	.loc 1 4014 0
	ldrb	r2, [r2, #1]	@ zero_extendqisi2
	and	r2, r2, #3
	cmp	r2, #2
	subeq	r3, r3, #32
.LVL54:
.LBE372:
	sub	r3, r3, #33
.LVL55:
	.loc 1 4015 0
	cmp	r3, #95
	.loc 1 4020 0
	addls	r3, r3, r3, asl #2
.LVL56:
	ldrls	r0, [r4, r3, asl #2]
	.loc 1 4017 0
	addhi	r1, r1, #4
.LVL57:
	.loc 1 4020 0
	addls	r1, r1, r0
.LVL58:
	.loc 1 4021 0
	subls	r1, r1, #1
.LVL59:
.L102:
	.loc 1 4012 0
	ldrb	r3, [ip, #1]!	@ zero_extendqisi2
.LVL60:
	cmp	r3, #0
.LBB373:
	.loc 1 4014 0
	add	r2, lr, r3
.LBE373:
	.loc 1 4012 0
	bne	.L106
.LVL61:
	.loc 1 4025 0
	add	r0, r1, #1
.LVL62:
	ldmfd	sp!, {r4, pc}
.L110:
	.align	2
.L109:
	.word	__ctype_ptr__
	.word	hu_font
	.cfi_endproc
.LFE96:
	.size	M_GetPixelWidth, .-M_GetPixelWidth
	.align	2
	.global	M_DrawMainMenu
	.type	M_DrawMainMenu, %function
M_DrawMainMenu:
.LFB10:
	.loc 1 359 0
	.cfi_startproc
	@ args = 0, pretend = 0, frame = 0
	@ frame_needed = 0, uses_anonymous_args = 0
	stmfd	sp!, {r4, lr}
	.cfi_def_cfa_offset 8
	.cfi_offset 4, -8
	.cfi_offset 14, -4
	.loc 1 361 0
	ldr	r3, .L113
	.loc 1 359 0
	sub	sp, sp, #8
	.cfi_def_cfa_offset 16
	.loc 1 361 0
	ldr	r0, .L113+4
	ldr	r4, [r3]
	bl	W_GetNumForName
.LVL63:
	mov	r1, #6
	mov	r2, #4
	mov	r3, r0
	stmia	sp, {r1, r2}
	mov	r0, #94
	mov	r1, #2
	mov	r2, #0
	blx	r4
.LVL64:
	.loc 1 362 0
	add	sp, sp, #8
	.cfi_def_cfa_offset 8
	@ sp needed
	ldmfd	sp!, {r4, pc}
.L114:
	.align	2
.L113:
	.word	V_DrawNumPatch
	.word	.LC0
	.cfi_endproc
.LFE10:
	.size	M_DrawMainMenu, .-M_DrawMainMenu
	.align	2
	.global	M_DrawEpisode
	.type	M_DrawEpisode, %function
M_DrawEpisode:
.LFB17:
	.loc 1 538 0
	.cfi_startproc
	@ args = 0, pretend = 0, frame = 0
	@ frame_needed = 0, uses_anonymous_args = 0
	stmfd	sp!, {r4, lr}
	.cfi_def_cfa_offset 8
	.cfi_offset 4, -8
	.cfi_offset 14, -4
	.loc 1 540 0
	ldr	r3, .L117
	.loc 1 538 0
	sub	sp, sp, #8
	.cfi_def_cfa_offset 16
	.loc 1 540 0
	ldr	r0, .L117+4
	ldr	r4, [r3]
	bl	W_GetNumForName
.LVL65:
	mov	r1, #6
	mov	r2, #4
	mov	r3, r0
	stmia	sp, {r1, r2}
	mov	r0, #54
	mov	r1, #38
	mov	r2, #0
	blx	r4
.LVL66:
	.loc 1 541 0
	add	sp, sp, #8
	.cfi_def_cfa_offset 8
	@ sp needed
	ldmfd	sp!, {r4, pc}
.L118:
	.align	2
.L117:
	.word	V_DrawNumPatch
	.word	.LC1
	.cfi_endproc
.LFE17:
	.size	M_DrawEpisode, .-M_DrawEpisode
	.align	2
	.global	M_DrawNewGame
	.type	M_DrawNewGame, %function
M_DrawNewGame:
.LFB19:
	.loc 1 606 0
	.cfi_startproc
	@ args = 0, pretend = 0, frame = 0
	@ frame_needed = 0, uses_anonymous_args = 0
	stmfd	sp!, {r4, r5, r6, r7, lr}
	.cfi_def_cfa_offset 20
	.cfi_offset 4, -20
	.cfi_offset 5, -16
	.cfi_offset 6, -12
	.cfi_offset 7, -8
	.cfi_offset 14, -4
	.loc 1 608 0
	ldr	r6, .L121
	.loc 1 606 0
	sub	sp, sp, #12
	.cfi_def_cfa_offset 32
	.loc 1 608 0
	ldr	r0, .L121+4
	ldr	r7, [r6]
	mov	r5, #6
	bl	W_GetNumForName
.LVL67:
	mov	r4, #4
	mov	r3, r0
	mov	r1, #14
	mov	r2, #0
	str	r5, [sp]
	str	r4, [sp, #4]
	mov	r0, #96
	blx	r7
.LVL68:
	.loc 1 609 0
	ldr	r0, .L121+8
	ldr	r6, [r6]
	bl	W_GetNumForName
.LVL69:
	str	r5, [sp]
	mov	r3, r0
	str	r4, [sp, #4]
	mov	r0, #54
	mov	r1, #38
	mov	r2, #0
	blx	r6
.LVL70:
	.loc 1 610 0
	add	sp, sp, #12
	.cfi_def_cfa_offset 20
	@ sp needed
	ldmfd	sp!, {r4, r5, r6, r7, pc}
.L122:
	.align	2
.L121:
	.word	V_DrawNumPatch
	.word	.LC2
	.word	.LC3
	.cfi_endproc
.LFE19:
	.size	M_DrawNewGame, .-M_DrawNewGame
	.align	2
	.global	M_DrawExtHelp
	.type	M_DrawExtHelp, %function
M_DrawExtHelp:
.LFB92:
	.loc 1 3780 0
	.cfi_startproc
	@ args = 0, pretend = 0, frame = 16
	@ frame_needed = 0, uses_anonymous_args = 0
	stmfd	sp!, {r4, r5, lr}
	.cfi_def_cfa_offset 12
	.cfi_offset 4, -12
	.cfi_offset 5, -8
	.cfi_offset 14, -4
	.loc 1 3781 0
	mov	r4, #0
	.loc 1 3783 0
	mov	lr, #1
	.loc 1 3784 0
	ldr	r2, .L125
	ldr	r3, .L125+4
	ldr	r2, [r2]
	.loc 1 3781 0
	ldr	r1, .L125+8
	.loc 1 3784 0
	smull	r3, ip, r3, r2
	.loc 1 3781 0
	ldmia	r1, {r0, r1}
	.loc 1 3784 0
	mov	r3, r2, asr #31
	rsb	r3, r3, ip, asr #2
	.loc 1 3785 0
	add	ip, r3, r3, asl #2
	.loc 1 3780 0
	sub	sp, sp, #28
	.cfi_def_cfa_offset 40
	.loc 1 3785 0
	sub	r2, r2, ip, asl #1
	.loc 1 3783 0
	ldr	r5, .L125+12
	.loc 1 3787 0
	ldr	ip, .L125+16
	.loc 1 3785 0
	add	r2, r2, #48
	.loc 1 3784 0
	add	r3, r3, #48
	.loc 1 3781 0
	str	r0, [sp, #12]
	mov	r1, r1, lsr #16
	.loc 1 3787 0
	add	r0, sp, #12
	.loc 1 3785 0
	strb	r2, [sp, #17]
	.loc 1 3784 0
	strb	r3, [sp, #16]
	.loc 1 3781 0
	strb	r1, [sp, #18]
	.loc 1 3783 0
	str	lr, [r5]
	.loc 1 3781 0
	strb	r4, [sp, #19]
	.loc 1 3787 0
	ldr	r5, [ip]
	.loc 1 3781 0
	strb	r4, [sp, #20]
	strb	r4, [sp, #21]
	.loc 1 3787 0
	bl	W_GetNumForName
.LVL71:
	mov	lr, #6
	mov	ip, #4
	mov	r3, r0
	mov	r1, r4
	mov	r0, r4
	mov	r2, r4
	str	lr, [sp]
	str	ip, [sp, #4]
	blx	r5
.LVL72:
	.loc 1 3788 0
	add	sp, sp, #28
	.cfi_def_cfa_offset 12
	@ sp needed
	ldmfd	sp!, {r4, r5, pc}
.L126:
	.align	2
.L125:
	.word	extended_help_index
	.word	1717986919
	.word	.LANCHOR2
	.word	inhelpscreens
	.word	V_DrawNumPatch
	.cfi_endproc
.LFE92:
	.size	M_DrawExtHelp, .-M_DrawExtHelp
	.align	2
	.global	M_LoadSelect
	.type	M_LoadSelect, %function
M_LoadSelect:
.LFB26:
	.loc 1 758 0
	.cfi_startproc
	@ args = 0, pretend = 0, frame = 0
	@ frame_needed = 0, uses_anonymous_args = 0
.LVL73:
	stmfd	sp!, {r3, lr}
	.cfi_def_cfa_offset 8
	.cfi_offset 3, -8
	.cfi_offset 14, -4
	.loc 1 762 0
	mov	r1, #0
	bl	G_LoadGame
.LVL74:
.LBB374:
.LBB375:
	.loc 1 5372 0
	mov	r3, #0
	ldr	r0, .L129
	.loc 1 5373 0
	ldr	r1, .L129+4
	.loc 1 5374 0
	ldr	r2, .L129+8
	.loc 1 5372 0
	strb	r3, [r0]
	.loc 1 5373 0
	str	r3, [r1]
	.loc 1 5374 0
	str	r3, [r2, #12]
	ldmfd	sp!, {r3, pc}
.L130:
	.align	2
.L129:
	.word	menuactive
	.word	print_warning_about_changes
	.word	.LANCHOR1
.LBE375:
.LBE374:
	.cfi_endproc
.LFE26:
	.size	M_LoadSelect, .-M_LoadSelect
	.align	2
	.type	M_VerifyForcedLoadGame, %function
M_VerifyForcedLoadGame:
.LFB27:
	.loc 1 774 0
	.cfi_startproc
	@ args = 0, pretend = 0, frame = 0
	@ frame_needed = 0, uses_anonymous_args = 0
.LVL75:
	.loc 1 775 0
	cmp	r0, #121
	.loc 1 774 0
	stmfd	sp!, {r4, lr}
	.cfi_def_cfa_offset 8
	.cfi_offset 4, -8
	.cfi_offset 14, -4
	.loc 1 775 0
	beq	.L134
.LVL76:
.L132:
	.loc 1 777 0
	ldr	r4, .L135
	ldr	r0, [r4, #56]
	bl	Z_Free
.LVL77:
.LBB376:
.LBB377:
	.loc 1 5372 0
	mov	r3, #0
	ldr	r1, .L135+4
	.loc 1 5373 0
	ldr	r2, .L135+8
	.loc 1 5374 0
	str	r3, [r4, #12]
	.loc 1 5372 0
	strb	r3, [r1]
	.loc 1 5373 0
	str	r3, [r2]
	ldmfd	sp!, {r4, pc}
.LVL78:
.L134:
.LBE377:
.LBE376:
	.loc 1 776 0
	bl	G_ForcedLoadGame
.LVL79:
	b	.L132
.L136:
	.align	2
.L135:
	.word	.LANCHOR1
	.word	menuactive
	.word	print_warning_about_changes
	.cfi_endproc
.LFE27:
	.size	M_VerifyForcedLoadGame, .-M_VerifyForcedLoadGame
	.align	2
	.global	M_SaveSelect
	.type	M_SaveSelect, %function
M_SaveSelect:
.LFB33:
	.loc 1 909 0
	.cfi_startproc
	@ args = 0, pretend = 0, frame = 0
	@ frame_needed = 0, uses_anonymous_args = 0
.LVL80:
	mov	r3, r0
	.loc 1 911 0
	mov	ip, #1
	.loc 1 909 0
	stmfd	sp!, {r4, r5, r6, lr}
	.cfi_def_cfa_offset 16
	.cfi_offset 4, -16
	.cfi_offset 5, -12
	.cfi_offset 6, -8
	.cfi_offset 14, -4
	.loc 1 918 0
	add	r4, r0, r0, asl #1
	ldr	r6, .L140
	mov	r4, r4, asl #3
	.loc 1 917 0
	ldr	lr, .L140+4
	.loc 1 911 0
	ldr	r2, .L140+8
	.loc 1 918 0
	add	r5, r4, r6
	mov	r1, r5
	ldr	r0, .L140+12
.LVL81:
	.loc 1 917 0
	str	r3, [lr]
	.loc 1 911 0
	str	ip, [r2]
	.loc 1 918 0
	bl	strcpy
.LVL82:
	.loc 1 919 0
	ldr	r3, .L140+16
	mov	r0, r5
	ldr	r1, [r3]
	bl	strcmp
.LVL83:
	cmp	r0, #0
	.loc 1 920 0
	streqb	r0, [r6, r4]
	.loc 1 921 0
	mov	r0, r5
	bl	strlen
.LVL84:
	ldr	r3, .L140+20
	str	r0, [r3]
	ldmfd	sp!, {r4, r5, r6, pc}
.L141:
	.align	2
.L140:
	.word	savegamestrings
	.word	saveSlot
	.word	saveStringEnter
	.word	saveOldString
	.word	s_EMPTYSTRING
	.word	saveCharIndex
	.cfi_endproc
.LFE33:
	.size	M_SaveSelect, .-M_SaveSelect
	.global	__aeabi_uidivmod
	.align	2
	.global	M_QuitDOOM
	.type	M_QuitDOOM, %function
M_QuitDOOM:
.LFB38:
	.loc 1 1073 0
	.cfi_startproc
	@ args = 0, pretend = 0, frame = 0
	@ frame_needed = 0, uses_anonymous_args = 0
.LVL85:
	stmfd	sp!, {r3, r4, r5, r6, r7, lr}
	.cfi_def_cfa_offset 24
	.cfi_offset 3, -24
	.cfi_offset 4, -20
	.cfi_offset 5, -16
	.cfi_offset 6, -12
	.cfi_offset 7, -8
	.cfi_offset 14, -4
	.loc 1 1079 0
	ldr	r3, .L147
	ldrb	r3, [r3]	@ zero_extendqisi2
	cmp	r3, #0
	bne	.L146
	.loc 1 1082 0
	ldr	r2, .L147+4
	ldr	r3, .L147+8
	ldr	r1, [r2]
	ldr	r0, [r3]
.LVL86:
	sub	r1, r1, #1
	bl	__aeabi_uidivmod
.LVL87:
	ldr	r2, .L147+12
	ldr	r3, .L147+16
	add	r1, r1, #1
	ldr	r2, [r2, r1, asl #2]
	ldr	r3, [r3]
	ldr	r0, .L147+20
	ldr	r1, .L147+24
	bl	sprintf
.LVL88:
.L144:
.LBB378:
.LBB379:
	.loc 1 5410 0
	mov	r3, #1
	.loc 1 5409 0
	ldr	r1, .L147+28
	.loc 1 5411 0
	ldr	r2, .L147+32
	.loc 1 5409 0
	ldrb	r7, [r1]	@ zero_extendqisi2
	ldr	r6, .L147+36
	.loc 1 5410 0
	ldr	r5, .L147+40
	.loc 1 5413 0
	ldr	r4, .L147+44
	.loc 1 5412 0
	ldr	r0, .L147+48
	ldr	ip, .L147+52
	.loc 1 5411 0
	add	lr, r2, #60
	.loc 1 5409 0
	str	r7, [r6]
	.loc 1 5414 0
	strb	r3, [r1]
	.loc 1 5410 0
	str	r3, [r5]
	.loc 1 5413 0
	str	r3, [r4]
	.loc 1 5411 0
	str	lr, [r2, #220]
	.loc 1 5412 0
	str	ip, [r0]
	ldmfd	sp!, {r3, r4, r5, r6, r7, pc}
.LVL89:
.L146:
.LBE379:
.LBE378:
	.loc 1 1080 0
	ldr	r2, .L147+16
	ldr	r3, .L147+12
	ldr	r2, [r2]
	ldr	r3, [r3]
	ldr	r1, .L147+24
	ldr	r0, .L147+20
.LVL90:
	bl	sprintf
.LVL91:
	b	.L144
.L148:
	.align	2
.L147:
	.word	language
	.word	NUM_QUITMESSAGES
	.word	gametic
	.word	endmsg
	.word	s_DOSY
	.word	.LANCHOR1+60
	.word	.LC5
	.word	menuactive
	.word	.LANCHOR1
	.word	messageLastMenuActive
	.word	messageToPrint
	.word	messageNeedsInput
	.word	messageRoutine
	.word	M_QuitResponse
	.cfi_endproc
.LFE38:
	.size	M_QuitDOOM, .-M_QuitDOOM
	.align	2
	.global	M_SfxVol
	.type	M_SfxVol, %function
M_SfxVol:
.LFB41:
	.loc 1 1144 0
	.cfi_startproc
	@ args = 0, pretend = 0, frame = 0
	@ frame_needed = 0, uses_anonymous_args = 0
	@ link register save eliminated.
.LVL92:
	.loc 1 1145 0
	cmp	r0, #0
	.loc 1 1148 0
	ldr	r3, .L157
	.loc 1 1145 0
	beq	.L151
	cmp	r0, #1
	.loc 1 1152 0
	ldr	r0, [r3]
.LVL93:
	.loc 1 1145 0
	bne	.L153
	.loc 1 1152 0
	cmp	r0, #14
	.loc 1 1153 0
	addle	r0, r0, #1
	strle	r0, [r3]
.L153:
	.loc 1 1157 0
	b	S_SetSfxVolume
.LVL94:
.L151:
	.loc 1 1148 0
	ldr	r0, [r3]
.LVL95:
	cmp	r0, #0
	.loc 1 1149 0
	subne	r0, r0, #1
	strne	r0, [r3]
	.loc 1 1157 0
	b	S_SetSfxVolume
.LVL96:
.L158:
	.align	2
.L157:
	.word	snd_SfxVolume
	.cfi_endproc
.LFE41:
	.size	M_SfxVol, .-M_SfxVol
	.align	2
	.global	M_MusicVol
	.type	M_MusicVol, %function
M_MusicVol:
.LFB42:
	.loc 1 1161 0
	.cfi_startproc
	@ args = 0, pretend = 0, frame = 0
	@ frame_needed = 0, uses_anonymous_args = 0
	@ link register save eliminated.
.LVL97:
	.loc 1 1162 0
	cmp	r0, #0
	.loc 1 1165 0
	ldr	r3, .L167
	.loc 1 1162 0
	beq	.L161
	cmp	r0, #1
	.loc 1 1169 0
	ldr	r0, [r3]
.LVL98:
	.loc 1 1162 0
	bne	.L163
	.loc 1 1169 0
	cmp	r0, #14
	.loc 1 1170 0
	addle	r0, r0, #1
	strle	r0, [r3]
.L163:
	.loc 1 1174 0
	b	S_SetMusicVolume
.LVL99:
.L161:
	.loc 1 1165 0
	ldr	r0, [r3]
.LVL100:
	cmp	r0, #0
	.loc 1 1166 0
	subne	r0, r0, #1
	strne	r0, [r3]
	.loc 1 1174 0
	b	S_SetMusicVolume
.LVL101:
.L168:
	.align	2
.L167:
	.word	snd_MusicVolume
	.cfi_endproc
.LFE42:
	.size	M_MusicVol, .-M_MusicVol
	.align	2
	.type	M_DoSave, %function
M_DoSave:
.LFB32:
	.loc 1 894 0
	.cfi_startproc
	@ args = 0, pretend = 0, frame = 0
	@ frame_needed = 0, uses_anonymous_args = 0
.LVL102:
	stmfd	sp!, {r3, r4, r5, r6, r7, r8, r9, r10, fp, lr}
	.cfi_def_cfa_offset 40
	.cfi_offset 3, -40
	.cfi_offset 4, -36
	.cfi_offset 5, -32
	.cfi_offset 6, -28
	.cfi_offset 7, -24
	.cfi_offset 8, -20
	.cfi_offset 9, -16
	.cfi_offset 10, -12
	.cfi_offset 11, -8
	.cfi_offset 14, -4
.LBB380:
.LBB381:
	.loc 1 5410 0
	mov	r3, #1
	.loc 1 5412 0
	mov	r4, #0
.LBE381:
.LBE380:
	.loc 1 894 0
	mov	r5, r0
	.loc 1 895 0
	ldr	r2, .L172
.LBB385:
.LBB382:
	.loc 1 5409 0
	ldr	r6, .L172+4
.LBE382:
.LBE385:
	.loc 1 895 0
	ldr	ip, [r2]
.LVL103:
.LBB386:
.LBB383:
	.loc 1 5409 0
	ldrb	fp, [r6]	@ zero_extendqisi2
	.loc 1 5413 0
	ldr	lr, .L172+8
	.loc 1 5411 0
	ldr	r7, .L172+12
	.loc 1 5409 0
	ldr	r10, .L172+16
	.loc 1 5410 0
	ldr	r9, .L172+20
	.loc 1 5412 0
	ldr	r8, .L172+24
.LBE383:
.LBE386:
	.loc 1 896 0
	mov	r2, ip
	mov	r0, r3
.LVL104:
	ldr	r1, .L172+28
.LBB387:
.LBB384:
	.loc 1 5411 0
	str	ip, [r7, #220]
	.loc 1 5414 0
	strb	r3, [r6]
	.loc 1 5410 0
	str	r3, [r9]
	.loc 1 5413 0
	str	r4, [lr]
	.loc 1 5409 0
	str	fp, [r10]
	.loc 1 5412 0
	str	r4, [r8]
.LBE384:
.LBE387:
	.loc 1 896 0
	bl	lprintf
.LVL105:
	.loc 1 897 0
	ldr	r3, .L172+32
	add	r1, r5, r5, asl #1
	add	r1, r3, r1, asl #3
	mov	r0, r5
	bl	G_SaveGame
.LVL106:
	.loc 1 901 0
	ldr	r3, .L172+36
.LBB388:
.LBB389:
	.loc 1 5373 0
	ldr	r2, .L172+40
.LBE389:
.LBE388:
	.loc 1 901 0
	ldr	r1, [r3]
.LBB392:
.LBB390:
	.loc 1 5372 0
	strb	r4, [r6]
.LBE390:
.LBE392:
	.loc 1 901 0
	cmn	r1, #2
.LBB393:
.LBB391:
	.loc 1 5374 0
	str	r4, [r7, #12]
	.loc 1 5373 0
	str	r4, [r2]
.LBE391:
.LBE393:
	.loc 1 902 0
	streq	r5, [r3]
	ldmfd	sp!, {r3, r4, r5, r6, r7, r8, r9, r10, fp, pc}
.L173:
	.align	2
.L172:
	.word	s_SAVING
	.word	menuactive
	.word	messageNeedsInput
	.word	.LANCHOR1
	.word	messageLastMenuActive
	.word	messageToPrint
	.word	messageRoutine
	.word	.LC6
	.word	savegamestrings
	.word	quickSaveSlot
	.word	print_warning_about_changes
	.cfi_endproc
.LFE32:
	.size	M_DoSave, .-M_DoSave
	.align	2
	.global	M_SizeDisplay
	.type	M_SizeDisplay, %function
M_SizeDisplay:
.LFB55:
	.loc 1 1406 0
	.cfi_startproc
	@ args = 0, pretend = 0, frame = 0
	@ frame_needed = 0, uses_anonymous_args = 0
.LVL107:
	.loc 1 1407 0
	subs	r2, r0, #0
	beq	.L176
	cmp	r2, #1
	bne	.L183
	.loc 1 1416 0
	ldr	r2, .L186
	ldr	r3, [r2]
	cmp	r3, #7
	ble	.L185
	.loc 1 1421 0
	ldr	r2, .L186+4
	ldr	r1, .L186+8
	ldr	r3, [r2]
	ldr	r0, [r1]
.LVL108:
	clz	r3, r3
	mov	r3, r3, lsr #5
	str	r3, [r2]
	.loc 1 1424 0
	b	R_SetViewSize
.LVL109:
.L183:
	ldr	r3, .L186+8
	ldr	r0, [r3]
.LVL110:
	b	R_SetViewSize
.LVL111:
.L176:
	.loc 1 1409 0
	ldr	ip, .L186
	ldr	r1, [ip]
	cmp	r1, #0
	ble	.L183
	.loc 1 1406 0
	stmfd	sp!, {r4, lr}
	.cfi_def_cfa_offset 8
	.cfi_offset 4, -8
	.cfi_offset 14, -4
	.loc 1 1410 0
	ldr	lr, .L186+8
	.loc 1 1412 0
	ldr	r4, .L186+4
	.loc 1 1410 0
	ldr	r3, [lr]
	.loc 1 1411 0
	sub	r1, r1, #1
	.loc 1 1410 0
	sub	r0, r3, #1
.LVL112:
	str	r0, [lr]
	.loc 1 1412 0
	str	r2, [r4]
	.loc 1 1425 0
	ldmfd	sp!, {r4, lr}
	.cfi_restore 14
	.cfi_restore 4
	.cfi_def_cfa_offset 0
	.loc 1 1411 0
	str	r1, [ip]
	.loc 1 1424 0
	b	R_SetViewSize
.LVL113:
.L185:
	.loc 1 1417 0
	ldr	r1, .L186+8
	.loc 1 1418 0
	add	r3, r3, #1
	.loc 1 1417 0
	ldr	r0, [r1]
.LVL114:
	.loc 1 1418 0
	str	r3, [r2]
	.loc 1 1417 0
	add	r0, r0, #1
	str	r0, [r1]
	.loc 1 1424 0
	b	R_SetViewSize
.LVL115:
.L187:
	.align	2
.L186:
	.word	screenSize
	.word	hud_displayed
	.word	screenblocks
	.cfi_endproc
.LFE55:
	.size	M_SizeDisplay, .-M_SizeDisplay
	.align	2
	.global	M_Trans
	.type	M_Trans, %function
M_Trans:
.LFB75:
	.loc 1 3092 0
	.cfi_startproc
	@ args = 0, pretend = 0, frame = 0
	@ frame_needed = 0, uses_anonymous_args = 0
	@ link register save eliminated.
	.loc 1 3093 0
	ldr	r3, .L190
	ldr	r2, .L190+4
	ldr	r3, [r3]
	.loc 1 3095 0
	cmp	r3, #0
	.loc 1 3093 0
	str	r3, [r2]
	.loc 1 3095 0
	bxeq	lr
	.loc 1 3096 0
	mov	r0, #0
	b	R_InitTranMap
.LVL116:
.L191:
	.align	2
.L190:
	.word	default_translucency
	.word	general_translucency
	.cfi_endproc
.LFE75:
	.size	M_Trans, .-M_Trans
	.align	2
	.global	M_ChangeDemoSmoothTurns
	.type	M_ChangeDemoSmoothTurns, %function
M_ChangeDemoSmoothTurns:
.LFB77:
	.loc 1 3106 0
	.cfi_startproc
	@ args = 0, pretend = 0, frame = 0
	@ frame_needed = 0, uses_anonymous_args = 0
	@ link register save eliminated.
	.loc 1 3107 0
	ldr	r3, .L195
	.loc 1 3108 0
	ldr	r2, .L195+4
	.loc 1 3107 0
	ldr	r3, [r3]
	.loc 1 3112 0
	mov	r0, #0
	.loc 1 3107 0
	cmp	r3, #0
	.loc 1 3108 0
	ldr	r3, [r2, #948]
	bicne	r3, r3, #8192
	.loc 1 3110 0
	orreq	r3, r3, #8192
	.loc 1 3108 0
	bicne	r3, r3, #2
	.loc 1 3110 0
	orreq	r3, r3, #2
	str	r3, [r2, #948]
	.loc 1 3112 0
	b	R_SmoothPlaying_Reset
.LVL117:
.L196:
	.align	2
.L195:
	.word	demo_smoothturns
	.word	.LANCHOR0
	.cfi_endproc
.LFE77:
	.size	M_ChangeDemoSmoothTurns, .-M_ChangeDemoSmoothTurns
	.section	.text.unlikely,"ax",%progbits
	.align	2
	.type	M_UpdateCurrent.isra.0, %function
M_UpdateCurrent.isra.0:
.LFB118:
	.loc 1 111 0
	.cfi_startproc
	@ args = 0, pretend = 0, frame = 0
	@ frame_needed = 0, uses_anonymous_args = 0
	@ link register save eliminated.
.LVL118:
	.loc 1 114 0
	cmp	r1, #0
	bxeq	lr
.LBB394:
.LBB395:
	.loc 1 108 0
	ldr	r2, .L205
	ldr	r3, [r0]
	ldr	r2, [r2]
	cmp	r2, #0
	bne	.L199
	ldr	r2, .L205+4
	ldr	r2, [r2]
	cmp	r2, #0
	bne	.L199
	ldr	r2, .L205+8
	ldr	r2, [r2]
	cmp	r2, #0
.LBE395:
.LBE394:
	.loc 1 116 0
	streq	r3, [r1]
.LBB397:
.LBB396:
	.loc 1 108 0
	bxeq	lr
.L199:
.LBE396:
.LBE397:
	.loc 1 117 0
	ldr	r2, [r1]
	cmp	r2, r3
	bxeq	lr
	.loc 1 118 0
	mov	r0, #65536
	mov	r2, #2
	ldr	r1, .L205+12
	ldr	r3, .L205+16
	str	r0, [r1]
	str	r2, [r3]
	bx	lr
.L206:
	.align	2
.L205:
	.word	demoplayback
	.word	demorecording
	.word	netgame
	.word	warning_about_changes
	.word	print_warning_about_changes
	.cfi_endproc
.LFE118:
	.size	M_UpdateCurrent.isra.0, .-M_UpdateCurrent.isra.0
	.text
	.align	2
	.type	M_QuitResponse, %function
M_QuitResponse:
.LFB37:
	.loc 1 1047 0
	.cfi_startproc
	@ args = 0, pretend = 0, frame = 0
	@ frame_needed = 0, uses_anonymous_args = 0
.LVL119:
	.loc 1 1048 0
	cmp	r0, #121
	bxne	lr
.LVL120:
	.loc 1 1047 0
	stmfd	sp!, {r3, lr}
	.cfi_def_cfa_offset 8
	.cfi_offset 3, -8
	.cfi_offset 14, -4
.LBB401:
.LBB402:
	.loc 1 1050 0
	ldr	r3, .L222
	ldr	r3, [r3]
	cmp	r3, #0
	beq	.L209
	ldr	r3, .L222+4
	ldr	r3, [r3]
	cmp	r3, #0
	beq	.L210
.L209:
	.loc 1 1051 0
	ldr	r3, .L222+8
	ldr	r0, [r3]
.LVL121:
	cmp	r0, #0
	bne	.L210
	ldr	r3, .L222+12
	ldr	r3, [r3]
	cmp	r3, #0
	beq	.L210
.LBB403:
	.loc 1 1055 0
	ldr	r3, .L222+16
	.loc 1 1056 0
	ldr	r2, .L222+20
	.loc 1 1055 0
	ldrb	r3, [r3]	@ zero_extendqisi2
	.loc 1 1056 0
	ldr	r2, [r2]
	.loc 1 1055 0
	cmp	r3, #2
	.loc 1 1056 0
	ldr	r3, .L222+24
	and	r2, r2, #28
	add	r3, r3, r2
	ldreq	r1, [r3, #1124]
	.loc 1 1058 0
	ldrne	r1, [r3, #1156]
	bl	S_StartSound
.LVL122:
.L210:
.LBE403:
	.loc 1 1069 0
	mov	r0, #0
	bl	exit
.LVL123:
.L223:
	.align	2
.L222:
	.word	netgame
	.word	demoplayback
	.word	nosfxparm
	.word	snd_card
	.word	gamemode
	.word	gametic
	.word	.LANCHOR0
.LBE402:
.LBE401:
	.cfi_endproc
.LFE37:
	.size	M_QuitResponse, .-M_QuitResponse
	.align	2
	.type	M_SelectDone.isra.3, %function
M_SelectDone.isra.3:
.LFB121:
	.loc 1 3556 0
	.cfi_startproc
	@ args = 0, pretend = 0, frame = 0
	@ frame_needed = 0, uses_anonymous_args = 0
.LVL124:
	mov	r2, r0
	stmfd	sp!, {r3, lr}
	.cfi_def_cfa_offset 8
	.cfi_offset 3, -8
	.cfi_offset 14, -4
	.loc 1 3558 0
	ldr	r3, [r0]
	.loc 1 3560 0
	mov	r1, #32
	.loc 1 3558 0
	bic	r3, r3, #2
	.loc 1 3559 0
	orr	r3, r3, #1
	str	r3, [r2]
	.loc 1 3560 0
	mov	r0, #0
	bl	S_StartSound
.LVL125:
	.loc 1 3561 0
	mov	r1, #0
	.loc 1 3563 0
	ldr	r0, .L230
	.loc 1 3561 0
	ldr	r2, .L230+4
	.loc 1 3563 0
	ldr	r3, [r0]
	.loc 1 3561 0
	str	r1, [r2, #8]
	.loc 1 3563 0
	cmp	r3, r1
	.loc 1 3564 0
	subne	r3, r3, #1
	.loc 1 3562 0
	str	r1, [r2, #36]
	.loc 1 3564 0
	strne	r3, [r0]
	ldmfd	sp!, {r3, pc}
.L231:
	.align	2
.L230:
	.word	print_warning_about_changes
	.word	.LANCHOR1
	.cfi_endproc
.LFE121:
	.size	M_SelectDone.isra.3, .-M_SelectDone.isra.3
	.align	2
	.type	M_DrawDefVerify, %function
M_DrawDefVerify:
.LFB62:
	.loc 1 2024 0
	.cfi_startproc
	@ args = 0, pretend = 0, frame = 0
	@ frame_needed = 0, uses_anonymous_args = 0
	stmfd	sp!, {r4, r5, lr}
	.cfi_def_cfa_offset 12
	.cfi_offset 4, -12
	.cfi_offset 5, -8
	.cfi_offset 14, -4
	.loc 1 2026 0
	ldr	r3, .L236
	.loc 1 2024 0
	sub	sp, sp, #12
	.cfi_def_cfa_offset 24
	.loc 1 2026 0
	ldr	r0, .L236+4
	ldr	r5, [r3]
	mov	r4, #6
	bl	W_GetNumForName
.LVL126:
	mov	r2, #4
	mov	r3, r0
	str	r2, [sp, #4]
	str	r4, [sp]
	mov	r0, #66
	mov	r1, #88
	mov	r2, #0
	blx	r5
.LVL127:
	.loc 1 2030 0
	ldr	r3, .L236+8
	ldrsh	r3, [r3]
	cmp	r3, #0
	bne	.L235
	.loc 1 2034 0
	add	sp, sp, #12
	.cfi_remember_state
	.cfi_def_cfa_offset 12
	@ sp needed
	ldmfd	sp!, {r4, r5, pc}
.L235:
	.cfi_restore_state
.LBB408:
.LBB409:
	.loc 1 2031 0
	ldr	lr, .L236+12
	ldr	ip, .L236+16
	ldmia	lr!, {r0, r1, r2, r3}
	stmia	ip!, {r0, r1, r2, r3}
	ldmia	lr, {r0, r1, r2}
	stmia	ip, {r0, r1, r2}
.LVL128:
.LBB410:
.LBB411:
	.loc 1 4001 0
	mov	r2, r4
	mov	r0, #74
	mov	r1, #96
	sub	r3, ip, #16
.LBE411:
.LBE410:
.LBE409:
.LBE408:
	.loc 1 2034 0
	add	sp, sp, #12
	.cfi_def_cfa_offset 12
	@ sp needed
	ldmfd	sp!, {r4, r5, lr}
	.cfi_restore 14
	.cfi_restore 5
	.cfi_restore 4
	.cfi_def_cfa_offset 0
.LBB415:
.LBB414:
.LBB413:
.LBB412:
	.loc 1 4001 0
	b	M_DrawString
.LVL129:
.L237:
	.align	2
.L236:
	.word	V_DrawNumPatch
	.word	.LC7
	.word	whichSkull
	.word	.LC8
	.word	.LANCHOR1+224
.LBE412:
.LBE413:
.LBE414:
.LBE415:
	.cfi_endproc
.LFE62:
	.size	M_DrawDefVerify, .-M_DrawDefVerify
	.align	2
	.type	M_StartControlPanel.part.7, %function
M_StartControlPanel.part.7:
.LFB125:
	.loc 1 5261 0
	.cfi_startproc
	@ args = 0, pretend = 0, frame = 0
	@ frame_needed = 0, uses_anonymous_args = 0
	.loc 1 5277 0
	mov	r1, #0
	.loc 1 5278 0
	mov	ip, #1
	.loc 1 5275 0
	ldr	r2, .L240
	ldr	r3, .L240+4
	ldr	r2, [r2]
	.loc 1 5261 0
	stmfd	sp!, {r4, r5, r6, r7, r8, lr}
	.cfi_def_cfa_offset 24
	.cfi_offset 4, -24
	.cfi_offset 5, -20
	.cfi_offset 6, -16
	.cfi_offset 7, -12
	.cfi_offset 8, -8
	.cfi_offset 14, -4
	.loc 1 5278 0
	ldr	r0, .L240+8
	.loc 1 5280 0
	ldrh	r6, [r3, #68]
	.loc 1 5279 0
	ldr	r7, .L240+12
	.loc 1 5280 0
	ldr	r5, .L240+16
	.loc 1 5277 0
	ldr	r4, .L240+20
	.loc 1 5281 0
	ldr	lr, .L240+24
	.loc 1 5275 0
	add	r8, r3, #1184
	sub	r2, r2, #1
	.loc 1 5279 0
	add	r3, r3, #48
	.loc 1 5275 0
	strh	r2, [r8, #24]	@ movhi
	.loc 1 5279 0
	str	r3, [r7]
	.loc 1 5280 0
	strh	r6, [r5]	@ movhi
	.loc 1 5277 0
	str	r1, [r4, #12]
	.loc 1 5281 0
	str	r1, [lr]
	.loc 1 5278 0
	strb	ip, [r0]
	ldmfd	sp!, {r4, r5, r6, r7, r8, pc}
.L241:
	.align	2
.L240:
	.word	defaultskill
	.word	.LANCHOR0
	.word	menuactive
	.word	currentMenu
	.word	itemOn
	.word	.LANCHOR1
	.word	print_warning_about_changes
	.cfi_endproc
.LFE125:
	.size	M_StartControlPanel.part.7, .-M_StartControlPanel.part.7
	.align	2
	.type	M_RestartLevelResponse, %function
M_RestartLevelResponse:
.LFB20:
	.loc 1 614 0
	.cfi_startproc
	@ args = 0, pretend = 0, frame = 0
	@ frame_needed = 0, uses_anonymous_args = 0
.LVL130:
	.loc 1 615 0
	cmp	r0, #121
	bxne	lr
	.loc 1 614 0
	stmfd	sp!, {r3, lr}
	.cfi_def_cfa_offset 8
	.cfi_offset 3, -8
	.cfi_offset 14, -4
	.loc 1 618 0
	ldr	r3, .L247
	ldr	r3, [r3]
	cmp	r3, #0
	bne	.L246
.LVL131:
.LBB420:
.LBB421:
	.loc 1 621 0
	ldr	r1, .L247+4
	ldr	r2, .L247+8
	ldr	ip, [r1]
	ldrh	lr, [r2]
.LBB422:
.LBB423:
	.loc 1 5372 0
	ldr	r0, .L247+12
.LVL132:
	.loc 1 5373 0
	ldr	r1, .L247+16
	.loc 1 5374 0
	ldr	r2, .L247+20
.LBE423:
.LBE422:
	.loc 1 621 0
	strh	lr, [ip, #20]	@ movhi
.LBB425:
.LBB424:
	.loc 1 5372 0
	strb	r3, [r0]
	.loc 1 5373 0
	str	r3, [r1]
	.loc 1 5374 0
	str	r3, [r2, #12]
.LBE424:
.LBE425:
.LBE421:
.LBE420:
	.loc 1 624 0
	ldmfd	sp!, {r3, lr}
	.cfi_remember_state
	.cfi_restore 14
	.cfi_restore 3
	.cfi_def_cfa_offset 0
.LBB427:
.LBB426:
	.loc 1 623 0
	b	G_RestartLevel
.LVL133:
.L246:
	.cfi_restore_state
.LBE426:
.LBE427:
	.loc 1 619 0
	mov	r0, #0
.LVL134:
	bl	exit
.LVL135:
.L248:
	.align	2
.L247:
	.word	demorecording
	.word	currentMenu
	.word	itemOn
	.word	menuactive
	.word	print_warning_about_changes
	.word	.LANCHOR1
	.cfi_endproc
.LFE20:
	.size	M_RestartLevelResponse, .-M_RestartLevelResponse
	.align	2
	.type	M_VerifyNightmare, %function
M_VerifyNightmare:
.LFB22:
	.loc 1 651 0
	.cfi_startproc
	@ args = 0, pretend = 0, frame = 0
	@ frame_needed = 0, uses_anonymous_args = 0
.LVL136:
	.loc 1 652 0
	cmp	r0, #121
	bxne	lr
.LVL137:
.LBB432:
.LBB433:
	.loc 1 655 0
	mov	r2, #1
.LBE433:
.LBE432:
	.loc 1 651 0
	stmfd	sp!, {r3, lr}
	.cfi_def_cfa_offset 8
	.cfi_offset 3, -8
	.cfi_offset 14, -4
.LBB437:
.LBB436:
	.loc 1 655 0
	ldr	r3, .L253
	mov	r0, #4
.LVL138:
	ldr	r1, [r3]
	add	r1, r1, r2
	bl	G_DeferedInitNew
.LVL139:
.LBB434:
.LBB435:
	.loc 1 5372 0
	mov	r3, #0
	ldr	r0, .L253+4
	.loc 1 5373 0
	ldr	r1, .L253+8
	.loc 1 5374 0
	ldr	r2, .L253+12
	.loc 1 5372 0
	strb	r3, [r0]
	.loc 1 5373 0
	str	r3, [r1]
	.loc 1 5374 0
	str	r3, [r2, #12]
	ldmfd	sp!, {r3, pc}
.L254:
	.align	2
.L253:
	.word	epi
	.word	menuactive
	.word	print_warning_about_changes
	.word	.LANCHOR1
.LBE435:
.LBE434:
.LBE436:
.LBE437:
	.cfi_endproc
.LFE22:
	.size	M_VerifyNightmare, .-M_VerifyNightmare
	.align	2
	.type	M_QuickLoadResponse, %function
M_QuickLoadResponse:
.LFB50:
	.loc 1 1322 0
	.cfi_startproc
	@ args = 0, pretend = 0, frame = 0
	@ frame_needed = 0, uses_anonymous_args = 0
.LVL140:
	.loc 1 1323 0
	cmp	r0, #121
	bxne	lr
.LVL141:
	.loc 1 1322 0
	stmfd	sp!, {r3, lr}
	.cfi_def_cfa_offset 8
	.cfi_offset 3, -8
	.cfi_offset 14, -4
.LBB444:
.LBB445:
	.loc 1 1324 0
	ldr	r3, .L258
.LBB446:
.LBB447:
	.loc 1 762 0
	mov	r1, #0
	ldr	r0, [r3]
.LVL142:
	bl	G_LoadGame
.LVL143:
.LBB448:
.LBB449:
	.loc 1 5372 0
	mov	r3, #0
	ldr	lr, .L258+4
	.loc 1 5373 0
	ldr	ip, .L258+8
	.loc 1 5374 0
	ldr	r2, .L258+12
.LBE449:
.LBE448:
.LBE447:
.LBE446:
	.loc 1 1325 0
	mov	r0, r3
.LBB453:
.LBB452:
.LBB451:
.LBB450:
	.loc 1 5372 0
	strb	r3, [lr]
	.loc 1 5373 0
	str	r3, [ip]
	.loc 1 5374 0
	str	r3, [r2, #12]
.LBE450:
.LBE451:
.LBE452:
.LBE453:
	.loc 1 1325 0
	mov	r1, #24
.LBE445:
.LBE444:
	.loc 1 1327 0
	ldmfd	sp!, {r3, lr}
	.cfi_restore 14
	.cfi_restore 3
	.cfi_def_cfa_offset 0
.LBB455:
.LBB454:
	.loc 1 1325 0
	b	S_StartSound
.LVL144:
.L259:
	.align	2
.L258:
	.word	quickSaveSlot
	.word	menuactive
	.word	print_warning_about_changes
	.word	.LANCHOR1
.LBE454:
.LBE455:
	.cfi_endproc
.LFE50:
	.size	M_QuickLoadResponse, .-M_QuickLoadResponse
	.align	2
	.type	M_EndGameResponse, %function
M_EndGameResponse:
.LFB52:
	.loc 1 1354 0
	.cfi_startproc
	@ args = 0, pretend = 0, frame = 0
	@ frame_needed = 0, uses_anonymous_args = 0
.LVL145:
	.loc 1 1355 0
	cmp	r0, #121
	bxne	lr
.LVL146:
	.loc 1 1354 0
	stmfd	sp!, {r3, lr}
	.cfi_def_cfa_offset 8
	.cfi_offset 3, -8
	.cfi_offset 14, -4
.LBB460:
.LBB461:
	.loc 1 1359 0
	ldr	r3, .L268
	ldr	r3, [r3]
	cmp	r3, #0
	bne	.L262
	ldr	r3, .L268+4
	ldr	r3, [r3]
	cmp	r3, #0
	beq	.L263
.L262:
	.loc 1 1360 0
	bl	G_CheckDemoStatus
.LVL147:
.L263:
.LBB462:
.LBB463:
	.loc 1 5372 0
	mov	r3, #0
.LBE463:
.LBE462:
	.loc 1 1362 0
	ldr	r1, .L268+8
	ldr	r2, .L268+12
	ldr	ip, [r1]
	ldrh	lr, [r2]
.LBB466:
.LBB464:
	.loc 1 5372 0
	ldr	r0, .L268+16
	.loc 1 5373 0
	ldr	r1, .L268+20
	.loc 1 5374 0
	ldr	r2, .L268+24
.LBE464:
.LBE466:
	.loc 1 1362 0
	strh	lr, [ip, #20]	@ movhi
.LBB467:
.LBB465:
	.loc 1 5372 0
	strb	r3, [r0]
	.loc 1 5373 0
	str	r3, [r1]
	.loc 1 5374 0
	str	r3, [r2, #12]
.LBE465:
.LBE467:
.LBE461:
.LBE460:
	.loc 1 1365 0
	ldmfd	sp!, {r3, lr}
	.cfi_restore 14
	.cfi_restore 3
	.cfi_def_cfa_offset 0
.LBB469:
.LBB468:
	.loc 1 1364 0
	b	D_StartTitle
.LVL148:
.L269:
	.align	2
.L268:
	.word	demorecording
	.word	singledemo
	.word	currentMenu
	.word	itemOn
	.word	menuactive
	.word	print_warning_about_changes
	.word	.LANCHOR1
.LBE468:
.LBE469:
	.cfi_endproc
.LFE52:
	.size	M_EndGameResponse, .-M_EndGameResponse
	.align	2
	.global	M_ExtHelpNextScreen
	.type	M_ExtHelpNextScreen, %function
M_ExtHelpNextScreen:
.LFB89:
	.loc 1 3724 0
	.cfi_startproc
	@ args = 0, pretend = 0, frame = 0
	@ frame_needed = 0, uses_anonymous_args = 0
.LVL149:
	.loc 1 3726 0
	ldr	r2, .L274
	ldr	r1, .L274+4
	ldr	r3, [r2]
	ldr	r1, [r1]
	add	r3, r3, #1
	cmp	r3, r1
	str	r3, [r2]
	bxle	lr
.LVL150:
.LBB474:
.LBB475:
	.loc 1 3731 0
	mov	r1, #1
.LBB476:
.LBB477:
	.loc 1 5385 0
	ldr	r3, .L274+8
.LBE477:
.LBE476:
.LBE475:
.LBE474:
	.loc 1 3724 0
	str	lr, [sp, #-4]!
	.cfi_def_cfa_offset 4
	.cfi_offset 14, -4
.LBB481:
.LBB480:
.LBB479:
.LBB478:
	.loc 1 5386 0
	ldrh	ip, [r3, #68]
	.loc 1 5385 0
	ldr	lr, .L274+12
	.loc 1 5386 0
	ldr	r0, .L274+16
.LVL151:
	.loc 1 5385 0
	add	r3, r3, #48
	str	r3, [lr]
	.loc 1 5386 0
	strh	ip, [r0]	@ movhi
.LBE478:
.LBE479:
	.loc 1 3731 0
	str	r1, [r2]
.LVL152:
	ldr	pc, [sp], #4
.L275:
	.align	2
.L274:
	.word	extended_help_index
	.word	extended_help_count
	.word	.LANCHOR0
	.word	currentMenu
	.word	itemOn
.LBE480:
.LBE481:
	.cfi_endproc
.LFE89:
	.size	M_ExtHelpNextScreen, .-M_ExtHelpNextScreen
	.align	2
	.global	M_Episode
	.type	M_Episode, %function
M_Episode:
.LFB18:
	.loc 1 544 0
	.cfi_startproc
	@ args = 0, pretend = 0, frame = 0
	@ frame_needed = 0, uses_anonymous_args = 0
.LVL153:
	stmfd	sp!, {r3, r4, r5, r6, r7, r8, r9, r10, fp, lr}
	.cfi_def_cfa_offset 40
	.cfi_offset 3, -40
	.cfi_offset 4, -36
	.cfi_offset 5, -32
	.cfi_offset 6, -28
	.cfi_offset 7, -24
	.cfi_offset 8, -20
	.cfi_offset 9, -16
	.cfi_offset 10, -12
	.cfi_offset 11, -8
	.cfi_offset 14, -4
	.loc 1 545 0
	ldr	r3, .L289
	ldrb	r3, [r3]	@ zero_extendqisi2
	cmp	r3, #0
	beq	.L287
	.loc 1 552 0 discriminator 1
	cmp	r0, #2
	movle	r2, #0
	movgt	r2, #1
	cmp	r3, #1
	movne	r2, #0
	cmp	r2, #0
	bne	.L288
.LVL154:
.L278:
.LBB492:
.LBB493:
	.loc 1 5385 0
	ldr	r3, .L289+4
	ldr	lr, .L289+8
	.loc 1 5386 0
	ldrh	ip, [r3, #20]
	ldr	r1, .L289+12
.LBE493:
.LBE492:
	.loc 1 559 0
	ldr	r2, .L289+16
.LBB495:
.LBB494:
	.loc 1 5385 0
	str	r3, [lr]
	.loc 1 5386 0
	strh	ip, [r1]	@ movhi
.LBE494:
.LBE495:
	.loc 1 559 0
	str	r0, [r2]
.LVL155:
	ldmfd	sp!, {r3, r4, r5, r6, r7, r8, r9, r10, fp, pc}
.LVL156:
.L287:
	.loc 1 545 0 discriminator 1
	cmp	r0, #0
	beq	.L278
.LVL157:
.LBB496:
.LBB497:
.LBB498:
.LBB499:
	.loc 1 5410 0
	mov	r1, #1
.LBE499:
.LBE498:
	.loc 1 546 0
	ldr	ip, .L289+20
.LBB504:
.LBB500:
	.loc 1 5409 0
	ldr	r0, .L289+24
.LVL158:
.LBE500:
.LBE504:
.LBB505:
.LBB506:
	.loc 1 5385 0
	ldr	r2, .L289+28
.LBE506:
.LBE505:
	.loc 1 546 0
	ldr	fp, [ip]
.LVL159:
.LBB509:
.LBB501:
	.loc 1 5409 0
	ldrb	r9, [r0]	@ zero_extendqisi2
	.loc 1 5411 0
	ldr	r10, .L289+32
	.loc 1 5409 0
	ldr	r8, .L289+36
	.loc 1 5410 0
	ldr	r7, .L289+40
.LBE501:
.LBE509:
.LBB510:
.LBB507:
	.loc 1 5385 0
	ldr	r6, .L289+8
	.loc 1 5386 0
	ldrh	r5, [r2, #20]
	ldr	r4, .L289+12
.LBE507:
.LBE510:
.LBB511:
.LBB502:
	.loc 1 5412 0
	ldr	lr, .L289+44
	.loc 1 5413 0
	ldr	ip, .L289+48
	.loc 1 5411 0
	str	fp, [r10, #220]
	.loc 1 5409 0
	str	r9, [r8]
	.loc 1 5414 0
	strb	r1, [r0]
.LVL160:
	.loc 1 5410 0
	str	r1, [r7]
.LBE502:
.LBE511:
.LBB512:
.LBB508:
	.loc 1 5385 0
	str	r2, [r6]
	.loc 1 5386 0
	strh	r5, [r4]	@ movhi
.LBE508:
.LBE512:
.LBB513:
.LBB503:
	.loc 1 5412 0
	str	r3, [lr]
	.loc 1 5413 0
	str	r3, [ip]
	ldmfd	sp!, {r3, r4, r5, r6, r7, r8, r9, r10, fp, pc}
.LVL161:
.L288:
.LBE503:
.LBE513:
.LBE497:
.LBE496:
	.loc 1 554 0
	mov	r0, #4
.LVL162:
	ldr	r1, .L289+52
	bl	lprintf
.LVL163:
	.loc 1 556 0
	mov	r0, #0
	b	.L278
.L290:
	.align	2
.L289:
	.word	gamemode
	.word	.LANCHOR0+1188
	.word	currentMenu
	.word	itemOn
	.word	epi
	.word	s_SWSTRING
	.word	menuactive
	.word	.LANCHOR0
	.word	.LANCHOR1
	.word	messageLastMenuActive
	.word	messageToPrint
	.word	messageRoutine
	.word	messageNeedsInput
	.word	.LC9
	.cfi_endproc
.LFE18:
	.size	M_Episode, .-M_Episode
	.align	2
	.global	M_NewGame
	.type	M_NewGame, %function
M_NewGame:
.LFB21:
	.loc 1 627 0
	.cfi_startproc
	@ args = 0, pretend = 0, frame = 0
	@ frame_needed = 0, uses_anonymous_args = 0
.LVL164:
	.loc 1 628 0
	ldr	r3, .L303
	.loc 1 627 0
	stmfd	sp!, {r4, r5, r6, r7, lr}
	.cfi_def_cfa_offset 20
	.cfi_offset 4, -20
	.cfi_offset 5, -16
	.cfi_offset 6, -12
	.cfi_offset 7, -8
	.cfi_offset 14, -4
	.loc 1 628 0
	ldr	r3, [r3]
	cmp	r3, #0
	beq	.L292
	.loc 1 628 0 is_stmt 0 discriminator 1
	ldr	r3, .L303+4
	ldr	r3, [r3]
	cmp	r3, #0
	bne	.L292
	.loc 1 629 0 is_stmt 1
	ldr	r2, .L303+8
	ldrb	r2, [r2]	@ zero_extendqisi2
	cmp	r2, #9
	bhi	.L293
.LVL165:
.LBB534:
.LBB535:
.LBB536:
.LBB537:
	.loc 1 5410 0
	mov	r2, #1
.LBE537:
.LBE536:
	.loc 1 630 0
	ldr	r0, .L303+12
.LVL166:
.LBB540:
.LBB538:
	.loc 1 5409 0
	ldr	r1, .L303+16
.LBE538:
.LBE540:
	.loc 1 630 0
	ldr	r7, [r0]
.LVL167:
.LBB541:
.LBB539:
	.loc 1 5409 0
	ldrb	r5, [r1]	@ zero_extendqisi2
	.loc 1 5411 0
	ldr	r6, .L303+20
	.loc 1 5409 0
	ldr	r4, .L303+24
	.loc 1 5410 0
	ldr	lr, .L303+28
	.loc 1 5412 0
	ldr	ip, .L303+32
	.loc 1 5413 0
	ldr	r0, .L303+36
	.loc 1 5411 0
	str	r7, [r6, #220]
	.loc 1 5409 0
	str	r5, [r4]
	.loc 1 5414 0
	strb	r2, [r1]
	.loc 1 5410 0
	str	r2, [lr]
	.loc 1 5412 0
	str	r3, [ip]
	.loc 1 5413 0
	str	r3, [r0]
	ldmfd	sp!, {r4, r5, r6, r7, pc}
.LVL168:
.L292:
.LBE539:
.LBE541:
.LBE535:
.LBE534:
	.loc 1 636 0
	ldr	r3, .L303+40
	ldr	r3, [r3]
	cmp	r3, #0
	bne	.L302
	.loc 1 643 0
	ldr	r3, .L303+44
.LBB542:
.LBB543:
	.loc 1 5385 0
	ldr	r0, .L303+48
.LVL169:
.LBE543:
.LBE542:
	.loc 1 643 0
	ldrb	r3, [r3]	@ zero_extendqisi2
.LBB546:
.LBB544:
	.loc 1 5386 0
	ldr	r2, .L303+52
.LBE544:
.LBE546:
	.loc 1 643 0
	cmp	r3, #2
.LVL170:
.LBB547:
.LBB548:
	.loc 1 5385 0
	ldreq	r3, .L303+56
.LVL171:
.LBE548:
.LBE547:
.LBB549:
.LBB545:
	ldrne	r3, .L303+60
	.loc 1 5386 0
	ldrh	r1, [r3, #20]
	.loc 1 5385 0
	str	r3, [r0]
	.loc 1 5386 0
	strh	r1, [r2]	@ movhi
	ldmfd	sp!, {r4, r5, r6, r7, pc}
.LVL172:
.L302:
.LBE545:
.LBE549:
.LBB550:
.LBB551:
	.loc 1 5410 0
	mov	r2, #1
	.loc 1 5412 0
	mov	r3, #0
	.loc 1 5409 0
	ldr	r1, .L303+16
	ldr	r6, .L303+24
	ldrb	r7, [r1]	@ zero_extendqisi2
	.loc 1 5410 0
	ldr	r5, .L303+28
	.loc 1 5412 0
	ldr	r4, .L303+32
	.loc 1 5413 0
	ldr	lr, .L303+36
	.loc 1 5411 0
	ldr	r0, .L303+20
.LVL173:
	ldr	ip, .L303+64
	.loc 1 5409 0
	str	r7, [r6]
	.loc 1 5414 0
	strb	r2, [r1]
	.loc 1 5410 0
	str	r2, [r5]
	.loc 1 5412 0
	str	r3, [r4]
	.loc 1 5413 0
	str	r3, [lr]
	.loc 1 5411 0
	str	ip, [r0, #220]
	ldmfd	sp!, {r4, r5, r6, r7, pc}
.LVL174:
.L293:
.LBE551:
.LBE550:
.LBB552:
.LBB553:
	.loc 1 5410 0
	mov	r3, #1
.LBE553:
.LBE552:
	.loc 1 632 0
	ldr	r1, .L303+68
.LBB556:
.LBB554:
	.loc 1 5409 0
	ldr	r2, .L303+16
.LBE554:
.LBE556:
	.loc 1 632 0
	ldr	r7, [r1]
.LVL175:
.LBB557:
.LBB555:
	.loc 1 5409 0
	ldrb	r5, [r2]	@ zero_extendqisi2
	.loc 1 5411 0
	ldr	r6, .L303+20
	.loc 1 5409 0
	ldr	r4, .L303+24
	.loc 1 5410 0
	ldr	lr, .L303+28
	.loc 1 5413 0
	ldr	ip, .L303+36
	.loc 1 5412 0
	ldr	r1, .L303+32
	ldr	r0, .L303+72
.LVL176:
	.loc 1 5411 0
	str	r7, [r6, #220]
	.loc 1 5409 0
	str	r5, [r4]
	.loc 1 5414 0
	strb	r3, [r2]
	.loc 1 5410 0
	str	r3, [lr]
	.loc 1 5413 0
	str	r3, [ip]
	.loc 1 5412 0
	str	r0, [r1]
	ldmfd	sp!, {r4, r5, r6, r7, pc}
.L304:
	.align	2
.L303:
	.word	netgame
	.word	demoplayback
	.word	compatibility_level
	.word	s_NEWGAME
	.word	menuactive
	.word	.LANCHOR1
	.word	messageLastMenuActive
	.word	messageToPrint
	.word	messageRoutine
	.word	messageNeedsInput
	.word	demorecording
	.word	gamemode
	.word	currentMenu
	.word	itemOn
	.word	.LANCHOR0+1188
	.word	.LANCHOR0+1212
	.word	.LC10
	.word	s_RESTARTLEVEL
	.word	M_RestartLevelResponse
.LBE555:
.LBE557:
	.cfi_endproc
.LFE21:
	.size	M_NewGame, .-M_NewGame
	.align	2
	.global	M_ChooseSkill
	.type	M_ChooseSkill, %function
M_ChooseSkill:
.LFB23:
	.loc 1 660 0
	.cfi_startproc
	@ args = 0, pretend = 0, frame = 0
	@ frame_needed = 0, uses_anonymous_args = 0
.LVL177:
	.loc 1 661 0
	cmp	r0, #4
	.loc 1 660 0
	stmfd	sp!, {r3, r4, r5, r6, r7, lr}
	.cfi_def_cfa_offset 24
	.cfi_offset 3, -24
	.cfi_offset 4, -20
	.cfi_offset 5, -16
	.cfi_offset 6, -12
	.cfi_offset 7, -8
	.cfi_offset 14, -4
	.loc 1 661 0
	beq	.L309
	.loc 1 667 0
	mov	r2, #1
	ldr	r3, .L310
	sxtb	r0, r0
.LVL178:
	ldr	r1, [r3]
	add	r1, r1, r2
	bl	G_DeferedInitNew
.LVL179:
.LBB566:
.LBB567:
	.loc 1 5372 0
	mov	r3, #0
	ldr	r0, .L310+4
	.loc 1 5373 0
	ldr	r1, .L310+8
	.loc 1 5374 0
	ldr	r2, .L310+12
	.loc 1 5372 0
	strb	r3, [r0]
	.loc 1 5373 0
	str	r3, [r1]
	.loc 1 5374 0
	str	r3, [r2, #12]
	ldmfd	sp!, {r3, r4, r5, r6, r7, pc}
.LVL180:
.L309:
.LBE567:
.LBE566:
.LBB568:
.LBB569:
.LBB570:
.LBB571:
	.loc 1 5410 0
	mov	r3, #1
.LBE571:
.LBE570:
	.loc 1 663 0
	ldr	r1, .L310+16
.LBB574:
.LBB572:
	.loc 1 5409 0
	ldr	r2, .L310+4
.LBE572:
.LBE574:
	.loc 1 663 0
	ldr	r7, [r1]
.LVL181:
.LBB575:
.LBB573:
	.loc 1 5409 0
	ldrb	r5, [r2]	@ zero_extendqisi2
	.loc 1 5411 0
	ldr	r6, .L310+12
	.loc 1 5409 0
	ldr	r4, .L310+20
	.loc 1 5410 0
	ldr	lr, .L310+24
	.loc 1 5413 0
	ldr	ip, .L310+28
	.loc 1 5412 0
	ldr	r1, .L310+32
	ldr	r0, .L310+36
.LVL182:
	.loc 1 5411 0
	str	r7, [r6, #220]
	.loc 1 5409 0
	str	r5, [r4]
	.loc 1 5414 0
	strb	r3, [r2]
	.loc 1 5410 0
	str	r3, [lr]
	.loc 1 5413 0
	str	r3, [ip]
	.loc 1 5412 0
	str	r0, [r1]
	ldmfd	sp!, {r3, r4, r5, r6, r7, pc}
.L311:
	.align	2
.L310:
	.word	epi
	.word	menuactive
	.word	print_warning_about_changes
	.word	.LANCHOR1
	.word	s_NIGHTMARE
	.word	messageLastMenuActive
	.word	messageToPrint
	.word	messageNeedsInput
	.word	messageRoutine
	.word	M_VerifyNightmare
.LBE573:
.LBE575:
.LBE569:
.LBE568:
	.cfi_endproc
.LFE23:
	.size	M_ChooseSkill, .-M_ChooseSkill
	.align	2
	.type	M_QuickSaveResponse, %function
M_QuickSaveResponse:
.LFB48:
	.loc 1 1288 0
	.cfi_startproc
	@ args = 0, pretend = 0, frame = 0
	@ frame_needed = 0, uses_anonymous_args = 0
.LVL183:
	.loc 1 1289 0
	cmp	r0, #121
	bxne	lr
.LVL184:
	.loc 1 1288 0
	stmfd	sp!, {r3, lr}
	.cfi_def_cfa_offset 8
	.cfi_offset 3, -8
	.cfi_offset 14, -4
.LBB578:
.LBB579:
	.loc 1 1290 0
	ldr	r3, .L315
	ldr	r0, [r3]
.LVL185:
	bl	M_DoSave
.LVL186:
.LBE579:
.LBE578:
	.loc 1 1293 0
	ldmfd	sp!, {r3, lr}
	.cfi_restore 14
	.cfi_restore 3
	.cfi_def_cfa_offset 0
.LBB581:
.LBB580:
	.loc 1 1291 0
	mov	r0, #0
	mov	r1, #24
	b	S_StartSound
.LVL187:
.L316:
	.align	2
.L315:
	.word	quickSaveSlot
.LBE580:
.LBE581:
	.cfi_endproc
.LFE48:
	.size	M_QuickSaveResponse, .-M_QuickSaveResponse
	.align	2
	.global	M_EndGame
	.type	M_EndGame, %function
M_EndGame:
.LFB53:
	.loc 1 1368 0
	.cfi_startproc
	@ args = 0, pretend = 0, frame = 0
	@ frame_needed = 0, uses_anonymous_args = 0
.LVL188:
	.loc 1 1369 0
	ldr	r3, .L322
	.loc 1 1368 0
	stmfd	sp!, {r4, r5, r6, r7, lr}
	.cfi_def_cfa_offset 20
	.cfi_offset 4, -20
	.cfi_offset 5, -16
	.cfi_offset 6, -12
	.cfi_offset 7, -8
	.cfi_offset 14, -4
	.loc 1 1369 0
	ldr	r3, [r3]
	cmp	r3, #0
	bne	.L321
.LBB590:
.LBB591:
	.loc 1 5410 0
	mov	r3, #1
.LBE591:
.LBE590:
	.loc 1 1374 0
	ldr	r1, .L322+4
.LBB594:
.LBB592:
	.loc 1 5409 0
	ldr	r2, .L322+8
.LBE592:
.LBE594:
	.loc 1 1374 0
	ldr	r7, [r1]
.LVL189:
.LBB595:
.LBB593:
	.loc 1 5409 0
	ldrb	r5, [r2]	@ zero_extendqisi2
	.loc 1 5411 0
	ldr	r6, .L322+12
	.loc 1 5409 0
	ldr	r4, .L322+16
	.loc 1 5410 0
	ldr	lr, .L322+20
	.loc 1 5413 0
	ldr	ip, .L322+24
	.loc 1 5412 0
	ldr	r1, .L322+28
	ldr	r0, .L322+32
.LVL190:
	.loc 1 5411 0
	str	r7, [r6, #220]
	.loc 1 5409 0
	str	r5, [r4]
	.loc 1 5414 0
	strb	r3, [r2]
	.loc 1 5410 0
	str	r3, [lr]
	.loc 1 5413 0
	str	r3, [ip]
	.loc 1 5412 0
	str	r0, [r1]
	ldmfd	sp!, {r4, r5, r6, r7, pc}
.LVL191:
.L321:
.LBE593:
.LBE595:
.LBB596:
.LBB597:
.LBB598:
.LBB599:
	.loc 1 5410 0
	mov	r2, #1
	.loc 1 5412 0
	mov	r3, #0
.LBE599:
.LBE598:
	.loc 1 1371 0
	ldr	r0, .L322+36
.LVL192:
.LBB602:
.LBB600:
	.loc 1 5409 0
	ldr	r1, .L322+8
.LBE600:
.LBE602:
	.loc 1 1371 0
	ldr	r7, [r0]
.LVL193:
.LBB603:
.LBB601:
	.loc 1 5409 0
	ldrb	r5, [r1]	@ zero_extendqisi2
	.loc 1 5411 0
	ldr	r6, .L322+12
	.loc 1 5409 0
	ldr	r4, .L322+16
	.loc 1 5410 0
	ldr	lr, .L322+20
	.loc 1 5412 0
	ldr	ip, .L322+28
	.loc 1 5413 0
	ldr	r0, .L322+24
	.loc 1 5411 0
	str	r7, [r6, #220]
	.loc 1 5409 0
	str	r5, [r4]
	.loc 1 5414 0
	strb	r2, [r1]
	.loc 1 5410 0
	str	r2, [lr]
	.loc 1 5412 0
	str	r3, [ip]
	.loc 1 5413 0
	str	r3, [r0]
	ldmfd	sp!, {r4, r5, r6, r7, pc}
.L323:
	.align	2
.L322:
	.word	netgame
	.word	s_ENDGAME
	.word	menuactive
	.word	.LANCHOR1
	.word	messageLastMenuActive
	.word	messageToPrint
	.word	messageNeedsInput
	.word	messageRoutine
	.word	M_EndGameResponse
	.word	s_NETEND
.LBE601:
.LBE603:
.LBE597:
.LBE596:
	.cfi_endproc
.LFE53:
	.size	M_EndGame, .-M_EndGame
	.align	2
	.type	M_DrawStringCentered.constprop.26, %function
M_DrawStringCentered.constprop.26:
.LFB145:
	.loc 1 4027 0
	.cfi_startproc
	@ args = 0, pretend = 0, frame = 0
	@ frame_needed = 0, uses_anonymous_args = 0
.LVL194:
	stmfd	sp!, {r4, r5, r6, lr}
	.cfi_def_cfa_offset 16
	.cfi_offset 4, -16
	.cfi_offset 5, -12
	.cfi_offset 6, -8
	.cfi_offset 14, -4
	.loc 1 4027 0
	mov	r5, r0
	.loc 1 4029 0
	mov	r0, r1
.LVL195:
	.loc 1 4027 0
	mov	r4, r1
	.loc 1 4029 0
	bl	M_GetPixelWidth
.LVL196:
	add	r0, r0, r0, lsr #31
	mov	r0, r0, asr #1
	mov	r2, r5
	mov	r3, r4
	.loc 1 4030 0
	ldmfd	sp!, {r4, r5, r6, lr}
	.cfi_restore 14
	.cfi_restore 6
	.cfi_restore 5
	.cfi_restore 4
	.cfi_def_cfa_offset 0
.LVL197:
	.loc 1 4029 0
	rsb	r0, r0, #160
	mov	r1, #20
	b	M_DrawString
.LVL198:
	.cfi_endproc
.LFE145:
	.size	M_DrawStringCentered.constprop.26, .-M_DrawStringCentered.constprop.26
	.align	2
	.type	M_DrawInstructions, %function
M_DrawInstructions:
.LFB63:
	.loc 1 2046 0
	.cfi_startproc
	@ args = 0, pretend = 0, frame = 0
	@ frame_needed = 0, uses_anonymous_args = 0
	@ link register save eliminated.
	.loc 1 2047 0
	ldr	r2, .L350
	ldr	r0, .L350+4
	ldr	r3, [r2, #20]
	.loc 1 2052 0
	ldr	r1, [r2, #8]
	.loc 1 2047 0
	ldr	r2, [r0]
	add	r3, r3, r3, asl #3
	add	r3, r2, r3, asl #2
	.loc 1 2052 0
	cmp	r1, #0
	.loc 1 2047 0
	ldr	r2, [r3, #4]
.LVL199:
	.loc 1 2052 0
	beq	.L327
	.loc 1 2053 0
	ldr	r1, .L350+8
	and	r1, r1, r2
	cmp	r1, #128
	bxeq	lr
	ble	.L345
	cmp	r1, #4096
	beq	.L336
	ble	.L346
	cmp	r1, #524288
	beq	.L340
	cmp	r1, #8388608
	bne	.L328
	.loc 1 2085 0
	mov	r0, #2
	ldr	r1, .L350+12
	b	M_DrawStringCentered.constprop.26
.LVL200:
.L327:
	.loc 1 2095 0
	tst	r2, #128
	.loc 1 2096 0
	mov	r0, #8
	.loc 1 2095 0
	bne	.L347
	.loc 1 2098 0
	ldr	r1, .L350+16
	b	M_DrawStringCentered.constprop.26
.LVL201:
.L345:
	.loc 1 2053 0
	cmp	r1, #16
	beq	.L331
	ble	.L348
	cmp	r1, #32
	beq	.L334
	cmp	r1, #64
	bne	.L328
	.loc 1 2079 0
	mov	r0, #2
	ldr	r1, .L350+20
	b	M_DrawStringCentered.constprop.26
.LVL202:
.L347:
	.loc 1 2096 0
	ldr	r1, .L350+24
	b	M_DrawStringCentered.constprop.26
.LVL203:
.L346:
	.loc 1 2053 0
	cmp	r1, #1024
	beq	.L338
	cmp	r1, #2048
	bne	.L328
	.loc 1 2067 0
	mov	r0, #2
	ldr	r1, .L350+28
	b	M_DrawStringCentered.constprop.26
.LVL204:
.L348:
	.loc 1 2053 0
	cmp	r1, #8
	bne	.L328
	.loc 1 2064 0
	mov	r0, #2
	ldr	r1, .L350+32
	b	M_DrawStringCentered.constprop.26
.LVL205:
.L331:
	.loc 1 2076 0
	mov	r0, #2
	ldr	r1, .L350+36
	b	M_DrawStringCentered.constprop.26
.LVL206:
.L328:
	.loc 1 2091 0
	mov	r0, #4
	ldr	r1, .L350+40
	b	lprintf
.LVL207:
.L340:
	.loc 1 2082 0
	mov	r0, #2
	ldr	r1, .L350+44
	b	M_DrawStringCentered.constprop.26
.LVL208:
.L338:
	.loc 1 2057 0
	ldr	r2, [r3, #20]
.LVL209:
	.loc 1 2058 0
	mov	r0, #2
	.loc 1 2057 0
	cmp	r2, #0
	beq	.L349
.LVL210:
.L342:
	.loc 1 2058 0
	ldr	r1, .L350+48
	b	M_DrawStringCentered.constprop.26
.LVL211:
.L334:
	.loc 1 2073 0
	mov	r0, #2
	ldr	r1, .L350+52
	b	M_DrawStringCentered.constprop.26
.LVL212:
.L336:
	.loc 1 2070 0
	mov	r0, #2
	ldr	r1, .L350+56
	b	M_DrawStringCentered.constprop.26
.LVL213:
.L349:
	.loc 1 2057 0 discriminator 1
	ldr	r3, [r3, #24]
.LVL214:
	cmp	r3, #0
	bne	.L342
	.loc 1 2060 0
	ldr	r1, .L350+60
	b	M_DrawStringCentered.constprop.26
.LVL215:
.L351:
	.align	2
.L350:
	.word	.LANCHOR1
	.word	current_setup_menu
	.word	8920312
	.word	.LC20
	.word	.LC23
	.word	.LC18
	.word	.LC22
	.word	.LC14
	.word	.LC13
	.word	.LC17
	.word	.LC21
	.word	.LC19
	.word	.LC11
	.word	.LC16
	.word	.LC15
	.word	.LC12
	.cfi_endproc
.LFE63:
	.size	M_DrawInstructions, .-M_DrawInstructions
	.align	2
	.type	M_DrawBackground.part.1.constprop.27, %function
M_DrawBackground.part.1.constprop.27:
.LFB144:
	.loc 1 128 0
	.cfi_startproc
	@ args = 0, pretend = 0, frame = 0
	@ frame_needed = 0, uses_anonymous_args = 0
	@ link register save eliminated.
.LVL216:
	.loc 1 131 0
	ldr	r3, .L353
	ldr	r0, .L353+4
	ldr	r3, [r3]
	mov	r1, #0
	bx	r3	@ indirect register sibling call
.LVL217:
.L354:
	.align	2
.L353:
	.word	V_DrawBackground
	.word	.LC24
	.cfi_endproc
.LFE144:
	.size	M_DrawBackground.part.1.constprop.27, .-M_DrawBackground.part.1.constprop.27
	.align	2
	.global	M_DrawSaveLoadBorder
	.type	M_DrawSaveLoadBorder, %function
M_DrawSaveLoadBorder:
.LFB25:
	.loc 1 739 0
	.cfi_startproc
	@ args = 0, pretend = 0, frame = 0
	@ frame_needed = 0, uses_anonymous_args = 0
.LVL218:
	stmfd	sp!, {r4, r5, r6, r7, r8, r9, r10, fp, lr}
	.cfi_def_cfa_offset 36
	.cfi_offset 4, -36
	.cfi_offset 5, -32
	.cfi_offset 6, -28
	.cfi_offset 7, -24
	.cfi_offset 8, -20
	.cfi_offset 9, -16
	.cfi_offset 10, -12
	.cfi_offset 11, -8
	.cfi_offset 14, -4
	.loc 1 742 0
	ldr	r10, .L359
	.loc 1 739 0
	sub	sp, sp, #12
	.cfi_def_cfa_offset 48
	.loc 1 739 0
	mov	r6, r0
	.loc 1 742 0
	ldr	r0, .L359+4
.LVL219:
	ldr	r4, [r10]
	add	r9, r1, #7
	mov	r8, #6
	bl	W_GetNumForName
.LVL220:
	mov	r7, #4
	mov	r3, r0
	mov	r1, r9
	sub	r0, r6, #8
	str	r8, [sp]
	str	r7, [sp, #4]
	mov	r2, #0
	blx	r4
.LVL221:
	mov	r4, r6
	add	r6, r6, #192
.LVL222:
.L356:
	.loc 1 746 0 discriminator 3
	ldr	r0, .L359+8
	ldr	r5, [r10]
	bl	W_GetNumForName
.LVL223:
	str	r8, [sp]
	mov	r3, r0
	str	r7, [sp, #4]
	mov	r0, r4
	mov	r1, r9
	.loc 1 747 0 discriminator 3
	add	r4, r4, #8
.LVL224:
	.loc 1 746 0 discriminator 3
	mov	r2, #0
	blx	r5
.LVL225:
	.loc 1 744 0 discriminator 3
	cmp	r4, r6
	.loc 1 746 0 discriminator 3
	ldr	r3, .L359
	mov	fp, #6
	mov	r5, #4
	.loc 1 744 0 discriminator 3
	bne	.L356
	.loc 1 750 0
	ldr	r0, .L359+12
	ldr	r6, [r3]
	bl	W_GetNumForName
.LVL226:
	str	fp, [sp]
	mov	r3, r0
	str	r5, [sp, #4]
	mov	r0, r4
	mov	r1, r9
	mov	r2, #0
	blx	r6
.LVL227:
	.loc 1 751 0
	add	sp, sp, #12
	.cfi_def_cfa_offset 36
	@ sp needed
	ldmfd	sp!, {r4, r5, r6, r7, r8, r9, r10, fp, pc}
.LVL228:
.L360:
	.align	2
.L359:
	.word	V_DrawNumPatch
	.word	.LC25
	.word	.LC26
	.word	.LC27
	.cfi_endproc
.LFE25:
	.size	M_DrawSaveLoadBorder, .-M_DrawSaveLoadBorder
	.align	2
	.global	M_ForcedLoadGame
	.type	M_ForcedLoadGame, %function
M_ForcedLoadGame:
.LFB28:
	.loc 1 782 0
	.cfi_startproc
	@ args = 0, pretend = 0, frame = 0
	@ frame_needed = 0, uses_anonymous_args = 0
.LVL229:
	stmfd	sp!, {r3, r4, r5, r6, r7, lr}
	.cfi_def_cfa_offset 24
	.cfi_offset 3, -24
	.cfi_offset 4, -20
	.cfi_offset 5, -16
	.cfi_offset 6, -12
	.cfi_offset 7, -8
	.cfi_offset 14, -4
	.loc 1 783 0
	mov	r1, #1
	mov	r2, #0
	bl	Z_Strdup
.LVL230:
.LBB604:
.LBB605:
	.loc 1 5410 0
	mov	r3, #1
	.loc 1 5409 0
	ldr	r1, .L363
.LBE605:
.LBE604:
	.loc 1 783 0
	ldr	r2, .L363+4
.LBB608:
.LBB606:
	.loc 1 5409 0
	ldrb	r7, [r1]	@ zero_extendqisi2
	ldr	r6, .L363+8
	.loc 1 5410 0
	ldr	r5, .L363+12
	.loc 1 5413 0
	ldr	r4, .L363+16
	.loc 1 5412 0
	ldr	ip, .L363+20
	ldr	lr, .L363+24
	.loc 1 5409 0
	str	r7, [r6]
	.loc 1 5414 0
	strb	r3, [r1]
	.loc 1 5410 0
	str	r3, [r5]
	.loc 1 5413 0
	str	r3, [r4]
.LBE606:
.LBE608:
	.loc 1 783 0
	str	r0, [r2, #56]
.LVL231:
.LBB609:
.LBB607:
	.loc 1 5411 0
	str	r0, [r2, #220]
	.loc 1 5412 0
	str	lr, [ip]
	ldmfd	sp!, {r3, r4, r5, r6, r7, pc}
.L364:
	.align	2
.L363:
	.word	menuactive
	.word	.LANCHOR1
	.word	messageLastMenuActive
	.word	messageToPrint
	.word	messageNeedsInput
	.word	messageRoutine
	.word	M_VerifyForcedLoadGame
.LBE607:
.LBE609:
	.cfi_endproc
.LFE28:
	.size	M_ForcedLoadGame, .-M_ForcedLoadGame
	.align	2
	.global	M_ReadSaveStrings
	.type	M_ReadSaveStrings, %function
M_ReadSaveStrings:
.LFB30:
	.loc 1 841 0
	.cfi_startproc
	@ args = 0, pretend = 0, frame = 0
	@ frame_needed = 0, uses_anonymous_args = 0
.LVL232:
	stmfd	sp!, {r3, r4, r5, r6, r7, r8, r9, r10, fp, lr}
	.cfi_def_cfa_offset 40
	.cfi_offset 3, -40
	.cfi_offset 4, -36
	.cfi_offset 5, -32
	.cfi_offset 6, -28
	.cfi_offset 7, -24
	.cfi_offset 8, -20
	.cfi_offset 9, -16
	.cfi_offset 10, -12
	.cfi_offset 11, -8
	.cfi_offset 14, -4
	.loc 1 841 0
	mov	r6, #0
.LBB610:
	.loc 1 852 0
	mov	r10, #1
.LBE610:
	.loc 1 844 0
	mov	r4, r6
	ldr	r7, .L372
	ldr	r9, .L372+4
.LBB611:
	.loc 1 857 0
	ldr	fp, .L372+8
	b	.L368
.LVL233:
.L366:
	.loc 1 861 0
	mov	r1, #24
	mov	r2, #1
	mov	r3, r5
	bl	fread
.LVL234:
	.loc 1 862 0
	mov	r0, r5
	bl	fclose
.LVL235:
	.loc 1 863 0
	strh	r10, [r9, r6]	@ movhi
.L367:
.LBE611:
	.loc 1 844 0 discriminator 2
	add	r4, r4, #1
.LVL236:
	cmp	r4, #8
	add	r7, r7, #24
	add	r6, r6, #24
	beq	.L371
.LVL237:
.L368:
.LBB612:
	.loc 1 851 0
	mov	r0, #0
	mov	r2, r4
	mov	r3, r0
	mov	r1, r0
	bl	G_SaveGameName
.LVL238:
	.loc 1 852 0
	add	r5, r0, #1
	mov	r0, r5
.LVL239:
	mov	r1, #1
	mov	r2, #0
	bl	Z_Malloc
.LVL240:
	mov	r8, r0
.LVL241:
	.loc 1 853 0
	mov	r1, r5
	mov	r2, r4
	mov	r3, #0
	bl	G_SaveGameName
.LVL242:
	.loc 1 854 0
	ldr	r1, .L372+12
	mov	r0, r8
	bl	fopen
.LVL243:
	mov	r5, r0
.LVL244:
	.loc 1 855 0
	mov	r0, r8
.LVL245:
	bl	Z_Free
.LVL246:
	.loc 1 856 0
	cmp	r5, #0
	.loc 1 857 0
	mov	r0, r7
	.loc 1 856 0
	bne	.L366
	.loc 1 857 0
	ldr	r1, [fp]
	bl	strcpy
.LVL247:
	.loc 1 858 0
	strh	r5, [r9, r6]	@ movhi
	.loc 1 859 0
	b	.L367
.L371:
.LBE612:
	.loc 1 865 0
	ldmfd	sp!, {r3, r4, r5, r6, r7, r8, r9, r10, fp, pc}
.L373:
	.align	2
.L372:
	.word	savegamestrings
	.word	.LANCHOR0+1236
	.word	s_EMPTYSTRING
	.word	.LC28
	.cfi_endproc
.LFE30:
	.size	M_ReadSaveStrings, .-M_ReadSaveStrings
	.align	2
	.global	M_LoadGame
	.type	M_LoadGame, %function
M_LoadGame:
.LFB29:
	.loc 1 792 0
	.cfi_startproc
	@ args = 0, pretend = 0, frame = 0
	@ frame_needed = 0, uses_anonymous_args = 0
.LVL248:
	.loc 1 795 0
	ldr	r3, .L383
	ldr	r3, [r3]
	cmp	r3, #0
	beq	.L375
	.loc 1 795 0 is_stmt 0 discriminator 1
	ldr	r3, .L383+4
	ldrb	r3, [r3]	@ zero_extendqisi2
	cmp	r3, #12
	bls	.L382
.L375:
.LVL249:
.LBB621:
.LBB622:
	.loc 1 5385 0 is_stmt 1
	ldr	r3, .L383+8
	ldr	r0, .L383+12
.LVL250:
	.loc 1 5386 0
	ldrh	r1, [r3, #20]
	ldr	r2, .L383+16
	.loc 1 5385 0
	str	r3, [r0]
	.loc 1 5386 0
	strh	r1, [r2]	@ movhi
.LBE622:
.LBE621:
	.loc 1 804 0
	b	M_ReadSaveStrings
.LVL251:
.L382:
.LBB623:
.LBB624:
.LBB625:
.LBB626:
	.loc 1 5410 0
	mov	r2, #1
	.loc 1 5412 0
	mov	r3, #0
	.loc 1 5409 0
	ldr	r1, .L383+20
.LBE626:
.LBE625:
.LBE624:
.LBE623:
	.loc 1 792 0
	stmfd	sp!, {r4, r5, r6, r7, lr}
	.cfi_def_cfa_offset 20
	.cfi_offset 4, -20
	.cfi_offset 5, -16
	.cfi_offset 6, -12
	.cfi_offset 7, -8
	.cfi_offset 14, -4
.LBB630:
.LBB629:
.LBB628:
.LBB627:
	.loc 1 5411 0
	ldr	r0, .L383+24
.LVL252:
	.loc 1 5409 0
	ldrb	r7, [r1]	@ zero_extendqisi2
	ldr	r6, .L383+28
	.loc 1 5410 0
	ldr	r5, .L383+32
	.loc 1 5412 0
	ldr	r4, .L383+36
	.loc 1 5413 0
	ldr	lr, .L383+40
	.loc 1 5411 0
	ldr	ip, .L383+44
	.loc 1 5409 0
	str	r7, [r6]
	.loc 1 5414 0
	strb	r2, [r1]
	.loc 1 5410 0
	str	r2, [r5]
	.loc 1 5412 0
	str	r3, [r4]
	.loc 1 5413 0
	str	r3, [lr]
	.loc 1 5411 0
	str	ip, [r0, #220]
	ldmfd	sp!, {r4, r5, r6, r7, pc}
.L384:
	.align	2
.L383:
	.word	demorecording
	.word	compatibility_level
	.word	.LANCHOR0+1428
	.word	currentMenu
	.word	itemOn
	.word	menuactive
	.word	.LANCHOR1
	.word	messageLastMenuActive
	.word	messageToPrint
	.word	messageRoutine
	.word	messageNeedsInput
	.word	.LC29
.LBE627:
.LBE628:
.LBE629:
.LBE630:
	.cfi_endproc
.LFE29:
	.size	M_LoadGame, .-M_LoadGame
	.align	2
	.global	M_SaveGame
	.type	M_SaveGame, %function
M_SaveGame:
.LFB34:
	.loc 1 928 0
	.cfi_startproc
	@ args = 0, pretend = 0, frame = 0
	@ frame_needed = 0, uses_anonymous_args = 0
.LVL253:
	.loc 1 930 0
	ldr	r3, .L396
	.loc 1 928 0
	stmfd	sp!, {r4, r5, r6, r7, lr}
	.cfi_def_cfa_offset 20
	.cfi_offset 4, -20
	.cfi_offset 5, -16
	.cfi_offset 6, -12
	.cfi_offset 7, -8
	.cfi_offset 14, -4
	.loc 1 930 0
	ldr	r3, [r3]
	cmp	r3, #0
	bne	.L386
	.loc 1 930 0 is_stmt 0 discriminator 1
	ldr	r3, .L396+4
	ldr	r3, [r3]
	cmp	r3, #0
	beq	.L387
	.loc 1 930 0 discriminator 2
	ldr	r3, .L396+8
	ldr	r3, [r3]
	cmp	r3, #0
	bne	.L387
.L386:
	.loc 1 936 0 is_stmt 1
	ldr	r3, .L396+12
	ldrb	r3, [r3]	@ zero_extendqisi2
	cmp	r3, #0
	ldmnefd	sp!, {r4, r5, r6, r7, pc}
.LVL254:
.LBB639:
.LBB640:
.LBB641:
.LBB642:
	.loc 1 5385 0
	ldr	r3, .L396+16
	ldr	r0, .L396+20
.LVL255:
	.loc 1 5386 0
	ldrh	r1, [r3, #20]
	ldr	r2, .L396+24
.LBE642:
.LBE641:
.LBE640:
.LBE639:
	.loc 1 941 0
	ldmfd	sp!, {r4, r5, r6, r7, lr}
	.cfi_remember_state
	.cfi_restore 14
	.cfi_restore 7
	.cfi_restore 6
	.cfi_restore 5
	.cfi_restore 4
	.cfi_def_cfa_offset 0
.LBB646:
.LBB645:
.LBB644:
.LBB643:
	.loc 1 5385 0
	str	r3, [r0]
	.loc 1 5386 0
	strh	r1, [r2]	@ movhi
.LBE643:
.LBE644:
	.loc 1 940 0
	b	M_ReadSaveStrings
.LVL256:
.L387:
	.cfi_restore_state
.LBE645:
.LBE646:
.LBB647:
.LBB648:
	.loc 1 5410 0
	mov	r2, #1
	.loc 1 5412 0
	mov	r3, #0
.LBE648:
.LBE647:
	.loc 1 932 0
	ldr	r0, .L396+28
.LVL257:
.LBB651:
.LBB649:
	.loc 1 5409 0
	ldr	r1, .L396+32
.LBE649:
.LBE651:
	.loc 1 932 0
	ldr	r7, [r0]
.LVL258:
.LBB652:
.LBB650:
	.loc 1 5409 0
	ldrb	r5, [r1]	@ zero_extendqisi2
	.loc 1 5411 0
	ldr	r6, .L396+36
	.loc 1 5409 0
	ldr	r4, .L396+40
	.loc 1 5410 0
	ldr	lr, .L396+44
	.loc 1 5412 0
	ldr	ip, .L396+48
	.loc 1 5413 0
	ldr	r0, .L396+52
	.loc 1 5411 0
	str	r7, [r6, #220]
	.loc 1 5409 0
	str	r5, [r4]
	.loc 1 5414 0
	strb	r2, [r1]
	.loc 1 5410 0
	str	r2, [lr]
	.loc 1 5412 0
	str	r3, [ip]
	.loc 1 5413 0
	str	r3, [r0]
	ldmfd	sp!, {r4, r5, r6, r7, pc}
.L397:
	.align	2
.L396:
	.word	usergame
	.word	demoplayback
	.word	netgame
	.word	gamestate
	.word	.LANCHOR0+1452
	.word	currentMenu
	.word	itemOn
	.word	s_SAVEDEAD
	.word	menuactive
	.word	.LANCHOR1
	.word	messageLastMenuActive
	.word	messageToPrint
	.word	messageRoutine
	.word	messageNeedsInput
.LBE650:
.LBE652:
	.cfi_endproc
.LFE34:
	.size	M_SaveGame, .-M_SaveGame
	.align	2
	.global	M_Mouse
	.type	M_Mouse, %function
M_Mouse:
.LFB47:
	.loc 1 1266 0
	.cfi_startproc
	@ args = 0, pretend = 0, frame = 0
	@ frame_needed = 0, uses_anonymous_args = 0
	@ link register save eliminated.
.LVL259:
	.loc 1 1267 0
	cmp	r0, #0
	beq	.L400
	cmp	r0, #1
	bxne	lr
	.loc 1 1274 0
	ldr	r3, [r1]
	cmp	r3, #98
	.loc 1 1275 0
	addle	r3, r3, #1
	strle	r3, [r1]
	bx	lr
.L400:
.LVL260:
.LBB655:
.LBB656:
	.loc 1 1270 0
	ldr	r3, [r1]
	cmp	r3, #0
	.loc 1 1271 0
	subne	r3, r3, #1
	strne	r3, [r1]
	bx	lr
.LBE656:
.LBE655:
	.cfi_endproc
.LFE47:
	.size	M_Mouse, .-M_Mouse
	.align	2
	.global	M_MouseHoriz
	.type	M_MouseHoriz, %function
M_MouseHoriz:
.LFB45:
	.loc 1 1256 0
	.cfi_startproc
	@ args = 0, pretend = 0, frame = 0
	@ frame_needed = 0, uses_anonymous_args = 0
	@ link register save eliminated.
.LVL261:
	.loc 1 1257 0
	ldr	r1, .L407
	b	M_Mouse
.LVL262:
.L408:
	.align	2
.L407:
	.word	mouseSensitivity_horiz
	.cfi_endproc
.LFE45:
	.size	M_MouseHoriz, .-M_MouseHoriz
	.align	2
	.global	M_MouseVert
	.type	M_MouseVert, %function
M_MouseVert:
.LFB46:
	.loc 1 1261 0
	.cfi_startproc
	@ args = 0, pretend = 0, frame = 0
	@ frame_needed = 0, uses_anonymous_args = 0
	@ link register save eliminated.
.LVL263:
	.loc 1 1262 0
	ldr	r1, .L410
	b	M_Mouse
.LVL264:
.L411:
	.align	2
.L410:
	.word	mouseSensitivity_vert
	.cfi_endproc
.LFE46:
	.size	M_MouseVert, .-M_MouseVert
	.align	2
	.global	M_QuickSave
	.type	M_QuickSave, %function
M_QuickSave:
.LFB49:
	.loc 1 1296 0
	.cfi_startproc
	@ args = 0, pretend = 0, frame = 0
	@ frame_needed = 0, uses_anonymous_args = 0
	stmfd	sp!, {r3, r4, r5, r6, r7, lr}
	.cfi_def_cfa_offset 24
	.cfi_offset 3, -24
	.cfi_offset 4, -20
	.cfi_offset 5, -16
	.cfi_offset 6, -12
	.cfi_offset 7, -8
	.cfi_offset 14, -4
	.loc 1 1297 0
	ldr	r3, .L427
	ldr	r3, [r3]
	cmp	r3, #0
	bne	.L413
	.loc 1 1297 0 is_stmt 0 discriminator 1
	ldr	r3, .L427+4
	ldr	r3, [r3]
	cmp	r3, #0
	beq	.L414
	.loc 1 1297 0 discriminator 2
	ldr	r3, .L427+8
	ldr	r3, [r3]
	cmp	r3, #0
	bne	.L414
.L413:
	.loc 1 1302 0 is_stmt 1
	ldr	r3, .L427+12
	ldrb	r3, [r3]	@ zero_extendqisi2
	cmp	r3, #0
	ldmnefd	sp!, {r3, r4, r5, r6, r7, pc}
	.loc 1 1305 0
	ldr	r4, .L427+16
	ldr	r3, [r4]
	cmp	r3, #0
	blt	.L425
	.loc 1 1312 0
	ldr	r4, .L427+20
	ldr	r2, .L427+24
	ldr	r1, .L427+28
	add	r3, r3, r3, asl #1
	add	r2, r2, r3, asl #3
	ldr	r1, [r1]
	mov	r0, r4
	bl	sprintf
.LVL265:
.LBB667:
.LBB668:
	.loc 1 5410 0
	mov	r3, #1
	.loc 1 5409 0
	ldr	r2, .L427+32
	.loc 1 5411 0
	ldr	r7, .L427+36
	.loc 1 5409 0
	ldrb	r6, [r2]	@ zero_extendqisi2
	ldr	r5, .L427+40
	.loc 1 5410 0
	ldr	lr, .L427+44
	.loc 1 5413 0
	ldr	ip, .L427+48
	.loc 1 5412 0
	ldr	r1, .L427+52
	ldr	r0, .L427+56
	.loc 1 5411 0
	str	r4, [r7, #220]
	.loc 1 5409 0
	str	r6, [r5]
	.loc 1 5414 0
	strb	r3, [r2]
	.loc 1 5410 0
	str	r3, [lr]
	.loc 1 5413 0
	str	r3, [ip]
	.loc 1 5412 0
	str	r0, [r1]
	ldmfd	sp!, {r3, r4, r5, r6, r7, pc}
.LVL266:
.L414:
.LBE668:
.LBE667:
	.loc 1 1298 0
	mov	r0, #0
	.loc 1 1314 0
	ldmfd	sp!, {r3, r4, r5, r6, r7, lr}
	.cfi_remember_state
	.cfi_restore 14
	.cfi_restore 7
	.cfi_restore 6
	.cfi_restore 5
	.cfi_restore 4
	.cfi_restore 3
	.cfi_def_cfa_offset 0
	.loc 1 1298 0
	mov	r1, #34
	b	S_StartSound
.LVL267:
.L425:
	.cfi_restore_state
.LBB669:
.LBB670:
.LBB671:
.LBB672:
	.loc 1 5265 0
	ldr	r3, .L427+32
	ldrb	r3, [r3]	@ zero_extendqisi2
	cmp	r3, #0
	beq	.L426
.L417:
.LBE672:
.LBE671:
	.loc 1 1307 0
	bl	M_ReadSaveStrings
.LVL268:
	.loc 1 1309 0
	mvn	r2, #1
.LBB674:
.LBB675:
	.loc 1 5385 0
	ldr	r3, .L427+60
	ldr	ip, .L427+64
	.loc 1 5386 0
	ldrh	r0, [r3, #20]
	ldr	r1, .L427+68
	.loc 1 5385 0
	str	r3, [ip]
	.loc 1 5386 0
	strh	r0, [r1]	@ movhi
.LBE675:
.LBE674:
	.loc 1 1309 0
	str	r2, [r4]
	ldmfd	sp!, {r3, r4, r5, r6, r7, pc}
.LVL269:
.L426:
.LBB676:
.LBB673:
	bl	M_StartControlPanel.part.7
.LVL270:
	b	.L417
.L428:
	.align	2
.L427:
	.word	usergame
	.word	demoplayback
	.word	netgame
	.word	gamestate
	.word	quickSaveSlot
	.word	tempstring
	.word	savegamestrings
	.word	s_QSPROMPT
	.word	menuactive
	.word	.LANCHOR1
	.word	messageLastMenuActive
	.word	messageToPrint
	.word	messageNeedsInput
	.word	messageRoutine
	.word	M_QuickSaveResponse
	.word	.LANCHOR0+1452
	.word	currentMenu
	.word	itemOn
.LBE673:
.LBE676:
.LBE670:
.LBE669:
	.cfi_endproc
.LFE49:
	.size	M_QuickSave, .-M_QuickSave
	.align	2
	.global	M_QuickLoad
	.type	M_QuickLoad, %function
M_QuickLoad:
.LFB51:
	.loc 1 1330 0
	.cfi_startproc
	@ args = 0, pretend = 0, frame = 0
	@ frame_needed = 0, uses_anonymous_args = 0
	stmfd	sp!, {r3, r4, r5, r6, r7, lr}
	.cfi_def_cfa_offset 24
	.cfi_offset 3, -24
	.cfi_offset 4, -20
	.cfi_offset 5, -16
	.cfi_offset 6, -12
	.cfi_offset 7, -8
	.cfi_offset 14, -4
	.loc 1 1333 0
	ldr	r3, .L436
	ldr	r2, [r3]
	cmp	r2, #0
	bne	.L434
	.loc 1 1340 0
	ldr	r3, .L436+4
	ldr	r3, [r3]
	cmp	r3, #0
	blt	.L435
	.loc 1 1344 0
	ldr	r4, .L436+8
	ldr	r2, .L436+12
	ldr	r1, .L436+16
	add	r3, r3, r3, asl #1
	add	r2, r2, r3, asl #3
	ldr	r1, [r1]
	mov	r0, r4
	bl	sprintf
.LVL271:
.LBB689:
.LBB690:
	.loc 1 5410 0
	mov	r3, #1
	.loc 1 5409 0
	ldr	r2, .L436+20
	.loc 1 5411 0
	ldr	r7, .L436+24
	.loc 1 5409 0
	ldrb	r6, [r2]	@ zero_extendqisi2
	ldr	r5, .L436+28
	.loc 1 5410 0
	ldr	lr, .L436+32
	.loc 1 5413 0
	ldr	ip, .L436+36
	.loc 1 5412 0
	ldr	r1, .L436+40
	ldr	r0, .L436+44
	.loc 1 5411 0
	str	r4, [r7, #220]
	.loc 1 5409 0
	str	r6, [r5]
	.loc 1 5414 0
	strb	r3, [r2]
	.loc 1 5410 0
	str	r3, [lr]
	.loc 1 5413 0
	str	r3, [ip]
	.loc 1 5412 0
	str	r0, [r1]
	ldmfd	sp!, {r3, r4, r5, r6, r7, pc}
.LVL272:
.L435:
.LBE690:
.LBE689:
.LBB691:
.LBB692:
.LBB693:
	.loc 1 5410 0
	mov	r3, #1
.LBE693:
.LBE692:
	.loc 1 1341 0
	ldr	r0, .L436+48
.LBB696:
.LBB694:
	.loc 1 5409 0
	ldr	r1, .L436+20
.LBE694:
.LBE696:
	.loc 1 1341 0
	ldr	r7, [r0]
.LVL273:
.LBB697:
.LBB695:
	.loc 1 5409 0
	ldrb	r5, [r1]	@ zero_extendqisi2
	.loc 1 5411 0
	ldr	r6, .L436+24
	.loc 1 5409 0
	ldr	r4, .L436+28
	.loc 1 5410 0
	ldr	lr, .L436+32
	.loc 1 5412 0
	ldr	ip, .L436+40
	.loc 1 5413 0
	ldr	r0, .L436+36
	.loc 1 5411 0
	str	r7, [r6, #220]
	.loc 1 5409 0
	str	r5, [r4]
	.loc 1 5414 0
	strb	r3, [r1]
	.loc 1 5410 0
	str	r3, [lr]
	.loc 1 5412 0
	str	r2, [ip]
	.loc 1 5413 0
	str	r2, [r0]
	ldmfd	sp!, {r3, r4, r5, r6, r7, pc}
.LVL274:
.L434:
.LBE695:
.LBE697:
.LBE691:
.LBB698:
.LBB699:
	.loc 1 5410 0
	mov	r2, #1
	.loc 1 5412 0
	mov	r3, #0
	.loc 1 5409 0
	ldr	r1, .L436+20
	ldr	r6, .L436+28
	ldrb	r7, [r1]	@ zero_extendqisi2
	.loc 1 5410 0
	ldr	r5, .L436+32
	.loc 1 5412 0
	ldr	r4, .L436+40
	.loc 1 5413 0
	ldr	lr, .L436+36
	.loc 1 5411 0
	ldr	r0, .L436+24
	ldr	ip, .L436+52
	.loc 1 5409 0
	str	r7, [r6]
	.loc 1 5414 0
	strb	r2, [r1]
	.loc 1 5410 0
	str	r2, [r5]
	.loc 1 5412 0
	str	r3, [r4]
	.loc 1 5413 0
	str	r3, [lr]
	.loc 1 5411 0
	str	ip, [r0, #220]
	ldmfd	sp!, {r3, r4, r5, r6, r7, pc}
.L437:
	.align	2
.L436:
	.word	demorecording
	.word	quickSaveSlot
	.word	tempstring
	.word	savegamestrings
	.word	s_QLPROMPT
	.word	menuactive
	.word	.LANCHOR1
	.word	messageLastMenuActive
	.word	messageToPrint
	.word	messageNeedsInput
	.word	messageRoutine
	.word	M_QuickLoadResponse
	.word	s_QSAVESPOT
	.word	.LC30
.LBE699:
.LBE698:
	.cfi_endproc
.LFE51:
	.size	M_QuickLoad, .-M_QuickLoad
	.align	2
	.global	M_FullScreen
	.type	M_FullScreen, %function
M_FullScreen:
.LFB76:
	.loc 1 3100 0
	.cfi_startproc
	@ args = 0, pretend = 0, frame = 0
	@ frame_needed = 0, uses_anonymous_args = 0
	stmfd	sp!, {r3, lr}
	.cfi_def_cfa_offset 8
	.cfi_offset 3, -8
	.cfi_offset 14, -4
	.loc 1 3101 0
	bl	I_UpdateVideoMode
.LVL275:
	.loc 1 3103 0
	ldmfd	sp!, {r3, lr}
	.cfi_restore 14
	.cfi_restore 3
	.cfi_def_cfa_offset 0
	.loc 1 3102 0
	mov	r0, #0
	b	V_SetPalette
.LVL276:
	.cfi_endproc
.LFE76:
	.size	M_FullScreen, .-M_FullScreen
	.align	2
	.global	M_InitExtendedHelp
	.type	M_InitExtendedHelp, %function
M_InitExtendedHelp:
.LFB90:
	.loc 1 3742 0
	.cfi_startproc
	@ args = 0, pretend = 0, frame = 8
	@ frame_needed = 0, uses_anonymous_args = 0
	.loc 1 3746 0
	mov	r2, #0
	.loc 1 3742 0
	stmfd	sp!, {r4, r5, r6, lr}
	.cfi_def_cfa_offset 16
	.cfi_offset 4, -16
	.cfi_offset 5, -12
	.cfi_offset 6, -8
	.cfi_offset 14, -4
	.loc 1 3744 0
	ldr	r3, .L451
	.loc 1 3746 0
	ldr	r6, .L451+4
	.loc 1 3742 0
	sub	sp, sp, #8
	.cfi_def_cfa_offset 24
	.loc 1 3744 0
	ldmia	r3, {r0, r1}
	mov	r1, r1, lsr #16
	.loc 1 3747 0
	mov	r4, #1
	.loc 1 3748 0
	ldr	r5, .L451+8
	.loc 1 3744 0
	strb	r1, [sp, #6]
	str	r0, [sp]
	.loc 1 3746 0
	str	r2, [r6]
.LVL277:
	b	.L444
.LVL278:
.L441:
	.loc 1 3763 0 discriminator 2
	add	r3, r3, #1
	.loc 1 3747 0 discriminator 2
	cmp	r4, #100
	.loc 1 3763 0 discriminator 2
	str	r3, [r6]
	.loc 1 3747 0 discriminator 2
	beq	.L440
.LVL279:
.L444:
	.loc 1 3748 0
	smull	r3, r2, r5, r4
	mov	r3, r4, asr #31
	rsb	r3, r3, r2, asr #2
	.loc 1 3749 0
	add	ip, r3, r3, asl #2
	sub	ip, r4, ip, asl #1
	.loc 1 3748 0
	add	r3, r3, #48
	.loc 1 3749 0
	add	ip, ip, #48
.LBB700:
.LBB701:
	.file 2 "c:/devl/prboom3ds/src/w_wad.h"
	.loc 2 132 0
	mov	r0, sp
	mov	r1, #0
	mvn	r2, #0
.LBE701:
.LBE700:
	.loc 1 3748 0
	strb	r3, [sp, #4]
	.loc 1 3749 0
	strb	ip, [sp, #5]
.LVL280:
.LBB703:
.LBB702:
	.loc 2 132 0
	bl	W_FindNumFromName
.LVL281:
.LBE702:
.LBE703:
	.loc 1 3751 0
	cmn	r0, #1
	.loc 1 3747 0
	add	r4, r4, #1
.LVL282:
	.loc 1 3752 0
	ldr	r3, [r6]
	.loc 1 3751 0
	bne	.L441
	.loc 1 3752 0
	cmp	r3, #0
	beq	.L440
	.loc 1 3753 0
	ldr	r3, .L451+12
	.loc 1 3755 0
	ldr	r2, .L451+16
	.loc 1 3753 0
	ldrb	r3, [r3]	@ zero_extendqisi2
	cmp	r3, #2
	.loc 1 3754 0
	ldr	r3, .L451+20
	.loc 1 3757 0
	addne	r1, r3, #24
	.loc 1 3754 0
	streq	r3, [r3, #492]
	.loc 1 3755 0
	streq	r2, [r3, #1488]
	.loc 1 3757 0
	strne	r1, [r3, #492]
	.loc 1 3758 0
	strne	r2, [r3, #1512]
.L440:
	.loc 1 3766 0
	add	sp, sp, #8
	.cfi_def_cfa_offset 16
.LVL283:
	@ sp needed
	ldmfd	sp!, {r4, r5, r6, pc}
.LVL284:
.L452:
	.align	2
.L451:
	.word	.LANCHOR2
	.word	extended_help_count
	.word	1717986919
	.word	gamemode
	.word	M_ExtHelp
	.word	.LANCHOR0
	.cfi_endproc
.LFE90:
	.size	M_InitExtendedHelp, .-M_InitExtendedHelp
	.align	2
	.global	M_GetKeyString
	.type	M_GetKeyString, %function
M_GetKeyString:
.LFB93:
	.loc 1 3810 0
	.cfi_startproc
	@ args = 0, pretend = 0, frame = 0
	@ frame_needed = 0, uses_anonymous_args = 0
.LVL285:
	.loc 1 3813 0
	sub	r2, r0, #33
	cmp	r2, #93
	.loc 1 3810 0
	stmfd	sp!, {r3, r4, r5, lr}
	.cfi_def_cfa_offset 16
	.cfi_offset 3, -16
	.cfi_offset 4, -12
	.cfi_offset 5, -8
	.cfi_offset 14, -4
	.loc 1 3810 0
	mov	r3, r0
	mov	r4, r1
	.loc 1 3813 0
	bhi	.L454
	.loc 1 3821 0
	cmp	r0, #61
	moveq	r3, #43
	beq	.L455
	.loc 1 3823 0
	cmp	r3, #44
	moveq	r3, #60
	beq	.L455
	.loc 1 3825 0
	cmp	r3, #46
	uxtbne	r3, r3
	beq	.L498
.L455:
.LVL286:
	.loc 1 3828 0
	mov	ip, #0
	.loc 1 3827 0
	ldr	r2, .L504
	add	lr, r4, #1
.LVL287:
	add	r1, r2, r4
	.loc 1 3828 0
	add	r2, r2, lr
	.loc 1 3827 0
	strb	r3, [r1, #224]
	.loc 1 3828 0
	strb	ip, [r2, #224]
.LVL288:
.L456:
	.loc 1 3885 0
	mov	r0, lr
	ldmfd	sp!, {r3, r4, r5, pc}
.LVL289:
.L454:
	.loc 1 3836 0
	sub	r2, r0, #256
	cmp	r2, #255
	bhi	.L457
	.loc 1 3837 0
	ldr	r2, .L504+4
	cmp	r0, r2
	moveq	lr, r1
	beq	.L456
	.loc 1 3843 0
	mov	r1, #0
.LVL290:
	.loc 1 3840 0
	ldr	r0, .L504+8
.LVL291:
	ldr	r2, .L504
	ldr	r0, [r0]	@ unaligned
	.loc 1 3841 0
	add	lr, r4, #4
.LVL292:
	.loc 1 3840 0
	add	r5, r2, #224
	.loc 1 3842 0
	add	ip, r2, r4
	.loc 1 3843 0
	add	r2, r2, lr
	.loc 1 3840 0
	str	r0, [r5, r4]	@ unaligned
	.loc 1 3842 0
	strb	r3, [ip, #227]
	.loc 1 3885 0
	mov	r0, lr
	.loc 1 3843 0
	strb	r1, [r2, #224]
	.loc 1 3885 0
	ldmfd	sp!, {r3, r4, r5, pc}
.LVL293:
.L457:
	.loc 1 3845 0
	sub	r2, r0, #187
	cmp	r2, #8
	bls	.L499
.LVL294:
.LBB706:
.LBB707:
	.loc 1 3850 0
	cmp	r0, #184
	beq	.L460
	bgt	.L461
	cmp	r0, #157
	beq	.L462
	ble	.L500
	cmp	r0, #174
	beq	.L470
	bgt	.L471
	cmp	r0, #172
	beq	.L472
	cmp	r0, #173
	.loc 1 3858 0
	ldreq	r5, .L504+12
	.loc 1 3850 0
	beq	.L466
	b	.L459
.LVL295:
.L498:
.LBE707:
.LBE706:
	mov	r3, #62
	b	.L455
.L499:
.LVL296:
	.loc 1 3846 0
	mov	ip, #70
	.loc 1 3848 0
	mov	r0, #0
.LVL297:
	.loc 1 3846 0
	ldr	r2, .L504
	.loc 1 3847 0
	add	lr, r1, #2
.LVL298:
	add	r3, r3, #118
.LVL299:
	.loc 1 3846 0
	add	r1, r2, r1
	.loc 1 3848 0
	add	r2, r2, lr
	.loc 1 3847 0
	strb	r3, [r1, #225]
	.loc 1 3846 0
	strb	ip, [r1, #224]
	.loc 1 3848 0
	strb	r0, [r2, #224]
	b	.L456
.LVL300:
.L461:
.LBB710:
.LBB708:
	.loc 1 3850 0
	cmp	r0, #201
	beq	.L476
	ble	.L501
	cmp	r0, #210
	beq	.L484
	ble	.L502
	cmp	r0, #216
	beq	.L488
	cmp	r0, #255
	beq	.L489
	cmp	r0, #215
	beq	.L503
.L459:
.LVL301:
	.loc 1 3875 0
	ldr	r5, .L504+16
.LVL302:
.L466:
	.loc 1 3879 0
	ldr	r0, .L504+20
.LVL303:
	mov	r1, r5
.LVL304:
	add	r0, r0, r4
	bl	strcpy
.LVL305:
	.loc 1 3880 0
	mov	r0, r5
	bl	strlen
.LVL306:
	add	lr, r0, r4
.LVL307:
.LBE708:
.LBE710:
	.loc 1 3885 0
	mov	r0, lr
	ldmfd	sp!, {r3, r4, r5, pc}
.LVL308:
.L500:
.LBB711:
.LBB709:
	.loc 1 3850 0
	cmp	r0, #27
	beq	.L464
	bgt	.L465
	cmp	r0, #9
	beq	.L495
	cmp	r0, #13
	.loc 1 3852 0
	ldreq	r5, .L504+24
	.loc 1 3850 0
	beq	.L466
	b	.L459
.L501:
	cmp	r0, #198
	beq	.L478
	bgt	.L479
	cmp	r0, #186
	beq	.L480
	cmp	r0, #196
	.loc 1 3871 0
	ldreq	r5, .L504+28
	.loc 1 3850 0
	beq	.L466
	b	.L459
.L471:
	cmp	r0, #175
	beq	.L474
	cmp	r0, #182
	.loc 1 3861 0
	ldreq	r5, .L504+32
	.loc 1 3850 0
	beq	.L466
	b	.L459
.L479:
	cmp	r0, #199
	beq	.L482
	cmp	r0, #200
	.loc 1 3870 0
	ldreq	r5, .L504+36
	.loc 1 3850 0
	beq	.L466
	b	.L459
.L502:
	cmp	r0, #207
	beq	.L486
	cmp	r0, #209
	.loc 1 3868 0
	ldreq	r5, .L504+40
	.loc 1 3850 0
	beq	.L466
	b	.L459
.L465:
	cmp	r0, #32
	beq	.L468
	cmp	r0, #127
	.loc 1 3855 0
	ldreq	r5, .L504+44
	.loc 1 3850 0
	beq	.L466
	b	.L459
.L476:
.LVL309:
	.loc 1 3866 0
	ldr	r5, .L504+48
	b	.L466
.LVL310:
.L489:
	.loc 1 3874 0
	ldr	r5, .L504+52
	b	.L466
.LVL311:
.L488:
	.loc 1 3873 0
	ldr	r5, .L504+56
	b	.L466
.LVL312:
.L484:
	.loc 1 3869 0
	ldr	r5, .L504+60
	b	.L466
.LVL313:
.L482:
	.loc 1 3865 0
	ldr	r5, .L504+64
	b	.L466
.LVL314:
.L462:
	.loc 1 3856 0
	ldr	r5, .L504+68
	b	.L466
.LVL315:
.L495:
	.loc 1 3851 0
	ldr	r5, .L504+72
	b	.L466
.L464:
.LVL316:
	.loc 1 3853 0
	ldr	r5, .L504+76
	b	.L466
.LVL317:
.L486:
	.loc 1 3867 0
	ldr	r5, .L504+80
	b	.L466
.LVL318:
.L470:
	.loc 1 3859 0
	ldr	r5, .L504+84
	b	.L466
.LVL319:
.L480:
	.loc 1 3863 0
	ldr	r5, .L504+88
	b	.L466
.LVL320:
.L478:
	.loc 1 3864 0
	ldr	r5, .L504+92
	b	.L466
.LVL321:
.L474:
	.loc 1 3860 0
	ldr	r5, .L504+96
	b	.L466
.LVL322:
.L460:
	.loc 1 3862 0
	ldr	r5, .L504+100
	b	.L466
.LVL323:
.L472:
	.loc 1 3857 0
	ldr	r5, .L504+104
	b	.L466
.LVL324:
.L503:
	.loc 1 3872 0
	ldr	r5, .L504+108
	b	.L466
.LVL325:
.L468:
	.loc 1 3854 0
	ldr	r5, .L504+112
	b	.L466
.L505:
	.align	2
.L504:
	.word	.LANCHOR1
	.word	269
	.word	.LC56
	.word	.LC38
	.word	.LC55
	.word	.LANCHOR1+224
	.word	.LC32
	.word	.LC51
	.word	.LC41
	.word	.LC50
	.word	.LC48
	.word	.LC35
	.word	.LC46
	.word	.LC54
	.word	.LC53
	.word	.LC49
	.word	.LC45
	.word	.LC36
	.word	.LC31
	.word	.LC33
	.word	.LC47
	.word	.LC39
	.word	.LC43
	.word	.LC44
	.word	.LC40
	.word	.LC42
	.word	.LC37
	.word	.LC52
	.word	.LC34
.LBE709:
.LBE711:
	.cfi_endproc
.LFE93:
	.size	M_GetKeyString, .-M_GetKeyString
	.align	2
	.type	M_DrawScreenItems, %function
M_DrawScreenItems:
.LFB61:
	.loc 1 1978 0
	.cfi_startproc
	@ args = 0, pretend = 0, frame = 24
	@ frame_needed = 0, uses_anonymous_args = 0
.LVL326:
	stmfd	sp!, {r4, r5, r6, r7, r8, r9, r10, fp, lr}
	.cfi_def_cfa_offset 36
	.cfi_offset 4, -36
	.cfi_offset 5, -32
	.cfi_offset 6, -28
	.cfi_offset 7, -24
	.cfi_offset 8, -20
	.cfi_offset 9, -16
	.cfi_offset 10, -12
	.cfi_offset 11, -8
	.cfi_offset 14, -4
	.loc 1 1979 0
	ldr	r3, .L601
	.loc 1 1978 0
	sub	sp, sp, #36
	.cfi_def_cfa_offset 72
	.loc 1 1979 0
	ldr	r3, [r3]
	.loc 1 1978 0
	mov	r4, r0
	.loc 1 1979 0
	cmp	r3, #0
	ble	.L507
	.loc 1 1980 0
	ldr	r3, .L601+4
	ldr	r3, [r3]
	tst	r3, #262144
	bne	.L591
	.loc 1 1983 0
	tst	r3, #131072
	bne	.L592
	.loc 1 1986 0
	tst	r3, #4194304
	beq	.L510
	.loc 1 1987 0
	ldr	lr, .L601+8
	ldr	ip, .L601+12
	ldmia	lr!, {r0, r1, r2, r3}
.LVL327:
	stmia	ip!, {r0, r1, r2, r3}
	ldmia	lr, {r0, r1, r2}
	stmia	ip!, {r0, r1}
	mov	r3, ip
.LBB744:
.LBB745:
	.loc 1 4001 0
	mov	r0, #80
.LBE745:
.LBE744:
	.loc 1 1987 0
	strb	r2, [r3], #-24
.LVL328:
.LBB747:
.LBB746:
	.loc 1 4001 0
	mov	r1, #176
	mov	r2, #6
	bl	M_DrawString
.LVL329:
.L507:
.LBE746:
.LBE747:
	.loc 1 1995 0
	ldr	r5, [r4, #4]
	tst	r5, #32768
	bne	.L506
.LBB748:
.LBB749:
	.loc 1 1758 0
	ldr	fp, .L601+16
	add	r4, r4, #36
.LVL330:
	b	.L545
.L512:
.LBE749:
.LBE748:
	.loc 1 2004 0
	ldr	r10, [r4, #-32]
	ldr	r3, .L601+20
	and	r3, r3, r10
	cmp	r3, #0
	bne	.L593
.L520:
.LVL331:
	.loc 1 1995 0
	ldr	r5, [r4, #4]
	add	r4, r4, #36
.LVL332:
	tst	r5, #32768
	bne	.L506
.LVL333:
.L545:
	.loc 1 1999 0
	ldr	r3, .L601+24
	and	r3, r3, r5
	cmp	r3, #0
	beq	.L512
.LVL334:
.LBB757:
.LBB754:
	.loc 1 1749 0
	tst	r5, #128
	.loc 1 1746 0
	ldrsh	r7, [r4, #-26]
.LVL335:
	.loc 1 1747 0
	ldrsh	r6, [r4, #-24]
.LVL336:
	.loc 1 1749 0
	beq	.L513
	.loc 1 1758 0
	ands	r0, r5, #3
	ldrne	r3, .L601+28
	ldr	r8, [fp]
	ldrnesh	r0, [r3]
	ldr	r3, .L601+32
	add	r0, r3, r0, asl #3
	bl	W_GetNumForName
.LVL337:
	mov	ip, #6
	mov	r2, #4
	mov	r3, r0
	str	r2, [sp, #4]
	mov	r0, r7
	mov	r1, r6
	str	ip, [sp]
	mov	r2, #0
	blx	r8
.LVL338:
	b	.L512
.LVL339:
.L593:
.LBE754:
.LBE757:
.LBB758:
.LBB759:
	.loc 1 1811 0
	tst	r10, #2
	.loc 1 1806 0
	ldrsh	r5, [r4, #-26]
.LVL340:
	ldrsh	r6, [r4, #-24]
.LVL341:
	.loc 1 1811 0
	movne	r7, #2
	bne	.L521
	tst	r10, #1
	movne	r7, #8
	moveq	r7, #3
.L521:
.LVL342:
	.loc 1 1815 0
	ands	r3, r10, #8
	beq	.L522
	.loc 1 1816 0
	ldr	r3, [r4, #-20]
	ldr	r2, .L601+36
	ldr	r1, [r3, #4]
	ldr	r3, .L601+40
	ldr	r1, [r1]
	ldr	r0, .L601+12
	cmp	r1, #0
	movne	r1, r2
	moveq	r1, r3
.LVL343:
.L590:
	.loc 1 1963 0
	bl	strcpy
.LVL344:
.L544:
.LBB760:
.LBB761:
	.loc 1 4001 0
	mov	r0, r5
	mov	r1, r6
	mov	r2, r7
	ldr	r3, .L601+12
	bl	M_DrawString
.LVL345:
.LBE761:
.LBE760:
.LBE759:
.LBE758:
	.loc 1 1995 0
	ldr	r5, [r4, #4]
.LVL346:
	add	r4, r4, #36
.LVL347:
	tst	r5, #32768
	beq	.L545
.LVL348:
.L506:
	.loc 1 2008 0
	add	sp, sp, #36
	.cfi_remember_state
	.cfi_def_cfa_offset 36
	@ sp needed
	ldmfd	sp!, {r4, r5, r6, r7, r8, r9, r10, fp, pc}
.LVL349:
.L513:
	.cfi_restore_state
.LBB777:
.LBB755:
.LBB750:
	.loc 1 1765 0
	tst	r5, #2
	movne	r8, #2
	bne	.L515
	.loc 1 1766 0
	tst	r5, #1
	movne	r8, #8
	beq	.L594
.L515:
.LVL350:
	.loc 1 1774 0
	ldr	r0, [r4, #-36]
	mov	r1, #1
	mov	r2, #0
	bl	Z_Strdup
.LVL351:
	.loc 1 1777 0
	and	r5, r5, #1048576
.LVL352:
	.loc 1 1774 0
	mov	r9, r0
.LVL353:
	.loc 1 1763 0
	mov	r10, #0
	b	.L516
.LVL354:
.L517:
.LBB751:
.LBB752:
	.loc 1 4001 0
	rsb	r0, r10, r7
.LVL355:
	mov	r1, r6
	mov	r2, r8
	ldr	r3, .L601+12
	bl	M_DrawString
.LVL356:
.LBE752:
.LBE751:
	.loc 1 1774 0
	mov	r0, #0
	add	r6, r6, #8
.LVL357:
.L516:
	ldr	r1, .L601+44
	bl	strtok
.LVL358:
	subs	r1, r0, #0
	.loc 1 1776 0
	ldr	r0, .L601+12
.LVL359:
	.loc 1 1774 0
	beq	.L595
	.loc 1 1776 0
	bl	strcpy
.LVL360:
	.loc 1 1777 0
	cmp	r5, #0
	bne	.L517
	.loc 1 1778 0
	ldr	r0, .L601+12
	bl	M_GetPixelWidth
.LVL361:
	add	r10, r0, #4
.LVL362:
	b	.L517
.LVL363:
.L595:
	.loc 1 1781 0
	mov	r0, r9
	bl	Z_Free
.LVL364:
	b	.L512
.LVL365:
.L522:
.LBE750:
.LBE755:
.LBE777:
.LBB778:
.LBB773:
	.loc 1 1823 0
	ands	r1, r10, #4096
	beq	.L524
	.loc 1 1825 0
	tst	r10, #3
	beq	.L525
	ldr	r0, .L601+48
	ldr	r2, [r0, #16]
	cmp	r2, #0
	bne	.L596
.L525:
	.loc 1 1830 0
	ldr	r3, [r4, #-20]
	ldr	r1, .L601+52
	ldr	r3, [r3, #4]
	ldr	r0, .L601+12
	ldr	r2, [r3]
	bl	sprintf
.LVL366:
	b	.L544
.LVL367:
.L524:
	.loc 1 1837 0
	tst	r10, #1024
	beq	.L527
.LBB762:
	.loc 1 1838 0
	ldr	r8, [r4, #-20]
.LVL368:
	.loc 1 1842 0
	cmp	r8, #0
	beq	.L520
	.loc 1 1843 0
	ldr	r0, [r8]
	bl	M_GetKeyString
.LVL369:
	.loc 1 1844 0
	ldr	r2, .L601+56
	ldr	r0, .L601+60
	ldr	r3, .L601+64
	cmp	r8, r2
	cmpne	r8, r0
	moveq	r2, #1
	movne	r2, #0
	cmp	r8, r3
	movne	r1, r2
	orreq	r1, r2, #1
	ldr	r2, .L601+68
	.loc 1 1845 0
	ldr	r3, .L601+72
	cmp	r8, r2
	movne	r2, r1
	orreq	r2, r1, #1
	cmp	r8, r3
	orreq	r2, r2, #1
	ldr	r3, .L601+76
	cmp	r8, r3
	movne	r3, r2
	orreq	r3, r2, #1
	cmp	r3, #0
	beq	.L544
	.loc 1 1847 0
	ldr	r3, [r4, #-16]
	cmp	r3, #0
	beq	.L531
	ldr	r8, [r3]
.LVL370:
	cmn	r8, #1
	beq	.L531
	.loc 1 1848 0
	ldr	r0, .L601+12
	bl	strlen
.LVL371:
	ldr	r3, .L601+12
	add	r2, r8, #1
	add	r0, r3, r0
	ldr	r1, .L601+80
	bl	sprintf
.LVL372:
.L531:
	.loc 1 1850 0
	ldr	r8, [r4, #-12]
	cmp	r8, #0
	beq	.L544
	.loc 1 1851 0
	ldr	r0, .L601+12
	bl	strlen
.LVL373:
	ldr	r2, [r8]
	ldr	r3, .L601+12
	add	r2, r2, #1
	add	r0, r3, r0
	ldr	r1, .L601+84
	bl	sprintf
.LVL374:
	b	.L544
.LVL375:
.L527:
.LBE762:
	.loc 1 1868 0
	ands	r9, r10, #2064
	bne	.L597
	.loc 1 1877 0
	ands	r8, r10, #32
	bne	.L598
	.loc 1 1899 0
	ldr	r3, .L601+88
	and	r3, r3, r10
	cmp	r3, #0
	beq	.L536
.LVL376:
.LBB763:
	.loc 1 1910 0
	ldr	r2, .L601+48
	.loc 1 1904 0
	ldr	r3, [r4, #-20]
	.loc 1 1910 0
	ldr	r2, [r2, #8]
	.loc 1 1905 0
	ldr	r3, [r3, #8]
	.loc 1 1910 0
	cmp	r2, #0
	.loc 1 1905 0
	ldr	r9, [r3]
.LVL377:
	.loc 1 1910 0
	beq	.L537
	tst	r10, #3
.LBB764:
	.loc 1 1918 0
	ldrne	r10, .L601+92
.LVL378:
.LBE764:
	.loc 1 1910 0
	bne	.L539
.LVL379:
.L537:
	.loc 1 1946 0
	mov	r1, r9
	ldr	r0, .L601+12
	b	.L590
.LVL380:
.L594:
.LBE763:
.LBE773:
.LBE778:
.LBB779:
.LBB756:
.LBB753:
	.loc 1 1767 0
	tst	r5, #772
	moveq	r8, #6
	movne	r8, #5
	b	.L515
.LVL381:
.L591:
.LBE753:
.LBE756:
.LBE779:
	.loc 1 1981 0
	ldr	lr, .L601+96
	ldr	ip, .L601+12
	ldmia	lr!, {r0, r1, r2, r3}
.LVL382:
	stmia	ip!, {r0, r1, r2, r3}
	ldr	r2, [lr]
.LBB780:
.LBB781:
	.loc 1 4001 0
	mov	r0, #100
.LBE781:
.LBE780:
	.loc 1 1981 0
	strh	r2, [ip], #2	@ movhi
	mov	r3, ip
	mov	r2, r2, lsr #16
	strb	r2, [r3], #-18
.LVL383:
.LBB783:
.LBB782:
	.loc 1 4001 0
	mov	r1, #176
	mov	r2, #6
	bl	M_DrawString
.LVL384:
	b	.L507
.LVL385:
.L540:
.LBE782:
.LBE783:
.LBB784:
.LBB774:
.LBB767:
.LBB766:
.LBB765:
	.loc 1 1919 0
	mov	r0, r9
	bl	strlen
.LVL386:
	.loc 1 1921 0
	ldr	r3, .L601+100
	.loc 1 1920 0
	sub	r0, r0, #1
.LVL387:
	strb	r8, [r9, r0]
	.loc 1 1921 0
	ldr	r3, [r3]
	ldr	r2, .L601+100
	cmp	r0, r3
	.loc 1 1922 0
	sublt	r3, r3, #1
	strlt	r3, [r2]
.LVL388:
.L539:
.LBE765:
	.loc 1 1918 0
	mov	r0, r9
	bl	M_GetPixelWidth
.LVL389:
	cmp	r0, r10
	bgt	.L540
	.loc 1 1930 0
	mov	r10, #0
	.loc 1 1929 0
	ldr	r3, .L601+100
	.loc 1 1931 0
	add	r0, sp, #28
	.loc 1 1929 0
	ldr	r8, [r3]
	ldrb	r3, [r9, r8]	@ zero_extendqisi2
	.loc 1 1930 0
	strb	r10, [sp, #29]
	.loc 1 1929 0
	strb	r3, [sp, #28]
	.loc 1 1931 0
	bl	M_GetPixelWidth
.LVL390:
	.loc 1 1933 0
	cmp	r0, #1
	.loc 1 1934 0
	strb	r10, [r9, r8]
	.loc 1 1933 0
	movne	r8, r0
	.loc 1 1935 0
	mov	r0, r9
.LVL391:
	.loc 1 1933 0
	moveq	r8, #7
.LVL392:
	.loc 1 1935 0
	bl	M_GetPixelWidth
.LVL393:
	.loc 1 1936 0
	ldr	r3, .L601+100
	ldrb	r1, [sp, #28]	@ zero_extendqisi2
	ldr	r2, [r3]
	.loc 1 1940 0
	ldr	r3, .L601+104
	.loc 1 1936 0
	strb	r1, [r9, r2]
	.loc 1 1940 0
	ldr	r3, [r3]
	add	r0, r5, r0
.LVL394:
	ldr	r2, .L601+108
	sub	r1, r0, #1
	ldr	ip, [r2]
	mul	r1, r3, r1
	mul	r2, ip, r6
	.loc 1 1941 0
	add	r0, ip, ip, asl #3
	.loc 1 1940 0
	ldr	ip, .L601+112
	.loc 1 1941 0
	mul	r3, r8, r3
	.loc 1 1940 0
	smull	lr, ip, ip, r1
	ldr	lr, .L601+116
	str	ip, [sp, #12]
	smull	lr, ip, lr, r0
	mov	r0, r0, asr #31
	rsb	ip, r0, ip, asr #6
	ldr	r0, .L601+116
	str	ip, [sp]
	smull	r0, r8, r0, r2
.LVL395:
	ldr	r0, .L601+112
	ldr	ip, .L601+120
	smull	r0, lr, r0, r3
	mov	r3, r3, asr #31
	rsb	r3, r3, lr, asr #7
	mov	lr, #4
	mov	r0, r10
	ldr	r10, [sp, #12]
	mov	r1, r1, asr #31
	mov	r2, r2, asr #31
	ldr	ip, [ip]
	rsb	r1, r1, r10, asr #7
	rsb	r2, r2, r8, asr #6
	str	lr, [sp, #4]
	blx	ip
.LVL396:
	b	.L537
.LVL397:
.L510:
.LBE766:
.LBE767:
.LBE774:
.LBE784:
	.loc 1 1990 0
	ldr	lr, .L601+124
	ldr	ip, .L601+12
	ldmia	lr!, {r0, r1, r2, r3}
.LVL398:
	stmia	ip!, {r0, r1, r2, r3}
	ldmia	lr!, {r0, r1, r2, r3}
	stmia	ip!, {r0, r1, r2, r3}
	ldmia	lr, {r0, r1, r2, r3}
	stmia	ip!, {r0, r1, r2}
.LBB785:
.LBB786:
	.loc 1 4001 0
	mov	r0, #18
.LBE786:
.LBE785:
	.loc 1 1990 0
	strb	r3, [ip]
.LVL399:
.LBB788:
.LBB787:
	.loc 1 4001 0
	mov	r1, #184
	sub	r3, ip, #44
	mov	r2, #6
	bl	M_DrawString
.LVL400:
	b	.L507
.LVL401:
.L596:
.LBE787:
.LBE788:
.LBB789:
.LBB775:
	.loc 1 1826 0
	ldr	r1, .L601+128
	ldr	r2, .L601+132
	ldr	ip, [r1]
	.loc 1 1827 0
	add	r0, r0, #224
	mov	r1, r2
	.loc 1 1826 0
	strb	r3, [r2, ip]
	.loc 1 1827 0
	bl	strcpy
.LVL402:
	b	.L544
.LVL403:
.L592:
.LBE775:
.LBE789:
	.loc 1 1984 0
	ldr	ip, .L601+136
	ldr	lr, .L601+12
	ldmia	ip!, {r0, r1, r2, r3}
.LVL404:
	stmia	lr!, {r0, r1, r2, r3}
	ldmia	ip!, {r0, r1, r2, r3}
	stmia	lr!, {r0, r1, r2, r3}
	ldmia	ip!, {r0, r1, r2, r3}
	stmia	lr!, {r0, r1, r2, r3}
	mov	r3, lr
	ldr	r2, [ip]
.LBB790:
.LBB791:
	.loc 1 4001 0
	mov	r0, #3
.LBE791:
.LBE790:
	.loc 1 1984 0
	strh	r2, [r3], #-48	@ movhi
.LVL405:
.LBB793:
.LBB792:
	.loc 1 4001 0
	mov	r1, #176
	mov	r2, #6
	bl	M_DrawString
.LVL406:
	b	.L507
.LVL407:
.L598:
.LBE792:
.LBE793:
.LBB794:
.LBB776:
.LBB768:
	.loc 1 1884 0
	ldr	r8, .L601+104
	ldr	r3, .L601+108
	ldr	r1, [r8]
	ldr	r3, [r3]
	mul	r1, r1, r5
	ldr	r0, .L601+116
	sub	r2, r6, #1
	mul	r2, r3, r2
	smull	ip, r0, r0, r3
	ldr	ip, .L601+112
	ldr	r10, [r8]
.LVL408:
	smull	ip, r7, ip, r1
.LVL409:
	ldr	ip, .L601+116
	mov	r3, r3, asr #31
	smull	ip, lr, ip, r2
	.loc 1 1881 0
	ldr	ip, [r4, #-20]
	.loc 1 1884 0
	rsb	r0, r3, r0, asr #3
	.loc 1 1881 0
	str	ip, [sp, #12]
.LVL410:
	.loc 1 1884 0
	ldr	ip, .L601+112
	ldr	r3, [r8]
	smull	ip, r10, ip, r10
	.loc 1 1881 0
	ldr	ip, [sp, #12]
	.loc 1 1884 0
	mov	r1, r1, asr #31
	.loc 1 1881 0
	ldr	ip, [ip, #4]
	.loc 1 1884 0
	rsb	r1, r1, r7, asr #7
	.loc 1 1881 0
	ldr	ip, [ip]
	.loc 1 1884 0
	stmia	sp, {r0, r9}
.LVL411:
	ldr	r7, .L601+120
	mov	r2, r2, asr #31
	mov	r3, r3, asr #31
	rsb	r2, r2, lr, asr #6
	rsb	r3, r3, r10, asr #4
	.loc 1 1881 0
	str	ip, [sp, #12]
	.loc 1 1884 0
	mov	r0, r9
	ldr	ip, [r7]
	blx	ip
.LVL412:
	.loc 1 1887 0
	ldr	r3, .L601+108
	ldr	lr, .L601+116
	ldr	r0, [r3]
	ldr	r3, [r8]
	mul	r2, r0, r6
	.loc 1 1888 0
	add	r0, r0, r0, asl #1
	.loc 1 1887 0
	add	r8, r5, #1
	.loc 1 1888 0
	mov	r0, r0, asl #1
	.loc 1 1887 0
	mul	r1, r3, r8
	smull	lr, ip, lr, r0
	.loc 1 1888 0
	add	r3, r3, r3, asl #1
	.loc 1 1887 0
	ldr	lr, .L601+112
	.loc 1 1888 0
	mov	r3, r3, asl #1
	.loc 1 1887 0
	smull	lr, r10, lr, r3
	ldr	lr, .L601+112
	mov	r0, r0, asr #31
	smull	r5, lr, lr, r1
.LVL413:
	ldr	r5, .L601+116
	str	lr, [sp, #16]
	smull	lr, r5, r5, r2
	str	r5, [sp, #20]
	ldr	r5, [r7]
	ldr	r7, [sp, #16]
	mov	r1, r1, asr #31
	ldrb	lr, [sp, #12]	@ zero_extendqisi2
	rsb	r1, r1, r7, asr #7
	ldr	r7, [sp, #20]
	rsb	ip, r0, ip, asr #6
	mov	r3, r3, asr #31
	mov	r2, r2, asr #31
	str	ip, [sp]
	mov	r0, r9
	rsb	r3, r3, r10, asr #7
	rsb	r2, r2, r7, asr #6
	str	lr, [sp, #4]
	blx	r5
.LVL414:
	.loc 1 1891 0
	ldr	ip, [sp, #12]
	cmp	ip, #0
	bne	.L520
	.loc 1 1892 0
	ldr	r0, .L601+140
	ldr	r5, [fp]
	bl	W_GetNumForName
.LVL415:
	mov	lr, #6
	mov	ip, #4
	mov	r3, r0
	mov	r1, r6
	mov	r0, r8
	ldr	r2, [sp, #12]
	str	lr, [sp]
	str	ip, [sp, #4]
	blx	r5
.LVL416:
	b	.L520
.LVL417:
.L597:
.LBE768:
	.loc 1 1870 0
	ldr	r3, [r4, #-20]
	ldr	r1, .L601+52
	ldr	r3, [r3, #4]
	ldr	r0, .L601+12
	ldr	r2, [r3]
	bl	sprintf
.LVL418:
	.loc 1 1871 0
	tst	r10, #16
	ldrne	r3, [r4, #-20]
	moveq	r2, r7
.LVL419:
	ldrne	r3, [r3, #4]
.LBB769:
.LBB770:
	.loc 1 4001 0
	mov	r0, r5
.LBE770:
.LBE769:
	.loc 1 1871 0
	ldrne	r2, [r3]
.LVL420:
.LBB772:
.LBB771:
	.loc 1 4001 0
	mov	r1, r6
	ldr	r3, .L601+12
	bl	M_DrawString
.LVL421:
	b	.L520
.LVL422:
.L536:
.LBE771:
.LBE772:
	.loc 1 1953 0
	tst	r10, #8388608
	beq	.L520
	.loc 1 1954 0
	ldr	r3, [r4, #-20]
	ldrb	r2, [r3, #28]	@ zero_extendqisi2
	cmp	r2, #2
	beq	.L599
.L542:
	.loc 1 1962 0
	cmp	r2, #1
	bne	.L544
	.loc 1 1963 0
	ldr	r3, [r3, #8]
	ldr	r0, .L601+12
	ldr	r1, [r3]
	b	.L590
.L599:
	.loc 1 1955 0
	ldr	r2, [r4, #-4]
	.loc 1 1956 0
	ldr	r3, [r3, #4]
	.loc 1 1955 0
	cmp	r2, #0
	.loc 1 1956 0
	ldr	r0, .L601+12
	.loc 1 1955 0
	beq	.L600
	.loc 1 1958 0
	ldr	r3, [r3]
	ldr	r1, [r2, r3, asl #2]
	bl	strcpy
.LVL423:
	ldr	r3, [r4, #-20]
	ldrb	r2, [r3, #28]	@ zero_extendqisi2
	b	.L542
.L600:
	.loc 1 1956 0
	ldr	r2, [r3]
	ldr	r1, .L601+52
	bl	sprintf
.LVL424:
	ldr	r3, [r4, #-20]
	ldrb	r2, [r3, #28]	@ zero_extendqisi2
	b	.L542
.L602:
	.align	2
.L601:
	.word	print_warning_about_changes
	.word	warning_about_changes
	.word	.LC61
	.word	.LANCHOR1+224
	.word	V_DrawNumPatch
	.word	8920184
	.word	11018236
	.word	whichSkull
	.word	.LANCHOR0+1524
	.word	.LC57
	.word	.LC58
	.word	.LC63
	.word	.LANCHOR1
	.word	.LC64
	.word	key_down
	.word	key_up
	.word	key_speed
	.word	key_fire
	.word	key_strafe
	.word	key_use
	.word	.LC65
	.word	.LC66
	.word	524352
	.word	271
	.word	.LC59
	.word	chat_index
	.word	SCREENWIDTH
	.word	SCREENHEIGHT
	.word	1717986919
	.word	1374389535
	.word	V_FillRect
	.word	.LC62
	.word	gather_count
	.word	gather_buffer
	.word	.LC60
	.word	.LC67
.LBE776:
.LBE794:
	.cfi_endproc
.LFE61:
	.size	M_DrawScreenItems, .-M_DrawScreenItems
	.align	2
	.global	M_DrawHelp
	.type	M_DrawHelp, %function
M_DrawHelp:
.LFB98:
	.loc 1 4038 0
	.cfi_startproc
	@ args = 0, pretend = 0, frame = 0
	@ frame_needed = 0, uses_anonymous_args = 0
	.loc 1 4039 0
	mov	r1, #2
	.loc 1 4038 0
	stmfd	sp!, {r3, lr}
	.cfi_def_cfa_offset 8
	.cfi_offset 3, -8
	.cfi_offset 14, -4
.LBB795:
.LBB796:
	.loc 1 130 0
	ldr	r3, .L609
.LBE796:
.LBE795:
	.loc 1 4039 0
	ldr	r2, .L609+4
.LBB799:
.LBB797:
	.loc 1 130 0
	ldr	r3, [r3, #1540]
.LBE797:
.LBE799:
	.loc 1 4039 0
	strb	r1, [r2]
.LVL425:
.LBB800:
.LBB798:
	.loc 1 130 0
	cmp	r3, #0
	beq	.L604
	bl	M_DrawBackground.part.1.constprop.27
.LVL426:
.L604:
.LBE798:
.LBE800:
	.loc 1 4044 0
	ldmfd	sp!, {r3, lr}
	.cfi_restore 14
	.cfi_restore 3
	.cfi_def_cfa_offset 0
	.loc 1 4043 0
	ldr	r0, .L609+8
	b	M_DrawScreenItems
.LVL427:
.L610:
	.align	2
.L609:
	.word	.LANCHOR0
	.word	menuactive
	.word	.LANCHOR0+1544
	.cfi_endproc
.LFE98:
	.size	M_DrawHelp, .-M_DrawHelp
	.align	2
	.global	M_StartControlPanel
	.type	M_StartControlPanel, %function
M_StartControlPanel:
.LFB102:
	.loc 1 5262 0
	.cfi_startproc
	@ args = 0, pretend = 0, frame = 0
	@ frame_needed = 0, uses_anonymous_args = 0
	@ link register save eliminated.
	.loc 1 5265 0
	ldr	r3, .L613
	ldrb	r3, [r3]	@ zero_extendqisi2
	cmp	r3, #0
	bxne	lr
	b	M_StartControlPanel.part.7
.LVL428:
.L614:
	.align	2
.L613:
	.word	menuactive
	.cfi_endproc
.LFE102:
	.size	M_StartControlPanel, .-M_StartControlPanel
	.align	2
	.global	M_ClearMenus
	.type	M_ClearMenus, %function
M_ClearMenus:
.LFB104:
	.loc 1 5371 0
	.cfi_startproc
	@ args = 0, pretend = 0, frame = 0
	@ frame_needed = 0, uses_anonymous_args = 0
	@ link register save eliminated.
	.loc 1 5372 0
	mov	r3, #0
	ldr	r0, .L616
	.loc 1 5373 0
	ldr	r1, .L616+4
	.loc 1 5374 0
	ldr	r2, .L616+8
	.loc 1 5372 0
	strb	r3, [r0]
	.loc 1 5373 0
	str	r3, [r1]
	.loc 1 5374 0
	str	r3, [r2, #12]
	bx	lr
.L617:
	.align	2
.L616:
	.word	menuactive
	.word	print_warning_about_changes
	.word	.LANCHOR1
	.cfi_endproc
.LFE104:
	.size	M_ClearMenus, .-M_ClearMenus
	.align	2
	.global	M_SetupNextMenu
	.type	M_SetupNextMenu, %function
M_SetupNextMenu:
.LFB105:
	.loc 1 5384 0
	.cfi_startproc
	@ args = 0, pretend = 0, frame = 0
	@ frame_needed = 0, uses_anonymous_args = 0
	@ link register save eliminated.
.LVL429:
	.loc 1 5385 0
	ldr	r1, .L619
	.loc 1 5386 0
	ldrh	r2, [r0, #20]
	ldr	r3, .L619+4
	.loc 1 5385 0
	str	r0, [r1]
	.loc 1 5386 0
	strh	r2, [r3]	@ movhi
	bx	lr
.L620:
	.align	2
.L619:
	.word	currentMenu
	.word	itemOn
	.cfi_endproc
.LFE105:
	.size	M_SetupNextMenu, .-M_SetupNextMenu
	.align	2
	.global	M_Ticker
	.type	M_Ticker, %function
M_Ticker:
.LFB106:
	.loc 1 5394 0
	.cfi_startproc
	@ args = 0, pretend = 0, frame = 0
	@ frame_needed = 0, uses_anonymous_args = 0
	@ link register save eliminated.
	.loc 1 5395 0
	ldr	r2, .L623
	ldrh	r3, [r2]
	sub	r3, r3, #1
	uxth	r3, r3
	sxth	r1, r3
	cmp	r1, #0
	strh	r3, [r2]	@ movhi
	bxgt	lr
	.loc 1 5398 0
	mov	r3, #8
	.loc 1 5397 0
	ldr	r1, .L623+4
	.loc 1 5398 0
	strh	r3, [r2]	@ movhi
	.loc 1 5397 0
	ldrh	r3, [r1]
	eor	r3, r3, #1
	strh	r3, [r1]	@ movhi
	bx	lr
.L624:
	.align	2
.L623:
	.word	skullAnimCounter
	.word	whichSkull
	.cfi_endproc
.LFE106:
	.size	M_Ticker, .-M_Ticker
	.align	2
	.global	M_StartMessage
	.type	M_StartMessage, %function
M_StartMessage:
.LFB107:
	.loc 1 5408 0
	.cfi_startproc
	@ args = 0, pretend = 0, frame = 0
	@ frame_needed = 0, uses_anonymous_args = 0
.LVL430:
	.loc 1 5410 0
	mov	r3, #1
	.loc 1 5409 0
	ldr	ip, .L627
	.loc 1 5408 0
	stmfd	sp!, {r4, r5, r6, r7, r8, lr}
	.cfi_def_cfa_offset 24
	.cfi_offset 4, -24
	.cfi_offset 5, -20
	.cfi_offset 6, -16
	.cfi_offset 7, -12
	.cfi_offset 8, -8
	.cfi_offset 14, -4
	.loc 1 5409 0
	ldrb	r8, [ip]	@ zero_extendqisi2
	ldr	r7, .L627+4
	.loc 1 5410 0
	ldr	r6, .L627+8
	.loc 1 5411 0
	ldr	r5, .L627+12
	.loc 1 5412 0
	ldr	r4, .L627+16
	.loc 1 5413 0
	ldr	lr, .L627+20
	.loc 1 5409 0
	str	r8, [r7]
	.loc 1 5414 0
	strb	r3, [ip]
	.loc 1 5410 0
	str	r3, [r6]
	.loc 1 5411 0
	str	r0, [r5, #220]
	.loc 1 5412 0
	str	r1, [r4]
	.loc 1 5413 0
	str	r2, [lr]
	ldmfd	sp!, {r4, r5, r6, r7, r8, pc}
.L628:
	.align	2
.L627:
	.word	menuactive
	.word	messageLastMenuActive
	.word	messageToPrint
	.word	.LANCHOR1
	.word	messageRoutine
	.word	messageNeedsInput
	.cfi_endproc
.LFE107:
	.size	M_StartMessage, .-M_StartMessage
	.align	2
	.global	M_StopMessage
	.type	M_StopMessage, %function
M_StopMessage:
.LFB108:
	.loc 1 5419 0
	.cfi_startproc
	@ args = 0, pretend = 0, frame = 0
	@ frame_needed = 0, uses_anonymous_args = 0
	@ link register save eliminated.
	.loc 1 5421 0
	mov	r2, #0
	.loc 1 5420 0
	ldr	r3, .L630
	ldr	r1, .L630+4
	ldr	r0, [r3]
	.loc 1 5421 0
	ldr	r3, .L630+8
	.loc 1 5420 0
	strb	r0, [r1]
	.loc 1 5421 0
	str	r2, [r3]
	bx	lr
.L631:
	.align	2
.L630:
	.word	messageLastMenuActive
	.word	menuactive
	.word	messageToPrint
	.cfi_endproc
.LFE108:
	.size	M_StopMessage, .-M_StopMessage
	.global	__aeabi_idiv
	.align	2
	.global	M_DrawThermo
	.type	M_DrawThermo, %function
M_DrawThermo:
.LFB109:
	.loc 1 5437 0
	.cfi_startproc
	@ args = 0, pretend = 0, frame = 16
	@ frame_needed = 0, uses_anonymous_args = 0
.LVL431:
	.loc 1 5449 0
	cmp	r2, #200
	.loc 1 5437 0
	stmfd	sp!, {r4, r5, r6, r7, r8, r9, r10, fp, lr}
	.cfi_def_cfa_offset 36
	.cfi_offset 4, -36
	.cfi_offset 5, -32
	.cfi_offset 6, -28
	.cfi_offset 7, -24
	.cfi_offset 8, -20
	.cfi_offset 9, -16
	.cfi_offset 10, -12
	.cfi_offset 11, -8
	.cfi_offset 14, -4
	.loc 1 5449 0
	movlt	r9, r2
	movge	r9, #200
.LVL432:
	.loc 1 5437 0
	sub	sp, sp, #28
	.cfi_def_cfa_offset 64
	.loc 1 5450 0
	cmp	r9, #23
	.loc 1 5437 0
	mov	r4, r0
	mov	r7, r1
	str	r3, [sp, #20]
	.loc 1 5450 0
	ble	.L633
	.loc 1 5450 0 is_stmt 0 discriminator 1
	mov	r1, r9
.LVL433:
	mov	r0, #200
.LVL434:
	bl	__aeabi_idiv
.LVL435:
	.loc 1 5452 0 is_stmt 1 discriminator 1
	ldr	r8, .L640
	.loc 1 5450 0 discriminator 1
	mov	r6, r0
	.loc 1 5452 0 discriminator 1
	ldr	r0, .L640+4
	ldr	r5, [r8]
	bl	W_GetNumForName
.LVL436:
	mov	r1, #6
	mov	r2, #4
	mov	r3, r0
	stmia	sp, {r1, r2}
	mov	r0, r4
	mov	r1, r7
	mov	r2, #0
	blx	r5
.LVL437:
	.loc 1 5453 0 discriminator 1
	add	r4, r4, #8
.LVL438:
	rsb	r3, r6, #8
	str	r3, [sp, #16]
.LVL439:
	str	r4, [sp, #12]
.LVL440:
.L634:
	.loc 1 5453 0 is_stmt 0 discriminator 3
	mov	r5, #0
	.loc 1 5456 0 is_stmt 1 discriminator 3
	mov	fp, #6
.LVL441:
.L636:
	ldr	r0, .L640+8
	ldr	r10, [r8]
	bl	W_GetNumForName
.LVL442:
	mov	r2, #4
	mov	r3, r0
	str	r2, [sp, #4]
	mov	r0, r4
	.loc 1 5454 0 discriminator 3
	add	r5, r5, #1
.LVL443:
	.loc 1 5456 0 discriminator 3
	str	fp, [sp]
	mov	r1, r7
	mov	r2, #0
	blx	r10
.LVL444:
	.loc 1 5454 0 discriminator 3
	cmp	r5, r9
	.loc 1 5457 0 discriminator 3
	add	r4, r4, r6
.LVL445:
	.loc 1 5454 0 discriminator 3
	bne	.L636
	ldr	r3, [sp, #12]
	sub	r5, r5, #1
.LVL446:
	add	r4, r6, r3
.LVL447:
	mla	r4, r6, r5, r4
.LVL448:
.L635:
	.loc 1 5462 0
	ldr	r0, .L640+12
	ldr	r10, [r8]
	mov	r9, #6
.LVL449:
	bl	W_GetNumForName
.LVL450:
	mov	r5, #4
	.loc 1 5460 0
	ldr	r2, [sp, #16]
	.loc 1 5462 0
	mov	r3, r0
	mov	r1, r7
	.loc 1 5460 0
	add	r0, r4, r2
.LVL451:
	.loc 1 5462 0
	str	r9, [sp]
	mov	r2, #0
	str	r5, [sp, #4]
	blx	r10
.LVL452:
	.loc 1 5463 0
	ldr	r0, .L640+16
	ldr	r4, [r8]
.LVL453:
	bl	W_GetNumForName
.LVL454:
	ldr	r2, [sp, #20]
	ldr	r1, [sp, #12]
	mov	r3, r0
	str	r9, [sp]
	mla	r0, r2, r6, r1
	str	r5, [sp, #4]
	mov	r1, r7
	mov	r2, #0
	blx	r4
.LVL455:
	.loc 1 5464 0
	add	sp, sp, #28
	.cfi_remember_state
	.cfi_def_cfa_offset 36
	@ sp needed
	ldmfd	sp!, {r4, r5, r6, r7, r8, r9, r10, fp, pc}
.LVL456:
.L633:
	.cfi_restore_state
	mov	r3, #0
.LVL457:
	.loc 1 5452 0 discriminator 4
	ldr	r8, .L640
	ldr	r0, .L640+4
.LVL458:
	mov	r6, r3
	ldr	r5, [r8]
	str	r3, [sp, #16]
	bl	W_GetNumForName
.LVL459:
	mov	ip, #6
	mov	r1, #4
	mov	r3, r0
	mov	r2, r6
	str	r1, [sp, #4]
	mov	r0, r4
	str	ip, [sp]
	mov	r1, r7
	blx	r5
.LVL460:
	.loc 1 5453 0 discriminator 4
	add	r4, r4, #8
.LVL461:
	.loc 1 5454 0 discriminator 4
	cmp	r9, r6
	.loc 1 5453 0 discriminator 4
	str	r4, [sp, #12]
	.loc 1 5450 0 discriminator 4
	mov	r6, #8
.LVL462:
	.loc 1 5454 0 discriminator 4
	bgt	.L634
	b	.L635
.L641:
	.align	2
.L640:
	.word	V_DrawNumPatch
	.word	.LC68
	.word	.LC69
	.word	.LC70
	.word	.LC71
	.cfi_endproc
.LFE109:
	.size	M_DrawThermo, .-M_DrawThermo
	.align	2
	.global	M_DrawOptions
	.type	M_DrawOptions, %function
M_DrawOptions:
.LFB35:
	.loc 1 1001 0
	.cfi_startproc
	@ args = 0, pretend = 0, frame = 0
	@ frame_needed = 0, uses_anonymous_args = 0
	stmfd	sp!, {r4, r5, r6, r7, r8, r9, lr}
	.cfi_def_cfa_offset 28
	.cfi_offset 4, -28
	.cfi_offset 5, -24
	.cfi_offset 6, -20
	.cfi_offset 7, -16
	.cfi_offset 8, -12
	.cfi_offset 9, -8
	.cfi_offset 14, -4
	.loc 1 1004 0
	ldr	r9, .L644
	.loc 1 1001 0
	sub	sp, sp, #12
	.cfi_def_cfa_offset 40
	.loc 1 1004 0
	ldr	r0, .L644+4
	ldr	r4, [r9]
	mov	r7, #6
	bl	W_GetNumForName
.LVL463:
	mov	r8, #4
	mov	r3, r0
	mov	r1, #15
	mov	r2, #0
	stmia	sp, {r7, r8}
	mov	r0, #108
	blx	r4
.LVL464:
	.loc 1 1006 0
	ldr	r3, .L644+8
	ldr	r4, .L644+12
	ldr	r3, [r3]
	add	r0, r4, #3488
	add	r3, r3, r3, asl #3
	add	r0, r0, r3
	ldrsh	r5, [r4, #88]
	ldrsh	r6, [r4, #90]
	ldr	r9, [r9]
	bl	W_GetNumForName
.LVL465:
	add	r5, r5, #120
	add	r6, r6, #48
	mov	r3, r0
	mov	r1, r6
	mov	r0, r5
	str	r7, [sp]
	str	r8, [sp, #4]
	mov	r2, #0
	blx	r9
.LVL466:
	.loc 1 1009 0
	mov	r2, #9
	ldr	r3, .L644+16
	ldrsh	r1, [r4, #90]
	ldrsh	r0, [r4, #88]
	ldr	r3, [r3]
	add	r1, r1, #80
	.loc 1 1011 0
	add	sp, sp, #12
	.cfi_def_cfa_offset 28
	@ sp needed
	ldmfd	sp!, {r4, r5, r6, r7, r8, r9, lr}
	.cfi_restore 14
	.cfi_restore 9
	.cfi_restore 8
	.cfi_restore 7
	.cfi_restore 6
	.cfi_restore 5
	.cfi_restore 4
	.cfi_def_cfa_offset 0
	.loc 1 1009 0
	b	M_DrawThermo
.LVL467:
.L645:
	.align	2
.L644:
	.word	V_DrawNumPatch
	.word	.LC72
	.word	showMessages
	.word	.LANCHOR0
	.word	screenSize
	.cfi_endproc
.LFE35:
	.size	M_DrawOptions, .-M_DrawOptions
	.align	2
	.global	M_DrawSound
	.type	M_DrawSound, %function
M_DrawSound:
.LFB39:
	.loc 1 1129 0
	.cfi_startproc
	@ args = 0, pretend = 0, frame = 0
	@ frame_needed = 0, uses_anonymous_args = 0
	stmfd	sp!, {r4, r5, lr}
	.cfi_def_cfa_offset 12
	.cfi_offset 4, -12
	.cfi_offset 5, -8
	.cfi_offset 14, -4
	.loc 1 1131 0
	ldr	r3, .L648
	.loc 1 1129 0
	sub	sp, sp, #12
	.cfi_def_cfa_offset 24
	.loc 1 1131 0
	ldr	r0, .L648+4
	ldr	r5, [r3]
	bl	W_GetNumForName
.LVL468:
	mov	r1, #6
	mov	r2, #4
	.loc 1 1133 0
	ldr	r4, .L648+8
	.loc 1 1131 0
	stmia	sp, {r1, r2}
	mov	r3, r0
	mov	r1, #38
	mov	r0, #60
	mov	r2, #0
	blx	r5
.LVL469:
	.loc 1 1133 0
	ldrsh	r1, [r4, #114]
	ldr	r3, .L648+12
	ldrsh	r0, [r4, #112]
	add	r1, r1, #16
	ldr	r3, [r3]
	mov	r2, #16
	bl	M_DrawThermo
.LVL470:
	.loc 1 1135 0
	mov	r2, #16
	ldr	r3, .L648+16
	ldrsh	r1, [r4, #114]
	ldrsh	r0, [r4, #112]
	ldr	r3, [r3]
	add	r1, r1, #48
	.loc 1 1136 0
	add	sp, sp, #12
	.cfi_def_cfa_offset 12
	@ sp needed
	ldmfd	sp!, {r4, r5, lr}
	.cfi_restore 14
	.cfi_restore 5
	.cfi_restore 4
	.cfi_def_cfa_offset 0
	.loc 1 1135 0
	b	M_DrawThermo
.LVL471:
.L649:
	.align	2
.L648:
	.word	V_DrawNumPatch
	.word	.LC73
	.word	.LANCHOR0
	.word	snd_SfxVolume
	.word	snd_MusicVolume
	.cfi_endproc
.LFE39:
	.size	M_DrawSound, .-M_DrawSound
	.align	2
	.global	M_DrawMouse
	.type	M_DrawMouse, %function
M_DrawMouse:
.LFB43:
	.loc 1 1224 0
	.cfi_startproc
	@ args = 0, pretend = 0, frame = 0
	@ frame_needed = 0, uses_anonymous_args = 0
	stmfd	sp!, {r4, lr}
	.cfi_def_cfa_offset 8
	.cfi_offset 4, -8
	.cfi_offset 14, -4
	.loc 1 1228 0
	ldr	r3, .L652
	.loc 1 1224 0
	sub	sp, sp, #8
	.cfi_def_cfa_offset 16
	.loc 1 1228 0
	ldr	r0, .L652+4
	ldr	r4, [r3]
	bl	W_GetNumForName
.LVL472:
	mov	r1, #6
	mov	r2, #4
	mov	r3, r0
	stmia	sp, {r1, r2}
	mov	r0, #60
	mov	r1, #38
	mov	r2, #0
	blx	r4
.LVL473:
	.loc 1 1231 0
	ldr	r3, .L652+8
.LVL474:
	.loc 1 1232 0
	ldr	r4, .L652+12
	.loc 1 1231 0
	ldr	r3, [r3]
.LVL475:
	.loc 1 1232 0
	ldrsh	r1, [r4, #138]
	cmp	r3, #99
	movge	r3, #99
.LVL476:
	ldrsh	r0, [r4, #136]
	add	r1, r1, #16
	mov	r2, #100
	bl	M_DrawThermo
.LVL477:
	.loc 1 1234 0
	ldr	r3, .L652+16
.LVL478:
	.loc 1 1235 0
	mov	r2, #100
	.loc 1 1234 0
	ldr	r3, [r3]
.LVL479:
	.loc 1 1235 0
	ldrsh	r1, [r4, #138]
	cmp	r3, #99
	movge	r3, #99
.LVL480:
	ldrsh	r0, [r4, #136]
	add	r1, r1, #48
	.loc 1 1236 0
	add	sp, sp, #8
	.cfi_def_cfa_offset 8
	@ sp needed
	ldmfd	sp!, {r4, lr}
	.cfi_restore 14
	.cfi_restore 4
	.cfi_def_cfa_offset 0
	.loc 1 1235 0
	b	M_DrawThermo
.LVL481:
.L653:
	.align	2
.L652:
	.word	V_DrawNumPatch
	.word	.LC74
	.word	mouseSensitivity_horiz
	.word	.LANCHOR0
	.word	mouseSensitivity_vert
	.cfi_endproc
.LFE43:
	.size	M_DrawMouse, .-M_DrawMouse
	.align	2
	.global	M_DrawEmptyCell
	.type	M_DrawEmptyCell, %function
M_DrawEmptyCell:
.LFB110:
	.loc 1 5471 0
	.cfi_startproc
	@ args = 0, pretend = 0, frame = 0
	@ frame_needed = 0, uses_anonymous_args = 0
.LVL482:
	stmfd	sp!, {r4, r5, r6, lr}
	.cfi_def_cfa_offset 16
	.cfi_offset 4, -16
	.cfi_offset 5, -12
	.cfi_offset 6, -8
	.cfi_offset 14, -4
	.loc 1 5473 0
	ldrsh	r4, [r0, #18]
	ldr	r3, .L656
	.loc 1 5471 0
	sub	sp, sp, #8
	.cfi_def_cfa_offset 24
	.loc 1 5473 0
	ldrsh	r5, [r0, #16]
	add	r1, r4, r1, asl #4
.LVL483:
	ldr	r0, .L656+4
.LVL484:
	ldr	r6, [r3]
	sub	r4, r1, #1
	bl	W_GetNumForName
.LVL485:
	mov	ip, #6
	mov	r2, #4
	sub	r5, r5, #10
	mov	r3, r0
	str	r2, [sp, #4]
	mov	r1, r4
	mov	r0, r5
	str	ip, [sp]
	mov	r2, #0
	blx	r6
.LVL486:
	.loc 1 5475 0
	add	sp, sp, #8
	.cfi_def_cfa_offset 16
	@ sp needed
	ldmfd	sp!, {r4, r5, r6, pc}
.L657:
	.align	2
.L656:
	.word	V_DrawNumPatch
	.word	.LC75
	.cfi_endproc
.LFE110:
	.size	M_DrawEmptyCell, .-M_DrawEmptyCell
	.align	2
	.global	M_DrawSelCell
	.type	M_DrawSelCell, %function
M_DrawSelCell:
.LFB111:
	.loc 1 5482 0
	.cfi_startproc
	@ args = 0, pretend = 0, frame = 0
	@ frame_needed = 0, uses_anonymous_args = 0
.LVL487:
	stmfd	sp!, {r4, r5, r6, lr}
	.cfi_def_cfa_offset 16
	.cfi_offset 4, -16
	.cfi_offset 5, -12
	.cfi_offset 6, -8
	.cfi_offset 14, -4
	.loc 1 5484 0
	ldrsh	r4, [r0, #18]
	ldr	r3, .L660
	.loc 1 5482 0
	sub	sp, sp, #8
	.cfi_def_cfa_offset 24
	.loc 1 5484 0
	ldrsh	r5, [r0, #16]
	add	r1, r4, r1, asl #4
.LVL488:
	ldr	r0, .L660+4
.LVL489:
	ldr	r6, [r3]
	sub	r4, r1, #1
	bl	W_GetNumForName
.LVL490:
	mov	ip, #6
	mov	r2, #4
	sub	r5, r5, #10
	mov	r3, r0
	str	r2, [sp, #4]
	mov	r1, r4
	mov	r0, r5
	str	ip, [sp]
	mov	r2, #0
	blx	r6
.LVL491:
	.loc 1 5486 0
	add	sp, sp, #8
	.cfi_def_cfa_offset 16
	@ sp needed
	ldmfd	sp!, {r4, r5, r6, pc}
.L661:
	.align	2
.L660:
	.word	V_DrawNumPatch
	.word	.LC76
	.cfi_endproc
.LFE111:
	.size	M_DrawSelCell, .-M_DrawSelCell
	.align	2
	.global	M_StringWidth
	.type	M_StringWidth, %function
M_StringWidth:
.LFB112:
	.loc 1 5498 0
	.cfi_startproc
	@ args = 0, pretend = 0, frame = 0
	@ frame_needed = 0, uses_anonymous_args = 0
.LVL492:
	stmfd	sp!, {r4, lr}
	.cfi_def_cfa_offset 8
	.cfi_offset 4, -8
	.cfi_offset 14, -4
	.loc 1 5498 0
	mov	r4, r0
	bl	strlen
.LVL493:
.LBB801:
	.loc 1 5501 0
	ldr	r3, .L670
	add	ip, r4, r0
	mov	r1, r4
	ldr	lr, [r3]
.LBE801:
	.loc 1 5499 0
	mov	r0, #0
	.loc 1 5502 0
	ldr	r4, .L670+4
.LVL494:
	.loc 1 5500 0
	b	.L663
.LVL495:
.L667:
.LBB802:
	.loc 1 5501 0
	ldrb	r3, [r1], #1	@ zero_extendqisi2
.LVL496:
	add	r2, lr, r3
	ldrb	r2, [r2, #1]	@ zero_extendqisi2
	and	r2, r2, #3
	cmp	r2, #2
	subeq	r3, r3, #32
.LVL497:
.LBE802:
	sub	r3, r3, #33
.LVL498:
	cmp	r3, #94
	.loc 1 5502 0
	add	r3, r3, r3, asl #2
.LVL499:
	movhi	r3, #4
	ldrls	r3, [r4, r3, asl #2]
	.loc 1 5501 0
	add	r0, r0, r3
.LVL500:
.L663:
	.loc 1 5500 0 discriminator 2
	cmp	r1, ip
	bne	.L667
	.loc 1 5504 0
	ldmfd	sp!, {r4, pc}
.L671:
	.align	2
.L670:
	.word	__ctype_ptr__
	.word	hu_font
	.cfi_endproc
.LFE112:
	.size	M_StringWidth, .-M_StringWidth
	.global	__aeabi_idivmod
	.align	2
	.global	M_Responder
	.type	M_Responder, %function
M_Responder:
.LFB101:
	.loc 1 4121 0
	.cfi_startproc
	@ args = 0, pretend = 0, frame = 8
	@ frame_needed = 0, uses_anonymous_args = 0
.LVL501:
	stmfd	sp!, {r4, r5, r6, r7, r8, r9, r10, fp, lr}
	.cfi_def_cfa_offset 36
	.cfi_offset 4, -36
	.cfi_offset 5, -32
	.cfi_offset 6, -28
	.cfi_offset 7, -24
	.cfi_offset 8, -20
	.cfi_offset 9, -16
	.cfi_offset 10, -12
	.cfi_offset 11, -8
	.cfi_offset 14, -4
	.loc 1 4135 0
	ldrb	r3, [r0]	@ zero_extendqisi2
	.loc 1 4121 0
	sub	sp, sp, #12
	.cfi_def_cfa_offset 48
	.loc 1 4135 0
	cmp	r3, #3
	.loc 1 4121 0
	mov	r5, r0
	.loc 1 4135 0
	beq	.L1172
.LVL502:
.L673:
	.loc 1 4188 0
	cmp	r3, #2
	beq	.L1173
.L686:
	.loc 1 4219 0
	cmp	r3, #0
	bne	.L690
	.loc 1 4221 0
	ldr	r4, [r5, #4]
.LVL503:
	.loc 1 4222 0
	cmp	r4, #182
	beq	.L1174
.L681:
	.loc 1 4230 0
	cmn	r4, #1
	beq	.L691
.LVL504:
.L692:
	.loc 1 4235 0
	ldr	r3, .L1247
	ldr	r2, [r3]
	cmp	r2, #0
	beq	.L694
	.loc 1 4236 0
	cmp	r4, #8
	beq	.L698
.LVL505:
.L695:
	.loc 1 4236 0 is_stmt 0 discriminator 1
	ldr	r2, .L1247+4
	ldr	r2, [r2]
	cmp	r4, r2
	beq	.L698
	.loc 1 4244 0 is_stmt 1
	ldr	r2, .L1247+8
	ldr	r2, [r2]
	cmp	r4, r2
	beq	.L1175
	.loc 1 4253 0
	cmp	r4, #10
	beq	.L701
	.loc 1 4253 0 is_stmt 0 discriminator 1
	ldr	r2, .L1247+12
	ldr	r2, [r2]
	cmp	r4, r2
	beq	.L701
.LVL506:
.LBB846:
	.loc 1 4265 0 is_stmt 1
	ldr	r3, .L1247+16
	ldr	r3, [r3]
	add	r3, r3, r4
	ldrb	r3, [r3, #1]	@ zero_extendqisi2
	and	r3, r3, #3
	cmp	r3, #2
	subeq	r7, r4, #32
	moveq	r4, r7
.LVL507:
	movne	r7, r4
.LVL508:
.LBE846:
	.loc 1 4266 0
	sub	r4, r4, #32
	cmp	r4, #95
	bhi	.L1159
	.loc 1 4267 0 discriminator 1
	ldr	r4, .L1247+20
	ldr	r6, [r4]
	.loc 1 4266 0 discriminator 1
	cmp	r6, #22
	bgt	.L1159
	.loc 1 4268 0
	ldr	r3, .L1247+24
	ldr	r8, .L1247+28
	ldr	r5, [r3]
.LVL509:
	add	r5, r5, r5, asl #1
	mov	r5, r5, asl #3
	add	r0, r8, r5
	bl	M_StringWidth
.LVL510:
	.loc 1 4267 0
	cmp	r0, #175
	bgt	.L1159
	.loc 1 4271 0
	mov	r2, #0
	.loc 1 4270 0
	add	r3, r6, #1
	add	r6, r5, r6
	.loc 1 4271 0
	add	r5, r5, r3
	.loc 1 4270 0
	strb	r7, [r8, r6]
	str	r3, [r4]
	.loc 1 4271 0
	strb	r2, [r8, r5]
	.loc 1 4274 0
	mov	r6, #1
	b	.L995
.LVL511:
.L690:
	.loc 1 4225 0
	cmp	r3, #1
	beq	.L1176
.LVL512:
.L691:
	.loc 1 4231 0
	mov	r6, #0
.LVL513:
.L995:
	.loc 1 5246 0
	mov	r0, r6
	add	sp, sp, #12
	.cfi_remember_state
	.cfi_def_cfa_offset 36
	@ sp needed
	ldmfd	sp!, {r4, r5, r6, r7, r8, r9, r10, fp, pc}
.LVL514:
.L694:
	.cfi_restore_state
	.loc 1 4279 0
	ldr	r3, .L1247+32
	ldr	r6, [r3]
	cmp	r6, #0
	beq	.L704
	.loc 1 4280 0
	ldr	r2, .L1247+36
	ldr	r2, [r2]
	cmp	r2, #1
	beq	.L1177
.L705:
	.loc 1 4285 0
	mov	r1, #0
	.loc 1 4286 0
	ldr	r2, .L1247+40
	.loc 1 4284 0
	ldr	r0, .L1247+44
	.loc 1 4286 0
	ldr	r2, [r2]
	.loc 1 4284 0
	ldr	r0, [r0]
	ldr	r8, .L1247+48
	.loc 1 4286 0
	cmp	r2, r1
	.loc 1 4284 0
	strb	r0, [r8]
	.loc 1 4285 0
	str	r1, [r3]
	.loc 1 4286 0
	beq	.L707
	.loc 1 4287 0
	mov	r0, r4
	blx	r2
.LVL515:
.L707:
	.loc 1 4289 0
	mov	r3, #0
	.loc 1 4291 0
	mov	r6, #1
	.loc 1 4290 0
	mov	r0, r3
	mov	r1, #24
	.loc 1 4289 0
	strb	r3, [r8]
	.loc 1 4290 0
	bl	S_StartSound
.LVL516:
	.loc 1 5246 0
	mov	r0, r6
	add	sp, sp, #12
	.cfi_remember_state
	.cfi_def_cfa_offset 36
	@ sp needed
	ldmfd	sp!, {r4, r5, r6, r7, r8, r9, r10, fp, pc}
.LVL517:
.L704:
	.cfi_restore_state
	.loc 1 4297 0
	ldr	r3, .L1247+52
	ldr	r3, [r3]
	cmp	r4, r3
	beq	.L1178
.L708:
	.loc 1 4305 0
	ldr	r8, .L1247+48
	ldrb	r7, [r8]	@ zero_extendqisi2
	cmp	r7, #0
	bne	.L709
	.loc 1 4306 0
	ldr	r3, .L1247+56
	ldr	r3, [r3]
	cmp	r4, r3
	beq	.L1179
	.loc 1 4312 0
	ldr	r3, .L1247+60
	ldr	r3, [r3]
	cmp	r4, r3
	beq	.L1180
	.loc 1 4323 0
	ldr	r3, .L1247+64
	ldr	r3, [r3]
	cmp	r4, r3
	beq	.L1181
	.loc 1 4331 0
	ldr	r3, .L1247+68
	ldr	r3, [r3]
	cmp	r4, r3
	beq	.L1182
	.loc 1 4339 0
	ldr	r3, .L1247+72
	ldr	r3, [r3]
	cmp	r4, r3
	beq	.L1183
	.loc 1 4348 0
	ldr	r3, .L1247+76
	ldr	r3, [r3]
	cmp	r4, r3
	beq	.L1184
	.loc 1 4355 0
	ldr	r3, .L1247+80
	ldr	r3, [r3]
	cmp	r4, r3
	beq	.L1185
	.loc 1 4362 0
	ldr	r3, .L1247+84
	ldr	r3, [r3]
	cmp	r4, r3
	beq	.L1186
	.loc 1 4369 0
	ldr	r3, .L1247+88
	ldr	r3, [r3]
	cmp	r4, r3
	beq	.L1187
	.loc 1 4376 0
	ldr	r3, .L1247+92
	ldr	r3, [r3]
	cmp	r4, r3
	beq	.L1188
	.loc 1 4383 0
	ldr	r3, .L1247+96
	ldr	r3, [r3]
	cmp	r4, r3
	beq	.L1189
	.loc 1 4399 0
	ldr	r3, .L1247+100
	ldr	r3, [r3]
	cmp	r4, r3
	beq	.L1190
	.loc 1 4408 0
	ldr	r3, .L1247+104
	ldr	r3, [r3]
	cmp	r4, r3
	beq	.L1191
	.loc 1 4417 0
	ldr	r3, .L1247+108
	ldr	r3, [r3]
	cmp	r4, r3
	beq	.L1192
	.loc 1 4438 0
	ldr	r3, .L1247+112
	ldr	r3, [r3]
	cmp	r4, r3
	beq	.L1193
	.loc 1 4449 0
	ldr	r3, .L1247+116
	ldr	r3, [r3]
	cmp	r4, r3
	bne	.L691
.LBB847:
.LBB848:
	bl	M_StartControlPanel.part.7
.LVL518:
.LBE848:
.LBE847:
	.loc 1 4452 0
	mov	r0, #0
	mov	r1, #23
	bl	S_StartSound
.LVL519:
	.loc 1 4453 0
	mov	r6, #1
	b	.L995
.L709:
	.loc 1 4461 0
	ldr	r7, .L1247+272
	ldr	r3, [r7]
	cmp	r3, #0
	bne	.L1194
	.loc 1 5120 0
	ldr	r2, .L1247+264
	ldr	r2, [r2]
	cmp	r4, r2
	beq	.L1195
	.loc 1 5134 0
	ldr	r3, .L1247+268
	ldr	r3, [r3]
	cmp	r4, r3
	beq	.L1138
	ldr	r3, .L1247+284
.LVL520:
.L878:
	.loc 1 5148 0
	ldr	r3, [r3]
	cmp	r4, r3
	beq	.L1196
	.loc 1 5159 0
	ldr	r3, .L1247+288
	ldr	r3, [r3]
	cmp	r4, r3
	beq	.L1197
	.loc 1 5170 0
	ldr	r3, .L1247+12
	ldr	r3, [r3]
	cmp	r4, r3
	beq	.L1198
	.loc 1 5192 0
	ldr	r3, .L1247+8
	ldr	r3, [r3]
	cmp	r4, r3
	beq	.L1199
	.loc 1 5200 0
	ldr	r3, .L1247+4
	ldr	r3, [r3]
	cmp	r4, r3
	beq	.L1200
	.loc 1 5230 0
	ldr	r3, .L1247+240
	ldr	r5, .L1247+244
	ldr	lr, [r3]
	ldrsh	ip, [r5]
	ldrsh	r0, [lr]
	add	r3, ip, #1
.LVL521:
	cmp	r3, r0
	bge	.L897
	.loc 1 5231 0
	ldr	r2, [lr, #8]
	add	r1, r3, r3, asl #1
	mov	r1, r1, asl #3
	add	r7, r2, r1
	ldrb	r7, [r7, #16]	@ zero_extendqisi2
	cmp	r7, r4
	subne	r1, r1, #24
	addne	r2, r2, r1
	bne	.L900
	b	.L902
.L901:
	ldrb	r1, [r2, #64]	@ zero_extendqisi2
	add	r2, r2, #24
	cmp	r1, r4
	beq	.L902
.L900:
	.loc 1 5230 0 discriminator 2
	add	r3, r3, #1
.LVL522:
	cmp	r3, r0
	blt	.L901
.L897:
.LVL523:
	.loc 1 5237 0 discriminator 1
	cmp	ip, #0
	blt	.L995
	.loc 1 5238 0
	ldr	r2, [lr, #8]
	ldrb	r3, [r2, #16]	@ zero_extendqisi2
	cmp	r3, r4
	movne	r3, #0
	beq	.L1201
.LVL524:
.L904:
	.loc 1 5237 0 discriminator 2
	add	r3, r3, #1
.LVL525:
	cmp	ip, r3
	blt	.L995
	.loc 1 5238 0
	ldrb	r1, [r2, #40]	@ zero_extendqisi2
	add	r2, r2, #24
	cmp	r1, r4
	bne	.L904
.LVL526:
.L902:
	.loc 1 5241 0
	mov	r0, #0
	mov	r1, #19
	.loc 1 5240 0
	strh	r3, [r5]	@ movhi
	.loc 1 5242 0
	mov	r6, #1
	.loc 1 5241 0
	bl	S_StartSound
.LVL527:
	.loc 1 5242 0
	b	.L995
.LVL528:
.L1177:
	.loc 1 4281 0 discriminator 1
	cmp	r4, #32
	cmpne	r4, #110
	movne	r2, #1
	moveq	r2, #0
	cmp	r4, #121
	moveq	r2, #0
	andne	r2, r2, #1
	cmp	r2, #0
	beq	.L705
	ldr	r2, .L1247+116
	ldr	r2, [r2]
	cmp	r4, r2
	bne	.L691
	b	.L705
.L1190:
	.loc 1 4401 0
	ldr	r3, .L1247+120
	ldrb	r3, [r3]	@ zero_extendqisi2
	tst	r3, #1
	bne	.L691
	.loc 1 4401 0 is_stmt 0 discriminator 1
	ldr	r3, .L1247+124
	ldr	r4, [r3]
	cmp	r4, #0
	.loc 1 4403 0 is_stmt 1 discriminator 1
	moveq	r0, r4
	.loc 1 4401 0 discriminator 1
	bne	.L691
.L1158:
	.loc 1 4412 0
	bl	M_SizeDisplay
.LVL529:
	.loc 1 4413 0
	mov	r0, r4
	mov	r1, #22
	bl	S_StartSound
.LVL530:
.L1159:
	.loc 1 4414 0
	mov	r6, #1
.L1202:
	.loc 1 5246 0
	mov	r0, r6
	add	sp, sp, #12
	.cfi_remember_state
	.cfi_def_cfa_offset 36
	@ sp needed
	ldmfd	sp!, {r4, r5, r6, r7, r8, r9, r10, fp, pc}
.LVL531:
.L698:
	.cfi_restore_state
	.loc 1 4238 0
	ldr	r1, .L1247+20
	ldr	r3, [r1]
	cmp	r3, #0
	ble	.L1159
	.loc 1 4241 0
	mov	ip, #0
	ldr	r0, .L1247+24
	.loc 1 4240 0
	sub	r2, r3, #1
	.loc 1 4241 0
	ldr	r3, [r0]
	ldr	r0, .L1247+28
	add	r3, r3, r3, asl #1
	add	r3, r2, r3, asl #3
	.loc 1 4240 0
	str	r2, [r1]
	.loc 1 4241 0
	strb	ip, [r0, r3]
	.loc 1 4414 0
	mov	r6, #1
	b	.L1202
.LVL532:
.L1172:
	.loc 1 4135 0 discriminator 1
	ldr	r6, .L1247+128
	ldr	r7, .L1247+272
	ldr	r3, [r6]
	blx	r3
.LVL533:
	ldr	r3, [r7, #288]
	cmp	r0, r3
	bgt	.L674
	ldrb	r3, [r5]	@ zero_extendqisi2
	b	.L673
.L1173:
	.loc 1 4188 0 discriminator 1
	ldr	r6, .L1247+128
	ldr	r7, .L1247+272
	ldr	r3, [r6]
	blx	r3
.LVL534:
	ldr	r3, [r7, #292]
	cmp	r0, r3
	bgt	.L687
	ldrb	r3, [r5]	@ zero_extendqisi2
	b	.L686
.LVL535:
.L1174:
	.loc 1 4223 0
	mov	r2, #1
	ldr	r3, .L1247+272
	str	r2, [r3, #296]
	b	.L692
.LVL536:
.L1176:
	.loc 1 4226 0
	ldr	r3, [r5, #4]
	cmp	r3, #182
	.loc 1 4227 0
	moveq	r2, #0
	ldreq	r3, .L1247+272
	streq	r2, [r3, #296]
	b	.L691
.LVL537:
.L701:
	.loc 1 4255 0
	mov	r1, #0
	.loc 1 4256 0
	ldr	r0, .L1247+24
	ldr	r2, .L1247+28
	ldr	r0, [r0]
	.loc 1 4255 0
	str	r1, [r3]
	.loc 1 4256 0
	add	r3, r0, r0, asl #1
	ldrb	r3, [r2, r3, asl #3]	@ zero_extendqisi2
	cmp	r3, r1
	beq	.L1159
	.loc 1 4257 0
	bl	M_DoSave
.LVL538:
	.loc 1 4274 0
	mov	r6, #1
	b	.L995
.LVL539:
.L674:
	.loc 1 4136 0
	ldr	r3, [r5, #12]
	cmn	r3, #1
	.loc 1 4138 0
	ldreq	r2, .L1247+268
	.loc 1 4136 0
	beq	.L1142
	.loc 1 4141 0
	cmp	r3, #1
	.loc 1 4131 0
	mvnne	r4, #0
	.loc 1 4141 0
	beq	.L1203
.LVL540:
.L676:
	.loc 1 4147 0
	ldr	r3, [r5, #8]
	cmn	r3, #1
	beq	.L1204
	.loc 1 4152 0
	cmp	r3, #1
	beq	.L1205
.L678:
	.loc 1 4158 0
	ldr	r3, [r5, #4]
	tst	r3, #1
	bne	.L1206
.L679:
	.loc 1 4164 0
	tst	r3, #2
	bne	.L1207
.L680:
	.loc 1 4174 0
	ldr	r3, [r7]
	ldr	r8, .L1247+272
	cmp	r3, #0
	beq	.L681
	.loc 1 4174 0 is_stmt 0 discriminator 1
	ldr	r3, [r8, #4]
	cmp	r3, #0
	beq	.L681
	.loc 1 4175 0 is_stmt 1
	ldr	r3, [r5, #4]
	tst	r3, #4
	bne	.L1208
	.loc 1 4179 0
	tst	r3, #8
	beq	.L681
.LVL541:
.L685:
	.loc 1 4181 0
	ldr	r3, [r6]
	blx	r3
.LVL542:
	add	r0, r0, #5
	str	r0, [r7, #288]
	.loc 1 4180 0
	mov	r4, #0
	b	.L692
.LVL543:
.L687:
	.loc 1 4192 0
	ldr	r3, [r5, #4]
	tst	r3, #1
	.loc 1 4131 0
	mvneq	r4, #0
	.loc 1 4192 0
	bne	.L1209
.LVL544:
.L688:
	.loc 1 4198 0
	tst	r3, #2
	bne	.L1210
.L689:
	.loc 1 4208 0
	ldr	r3, [r7]
	ldr	r7, .L1247+272
	cmp	r3, #0
	beq	.L681
	.loc 1 4208 0 is_stmt 0 discriminator 1
	ldr	r3, [r7, #4]
	cmp	r3, #0
	beq	.L681
	.loc 1 4209 0 is_stmt 1
	ldr	r3, [r5, #4]
	tst	r3, #4
	beq	.L681
.LVL545:
	.loc 1 4212 0
	ldr	r3, [r6]
	blx	r3
.LVL546:
	add	r0, r0, #15
	str	r0, [r7, #292]
	.loc 1 4211 0
	mov	r4, #0
	b	.L692
.LVL547:
.L1178:
	.loc 1 4299 0
	bl	M_ScreenShot
.LVL548:
	b	.L708
.L1194:
.LBB849:
	.loc 1 4462 0
	ldr	r2, .L1247+132
	ldr	r3, [r7, #20]
	.loc 1 4469 0
	ldr	r10, [r7, #12]
	.loc 1 4462 0
	ldr	r1, [r2]
	add	r9, r3, r3, asl #3
	.loc 1 4469 0
	cmp	r10, #0
	.loc 1 4462 0
	add	r9, r1, r9, asl #2
.LVL549:
	.loc 1 4469 0
	beq	.L737
.LVL550:
.LBB850:
	.loc 1 4471 0
	ldr	r3, .L1247+16
	ldr	r3, [r3]
	add	r3, r3, r4
	ldrb	r3, [r3, #1]	@ zero_extendqisi2
	and	r3, r3, #3
	cmp	r3, #2
	beq	.L1211
.LBE850:
	cmp	r4, #89
	beq	.L907
.LVL551:
.L908:
	.loc 1 4476 0 discriminator 4
	cmp	r4, #78
	bne	.L1159
.LVL552:
.L1160:
	.loc 1 4477 0
	mov	r3, #0
	.loc 1 4478 0
	add	r0, r9, #4
	.loc 1 4477 0
	str	r3, [r7, #12]
	.loc 1 4480 0
	mov	r6, #1
	.loc 1 4478 0
	bl	M_SelectDone.isra.3
.LVL553:
	b	.L995
.LVL554:
.L1206:
.LBE849:
	.loc 1 4160 0
	ldr	r2, .L1247+12
	.loc 1 4161 0
	ldr	r3, [r6]
	.loc 1 4160 0
	ldr	r4, [r2]
.LVL555:
	.loc 1 4161 0
	blx	r3
.LVL556:
	add	r0, r0, #5
	ldr	r3, [r5, #4]
	str	r0, [r7, #288]
	b	.L679
.L1207:
	.loc 1 4166 0
	ldr	r2, .L1247+4
	.loc 1 4167 0
	ldr	r3, [r6]
	.loc 1 4166 0
	ldr	r4, [r2]
.LVL557:
	.loc 1 4167 0
	blx	r3
.LVL558:
	add	r0, r0, #5
	str	r0, [r7, #288]
	b	.L680
.LVL559:
.L1175:
	.loc 1 4246 0
	mov	ip, #0
	.loc 1 4247 0
	ldr	r2, .L1247+24
	ldr	r0, .L1247+28
	ldr	r2, [r2]
	ldr	r1, .L1247+136
	add	r2, r2, r2, asl #1
	add	r0, r0, r2, asl #3
	.loc 1 4246 0
	str	ip, [r3]
	.loc 1 4274 0
	mov	r6, #1
	.loc 1 4247 0
	bl	strcpy
.LVL560:
	b	.L995
.LVL561:
.L1210:
	.loc 1 4200 0
	ldr	r2, .L1247+4
	.loc 1 4201 0
	ldr	r3, [r6]
	.loc 1 4200 0
	ldr	r4, [r2]
.LVL562:
	.loc 1 4201 0
	blx	r3
.LVL563:
	add	r0, r0, #15
	str	r0, [r7, #292]
	b	.L689
.LVL564:
.L1209:
	.loc 1 4194 0
	ldr	r2, .L1247+12
	.loc 1 4195 0
	ldr	r3, [r6]
	.loc 1 4194 0
	ldr	r4, [r2]
.LVL565:
	.loc 1 4195 0
	blx	r3
.LVL566:
	add	r0, r0, #15
	str	r0, [r7, #292]
	ldr	r3, [r5, #4]
	b	.L688
.LVL567:
.L1181:
.LBB894:
.LBB895:
	bl	M_StartControlPanel.part.7
.LVL568:
.LBE895:
.LBE894:
	.loc 1 4326 0
	mov	r0, r7
	mov	r1, #23
	bl	S_StartSound
.LVL569:
	.loc 1 4327 0
	mov	r0, r7
	bl	M_SaveGame
.LVL570:
	.loc 1 4328 0
	mov	r6, #1
	b	.L995
.L1179:
	.loc 1 4308 0
	ldr	r2, .L1247+140
	.loc 1 4309 0
	mov	r6, #1
	.loc 1 4308 0
	ldr	r3, [r2]
	clz	r3, r3
	mov	r3, r3, lsr #5
	str	r3, [r2]
	.loc 1 4309 0
	b	.L995
.LVL571:
.L1203:
	.loc 1 4143 0
	ldr	r2, .L1247+264
.L1142:
	.loc 1 4144 0
	ldr	r3, [r6]
	.loc 1 4143 0
	ldr	r4, [r2]
.LVL572:
	.loc 1 4144 0
	blx	r3
.LVL573:
	add	r0, r0, #5
	str	r0, [r7, #288]
	b	.L676
.LVL574:
.L737:
.LBB896:
	.loc 1 4485 0
	ldr	r0, [r7, #8]
	cmp	r0, #0
	bne	.L1212
.LVL575:
.L848:
	.loc 1 4938 0
	ldr	r0, .L1247+264
	ldr	r0, [r0]
	cmp	r4, r0
	beq	.L1213
	.loc 1 4957 0
	ldr	r0, .L1247+268
	ldr	r0, [r0]
	cmp	r4, r0
	beq	.L1214
	.loc 1 4973 0
	ldr	r3, .L1247+12
	ldr	r3, [r3]
	cmp	r4, r3
	beq	.L1215
	.loc 1 5035 0
	ldr	r3, .L1247+8
	ldr	r3, [r3]
	cmp	r4, r3
	beq	.L870
	.loc 1 5035 0 is_stmt 0 discriminator 1
	ldr	r3, .L1247+4
	ldr	r3, [r3]
	cmp	r4, r3
	beq	.L1216
	.loc 1 5071 0 is_stmt 1
	ldr	r3, .L1247+284
	ldr	r1, [r3]
	cmp	r4, r1
	beq	.L1217
.LVL576:
.L874:
	.loc 1 5093 0
	ldr	r1, .L1247+288
	ldr	r1, [r1]
	cmp	r4, r1
	bne	.L878
	.loc 1 4462 0
	mov	r1, r9
	b	.L881
.LVL577:
.L879:
	.loc 1 5112 0
	tst	r0, #32768
	bne	.L878
.LVL578:
.L881:
	.loc 1 5098 0
	add	r1, r1, #36
.LVL579:
	.loc 1 5099 0
	ldr	r0, [r1, #4]
	tst	r0, #512
	beq	.L879
	.loc 1 5104 0
	mov	r3, #0
	.loc 1 5102 0
	ldr	lr, .L1247+252
	.loc 1 5101 0
	ldr	r0, [r9, #4]
	.loc 1 5102 0
	ldr	ip, [lr]
	.loc 1 5103 0
	ldr	r1, [r1, #16]
.LVL580:
	.loc 1 5105 0
	ldr	r4, .L1247+324
	.loc 1 5102 0
	add	ip, ip, #1
	.loc 1 5101 0
	bic	r0, r0, #1
	.loc 1 5103 0
	str	r1, [r2]
	.loc 1 5102 0
	str	ip, [lr]
	mov	r2, r1
	.loc 1 5101 0
	str	r0, [r9, #4]
	.loc 1 5104 0
	str	r3, [r7, #20]
	.loc 1 5105 0
	str	r3, [r4]
	.loc 1 5106 0
	b	.L880
.L923:
	mov	r3, lr
.L880:
	.loc 1 5106 0 is_stmt 0 discriminator 1
	ldr	r1, [r2, #4]
	mov	ip, r2
	ands	r0, r1, #8192
	add	r2, r2, #36
	add	lr, r3, #1
	bne	.L923
.L1161:
	.loc 1 5107 0 is_stmt 1
	orr	r1, r1, #1
	str	r1, [ip, #4]
	.loc 1 5108 0
	mov	r1, #19
	.loc 1 5107 0
	str	r3, [r7, #20]
	.loc 1 5109 0
	mov	r6, #1
	.loc 1 5108 0
	bl	S_StartSound
.LVL581:
	.loc 1 5109 0
	b	.L995
.LVL582:
.L1204:
.LBE896:
	.loc 1 4149 0
	ldr	r3, .L1247+284
	.loc 1 4150 0
	ldr	r2, [r6]
	.loc 1 4149 0
	ldr	r4, [r3]
.LVL583:
	.loc 1 4150 0
	blx	r2
.LVL584:
	add	r0, r0, #2
	str	r0, [r7, #288]
	b	.L678
.LVL585:
.L1180:
.LBB897:
.LBB898:
	bl	M_StartControlPanel.part.7
.LVL586:
.LBE898:
.LBE897:
	.loc 1 4316 0
	ldr	r2, .L1247+240
	ldr	ip, .L1247+144
.L1157:
	.loc 1 4343 0
	ldr	r3, .L1247+244
	.loc 1 4344 0
	mov	r0, r7
	mov	r1, #23
	.loc 1 4342 0
	str	ip, [r2]
	.loc 1 4343 0
	strh	r7, [r3]	@ movhi
	.loc 1 4345 0
	mov	r6, #1
	.loc 1 4344 0
	bl	S_StartSound
.LVL587:
	.loc 1 4345 0
	b	.L995
.LVL588:
.L1205:
	.loc 1 4154 0
	ldr	r2, .L1247+288
	.loc 1 4155 0
	ldr	r3, [r6]
	.loc 1 4154 0
	ldr	r4, [r2]
.LVL589:
	.loc 1 4155 0
	blx	r3
.LVL590:
	add	r0, r0, #2
	str	r0, [r7, #288]
	b	.L678
.LVL591:
.L1195:
	ldr	r5, .L1247+244
.LVL592:
	ldr	r4, .L1247+240
	.loc 1 5125 0
	mov	r6, r3
	ldrh	r3, [r5]
	ldr	r0, [r4]
	sxth	r2, r3
.L885:
	.loc 1 5124 0
	ldrsh	r1, [r0]
	.loc 1 5127 0
	add	r3, r3, #1
	.loc 1 5124 0
	sub	r1, r1, #1
	cmp	r2, r1
	.loc 1 5128 0
	mov	r0, #0
	mov	r1, #19
	.loc 1 5127 0
	strlth	r3, [r5]	@ movhi
	.loc 1 5125 0
	strgeh	r6, [r5]	@ movhi
	.loc 1 5128 0
	bl	S_StartSound
.LVL593:
	.loc 1 5130 0
	ldrh	r3, [r5]
	ldr	r0, [r4]
	sxth	r2, r3
	add	r1, r2, r2, asl #1
	ldr	ip, [r0, #8]
	mov	r1, r1, asl #3
	ldrsh	r1, [ip, r1]
	cmn	r1, #1
	beq	.L885
	b	.L1159
.LVL594:
.L1212:
.LBB899:
	.loc 1 4486 0
	ldr	ip, .L1247+8
	ldr	r0, [ip]
	cmp	r4, r0
	beq	.L1218
	.loc 1 4493 0
	ldr	r0, [r9, #4]
	tst	r0, #8
	beq	.L758
	.loc 1 4495 0
	ldr	r3, .L1247+12
	ldr	r3, [r3]
	cmp	r4, r3
	beq	.L1219
.LVL595:
.L849:
	.loc 1 4931 0
	add	r0, r9, #4
	bl	M_SelectDone.isra.3
.LVL596:
	.loc 1 4932 0
	mov	r6, #1
	b	.L995
.LVL597:
.L1138:
	ldr	r5, .L1247+244
.LVL598:
	ldr	r4, .L1247+240
	ldrh	r2, [r5]
.L888:
.LBE899:
	.loc 1 5138 0
	cmp	r2, #0
	.loc 1 5139 0
	ldreq	r3, [r4]
	.loc 1 5141 0
	subne	r2, r2, #1
	.loc 1 5139 0
	ldreqh	r3, [r3]
	.loc 1 5142 0
	mov	r1, #19
	.loc 1 5139 0
	subeq	r3, r3, #1
	.loc 1 5142 0
	mov	r0, #0
	.loc 1 5139 0
	streqh	r3, [r5]	@ movhi
	.loc 1 5141 0
	strneh	r2, [r5]	@ movhi
	.loc 1 5142 0
	bl	S_StartSound
.LVL599:
	.loc 1 5144 0
	ldrh	r2, [r5]
	ldr	r1, [r4]
	sxth	r3, r2
	add	r3, r3, r3, asl #1
	ldr	r1, [r1, #8]
	mov	r3, r3, asl #3
	ldrsh	r3, [r1, r3]
	cmn	r3, #1
	beq	.L888
	b	.L1159
.LVL600:
.L1186:
.LBB900:
.LBB901:
	.loc 1 1389 0
	mov	r0, #284
	.loc 1 1393 0
	mov	r6, #1
	.loc 1 1386 0
	ldr	r2, .L1247+148
	ldr	r3, [r2]
	rsb	r3, r3, #1
	str	r3, [r2]
	.loc 1 1389 0
	ldr	r2, .L1247+152
	.loc 1 1388 0
	cmp	r3, #0
	.loc 1 1389 0
	ldr	r2, [r2]
	ldr	r3, .L1247+156
	ldreq	r1, .L1247+160
	.loc 1 1391 0
	mla	r3, r0, r2, r3
	ldrne	r1, .L1247+164
.LBE901:
.LBE900:
	.loc 1 4365 0
	mov	r0, #0
.LBB904:
.LBB902:
	.loc 1 1391 0
	ldr	r2, [r1]
.LBE902:
.LBE904:
	.loc 1 4365 0
	mov	r1, #23
.LBB905:
.LBB903:
	.loc 1 1391 0
	str	r2, [r3, #220]
	.loc 1 1393 0
	ldr	r3, .L1247+168
	str	r6, [r3]
.LBE903:
.LBE905:
	.loc 1 4365 0
	bl	S_StartSound
.LVL601:
	.loc 1 4366 0
	b	.L995
.LVL602:
.L1208:
	.loc 1 4177 0
	ldr	r3, [r6]
	blx	r3
.LVL603:
	.loc 1 4179 0
	ldr	r3, [r5, #4]
	.loc 1 4177 0
	add	r0, r0, #5
	.loc 1 4179 0
	ands	r2, r3, #8
	.loc 1 4177 0
	str	r0, [r8, #288]
	.loc 1 4179 0
	bne	.L685
	.loc 1 4235 0
	ldr	r3, .L1247
	ldr	r4, [r3]
	cmp	r4, #0
	beq	.L694
	.loc 1 4176 0
	mov	r4, r2
	b	.L695
.LVL604:
.L1182:
.LBB906:
.LBB907:
	bl	M_StartControlPanel.part.7
.LVL605:
.LBE907:
.LBE906:
	.loc 1 4334 0
	mov	r0, r7
	mov	r1, #23
	bl	S_StartSound
.LVL606:
	.loc 1 4335 0
	mov	r0, r7
	bl	M_LoadGame
.LVL607:
	.loc 1 4336 0
	mov	r6, #1
	b	.L995
.LVL608:
.L1196:
	.loc 1 5150 0
	ldr	r4, .L1247+244
	ldr	r5, .L1247+240
	ldrsh	r3, [r4]
	ldr	r2, [r5]
	add	r3, r3, r3, asl #1
	ldr	r2, [r2, #8]
	mov	r3, r3, asl #3
	add	r1, r2, r3
	ldr	r1, [r1, #12]
	cmp	r1, #0
	beq	.L1159
	.loc 1 5150 0 is_stmt 0 discriminator 1
	ldrsh	r3, [r2, r3]
	cmp	r3, #2
	bne	.L1159
	.loc 1 5153 0 is_stmt 1
	mov	r0, #0
	mov	r1, #22
	bl	S_StartSound
.LVL609:
	.loc 1 5154 0
	ldr	r2, [r5]
	ldrsh	r3, [r4]
	ldr	r2, [r2, #8]
	add	r3, r3, r3, asl #1
	add	r3, r2, r3, asl #3
	ldr	r3, [r3, #12]
	mov	r0, #0
	blx	r3
.LVL610:
	.loc 1 5156 0
	mov	r6, #1
	b	.L995
.LVL611:
.L1211:
.LBB908:
	.loc 1 4471 0 discriminator 1
	cmp	r4, #121
.LBB851:
	.loc 1 4476 0 discriminator 1
	subne	r4, r4, #32
.LVL612:
.LBE851:
	.loc 1 4471 0 discriminator 1
	bne	.L908
.L907:
.LVL613:
.LBB852:
.LBB853:
	.loc 1 3606 0
	ldr	r10, .L1247+172
	ldr	r3, [r10]
	cmp	r3, #0
	ble	.L1160
	mov	r6, #0
	ldr	r5, .L1247+176
.LVL614:
	ldr	fp, .L1247+180
.LBB854:
	.loc 1 3613 0
	ldr	r8, .L1247+184
	b	.L754
.LVL615:
.L749:
.LBE854:
	.loc 1 3606 0
	ldr	r3, [r10]
	add	r6, r6, #1
.LVL616:
	cmp	r6, r3
	add	r5, r5, #44
	bge	.L1160
.LVL617:
.L754:
	.loc 1 3610 0
	ldr	r3, [r5, #32]
	ldr	r2, [fp]
	cmp	r3, r2
	bne	.L749
.LBB856:
	.loc 1 3613 0
	add	r3, r8, r3, asl #2
	ldr	r1, [r3, #8]
.LVL618:
	ldr	r4, [r1]
	cmp	r4, #0
	bne	.L1144
	b	.L749
.LVL619:
.L1221:
	.loc 1 3615 0
	ldr	r3, [r4, #16]
	rsb	r3, r5, r3
	clz	r3, r3
	mov	r3, r3, lsr #5
.L744:
	cmp	r3, #0
	bne	.L1054
	.loc 1 3614 0
	add	r4, r4, #36
.LVL620:
.L1144:
	ldr	r2, [r4, #4]
	tst	r2, #32768
	bne	.L1220
	.loc 1 3615 0
	ldr	r3, .L1247+188
	and	r3, r3, r2
	cmp	r3, #0
	bne	.L1221
	.loc 1 3616 0
	ldr	r3, [r5, #4]
	.loc 1 3617 0
	ldr	r2, [r4, #16]
	cmp	r2, r3
	beq	.L1054
	.loc 1 3616 0
	ldr	r2, [r4, #20]
	cmp	r3, r2
	beq	.L1054
	.loc 1 3617 0
	ldr	r2, [r4, #24]
	rsb	r3, r2, r3
	clz	r3, r3
	mov	r3, r3, lsr #5
	b	.L744
.LVL621:
.L1183:
.LBE856:
.LBE853:
.LBE852:
.LBE908:
.LBB909:
.LBB910:
	bl	M_StartControlPanel.part.7
.LVL622:
.LBE910:
.LBE909:
	.loc 1 4342 0
	ldr	r2, .L1247+240
	ldr	ip, .L1247+192
	b	.L1157
.LVL623:
.L1220:
.LBB911:
.LBB861:
.LBB859:
.LBB857:
	.loc 1 3613 0
	ldr	r4, [r1, #4]!
.LVL624:
	cmp	r4, #0
	bne	.L1144
	b	.L749
.LVL625:
.L1054:
	.loc 1 3620 0
	ldrb	r1, [r5, #28]	@ zero_extendqisi2
	cmp	r1, #1
	beq	.L1222
	.loc 1 3629 0
	ldr	r3, [r5, #4]
	ldr	r2, [r5, #12]
	str	r2, [r3]
.L748:
	.loc 1 3641 0
	ldr	r3, [r4, #28]
	cmp	r3, #0
	beq	.L749
	.loc 1 3642 0
	blx	r3
.LVL626:
	b	.L749
.LVL627:
.L1189:
.LBE857:
.LBE859:
.LBE861:
.LBE911:
	.loc 1 4385 0
	ldr	r2, .L1247+196
	ldr	r3, [r2]
	add	r3, r3, #1
	.loc 1 4386 0
	cmp	r3, #4
	.loc 1 4385 0
	str	r3, [r2]
	.loc 1 4386 0
	ble	.L723
	.loc 1 4387 0
	mov	r1, #0
	.loc 1 4388 0
	ldr	r3, .L1247+152
	.loc 1 4387 0
	str	r1, [r2]
	.loc 1 4388 0
	ldr	r2, [r3]
.L724:
	.loc 1 4389 0 discriminator 1
	ldr	r3, .L1247+200
	ldr	r1, [r3]
.L728:
	.loc 1 4388 0
	mov	ip, #284
	ldr	r3, .L1247+156
	.loc 1 4394 0
	mov	r0, #0
	.loc 1 4388 0
	mla	r3, ip, r2, r3
	str	r1, [r3, #220]
	.loc 1 4395 0
	mov	r6, #1
	.loc 1 4394 0
	bl	V_SetPalette
.LVL628:
	.loc 1 4395 0
	b	.L995
.LVL629:
.L758:
.LBB912:
	.loc 1 4518 0
	tst	r0, #16
	beq	.L764
	.loc 1 4520 0
	ldr	r3, .L1247+12
	ldr	r3, [r3]
	cmp	r4, r3
	beq	.L805
	.loc 1 4522 0
	sub	r4, r4, #48
.LVL630:
	.loc 1 4523 0
	cmp	r4, #9
	bhi	.L1159
	.loc 1 4525 0
	ldr	r3, [r9, #16]
	ldr	r3, [r3, #4]
	str	r4, [r3]
.LVL631:
.L805:
	.loc 1 4663 0
	ldr	r3, [r9, #28]
	cmp	r3, #0
	beq	.L849
	.loc 1 4664 0
	blx	r3
.LVL632:
	b	.L849
.LVL633:
.L1197:
.LBE912:
	.loc 1 5161 0
	ldr	r4, .L1247+244
	ldr	r5, .L1247+240
	ldrsh	r3, [r4]
	ldr	r2, [r5]
	add	r3, r3, r3, asl #1
	ldr	r2, [r2, #8]
	mov	r3, r3, asl #3
	add	r1, r2, r3
	ldr	r1, [r1, #12]
	cmp	r1, #0
	beq	.L1159
	.loc 1 5161 0 is_stmt 0 discriminator 1
	ldrsh	r3, [r2, r3]
	cmp	r3, #2
	bne	.L1159
	.loc 1 5164 0 is_stmt 1
	mov	r0, #0
	mov	r1, #22
	bl	S_StartSound
.LVL634:
	.loc 1 5165 0
	ldr	r2, [r5]
	ldrsh	r3, [r4]
	ldr	r2, [r2, #8]
	add	r3, r3, r3, asl #1
	add	r3, r2, r3, asl #3
	ldr	r3, [r3, #12]
	mov	r0, #1
	blx	r3
.LVL635:
	.loc 1 5167 0
	mov	r6, #1
	b	.L995
.LVL636:
.L1184:
	.loc 1 4350 0
	mov	r0, r7
	mov	r1, #23
	bl	S_StartSound
.LVL637:
	.loc 1 4352 0
	mov	r6, #1
	.loc 1 4351 0
	bl	M_QuickSave
.LVL638:
	.loc 1 4352 0
	b	.L995
.LVL639:
.L1198:
	.loc 1 5172 0
	ldr	r2, .L1247+244
	ldr	r3, .L1247+240
	ldrh	ip, [r2]
	ldr	r1, [r3]
	sxth	r0, ip
	add	r3, r0, r0, asl #1
	ldr	lr, [r1, #8]
	mov	r3, r3, asl #3
	add	r2, lr, r3
	ldr	r2, [r2, #12]
	cmp	r2, #0
	beq	.L1159
	.loc 1 5173 0 discriminator 1
	ldrh	r3, [lr, r3]
	.loc 1 5172 0 discriminator 1
	cmp	r3, #0
	beq	.L1159
	.loc 1 5176 0
	cmp	r3, #2
	.loc 1 5175 0
	strh	ip, [r1, #20]	@ movhi
	.loc 1 5176 0
	beq	.L1223
	.loc 1 5183 0
	blx	r2
.LVL640:
	.loc 1 5184 0
	mov	r0, #0
	mov	r1, #1
	bl	S_StartSound
.LVL641:
	.loc 1 5189 0
	mov	r6, #1
	b	.L995
.LVL642:
.L1185:
	.loc 1 4357 0
	mov	r0, r7
	mov	r1, #23
	bl	S_StartSound
.LVL643:
	.loc 1 4358 0
	mov	r0, r7
	bl	M_EndGame
.LVL644:
	.loc 1 4359 0
	mov	r6, #1
	b	.L995
.L723:
	.loc 1 4388 0
	ldr	r2, .L1247+152
	.loc 1 4389 0
	cmp	r3, #0
	.loc 1 4388 0
	ldr	r2, [r2]
	.loc 1 4389 0
	beq	.L724
	.loc 1 4390 0
	cmp	r3, #1
	beq	.L725
	.loc 1 4391 0
	cmp	r3, #2
	beq	.L726
	.loc 1 4392 0
	cmp	r3, #3
	ldreq	r3, .L1247+204
	ldrne	r3, .L1247+208
	ldr	r1, [r3]
	b	.L728
.L1191:
	.loc 1 4410 0
	ldr	r3, .L1247+120
	ldrb	r3, [r3]	@ zero_extendqisi2
	tst	r3, #1
	bne	.L691
	.loc 1 4410 0 is_stmt 0 discriminator 1
	ldr	r3, .L1247+124
	ldr	r4, [r3]
	cmp	r4, #0
	bne	.L691
	.loc 1 4412 0 is_stmt 1
	mov	r0, #1
	b	.L1158
.LVL645:
.L764:
.LBB913:
	.loc 1 4533 0
	tst	r0, #4096
	beq	.L767
	.loc 1 4535 0
	ldr	r3, [r7, #16]
	cmp	r3, #0
	beq	.L1159
	.loc 1 4541 0
	ldr	r3, .L1247+12
	ldr	r3, [r3]
	cmp	r4, r3
	beq	.L1224
	.loc 1 4574 0
	ldr	r3, .L1247+4
	ldr	r1, .L1247+256
	ldr	r3, [r3]
	cmp	r4, r3
	ldr	r3, [r1]
	beq	.L1225
	.loc 1 4579 0
	cmp	r3, #4
	bgt	.L1159
.L777:
	.loc 1 4582 0
	ldr	r2, .L1247+16
	ldr	r2, [r2]
	add	r2, r2, r4
	ldrb	r2, [r2, #1]	@ zero_extendqisi2
	mov	r2, r2, lsr #2
	eor	r2, r2, #1
	cmp	r4, #45
	moveq	r2, #0
	andne	r2, r2, #1
	cmp	r2, #0
	bne	.L1159
	.loc 1 4586 0
	ldr	r0, .L1247+308
	add	r2, r3, #1
	strb	r4, [r0, r3]
	str	r2, [r1]
	.loc 1 4588 0
	mov	r6, #1
	b	.L995
.LVL646:
.L1200:
.LBE913:
	.loc 1 5202 0
	ldr	r0, .L1247+240
	ldr	r5, .L1247+244
	ldr	r2, [r0]
	ldrh	r1, [r5]
	.loc 1 5210 0
	ldr	r3, [r2, #4]
	.loc 1 5202 0
	strh	r1, [r2, #20]	@ movhi
	.loc 1 5210 0
	cmp	r3, #0
	beq	.L1159
	.loc 1 5212 0
	ldr	r1, .L1247+212
	cmp	r2, r1
	.loc 1 5221 0
	strne	r3, [r0]
	.loc 1 5212 0
	beq	.L1226
.L896:
	.loc 1 5222 0
	ldrh	r3, [r3, #20]
	.loc 1 5223 0
	mov	r0, #0
	mov	r1, #23
	.loc 1 5222 0
	strh	r3, [r5]	@ movhi
	.loc 1 5225 0
	mov	r6, #1
	.loc 1 5223 0
	bl	S_StartSound
.LVL647:
	b	.L995
.LVL648:
.L1187:
	.loc 1 4371 0
	mov	r0, #0
	mov	r1, #23
	bl	S_StartSound
.LVL649:
	.loc 1 4373 0
	mov	r6, #1
	.loc 1 4372 0
	bl	M_QuickLoad
.LVL650:
	.loc 1 4373 0
	b	.L995
.L1188:
	.loc 1 4378 0
	mov	r0, #0
	mov	r1, #23
	bl	S_StartSound
.LVL651:
	.loc 1 4379 0
	mov	r0, #0
	bl	M_QuitDOOM
.LVL652:
	.loc 1 4380 0
	mov	r6, #1
	b	.L995
.LVL653:
.L1219:
.LBB914:
	.loc 1 4496 0
	ldr	r3, [r9, #16]
	ldr	r2, [r3, #4]
	ldr	r3, [r2]
	clz	r3, r3
	mov	r3, r3, lsr #5
	str	r3, [r2]
	.loc 1 4505 0
	ldr	r3, [r9, #4]
	ands	r3, r3, #196608
	beq	.L804
.LVL654:
.L1167:
	.loc 1 4658 0
	mov	r0, #2
	ldr	r1, .L1247+324
	ldr	r2, .L1247+328
	str	r0, [r1]
	str	r3, [r2]
	b	.L805
.LVL655:
.L1192:
.LBE914:
	.loc 1 4419 0
	ldr	r3, .L1247+120
	ldrb	r3, [r3]	@ zero_extendqisi2
	tst	r3, #1
	bne	.L691
	.loc 1 4419 0 is_stmt 0 discriminator 1
	ldr	r3, .L1247+124
	ldr	r3, [r3]
	cmp	r3, #0
	bne	.L691
	.loc 1 4421 0 is_stmt 1
	ldr	r4, .L1247+216
	ldr	r3, [r4]
	cmp	r3, #7
	ldrle	r5, .L1247+220
.LVL656:
	ble	.L732
	.loc 1 4426 0
	mov	r6, #1
	.loc 1 4427 0
	ldr	r4, .L1247+224
	.loc 1 4426 0
	ldr	r3, .L1247+220
	.loc 1 4427 0
	ldr	r0, [r4]
	mov	r1, #3
	add	r0, r0, r6
	.loc 1 4426 0
	str	r6, [r3]
	.loc 1 4427 0
	bl	__aeabi_idivmod
.LVL657:
	.loc 1 4428 0
	cmp	r1, #0
	.loc 1 4427 0
	str	r1, [r4]
	.loc 1 4428 0
	bne	.L1159
	.loc 1 4430 0
	ldr	r2, .L1247+228
	ldr	r3, [r2]
	clz	r3, r3
	mov	r3, r3, lsr #5
	str	r3, [r2]
	.loc 1 4431 0
	bl	HU_MoveHud
.LVL658:
	b	.L995
.L734:
	.loc 1 4423 0
	mov	r0, #1
	bl	M_SizeDisplay
.LVL659:
.L732:
	.loc 1 4422 0
	ldr	r3, [r4]
	cmp	r3, #7
	ble	.L734
	.loc 1 4422 0 is_stmt 0 discriminator 1
	ldr	r3, [r5]
	cmp	r3, #0
	beq	.L734
	b	.L1159
.L1248:
	.align	2
.L1247:
	.word	saveStringEnter
	.word	key_menu_backspace
	.word	key_menu_escape
	.word	key_menu_enter
	.word	__ctype_ptr__
	.word	saveCharIndex
	.word	saveSlot
	.word	savegamestrings
	.word	messageToPrint
	.word	messageNeedsInput
	.word	messageRoutine
	.word	messageLastMenuActive
	.word	menuactive
	.word	key_screenshot
	.word	key_autorun
	.word	key_help
	.word	key_savegame
	.word	key_loadgame
	.word	key_soundvolume
	.word	key_quicksave
	.word	key_endgame
	.word	key_messages
	.word	key_quickload
	.word	key_quit
	.word	key_gamma
	.word	key_zoomout
	.word	key_zoomin
	.word	key_hud
	.word	key_setup
	.word	key_escape
	.word	automapmode
	.word	chat_on
	.word	I_GetTime
	.word	current_setup_menu
	.word	saveOldString
	.word	autorun
	.word	.LANCHOR0+3508
	.word	showMessages
	.word	consoleplayer
	.word	players
	.word	s_MSGOFF
	.word	s_MSGON
	.word	message_dontfuckwithme
	.word	numdefaults
	.word	defaults
	.word	setup_screen
	.word	.LANCHOR2
	.word	8919160
	.word	.LANCHOR0+96
	.word	usegamma
	.word	s_GAMMALVL0
	.word	s_GAMMALVL3
	.word	s_GAMMALVL4
	.word	.LANCHOR0+488
	.word	screenSize
	.word	hud_displayed
	.word	hud_active
	.word	hud_distributed
	.word	s_GAMMALVL1
	.word	s_GAMMALVL2
	.word	currentMenu
	.word	itemOn
	.word	extended_help_index
	.word	mult_screens_index
	.word	gather_count
	.word	.LANCHOR0
	.word	key_menu_down
	.word	key_menu_up
	.word	.LANCHOR1
	.word	524352
	.word	key_menu_backspace
	.word	key_menu_left
	.word	key_menu_right
	.word	key_menu_enter
	.word	shiftxform
	.word	chat_string_buffer
	.word	chat_index
	.word	gather_buffer
	.word	-123456789
	.word	color_palette_y
	.word	color_palette_x
	.word	print_warning_about_changes
	.word	warning_about_changes
.LVL660:
.L767:
.LBB915:
	.loc 1 4591 0 is_stmt 1
	tst	r0, #8388608
	bne	.L1227
	.loc 1 4675 0
	ldr	lr, [r7, #4]
	cmp	lr, #0
	beq	.L807
	.loc 1 4677 0
	ldrb	lr, [r5]	@ zero_extendqisi2
	cmp	lr, #3
	beq	.L1228
	.loc 1 4716 0
	cmp	lr, #2
	beq	.L1229
.LVL661:
.LBB862:
	.loc 1 4772 0
	ldr	lr, .L1247+260
	.loc 1 4770 0
	ldr	r5, [r9, #16]
.LVL662:
	.loc 1 4772 0
	ldr	r3, [lr, #192]
	.loc 1 4770 0
	ldr	r6, [r5]
.LVL663:
	.loc 1 4772 0
	cmp	r3, #0
	.loc 1 4771 0
	ldrb	r0, [r9, #8]	@ zero_extendqisi2
.LVL664:
	.loc 1 4772 0
	beq	.L825
	add	lr, lr, #192
	b	.L1150
.LVL665:
.L828:
	.loc 1 4774 0
	tst	r2, #17408
	beq	.L827
	.loc 1 4774 0 is_stmt 0 discriminator 1
	ldrb	r1, [r3, #8]	@ zero_extendqisi2
	.loc 1 4775 0 is_stmt 1 discriminator 1
	cmp	r3, r9
	rsb	r1, r0, r1
	clz	r1, r1
	mov	r1, r1, lsr #5
	moveq	r1, #0
	cmp	r1, #0
	beq	.L827
	.loc 1 4777 0
	ldr	r1, [r3, #16]
	ldr	ip, [r1]
	cmp	ip, r4
	beq	.L1230
.L827:
	.loc 1 4773 0 discriminator 2
	add	r3, r3, #36
.LVL666:
.L1150:
	ldr	r2, [r3, #4]
	tst	r2, #32768
	beq	.L828
	.loc 1 4772 0 discriminator 2
	ldr	r3, [lr, #4]!
.LVL667:
	cmp	r3, #0
	bne	.L1150
.LVL668:
.L825:
	.loc 1 4785 0
	str	r4, [r5]
	b	.L849
.LVL669:
.L1230:
	.loc 1 4779 0
	tst	r2, #16384
	bne	.L1159
	.loc 1 4781 0
	str	r6, [r1]
.LVL670:
	ldr	r5, [r9, #16]
	b	.L825
.LVL671:
.L1213:
.LBE862:
	.loc 1 4940 0
	ldr	r3, [r9, #4]
	ldr	r2, [r7, #20]
	bic	r3, r3, #1
	str	r3, [r9, #4]
.L860:
	.loc 1 4942 0
	tst	r3, #32768
	.loc 1 4945 0
	movne	r9, r1
.LVL672:
	.loc 1 4950 0
	addeq	r9, r9, #36
.LVL673:
	.loc 1 4952 0
	ldr	r3, [r9, #4]
	.loc 1 4949 0
	addeq	r2, r2, #1
	.loc 1 4944 0
	movne	r2, #0
	.loc 1 4952 0
	tst	r3, #8192
	bne	.L860
	.loc 1 4953 0
	add	r0, r9, #4
	str	r2, [r7, #20]
	.loc 1 4954 0
	mov	r6, #1
	.loc 1 4953 0
	bl	M_SelectDone.isra.3
.LVL674:
	.loc 1 4954 0
	b	.L995
.LVL675:
.L1218:
	.loc 1 4488 0
	add	r0, r9, #4
	bl	M_SelectDone.isra.3
.LVL676:
	.loc 1 4490 0
	mov	r6, #1
	.loc 1 4489 0
	str	r10, [r7, #16]
	.loc 1 4490 0
	b	.L995
.LVL677:
.L1214:
	.loc 1 4959 0
	ldr	r2, [r9, #4]
	bic	r2, r2, #1
	str	r2, [r9, #4]
.L864:
	.loc 1 4962 0
	cmp	r3, #0
	bne	.L862
	mov	r2, r1
.L863:
	.loc 1 4965 0 discriminator 1
	ldr	r0, [r2, #40]
	.loc 1 4964 0 discriminator 1
	add	r3, r3, #1
	.loc 1 4965 0 discriminator 1
	tst	r0, #32768
	add	r2, r2, #36
	beq	.L863
.L862:
	.loc 1 4966 0
	sub	r3, r3, #1
	.loc 1 4968 0
	add	r0, r3, r3, asl #3
	add	r0, r1, r0, asl #2
	ldr	r2, [r0, #4]
	tst	r2, #8192
	bne	.L864
	.loc 1 4969 0
	add	r0, r0, #4
	str	r3, [r7, #20]
	.loc 1 4970 0
	mov	r6, #1
	.loc 1 4969 0
	bl	M_SelectDone.isra.3
.LVL678:
	.loc 1 4970 0
	b	.L995
.LVL679:
.L1199:
.LBE915:
.LBB916:
.LBB917:
	.loc 1 5372 0
	mov	r3, #0
.LBE917:
.LBE916:
	.loc 1 5194 0
	ldr	r2, .L1247+244
	ldr	r1, .L1247+240
	ldrh	r0, [r2]
	ldr	r1, [r1]
.LBB920:
.LBB918:
	.loc 1 5373 0
	ldr	r2, .L1247+324
.LBE918:
.LBE920:
	.loc 1 5194 0
	strh	r0, [r1, #20]	@ movhi
	.loc 1 5196 0
	mov	r0, r3
	mov	r1, #24
.LBB921:
.LBB919:
	.loc 1 5372 0
	strb	r3, [r8]
	.loc 1 5374 0
	str	r3, [r7, #12]
	.loc 1 5373 0
	str	r3, [r2]
.LBE919:
.LBE921:
	.loc 1 5197 0
	mov	r6, #1
	.loc 1 5196 0
	bl	S_StartSound
.LVL680:
	.loc 1 5197 0
	b	.L995
.LVL681:
.L1228:
.LBB922:
.LBB863:
	.loc 1 4682 0
	ldr	r6, [r9, #24]
	cmp	r6, #0
	beq	.L1159
	.loc 1 4694 0
	ldr	r3, [r5, #4]
	.loc 1 4693 0
	ldrb	ip, [r9, #8]	@ zero_extendqisi2
	.loc 1 4694 0
	tst	r3, #1
	.loc 1 4692 0
	ldr	r5, [r6]
.LVL682:
	.loc 1 4694 0
	bne	.L916
	.loc 1 4696 0
	tst	r3, #2
	bne	.L917
	.loc 1 4698 0
	tst	r3, #4
	bne	.L918
	.loc 1 4700 0
	tst	r3, #8
	beq	.L1159
.L809:
.LVL683:
	.loc 1 4704 0
	ldr	r4, .L1247+260
	ldr	r3, [r4, #192]
	cmp	r3, #0
	beq	.L819
	add	r4, r4, #192
	b	.L1146
.LVL684:
.L813:
	.loc 1 4706 0
	ldrb	r0, [r3, #8]	@ zero_extendqisi2
	subs	r1, r3, r9
	movne	r1, #1
	cmp	r0, ip
	movne	r1, #0
	cmp	r1, #0
	beq	.L812
	.loc 1 4707 0
	tst	r2, #1024
	beq	.L812
	.loc 1 4707 0 is_stmt 0 discriminator 1
	ldr	r2, [r3, #24]
	cmp	r2, #0
	beq	.L812
	.loc 1 4708 0 is_stmt 1
	ldr	r1, [r2]
	cmp	r1, lr
	beq	.L1162
.L812:
	.loc 1 4705 0 discriminator 2
	add	r3, r3, #36
.LVL685:
.L1146:
	ldr	r2, [r3, #4]
	tst	r2, #32768
	beq	.L813
	.loc 1 4704 0 discriminator 2
	ldr	r3, [r4, #4]!
.LVL686:
	cmp	r3, #0
	bne	.L1146
.LVL687:
.L819:
.LBE863:
.LBB864:
	.loc 1 4751 0
	str	lr, [r6]
.LBE864:
	b	.L849
.LVL688:
.L1162:
.LBB865:
	.loc 1 4747 0
	str	r5, [r2]
.LVL689:
	b	.L819
.LVL690:
.L1222:
.LBE865:
.LBB866:
.LBB860:
.LBB858:
.LBB855:
	.loc 1 3624 0
	ldr	r3, [r5, #8]
.LVL691:
	str	r1, [sp, #4]
	.loc 1 3625 0
	ldr	r0, [r3]
	str	r3, [sp]
	bl	Z_Free
.LVL692:
	.loc 1 3626 0
	ldr	r1, [sp, #4]
	ldr	r0, [r5, #16]
	mov	r2, #0
	bl	Z_Strdup
.LVL693:
	ldr	r3, [sp]
	str	r0, [r3]
	b	.L748
.LVL694:
.L1227:
.LBE855:
.LBE858:
.LBE860:
.LBE866:
	.loc 1 4593 0
	ldr	r3, .L1247+284
	ldr	r3, [r3]
	cmp	r4, r3
	beq	.L1231
.LVL695:
.L780:
	.loc 1 4621 0
	ldr	r3, .L1247+288
	ldr	r3, [r3]
	cmp	r4, r3
	beq	.L1232
.L792:
	.loc 1 4649 0
	ldr	r3, .L1247+292
	ldr	r3, [r3]
	cmp	r4, r3
	bne	.L1159
	.loc 1 4657 0
	ldr	r3, [r9, #4]
	ands	r3, r3, #196608
	bne	.L1167
.L804:
	.loc 1 4661 0
	ldr	r3, [r9, #16]
	ldr	r0, [r3, #4]
	ldr	r1, [r3, #36]
	bl	M_UpdateCurrent.isra.0
.LVL696:
	b	.L805
.LVL697:
.L725:
.LBE922:
	.loc 1 4390 0 discriminator 1
	ldr	r3, .L1247+232
	ldr	r1, [r3]
	b	.L728
.L1193:
.LBB923:
.LBB924:
	bl	M_StartControlPanel.part.7
.LVL698:
.LBE924:
.LBE923:
	.loc 1 4440 0
	mov	r0, #0
	mov	r1, #23
	bl	S_StartSound
.LVL699:
.LBB925:
.LBB926:
	.loc 1 5385 0
	ldr	r3, .L1247+260
	ldr	r0, .L1247+240
	.loc 1 5386 0
	ldrh	r1, [r3, #164]
	ldr	r2, .L1247+244
	.loc 1 5385 0
	add	r3, r3, #144
	str	r3, [r0]
	.loc 1 5386 0
	strh	r1, [r2]	@ movhi
.LBE926:
.LBE925:
	.loc 1 4442 0
	mov	r6, #1
	b	.L995
.LVL700:
.L726:
	.loc 1 4391 0 discriminator 1
	ldr	r3, .L1247+236
	ldr	r1, [r3]
	b	.L728
.LVL701:
.L1215:
.LBB927:
.LBB867:
	.loc 1 4975 0
	ldr	r0, [r9, #4]
.LVL702:
	.loc 1 4983 0
	tst	r0, #4096
	beq	.L866
	.loc 1 4986 0
	mov	r3, #0
	.loc 1 4985 0
	mov	ip, #1
	.loc 1 4986 0
	ldr	r1, .L1247+324
	.loc 1 4987 0
	ldr	r2, .L1247+256
	.loc 1 4985 0
	str	ip, [r7, #16]
	.loc 1 4986 0
	str	r3, [r1]
	.loc 1 4987 0
	str	r3, [r2]
.LVL703:
.L867:
	.loc 1 5030 0
	mov	r6, #1
	.loc 1 5029 0
	orr	r0, r0, #2
	str	r0, [r9, #4]
	.loc 1 5031 0
	mov	r1, #32
	mov	r0, #0
	.loc 1 5030 0
	str	r6, [r7, #8]
	.loc 1 5031 0
	bl	S_StartSound
.LVL704:
	.loc 1 5032 0
	b	.L995
.LVL705:
.L1223:
.LBE867:
.LBE927:
	.loc 1 5178 0
	mov	r0, #1
	blx	r2
.LVL706:
	.loc 1 5179 0
	mov	r0, #0
	mov	r1, #22
	bl	S_StartSound
.LVL707:
	.loc 1 5189 0
	mov	r6, #1
	b	.L995
.LVL708:
.L1216:
.LBB928:
	.loc 1 5040 0
	ldr	r2, .L1247+240
	ldr	r3, [r2]
	ldr	r3, [r3, #4]
	cmp	r3, #0
	beq	.L873
	.loc 1 5043 0
	ldrh	lr, [r3, #20]
	ldr	ip, .L1247+244
	.loc 1 5044 0
	mov	r0, #0
	mov	r1, #23
	.loc 1 5042 0
	str	r3, [r2]
	.loc 1 5043 0
	strh	lr, [ip]	@ movhi
	.loc 1 5044 0
	bl	S_StartSound
.LVL709:
.L873:
	.loc 1 5047 0
	mov	r4, #0
	.loc 1 5046 0
	ldr	r3, [r9, #4]
	.loc 1 5047 0
	str	r4, [r7]
	.loc 1 5046 0
	bic	r3, r3, #3
	str	r3, [r9, #4]
	.loc 1 5048 0
	str	r4, [r7, #4]
	.loc 1 5049 0
	str	r4, [r7, #24]
	.loc 1 5050 0
	str	r4, [r7, #28]
	.loc 1 5051 0
	str	r4, [r7, #32]
	.loc 1 5052 0
	str	r4, [r7, #40]
	.loc 1 5053 0
	str	r4, [r7, #48]
	.loc 1 5054 0
	str	r4, [r7, #52]
	.loc 1 5055 0
	str	r4, [r7, #36]
	.loc 1 5056 0
	str	r4, [r7, #12]
	.loc 1 5057 0
	str	r4, [r7, #44]
	.loc 1 5058 0
	str	r4, [r7, #300]
	.loc 1 5059 0
	bl	HU_Start
.LVL710:
	.loc 1 5060 0
	mov	r0, r4
	mov	r1, #24
	bl	S_StartSound
.LVL711:
	.loc 1 5061 0
	mov	r6, #1
	b	.L995
.LVL712:
.L1229:
.LBB871:
	.loc 1 4721 0
	ldr	r6, [r9, #20]
	cmp	r6, #0
	beq	.L1159
	.loc 1 4733 0
	ldr	r3, [r5, #4]
	.loc 1 4732 0
	ldrb	ip, [r9, #8]	@ zero_extendqisi2
	.loc 1 4733 0
	tst	r3, #1
	.loc 1 4731 0
	ldr	r5, [r6]
.LVL713:
	.loc 1 4733 0
	bne	.L919
	.loc 1 4735 0
	tst	r3, #2
	bne	.L920
	.loc 1 4737 0
	tst	r3, #4
	beq	.L1159
.L818:
.LVL714:
	.loc 1 4741 0
	ldr	r4, .L1247+260
	ldr	r3, [r4, #192]
	cmp	r3, #0
	beq	.L819
	add	r4, r4, #192
	b	.L1148
.LVL715:
.L822:
	.loc 1 4743 0
	ldrb	r0, [r3, #8]	@ zero_extendqisi2
	subs	r1, r3, r9
	movne	r1, #1
	cmp	r0, ip
	movne	r1, #0
	cmp	r1, #0
	beq	.L821
	.loc 1 4744 0
	tst	r2, #1024
	beq	.L821
	.loc 1 4744 0 is_stmt 0 discriminator 1
	ldr	r2, [r3, #20]
	cmp	r2, #0
	beq	.L821
	.loc 1 4745 0 is_stmt 1
	ldr	r1, [r2]
	cmp	r1, lr
	beq	.L1162
.L821:
	.loc 1 4742 0 discriminator 2
	add	r3, r3, #36
.LVL716:
.L1148:
	ldr	r2, [r3, #4]
	tst	r2, #32768
	beq	.L822
	.loc 1 4741 0 discriminator 2
	ldr	r3, [r4, #4]!
.LVL717:
	cmp	r3, #0
	bne	.L1148
	b	.L819
.LVL718:
.L919:
	.loc 1 4734 0
	mov	lr, #0
	b	.L818
.LVL719:
.L866:
.LBE871:
.LBB872:
	.loc 1 4989 0
	ands	r4, r0, #32
	beq	.L868
.LBB868:
	.loc 1 4998 0
	mov	ip, #1
	.loc 1 4991 0
	ldr	r3, [r9, #16]
	.loc 1 4996 0
	ldr	lr, .L1247+320
	.loc 1 4991 0
	ldr	r2, [r3, #4]
.LVL720:
	.loc 1 4997 0
	ldr	r1, .L1247+316
	.loc 1 4996 0
	ldr	r3, [r2]
	and	r3, r3, #15
	str	r3, [lr]
.LVL721:
	.loc 1 4997 0
	ldr	r3, [r2]
	.loc 1 4998 0
	str	ip, [r7, #36]
	.loc 1 4997 0
	mov	r3, r3, asr #4
	str	r3, [r1]
.LBE868:
	b	.L867
.LVL722:
.L916:
.LBE872:
.LBB873:
	.loc 1 4695 0
	mov	lr, #0
	b	.L809
.LVL723:
.L1226:
.LBE873:
.LBE928:
	.loc 1 5214 0
	ldr	ip, .L1247+248
	ldr	r1, [ip]
	sub	r1, r1, #1
	cmp	r1, #0
	.loc 1 5217 0
	moveq	r2, #1
	.loc 1 5214 0
	str	r1, [ip]
	.loc 1 5216 0
	streq	r3, [r0]
	.loc 1 5217 0
	streq	r2, [ip]
	movne	r3, r2
	b	.L896
.LVL724:
.L1232:
.LBB929:
	.loc 1 4622 0
	ldr	r5, [r9, #16]
	ldrb	r3, [r5, #28]	@ zero_extendqisi2
	cmp	r3, #2
	beq	.L1233
.L793:
	.loc 1 4636 0
	ldrb	r3, [r5, #28]	@ zero_extendqisi2
	cmp	r3, #1
	bne	.L792
.LBB874:
	.loc 1 4639 0
	ldr	r3, [r5, #8]
	ldr	r7, [r9, #32]
	ldr	r8, [r3]
.LVL725:
.LBB875:
.LBB876:
	.loc 1 4102 0
	mov	r6, #0
	b	.L798
.LVL726:
.L802:
	.loc 1 4105 0
	mov	r0, r8
	bl	strcmp
.LVL727:
	cmp	r0, #0
	beq	.L1234
	.loc 1 4107 0
	add	r6, r6, #1
.LVL728:
.L798:
	.loc 1 4104 0
	ldr	r1, [r7, r6, asl #2]
	cmp	r1, #0
	bne	.L802
.LVL729:
.LBE876:
.LBE875:
	.loc 1 4642 0
	ldr	r6, [r7, #4]
.LVL730:
	cmp	r6, #0
	.loc 1 4641 0
	movne	r8, #1
.LVL731:
	.loc 1 4642 0
	beq	.L800
.LVL732:
.L801:
	.loc 1 4645 0
	mov	r0, #0
	mov	r1, #19
	bl	S_StartSound
.LVL733:
	ldr	r5, [r9, #16]
	ldr	r7, [r9, #32]
.L906:
	.loc 1 4646 0
	ldr	r3, [r5, #8]
	ldr	r2, [r7, r8, asl #2]
	str	r2, [r3]
	b	.L792
.LVL734:
.L1231:
.LBE874:
	.loc 1 4594 0
	ldr	r5, [r9, #16]
.LVL735:
	ldrb	r3, [r5, #28]	@ zero_extendqisi2
	cmp	r3, #2
	beq	.L1235
.L781:
	.loc 1 4608 0
	ldrb	r3, [r5, #28]	@ zero_extendqisi2
	cmp	r3, #1
	bne	.L780
.LBB877:
	.loc 1 4611 0
	ldr	r3, [r5, #8]
	ldr	r7, [r9, #32]
	ldr	r8, [r3]
.LVL736:
.LBB878:
.LBB879:
	.loc 1 4102 0
	mov	r6, #0
	b	.L786
.LVL737:
.L789:
	.loc 1 4105 0
	mov	r0, r8
	bl	strcmp
.LVL738:
	cmp	r0, #0
	beq	.L1236
	.loc 1 4107 0
	add	r6, r6, #1
.LVL739:
.L786:
	.loc 1 4104 0
	ldr	r1, [r7, r6, asl #2]
	cmp	r1, #0
	bne	.L789
.LBE879:
.LBE878:
	.loc 1 4615 0
	mov	r3, r1
.LVL740:
.L790:
	.loc 1 4618 0
	ldr	r2, [r5, #8]
	ldr	r3, [r7, r3, asl #2]
	str	r3, [r2]
	b	.L780
.LVL741:
.L870:
.LBE877:
.LBB882:
.LBB883:
	.loc 1 5372 0
	mov	r3, #0
	.loc 1 5373 0
	ldr	r2, .L1247+324
	.loc 1 5372 0
	strb	r3, [r8]
	.loc 1 5373 0
	str	r3, [r2]
	b	.L873
.L1217:
.LBE883:
.LBE882:
	.loc 1 4462 0
	mov	r1, r9
	b	.L877
.LVL742:
.L875:
	.loc 1 5090 0
	tst	r0, #32768
	bne	.L874
.LVL743:
.L877:
	.loc 1 5076 0
	add	r1, r1, #36
.LVL744:
	.loc 1 5077 0
	ldr	r0, [r1, #4]
	tst	r0, #256
	beq	.L875
	.loc 1 5082 0
	mov	r3, #0
	.loc 1 5080 0
	ldr	lr, .L1247+252
	.loc 1 5079 0
	ldr	r0, [r9, #4]
	.loc 1 5080 0
	ldr	ip, [lr]
	.loc 1 5081 0
	ldr	r1, [r1, #16]
.LVL745:
	.loc 1 5083 0
	ldr	r4, .L1247+324
	.loc 1 5080 0
	sub	ip, ip, #1
	.loc 1 5079 0
	bic	r0, r0, #1
	.loc 1 5081 0
	str	r1, [r2]
	.loc 1 5080 0
	str	ip, [lr]
	mov	r2, r1
	.loc 1 5079 0
	str	r0, [r9, #4]
	.loc 1 5082 0
	str	r3, [r7, #20]
	.loc 1 5083 0
	str	r3, [r4]
	.loc 1 5084 0
	b	.L876
.L922:
	mov	r3, lr
.L876:
	.loc 1 5084 0 is_stmt 0 discriminator 1
	ldr	r1, [r2, #4]
	mov	ip, r2
	ands	r0, r1, #8192
	add	r2, r2, #36
	add	lr, r3, #1
	bne	.L922
	b	.L1161
.LVL746:
.L920:
.LBB884:
	.loc 1 4736 0 is_stmt 1
	mov	lr, #1
	b	.L818
.LVL747:
.L1225:
.LBE884:
	.loc 1 4574 0 discriminator 1
	cmp	r3, #0
	beq	.L777
	.loc 1 4575 0
	sub	r3, r3, #1
	str	r3, [r1]
	.loc 1 4576 0
	mov	r6, #1
	b	.L995
.LVL748:
.L1201:
.LBE929:
	.loc 1 5238 0
	mov	r3, #0
	b	.L902
.LVL749:
.L1224:
.LBB930:
	.loc 1 4542 0
	ldr	r3, .L1247+256
	ldr	r3, [r3]
	cmp	r3, #0
	bne	.L1237
.L770:
	.loc 1 4569 0
	add	r0, r9, #4
	bl	M_SelectDone.isra.3
.LVL750:
	.loc 1 4570 0
	mov	r3, #0
	.loc 1 4571 0
	mov	r6, #1
	.loc 1 4570 0
	str	r3, [r7, #16]
	.loc 1 4571 0
	b	.L995
.LVL751:
.L918:
.LBB885:
	.loc 1 4699 0
	mov	lr, #2
	b	.L809
.L917:
	.loc 1 4697 0
	mov	lr, #1
	b	.L809
.LVL752:
.L868:
.LBE885:
.LBB886:
	.loc 1 5000 0
	ldr	r3, .L1247+276
	and	r3, r3, r0
	cmp	r3, #0
	bne	.L1238
	.loc 1 5026 0
	tst	r0, #128
	.loc 1 5027 0
	movne	r3, #1
	strne	r3, [r7, #12]
	b	.L867
.LVL753:
.L1234:
.LBE886:
.LBB887:
	.loc 1 4641 0
	add	r8, r6, #1
.LVL754:
	.loc 1 4642 0
	ldr	r3, [r7, r8, asl #2]
	cmp	r3, #0
	bne	.L801
.LVL755:
.L800:
	.loc 1 4641 0
	mov	r8, r6
	b	.L906
.LVL756:
.L807:
.LBE887:
	.loc 1 4795 0
	ldr	r10, [r7, #24]
	.loc 1 4794 0
	ldr	r5, .L1247+272
.LVL757:
	.loc 1 4795 0
	cmp	r10, #0
	beq	.L831
	.loc 1 4797 0
	ldr	r3, .L1247+292
	ldr	r3, [r3]
	cmp	r4, r3
	beq	.L849
	.loc 1 4800 0
	sub	r3, r4, #49
	cmp	r3, #8
	.loc 1 4799 0
	sub	r4, r4, #48
.LVL758:
	.loc 1 4800 0
	bhi	.L1159
.LVL759:
	.loc 1 4812 0 discriminator 1
	ldr	ip, .L1247+260
	ldr	r3, [ip, #236]
.LVL760:
	cmp	r3, #0
	beq	.L833
	add	ip, ip, #236
	b	.L1152
.LVL761:
.L836:
	.loc 1 4814 0
	tst	r2, #2048
	beq	.L835
	.loc 1 4815 0 discriminator 1
	ldr	r2, [r3, #16]
	subs	r1, r3, r9
	ldr	r2, [r2, #4]
	movne	r1, #1
	.loc 1 4814 0 discriminator 1
	ldr	r0, [r2]
	.loc 1 4815 0 discriminator 1
	cmp	r4, r0
	movne	r1, #0
	cmp	r1, #0
	bne	.L1239
.L835:
	.loc 1 4813 0
	add	r3, r3, #36
.LVL762:
.L1152:
	ldr	r2, [r3, #4]
	tst	r2, #32768
	beq	.L836
	.loc 1 4812 0 discriminator 2
	ldr	r3, [ip, #4]!
.LVL763:
	cmp	r3, #0
	bne	.L1152
.LVL764:
.L833:
	.loc 1 4821 0
	ldr	r3, [r9, #16]
	ldr	r3, [r3, #4]
	str	r4, [r3]
	b	.L849
.LVL765:
.L1239:
	.loc 1 4817 0
	ldr	r3, [r9, #16]
.LVL766:
	ldr	r3, [r3, #4]
	ldr	r3, [r3]
	str	r3, [r2]
	.loc 1 4818 0
	b	.L833
.LVL767:
.L831:
	.loc 1 4830 0
	ldr	lr, [r5, #32]
	cmp	lr, #0
	beq	.L847
	.loc 1 4833 0
	ldr	lr, .L1247+264
	ldr	lr, [lr]
	cmp	r4, lr
	beq	.L1240
	.loc 1 4841 0
	ldr	lr, .L1247+268
	ldr	lr, [lr]
	cmp	r4, lr
	beq	.L1241
	.loc 1 4849 0
	ldr	lr, .L1247+284
	ldr	lr, [lr]
	cmp	r4, lr
	beq	.L1242
	.loc 1 4857 0
	ldr	lr, .L1247+288
	ldr	lr, [lr]
	cmp	r4, lr
	.loc 1 4859 0
	ldreq	r2, .L1247+320
	.loc 1 4857 0
	beq	.L1154
	.loc 1 4865 0
	ldr	lr, .L1247+292
	ldr	lr, [lr]
	cmp	r4, lr
	beq	.L1243
.L847:
	.loc 1 4876 0 discriminator 1
	ldr	r5, [r7, #40]
	ldr	r10, [r7, #44]
	ldr	lr, [r7, #52]
	orr	r10, r10, r5
	ldr	r5, [r7, #48]
	orr	r10, r10, lr
	.loc 1 4877 0 discriminator 1
	ldr	lr, [r7, #28]
	.loc 1 4876 0 discriminator 1
	orr	r5, r10, r5
	.loc 1 4877 0 discriminator 1
	ldr	r10, [r7, #300]
	orr	lr, r5, lr
	.loc 1 4875 0 discriminator 1
	orrs	lr, lr, r10
	.loc 1 4876 0 discriminator 1
	ldr	lr, .L1247+272
	.loc 1 4875 0 discriminator 1
	beq	.L848
	.loc 1 4879 0
	ldr	r3, .L1247+276
	and	r3, r3, r0
	cmp	r3, #0
	beq	.L849
	.loc 1 4881 0
	ldr	r3, .L1247+280
	ldr	r3, [r3]
	cmp	r4, r3
	beq	.L1244
	.loc 1 4893 0
	ldr	r3, .L1247+284
	ldr	r3, [r3]
	cmp	r4, r3
	beq	.L1245
	.loc 1 4898 0
	ldr	r3, .L1247+288
	ldr	r3, [r3]
	cmp	r4, r3
	beq	.L1246
	.loc 1 4903 0
	ldr	r3, .L1247+292
	ldr	r3, [r3]
	cmp	r4, r3
	beq	.L854
	.loc 1 4903 0 is_stmt 0 discriminator 1
	ldr	r3, [ip]
	cmp	r4, r3
	beq	.L854
	.loc 1 4915 0 is_stmt 1
	sub	r3, r4, #32
	cmp	r3, #94
	bhi	.L1159
	.loc 1 4916 0
	ldr	r2, .L1247+304
	ldr	r3, [r2]
	cmp	r3, #126
	bgt	.L1159
	.loc 1 4918 0
	ldr	r1, [lr, #296]
	.loc 1 4920 0
	ldr	ip, .L1247+300
	.loc 1 4918 0
	cmp	r1, #0
	.loc 1 4919 0
	ldrne	r1, .L1247+296
	ldrne	r1, [r1]
	ldrneb	r4, [r1, r4]	@ zero_extendqisi2
.LVL768:
	.loc 1 4920 0
	ldr	r1, [ip]
	ldrb	r0, [r1, r3]	@ zero_extendqisi2
	cmp	r0, #0
	bne	.L857
	.loc 1 4922 0
	add	lr, r3, #1
	str	lr, [r2]
	strb	r4, [r1, r3]
	.loc 1 4923 0
	ldr	r3, [r2]
	ldr	r2, [ip]
	.loc 1 4928 0
	mov	r6, #1
	.loc 1 4923 0
	strb	r0, [r2, r3]
	b	.L995
.LVL769:
.L1240:
	.loc 1 4835 0
	ldr	r2, .L1247+316
.L1154:
	ldr	r3, [r2]
	cmp	r3, #15
	moveq	r3, #0
	addne	r3, r3, #1
.L1153:
	str	r3, [r2]
.L841:
	.loc 1 4837 0
	mov	r0, #0
	mov	r1, #32
	bl	S_StartSound
.LVL770:
	.loc 1 4838 0
	mov	r6, #1
	b	.L995
.L1241:
	.loc 1 4843 0
	ldr	r2, .L1247+316
	ldr	r3, [r2]
	subs	r3, r3, #1
	bpl	.L1153
.L1155:
	.loc 1 4852 0
	mov	r3, #15
	str	r3, [r2]
	b	.L841
.L1244:
	.loc 1 4883 0
	ldr	r3, .L1247+300
	ldr	ip, .L1247+304
	ldr	r1, [r3]
	ldr	r3, [ip]
	ldrb	r2, [r1, r3]	@ zero_extendqisi2
	add	r0, r1, r3
	cmp	r2, #0
	bne	.L851
	.loc 1 4885 0
	cmp	r3, #0
	ble	.L1159
	.loc 1 4886 0
	sub	r3, r3, #1
	str	r3, [ip]
	.loc 1 4928 0
	mov	r6, #1
	.loc 1 4886 0
	strb	r2, [r1, r3]
	b	.L995
.L1245:
	.loc 1 4895 0
	ldr	r2, .L1247+304
	ldr	r3, [r2]
	cmp	r3, #0
	ble	.L1159
	.loc 1 4896 0
	sub	r3, r3, #1
	str	r3, [r2]
	.loc 1 4928 0
	mov	r6, #1
	b	.L995
.L1242:
	.loc 1 4851 0
	ldr	r2, .L1247+320
	ldr	r3, [r2]
	sub	r3, r3, #1
	cmp	r3, #0
	str	r3, [r2]
	bge	.L841
	b	.L1155
.L854:
	.loc 1 4906 0
	ldr	r3, [r9, #16]
	ldr	r2, .L1247+300
	ldr	r3, [r3, #8]
	ldr	r2, [r2]
	.loc 1 4907 0
	add	r0, r9, #4
	.loc 1 4906 0
	str	r2, [r3]
	.loc 1 4907 0
	bl	M_SelectDone.isra.3
.LVL771:
	.loc 1 4928 0
	mov	r6, #1
	.loc 1 4907 0
	b	.L995
.L1246:
	.loc 1 4900 0
	ldr	r2, .L1247+304
	ldr	r1, .L1247+300
	ldr	r3, [r2]
	ldr	r1, [r1]
	ldrb	r1, [r1, r3]	@ zero_extendqisi2
	cmp	r1, #0
	beq	.L1159
	.loc 1 4901 0
	add	r3, r3, #1
	str	r3, [r2]
	.loc 1 4928 0
	mov	r6, #1
	b	.L995
.L851:
	.loc 1 4891 0
	add	r3, r3, #1
	.loc 1 4890 0
	add	r1, r1, r3
	bl	strcpy
.LVL772:
	.loc 1 4928 0
	mov	r6, #1
	b	.L995
.LVL773:
.L857:
	.loc 1 4926 0
	add	r0, r3, #1
	str	r0, [r2]
	.loc 1 4928 0
	mov	r6, #1
	.loc 1 4926 0
	strb	r4, [r1, r3]
	b	.L995
.LVL774:
.L1236:
.LBB888:
	.loc 1 4615 0
	cmp	r6, #0
.LBB881:
.LBB880:
	.loc 1 4105 0
	mov	r3, r6
.LVL775:
.LBE880:
.LBE881:
	.loc 1 4615 0
	moveq	r6, #0
.LVL776:
	subne	r6, r6, #1
.LVL777:
	.loc 1 4616 0
	cmp	r6, r3
	beq	.L790
	.loc 1 4617 0
	mov	r1, #19
	bl	S_StartSound
.LVL778:
	mov	r3, r6
	ldr	r5, [r9, #16]
	ldr	r7, [r9, #32]
	b	.L790
.LVL779:
.L1235:
.LBE888:
.LBB889:
	.loc 1 4595 0
	ldr	r2, [r5, #4]
	.loc 1 4598 0
	ldr	r3, [r5, #20]
	.loc 1 4595 0
	ldr	r2, [r2]
.LVL780:
	.loc 1 4598 0
	ldr	r1, .L1247+312
	.loc 1 4597 0
	sub	r0, r2, #1
.LVL781:
	cmp	r3, r1
	cmpne	r0, r3
	movge	r3, r0
.LVL782:
	.loc 1 4601 0
	ldr	r6, [r5, #24]
	cmp	r6, r1
	cmpne	r3, r6
	movle	r6, r3
.LVL783:
	.loc 1 4604 0
	cmp	r6, r2
	beq	.L784
	.loc 1 4605 0
	mov	r0, #0
	mov	r1, #19
	bl	S_StartSound
.LVL784:
	ldr	r5, [r9, #16]
.L784:
	.loc 1 4606 0
	ldr	r3, [r5, #4]
	str	r6, [r3]
	ldr	r5, [r9, #16]
	b	.L781
.LVL785:
.L1233:
.LBE889:
.LBB890:
	.loc 1 4623 0
	ldr	r2, [r5, #4]
	.loc 1 4626 0
	ldr	r3, [r5, #20]
	.loc 1 4623 0
	ldr	r2, [r2]
.LVL786:
	.loc 1 4626 0
	ldr	r1, .L1247+312
	.loc 1 4625 0
	add	r0, r2, #1
.LVL787:
	cmp	r3, r1
	cmpne	r0, r3
	movge	r3, r0
.LVL788:
	.loc 1 4629 0
	ldr	r6, [r5, #24]
	cmp	r6, r1
	cmpne	r3, r6
	movle	r6, r3
.LVL789:
	.loc 1 4632 0
	cmp	r6, r2
	beq	.L796
	.loc 1 4633 0
	mov	r0, #0
	mov	r1, #19
	bl	S_StartSound
.LVL790:
	ldr	r5, [r9, #16]
.L796:
	.loc 1 4634 0
	ldr	r3, [r5, #4]
	str	r6, [r3]
	ldr	r5, [r9, #16]
	b	.L793
.LVL791:
.L1238:
.LBE890:
.LBB891:
	.loc 1 5008 0
	mov	r1, #1
	mov	r2, r4
	mov	r0, #128
.LVL792:
	bl	Z_Malloc
.LVL793:
	.loc 1 5010 0
	ldr	r3, [r9, #16]
	.loc 1 5008 0
	ldr	r5, .L1247+300
	.loc 1 5009 0
	ldr	r3, [r3, #8]
	.loc 1 5008 0
	str	r0, [r5]
	.loc 1 5009 0
	ldr	r1, [r3]
	mov	r2, #128
	bl	strncpy
.LVL794:
	.loc 1 5013 0
	ldr	r3, [r5]
	strb	r4, [r3, #127]
.LBB869:
	.loc 1 5020 0
	ldr	r3, [r9, #16]
	ldr	r6, [r3, #8]
.LVL795:
	.loc 1 5021 0
	ldr	r0, [r6]
	bl	Z_Free
.LVL796:
	.loc 1 5022 0
	ldr	r2, [r5]
.LBE869:
	.loc 1 5024 0
	ldr	r3, .L1247+304
.LBB870:
	.loc 1 5022 0
	str	r2, [r6]
	ldr	r0, [r9, #4]
.LBE870:
	.loc 1 5024 0
	str	r4, [r3]
	b	.L867
.LVL797:
.L1237:
.LBE891:
.LBB892:
	.loc 1 4545 0
	mov	r1, #0
	ldr	r2, .L1247+308
	.loc 1 4546 0
	mov	r0, r2
	.loc 1 4545 0
	strb	r1, [r2, r3]
	.loc 1 4546 0
	bl	atoi
.LVL798:
	.loc 1 4548 0
	ldr	r3, [r9, #16]
	ldr	r2, .L1247+312
	ldr	r1, [r3, #20]
	cmp	r1, r2
	cmpne	r0, r1
	blt	.L771
	.loc 1 4550 0
	ldr	r1, [r3, #24]
	cmp	r1, r2
	cmpne	r0, r1
	ble	.L772
.L771:
	.loc 1 4552 0
	mov	r0, #262144
.LVL799:
	mov	r2, #2
	ldr	r1, .L1247+328
	ldr	r3, .L1247+324
	str	r0, [r1]
	str	r2, [r3]
	b	.L770
.LVL800:
.L1243:
.LBE892:
	.loc 1 4867 0
	ldr	r1, .L1247+316
	ldr	r3, .L1247+320
	ldr	r2, [r9, #16]
	ldr	r1, [r1]
	ldr	r3, [r3]
	ldr	r2, [r2, #4]
	add	r3, r3, r1, asl #4
	str	r3, [r2]
	.loc 1 4868 0
	add	r0, r9, #4
	bl	M_SelectDone.isra.3
.LVL801:
	.loc 1 4870 0
	mov	r6, #1
	.loc 1 4869 0
	str	r10, [r5, #36]
	.loc 1 4870 0
	b	.L995
.LVL802:
.L772:
.LBB893:
	.loc 1 4554 0
	ldr	r3, [r3, #4]
	str	r0, [r3]
	.loc 1 4559 0
	ldr	r3, [r9, #4]
	ands	r3, r3, #196608
	beq	.L773
	.loc 1 4560 0
	mov	r0, #2
.LVL803:
	ldr	r1, .L1247+324
	ldr	r2, .L1247+328
	str	r0, [r1]
	str	r3, [r2]
.L774:
	.loc 1 4565 0
	ldr	r3, [r9, #28]
	cmp	r3, #0
	beq	.L770
	.loc 1 4566 0
	blx	r3
.LVL804:
	b	.L770
.LVL805:
.L773:
	.loc 1 4563 0
	ldr	r3, [r9, #16]
	ldr	r0, [r3, #4]
.LVL806:
	ldr	r1, [r3, #36]
	bl	M_UpdateCurrent.isra.0
.LVL807:
	b	.L774
.LBE893:
.LBE930:
	.cfi_endproc
.LFE101:
	.size	M_Responder, .-M_Responder
	.align	2
	.global	M_StringHeight
	.type	M_StringHeight, %function
M_StringHeight:
.LFB113:
	.loc 1 5511 0
	.cfi_startproc
	@ args = 0, pretend = 0, frame = 0
	@ frame_needed = 0, uses_anonymous_args = 0
	@ link register save eliminated.
.LVL808:
	.loc 1 5513 0
	ldrb	r3, [r0]	@ zero_extendqisi2
	.loc 1 5512 0
	ldr	r2, .L1255
	.loc 1 5513 0
	cmp	r3, #0
	.loc 1 5512 0
	ldr	r1, [r2, #4]
.LVL809:
	.loc 1 5513 0
	beq	.L1253
	mov	r2, r0
	mov	r0, r1
.LVL810:
.L1252:
	.loc 1 5514 0
	cmp	r3, #10
	.loc 1 5513 0
	ldrb	r3, [r2, #1]!	@ zero_extendqisi2
.LVL811:
	.loc 1 5515 0
	addeq	r0, r0, r1
.LVL812:
	.loc 1 5513 0
	cmp	r3, #0
	bne	.L1252
	bx	lr
.LVL813:
.L1253:
	.loc 1 5512 0
	mov	r0, r1
.LVL814:
	.loc 1 5517 0
	bx	lr
.L1256:
	.align	2
.L1255:
	.word	hu_font
	.cfi_endproc
.LFE113:
	.size	M_StringHeight, .-M_StringHeight
	.align	2
	.global	M_WriteText
	.type	M_WriteText, %function
M_WriteText:
.LFB114:
	.loc 1 5523 0
	.cfi_startproc
	@ args = 0, pretend = 0, frame = 8
	@ frame_needed = 0, uses_anonymous_args = 0
.LVL815:
	.loc 1 5560 0
	cmp	r3, #6
	.loc 1 5523 0
	stmfd	sp!, {r4, r5, r6, r7, r8, r9, r10, fp, lr}
	.cfi_def_cfa_offset 36
	.cfi_offset 4, -36
	.cfi_offset 5, -32
	.cfi_offset 6, -28
	.cfi_offset 7, -24
	.cfi_offset 8, -20
	.cfi_offset 9, -16
	.cfi_offset 10, -12
	.cfi_offset 11, -8
	.cfi_offset 14, -4
	mov	r9, r3
	.loc 1 5560 0
	moveq	r3, #4
.LVL816:
	movne	r3, #6
	.loc 1 5523 0
	mov	r6, r1
	mov	r4, r2
.LVL817:
	sub	sp, sp, #20
	.cfi_def_cfa_offset 56
.LBB931:
	.loc 1 5549 0
	ldr	r7, .L1273
.LBE931:
	.loc 1 5555 0
	ldr	r8, .L1273+4
	.loc 1 5556 0
	ldr	r10, .L1273+8
	.loc 1 5560 0
	ldr	fp, .L1273+12
	.loc 1 5523 0
	str	r0, [sp, #12]
	.loc 1 5560 0
	str	r3, [sp, #8]
.LVL818:
.L1259:
	.loc 1 5540 0
	ldrb	r3, [r4], #1	@ zero_extendqisi2
.LVL819:
	.loc 1 5541 0
	cmp	r3, #0
	beq	.L1257
.LVL820:
.L1272:
	.loc 1 5543 0
	cmp	r3, #10
	beq	.L1271
.LBB932:
	.loc 1 5549 0
	ldr	r2, [r7]
	add	r2, r2, r3
	ldrb	r2, [r2, #1]	@ zero_extendqisi2
	and	r2, r2, #3
	cmp	r2, #2
	subeq	r3, r3, #32
.LVL821:
.LBE932:
	sub	r3, r3, #33
.LVL822:
	.loc 1 5550 0
	cmp	r3, #94
	.loc 1 5555 0
	add	r2, r3, r3, asl #2
	.loc 1 5551 0
	addhi	r0, r0, #4
.LVL823:
	.loc 1 5550 0
	bhi	.L1259
	.loc 1 5556 0
	ldr	r5, [r8, r2, asl #2]
	ldr	r3, [r10]
.LVL824:
	add	r5, r0, r5
	cmp	r5, r3
	.loc 1 5555 0
	add	r1, r8, r2, asl #2
	.loc 1 5556 0
	bgt	.L1257
	.loc 1 5560 0
	ldr	r2, [sp, #8]
	ldr	r3, [r1, #16]
	str	r2, [sp, #4]
	str	r9, [sp]
	ldr	ip, [fp]
	mov	r1, r6
	mov	r2, #0
	blx	ip
.LVL825:
	.loc 1 5540 0
	ldrb	r3, [r4], #1	@ zero_extendqisi2
	.loc 1 5560 0
	mov	r0, r5
.LVL826:
	.loc 1 5541 0
	cmp	r3, #0
	bne	.L1272
.LVL827:
.L1257:
	.loc 1 5563 0
	add	sp, sp, #20
	.cfi_remember_state
	.cfi_def_cfa_offset 36
	@ sp needed
	ldmfd	sp!, {r4, r5, r6, r7, r8, r9, r10, fp, pc}
.LVL828:
.L1271:
	.cfi_restore_state
	.loc 1 5545 0
	add	r6, r6, #12
.LVL829:
	.loc 1 5544 0
	ldr	r0, [sp, #12]
	.loc 1 5546 0
	b	.L1259
.L1274:
	.align	2
.L1273:
	.word	__ctype_ptr__
	.word	hu_font
	.word	SCREENWIDTH
	.word	V_DrawNumPatch
	.cfi_endproc
.LFE114:
	.size	M_WriteText, .-M_WriteText
	.align	2
	.global	M_DrawLoad
	.type	M_DrawLoad, %function
M_DrawLoad:
.LFB24:
	.loc 1 722 0
	.cfi_startproc
	@ args = 0, pretend = 0, frame = 0
	@ frame_needed = 0, uses_anonymous_args = 0
	stmfd	sp!, {r4, r5, r6, lr}
	.cfi_def_cfa_offset 16
	.cfi_offset 4, -16
	.cfi_offset 5, -12
	.cfi_offset 6, -8
	.cfi_offset 14, -4
	.loc 1 727 0
	ldr	r3, .L1279
	.loc 1 722 0
	sub	sp, sp, #8
	.cfi_def_cfa_offset 24
	.loc 1 727 0
	ldr	r0, .L1279+4
	ldr	r4, [r3]
	bl	W_GetNumForName
.LVL830:
	mov	r1, #6
	mov	r2, #4
	mov	r3, r0
	stmia	sp, {r1, r2}
	mov	r0, #72
	mov	r1, #8
	mov	r2, #0
	blx	r4
.LVL831:
	mov	r4, #0
	ldr	r6, .L1279+8
	ldr	r5, .L1279+12
.LVL832:
.L1276:
	.loc 1 729 0 discriminator 3
	ldrsh	r1, [r5, #18]
	ldrsh	r0, [r5, #16]
	add	r1, r1, r4
	bl	M_DrawSaveLoadBorder
.LVL833:
	.loc 1 730 0 discriminator 3
	ldrsh	r1, [r5, #18]
	mov	r2, r6
	add	r1, r4, r1
	ldrsh	r0, [r5, #16]
	add	r4, r4, #16
	mov	r3, #6
	bl	M_WriteText
.LVL834:
	.loc 1 728 0 discriminator 3
	cmp	r4, #128
	add	r6, r6, #24
	bne	.L1276
	.loc 1 732 0
	add	sp, sp, #8
	.cfi_def_cfa_offset 16
	@ sp needed
	ldmfd	sp!, {r4, r5, r6, pc}
.L1280:
	.align	2
.L1279:
	.word	V_DrawNumPatch
	.word	.LC77
	.word	savegamestrings
	.word	.LANCHOR0+1428
	.cfi_endproc
.LFE24:
	.size	M_DrawLoad, .-M_DrawLoad
	.align	2
	.global	M_DrawSave
	.type	M_DrawSave, %function
M_DrawSave:
.LFB31:
	.loc 1 871 0
	.cfi_startproc
	@ args = 0, pretend = 0, frame = 0
	@ frame_needed = 0, uses_anonymous_args = 0
	stmfd	sp!, {r4, r5, r6, r7, r8, lr}
	.cfi_def_cfa_offset 24
	.cfi_offset 4, -24
	.cfi_offset 5, -20
	.cfi_offset 6, -16
	.cfi_offset 7, -12
	.cfi_offset 8, -8
	.cfi_offset 14, -4
	.loc 1 876 0
	ldr	r3, .L1287
	.loc 1 871 0
	sub	sp, sp, #8
	.cfi_def_cfa_offset 32
	.loc 1 876 0
	ldr	r0, .L1287+4
	ldr	r4, [r3]
	bl	W_GetNumForName
.LVL835:
	mov	r1, #6
	mov	r2, #4
	ldr	r8, .L1287+8
	stmia	sp, {r1, r2}
	mov	r3, r0
	mov	r1, #8
	mov	r0, #72
	mov	r2, #0
	blx	r4
.LVL836:
	mov	r6, r8
	mov	r4, #0
	ldr	r5, .L1287+12
.LVL837:
.L1282:
	.loc 1 879 0 discriminator 3
	ldrsh	r1, [r5, #18]
	ldrsh	r0, [r5, #16]
	add	r1, r1, r4
	bl	M_DrawSaveLoadBorder
.LVL838:
	.loc 1 880 0 discriminator 3
	ldrsh	r1, [r5, #18]
	mov	r2, r6
	add	r1, r4, r1
	ldrsh	r0, [r5, #16]
	add	r4, r4, #16
	mov	r3, #6
	bl	M_WriteText
.LVL839:
	.loc 1 877 0 discriminator 3
	cmp	r4, #128
	add	r6, r6, #24
	.loc 1 879 0 discriminator 3
	ldr	r7, .L1287+12
	.loc 1 877 0 discriminator 3
	bne	.L1282
	.loc 1 883 0
	ldr	r3, .L1287+16
	ldr	r3, [r3]
	cmp	r3, #0
	bne	.L1286
	.loc 1 888 0
	add	sp, sp, #8
	.cfi_remember_state
	.cfi_def_cfa_offset 24
	@ sp needed
	ldmfd	sp!, {r4, r5, r6, r7, r8, pc}
.L1286:
	.cfi_restore_state
.LBB935:
.LBB936:
	.loc 1 885 0
	ldr	r3, .L1287+20
	ldr	r4, [r3]
	add	r0, r4, r4, asl #1
	add	r0, r8, r0, asl #3
	bl	M_StringWidth
.LVL840:
	.loc 1 886 0
	ldrsh	r3, [r7, #16]
	ldrsh	r1, [r7, #18]
	add	r0, r0, r3
.LVL841:
	mov	r3, #6
	ldr	r2, .L1287+24
	add	r1, r1, r4, asl #4
.LBE936:
.LBE935:
	.loc 1 888 0
	add	sp, sp, #8
	.cfi_def_cfa_offset 24
	@ sp needed
	ldmfd	sp!, {r4, r5, r6, r7, r8, lr}
	.cfi_restore 14
	.cfi_restore 8
	.cfi_restore 7
	.cfi_restore 6
	.cfi_restore 5
	.cfi_restore 4
	.cfi_def_cfa_offset 0
.LBB938:
.LBB937:
	.loc 1 886 0
	b	M_WriteText
.LVL842:
.L1288:
	.align	2
.L1287:
	.word	V_DrawNumPatch
	.word	.LC78
	.word	savegamestrings
	.word	.LANCHOR0+1428
	.word	saveStringEnter
	.word	saveSlot
	.word	.LC79
.LBE937:
.LBE938:
	.cfi_endproc
.LFE31:
	.size	M_DrawSave, .-M_DrawSave
	.align	2
	.global	M_Drawer
	.type	M_Drawer, %function
M_Drawer:
.LFB103:
	.loc 1 5293 0
	.cfi_startproc
	@ args = 0, pretend = 0, frame = 0
	@ frame_needed = 0, uses_anonymous_args = 0
	.loc 1 5294 0
	mov	r2, #0
	.loc 1 5293 0
	stmfd	sp!, {r4, r5, r6, r7, r8, r9, r10, fp, lr}
	.cfi_def_cfa_offset 36
	.cfi_offset 4, -36
	.cfi_offset 5, -32
	.cfi_offset 6, -28
	.cfi_offset 7, -24
	.cfi_offset 8, -20
	.cfi_offset 9, -16
	.cfi_offset 10, -12
	.cfi_offset 11, -8
	.cfi_offset 14, -4
	.loc 1 5298 0
	ldr	r3, .L1351
	.loc 1 5294 0
	ldr	r1, .L1351+4
	.loc 1 5298 0
	ldr	r3, [r3]
	.loc 1 5293 0
	sub	sp, sp, #12
	.cfi_def_cfa_offset 48
	.loc 1 5298 0
	cmp	r3, r2
	.loc 1 5294 0
	str	r2, [r1]
	.loc 1 5298 0
	bne	.L1346
	.loc 1 5319 0
	ldr	r3, .L1351+8
	ldrb	r2, [r3]	@ zero_extendqisi2
	cmp	r2, #0
	beq	.L1289
.LVL843:
.LBB939:
	.loc 1 5324 0
	mov	r2, #1
	.loc 1 5326 0
	ldr	r8, .L1351+12
	.loc 1 5324 0
	strb	r2, [r3]
	.loc 1 5326 0
	ldr	r3, [r8]
	ldr	r2, [r3, #12]
	cmp	r2, #0
	beq	.L1343
	.loc 1 5327 0
	blx	r2
.LVL844:
	ldr	r3, [r8]
.L1343:
	.loc 1 5333 0
	ldrsh	r5, [r3]
	.loc 1 5331 0
	ldrsh	r9, [r3, #16]
.LVL845:
	.loc 1 5335 0
	cmp	r5, #0
	.loc 1 5332 0
	ldrsh	r4, [r3, #18]
.LVL846:
	.loc 1 5335 0
	ble	.L1319
.LBE939:
.LBB950:
	.loc 1 5305 0
	mov	r7, #0
	mov	r6, r7
	mov	r10, r7
	b	.L1305
.LVL847:
.L1303:
.LBE950:
.LBB958:
	.loc 1 5335 0 discriminator 2
	add	r10, r10, #1
.LVL848:
	cmp	r5, r10
	add	r7, r7, #24
	beq	.L1347
.LVL849:
.L1305:
	.loc 1 5336 0
	ldr	r0, [r3, #8]
	add	r0, r0, r7
	ldrb	r2, [r0, #2]	@ zero_extendqisi2
	cmp	r2, #0
	beq	.L1303
.LVL850:
.LBB940:
.LBB941:
	.loc 2 132 0
	add	r0, r0, #2
.LVL851:
	mov	r1, #0
	mvn	r2, #0
	bl	W_FindNumFromName
.LVL852:
.LBE941:
.LBE940:
	.loc 1 5335 0
	add	r10, r10, #1
.LVL853:
	.loc 1 5337 0
	cmp	r0, #0
	.loc 1 5338 0
	addlt	r6, r6, #1
.LVL854:
	.loc 1 5335 0
	cmp	r5, r10
	ldr	r3, [r8]
	add	r7, r7, #24
	bne	.L1305
.LVL855:
.L1347:
	.loc 1 5340 0
	cmp	r6, #0
	beq	.L1348
.LVL856:
	mov	r6, #0
.LVL857:
	mov	r10, r6
.LBB942:
.LBB943:
.LBB944:
	.loc 1 5512 0
	ldr	r7, .L1351+16
	add	r4, r4, #8
.LVL858:
.L1313:
.LBE944:
.LBE943:
	.loc 1 5351 0
	ldr	r2, [r3, #8]
	add	r2, r2, r6
	ldr	r2, [r2, #20]
.LVL859:
	.loc 1 5352 0
	cmp	r2, #0
	beq	.L1309
.LVL860:
.LBB947:
.LBB945:
	.loc 1 5513 0
	ldrb	r3, [r2]	@ zero_extendqisi2
	.loc 1 5512 0
	ldr	r0, [r7, #4]
.LVL861:
	.loc 1 5513 0
	cmp	r3, #0
	beq	.L1320
	mov	ip, r2
	mov	r1, r0
.LVL862:
.L1312:
	.loc 1 5514 0
	cmp	r3, #10
	.loc 1 5513 0
	ldrb	r3, [ip, #1]!	@ zero_extendqisi2
	.loc 1 5515 0
	addeq	r1, r1, r0
.LVL863:
	.loc 1 5513 0
	cmp	r3, #0
	bne	.L1312
.L1310:
.LBE945:
.LBE947:
	.loc 1 5353 0
	add	r1, r1, r1, lsr #31
.LVL864:
	mov	r3, #6
	sub	r1, r4, r1, asr #1
	mov	r0, r9
.LVL865:
	bl	M_WriteText
.LVL866:
	ldr	r3, [r8]
.L1309:
.LVL867:
.LBE942:
	.loc 1 5349 0 discriminator 2
	add	r10, r10, #1
.LVL868:
	cmp	r5, r10
	add	r6, r6, #24
	add	r4, r4, #16
.LVL869:
	bne	.L1313
	ldrsh	r4, [r3, #18]
.LVL870:
	ldr	r10, .L1351+20
.LVL871:
.L1302:
	.loc 1 5360 0
	mov	r1, #16
	ldr	r3, .L1351+24
	ldr	r2, .L1351+28
	ldrsh	r3, [r3]
	ldr	ip, .L1351+32
	ldrh	r2, [r2]
	add	r0, r3, r3, asl #3
	add	r0, ip, r0
	sub	r3, r4, #5
	smlabb	r4, r2, r1, r3
	ldr	r5, [r10]
.LVL872:
	bl	W_GetNumForName
.LVL873:
	mov	r2, #4
	mov	ip, #6
	mov	r3, r0
	str	r2, [sp, #4]
	mov	r1, r4
	sub	r0, r9, #32
	str	ip, [sp]
	mov	r2, #0
	blx	r5
.LVL874:
.L1289:
.LBE958:
	.loc 1 5363 0
	add	sp, sp, #12
	.cfi_remember_state
	.cfi_def_cfa_offset 36
	@ sp needed
	ldmfd	sp!, {r4, r5, r6, r7, r8, r9, r10, fp, pc}
.L1346:
	.cfi_restore_state
.LBB959:
	.loc 1 5301 0
	ldr	r4, .L1351+36
	mov	r1, #1
	ldr	r0, [r4, #220]
	bl	Z_Strdup
.LVL875:
	.loc 1 5304 0
	ldr	r2, [r4, #220]
.LBB951:
.LBB952:
	.loc 1 5512 0
	ldr	r8, .L1351+16
	.loc 1 5513 0
	ldrb	r3, [r2]	@ zero_extendqisi2
.LBE952:
.LBE951:
	.loc 1 5301 0
	mov	r10, r0
.LVL876:
.LBB954:
.LBB953:
	.loc 1 5512 0
	ldr	r0, [r8, #4]
.LVL877:
	.loc 1 5513 0
	cmp	r3, #0
	mov	r1, r0
	beq	.L1291
.LVL878:
.L1293:
	.loc 1 5514 0
	cmp	r3, #10
	.loc 1 5513 0
	ldrb	r3, [r2, #1]!	@ zero_extendqisi2
.LVL879:
	.loc 1 5515 0
	addeq	r1, r1, r0
.LVL880:
	.loc 1 5513 0
	cmp	r3, #0
	bne	.L1293
.LVL881:
.L1291:
.LBE953:
.LBE954:
	.loc 1 5305 0
	mov	r6, r10
.LBB955:
	.loc 1 5310 0
	mov	fp, #0
	.loc 1 5313 0
	mov	r9, #10
.LBE955:
	.loc 1 5304 0
	add	r1, r1, r1, lsr #31
.LVL882:
	mov	r7, r1, asr #1
	ldrb	r3, [r10]	@ zero_extendqisi2
	rsb	r7, r7, #100
.LVL883:
.L1294:
	.loc 1 5305 0
	cmp	r3, #0
	beq	.L1298
.LVL884:
.LBB956:
	.loc 1 5308 0
	cmp	r3, #10
	mov	r5, r6
	bne	.L1296
	b	.L1297
.LVL885:
.L1349:
	.loc 1 5308 0 is_stmt 0 discriminator 1
	cmp	r4, #10
	beq	.L1297
.LVL886:
.L1296:
	.loc 1 5308 0
	ldrb	r4, [r5, #1]!	@ zero_extendqisi2
.LVL887:
	cmp	r4, #0
	bne	.L1349
	.loc 1 5310 0 is_stmt 1
	strb	r4, [r5]
	.loc 1 5311 0
	mov	r0, r6
	bl	M_StringWidth
.LVL888:
	add	r0, r0, r0, lsr #31
	mov	r0, r0, asr #1
	rsb	r0, r0, #160
	mov	r1, r7
	mov	r2, r6
	mov	r3, #6
	bl	M_WriteText
.LVL889:
	.loc 1 5313 0
	strb	r4, [r5]
.LVL890:
.L1298:
.LBE956:
	.loc 1 5316 0
	mov	r0, r10
.LBE959:
	.loc 1 5363 0
	add	sp, sp, #12
	.cfi_remember_state
	.cfi_def_cfa_offset 36
	@ sp needed
	ldmfd	sp!, {r4, r5, r6, r7, r8, r9, r10, fp, lr}
	.cfi_restore 14
	.cfi_restore 11
	.cfi_restore 10
	.cfi_restore 9
	.cfi_restore 8
	.cfi_restore 7
	.cfi_restore 6
	.cfi_restore 5
	.cfi_restore 4
	.cfi_def_cfa_offset 0
.LVL891:
.LBB960:
	.loc 1 5316 0
	b	Z_Free
.LVL892:
.L1297:
	.cfi_restore_state
.LBB957:
	.loc 1 5311 0
	mov	r0, r6
	.loc 1 5310 0
	strb	fp, [r5]
	.loc 1 5311 0
	bl	M_StringWidth
.LVL893:
	mov	r2, r6
	.loc 1 5313 0
	mov	r6, r5
	.loc 1 5311 0
	add	r0, r0, r0, lsr #31
	mov	r0, r0, asr #1
	mov	r1, r7
	mov	r3, #6
	rsb	r0, r0, #160
	bl	M_WriteText
.LVL894:
	.loc 1 5312 0
	ldr	r2, [r8, #4]
.LVL895:
	.loc 1 5313 0
	strb	r9, [r6], #1
	ldrb	r3, [r5, #1]	@ zero_extendqisi2
	.loc 1 5312 0
	add	r7, r7, r2
.LVL896:
	b	.L1294
.LVL897:
.L1348:
.LBE957:
.LBE960:
.LBB961:
	.loc 1 5340 0
	mov	r7, r6
	ldr	r10, .L1351+20
	b	.L1308
.LVL898:
.L1307:
	.loc 1 5341 0 discriminator 2
	cmp	r5, r7
	.loc 1 5346 0 discriminator 2
	add	r4, r4, #16
.LVL899:
	.loc 1 5341 0 discriminator 2
	ble	.L1350
.LVL900:
.L1308:
	.loc 1 5343 0
	ldr	r2, [r3, #8]
	.loc 1 5341 0
	add	r7, r7, #1
.LVL901:
	.loc 1 5343 0
	add	r0, r2, r6
	ldrb	r1, [r0, #2]	@ zero_extendqisi2
	add	r6, r6, #24
	cmp	r1, #0
	beq	.L1307
	.loc 1 5344 0
	add	r0, r0, #2
	ldr	fp, [r10]
	bl	W_GetNumForName
.LVL902:
	mov	r1, #6
	mov	r2, #4
	mov	r3, r0
	stmia	sp, {r1, r2}
	mov	r0, r9
	mov	r1, r4
	mov	r2, #0
	blx	fp
.LVL903:
	.loc 1 5341 0
	cmp	r5, r7
	ldr	r3, [r8]
	.loc 1 5346 0
	add	r4, r4, #16
.LVL904:
	.loc 1 5341 0
	bgt	.L1308
.L1350:
	ldrsh	r4, [r3, #18]
.LVL905:
	b	.L1302
.LVL906:
.L1320:
.LBB949:
.LBB948:
.LBB946:
	.loc 1 5512 0
	mov	r1, r0
	b	.L1310
.LVL907:
.L1319:
	ldr	r10, .L1351+20
	b	.L1302
.L1352:
	.align	2
.L1351:
	.word	messageToPrint
	.word	inhelpscreens
	.word	menuactive
	.word	currentMenu
	.word	hu_font
	.word	V_DrawNumPatch
	.word	whichSkull
	.word	itemOn
	.word	.LANCHOR2+48
	.word	.LANCHOR1
.LBE946:
.LBE948:
.LBE949:
.LBE961:
	.cfi_endproc
.LFE103:
	.size	M_Drawer, .-M_Drawer
	.align	2
	.global	M_DrawTitle
	.type	M_DrawTitle, %function
M_DrawTitle:
.LFB115:
	.loc 1 5567 0
	.cfi_startproc
	@ args = 8, pretend = 0, frame = 0
	@ frame_needed = 0, uses_anonymous_args = 0
.LVL908:
	stmfd	sp!, {r4, r5, r6, r7, r8, lr}
	.cfi_def_cfa_offset 24
	.cfi_offset 4, -24
	.cfi_offset 5, -20
	.cfi_offset 6, -16
	.cfi_offset 7, -12
	.cfi_offset 8, -8
	.cfi_offset 14, -4
	.loc 1 5567 0
	mov	r8, r0
	mov	r4, r1
.LVL909:
.LBB972:
.LBB973:
	.loc 2 132 0
	mov	r0, r2
.LVL910:
	mov	r1, #0
.LVL911:
	mvn	r2, #0
.LVL912:
.LBE973:
.LBE972:
	.loc 1 5567 0
	mov	r7, r3
	ldr	r5, [sp, #24]
	ldr	r6, [sp, #28]
.LBB975:
.LBB974:
	.loc 2 132 0
	bl	W_FindNumFromName
.LVL913:
.LBE974:
.LBE975:
	.loc 1 5570 0
	subs	r3, r0, #0
	blt	.L1354
.LVL914:
.LBB976:
	.loc 1 5573 0
	cmp	r7, #6
	moveq	r1, #4
	movne	r1, #6
.LVL915:
	.loc 1 5575 0
	ldr	r2, .L1363
	str	r1, [sp, #28]
	str	r7, [sp, #24]
	mov	r0, r8
	mov	r1, r4
.LBE976:
	.loc 1 5584 0
	ldmfd	sp!, {r4, r5, r6, r7, r8, lr}
	.cfi_remember_state
	.cfi_restore 14
	.cfi_restore 8
	.cfi_restore 7
	.cfi_restore 6
	.cfi_restore 5
	.cfi_restore 4
	.cfi_def_cfa_offset 0
.LVL916:
.LBB977:
	.loc 1 5575 0
	ldr	ip, [r2]
	mov	r2, #0
	bx	ip	@ indirect register sibling call
.LVL917:
.L1354:
	.cfi_restore_state
.LBE977:
.LBB978:
.LBB979:
	.loc 1 5580 0
	mov	r0, r5
	bl	M_StringWidth
.LVL918:
.LBB980:
.LBB981:
	.loc 1 5513 0
	ldrb	ip, [r5]	@ zero_extendqisi2
.LBE981:
.LBE980:
	.loc 1 5580 0
	add	r0, r0, r0, lsr #31
.LBB986:
.LBB982:
	.loc 1 5512 0
	ldr	r3, .L1363+4
.LBE982:
.LBE986:
	.loc 1 5580 0
	mov	r0, r0, asr #1
.LBB987:
.LBB983:
	.loc 1 5513 0
	cmp	ip, #0
.LBE983:
.LBE987:
	.loc 1 5580 0
	rsb	r0, r0, #160
	.loc 1 5581 0
	add	r1, r4, #8
.LVL919:
.LBB988:
.LBB984:
	.loc 1 5512 0
	ldr	r3, [r3, #4]
.LVL920:
	.loc 1 5513 0
	beq	.L1360
	mov	lr, r5
	mov	r4, r3
.LVL921:
.L1358:
	.loc 1 5514 0
	cmp	ip, #10
	.loc 1 5513 0
	ldrb	ip, [lr, #1]!	@ zero_extendqisi2
	.loc 1 5515 0
	addeq	r4, r4, r3
.LVL922:
	.loc 1 5513 0
	cmp	ip, #0
	bne	.L1358
.L1356:
.LBE984:
.LBE988:
	.loc 1 5581 0
	add	r4, r4, r4, lsr #31
.LVL923:
	.loc 1 5580 0
	sub	r1, r1, r4, asr #1
	mov	r2, r5
	mov	r3, r6
.LVL924:
.LBE979:
.LBE978:
	.loc 1 5584 0
	ldmfd	sp!, {r4, r5, r6, r7, r8, lr}
	.cfi_remember_state
	.cfi_restore 14
	.cfi_restore 8
	.cfi_restore 7
	.cfi_restore 6
	.cfi_restore 5
	.cfi_restore 4
	.cfi_def_cfa_offset 0
.LVL925:
.LBB991:
.LBB990:
	.loc 1 5580 0
	b	M_WriteText
.LVL926:
.L1360:
	.cfi_restore_state
.LBB989:
.LBB985:
	.loc 1 5512 0
	mov	r4, r3
.LVL927:
	b	.L1356
.L1364:
	.align	2
.L1363:
	.word	V_DrawNumPatch
	.word	hu_font
.LBE985:
.LBE989:
.LBE990:
.LBE991:
	.cfi_endproc
.LFE115:
	.size	M_DrawTitle, .-M_DrawTitle
	.align	2
	.global	M_DrawSetup
	.type	M_DrawSetup, %function
M_DrawSetup:
.LFB57:
	.loc 1 1676 0
	.cfi_startproc
	@ args = 0, pretend = 0, frame = 0
	@ frame_needed = 0, uses_anonymous_args = 0
	.loc 1 1678 0
	mov	r2, #5
	.loc 1 1676 0
	str	lr, [sp, #-4]!
	.cfi_def_cfa_offset 4
	.cfi_offset 14, -4
	.loc 1 1678 0
	ldr	r3, .L1367
	.loc 1 1676 0
	sub	sp, sp, #12
	.cfi_def_cfa_offset 16
	.loc 1 1678 0
	str	r2, [sp, #4]
	str	r3, [sp]
	mov	r0, #124
	mov	r1, #15
	ldr	r2, .L1367+4
	mov	r3, #6
	bl	M_DrawTitle
.LVL928:
	.loc 1 1679 0
	add	sp, sp, #12
	.cfi_def_cfa_offset 4
	@ sp needed
	ldr	pc, [sp], #4
.L1368:
	.align	2
.L1367:
	.word	.LC81
	.word	.LC80
	.cfi_endproc
.LFE57:
	.size	M_DrawSetup, .-M_DrawSetup
	.align	2
	.global	M_DrawKeybnd
	.type	M_DrawKeybnd, %function
M_DrawKeybnd:
.LFB65:
	.loc 1 2332 0
	.cfi_startproc
	@ args = 0, pretend = 0, frame = 0
	@ frame_needed = 0, uses_anonymous_args = 0
	.loc 1 2333 0
	mov	r1, #2
	.loc 1 2332 0
	str	lr, [sp, #-4]!
	.cfi_def_cfa_offset 4
	.cfi_offset 14, -4
.LBB992:
.LBB993:
	.loc 1 130 0
	ldr	r3, .L1378
.LBE993:
.LBE992:
	.loc 1 2333 0
	ldr	r2, .L1378+4
.LBB998:
.LBB994:
	.loc 1 130 0
	ldr	r3, [r3, #1540]
.LBE994:
.LBE998:
	.loc 1 2332 0
	sub	sp, sp, #12
	.cfi_def_cfa_offset 16
.LBB999:
.LBB995:
	.loc 1 130 0
	cmp	r3, #0
.LBE995:
.LBE999:
	.loc 1 2333 0
	strb	r1, [r2]
.LVL929:
.LBB1000:
.LBB996:
	.loc 1 130 0
	bne	.L1376
.L1370:
.LBE996:
.LBE1000:
	.loc 1 2340 0
	mov	r2, #5
	ldr	r3, .L1378+8
	mov	r0, #84
	mov	r1, #2
	str	r2, [sp, #4]
	str	r3, [sp]
	ldr	r2, .L1378+12
	mov	r3, #6
	bl	M_DrawTitle
.LVL930:
	.loc 1 2341 0
	bl	M_DrawInstructions
.LVL931:
	.loc 1 2342 0
	ldr	r3, .L1378+16
	ldr	r0, [r3]
	bl	M_DrawScreenItems
.LVL932:
	.loc 1 2347 0
	ldr	r3, .L1378+20
	ldr	r3, [r3, #12]
	cmp	r3, #0
	bne	.L1377
	.loc 1 2349 0
	add	sp, sp, #12
	.cfi_remember_state
	.cfi_def_cfa_offset 4
	@ sp needed
	ldr	pc, [sp], #4
.L1377:
	.cfi_restore_state
	add	sp, sp, #12
	.cfi_remember_state
	.cfi_def_cfa_offset 4
	@ sp needed
	ldr	lr, [sp], #4
	.cfi_restore 14
	.cfi_def_cfa_offset 0
	.loc 1 2348 0
	b	M_DrawDefVerify
.LVL933:
.L1376:
	.cfi_restore_state
.LBB1001:
.LBB997:
	bl	M_DrawBackground.part.1.constprop.27
.LVL934:
	b	.L1370
.L1379:
	.align	2
.L1378:
	.word	.LANCHOR0
	.word	menuactive
	.word	.LC83
	.word	.LC82
	.word	current_setup_menu
	.word	.LANCHOR1
.LBE997:
.LBE1001:
	.cfi_endproc
.LFE65:
	.size	M_DrawKeybnd, .-M_DrawKeybnd
	.align	2
	.global	M_DrawWeapons
	.type	M_DrawWeapons, %function
M_DrawWeapons:
.LFB67:
	.loc 1 2444 0
	.cfi_startproc
	@ args = 0, pretend = 0, frame = 0
	@ frame_needed = 0, uses_anonymous_args = 0
	.loc 1 2445 0
	mov	r1, #2
	.loc 1 2444 0
	str	lr, [sp, #-4]!
	.cfi_def_cfa_offset 4
	.cfi_offset 14, -4
.LBB1002:
.LBB1003:
	.loc 1 130 0
	ldr	r3, .L1389
.LBE1003:
.LBE1002:
	.loc 1 2445 0
	ldr	r2, .L1389+4
.LBB1008:
.LBB1004:
	.loc 1 130 0
	ldr	r3, [r3, #1540]
.LBE1004:
.LBE1008:
	.loc 1 2444 0
	sub	sp, sp, #12
	.cfi_def_cfa_offset 16
.LBB1009:
.LBB1005:
	.loc 1 130 0
	cmp	r3, #0
.LBE1005:
.LBE1009:
	.loc 1 2445 0
	strb	r1, [r2]
.LVL935:
.LBB1010:
.LBB1006:
	.loc 1 130 0
	bne	.L1387
.L1381:
.LBE1006:
.LBE1010:
	.loc 1 2450 0
	mov	r2, #5
	ldr	r3, .L1389+8
	mov	r0, #109
	mov	r1, #2
	str	r2, [sp, #4]
	str	r3, [sp]
	ldr	r2, .L1389+12
	mov	r3, #6
	bl	M_DrawTitle
.LVL936:
	.loc 1 2451 0
	bl	M_DrawInstructions
.LVL937:
	.loc 1 2452 0
	ldr	r3, .L1389+16
	ldr	r0, [r3]
	bl	M_DrawScreenItems
.LVL938:
	.loc 1 2457 0
	ldr	r3, .L1389+20
	ldr	r3, [r3, #12]
	cmp	r3, #0
	bne	.L1388
	.loc 1 2459 0
	add	sp, sp, #12
	.cfi_remember_state
	.cfi_def_cfa_offset 4
	@ sp needed
	ldr	pc, [sp], #4
.L1388:
	.cfi_restore_state
	add	sp, sp, #12
	.cfi_remember_state
	.cfi_def_cfa_offset 4
	@ sp needed
	ldr	lr, [sp], #4
	.cfi_restore 14
	.cfi_def_cfa_offset 0
	.loc 1 2458 0
	b	M_DrawDefVerify
.LVL939:
.L1387:
	.cfi_restore_state
.LBB1011:
.LBB1007:
	bl	M_DrawBackground.part.1.constprop.27
.LVL940:
	b	.L1381
.L1390:
	.align	2
.L1389:
	.word	.LANCHOR0
	.word	menuactive
	.word	.LC85
	.word	.LC84
	.word	current_setup_menu
	.word	.LANCHOR1
.LBE1007:
.LBE1011:
	.cfi_endproc
.LFE67:
	.size	M_DrawWeapons, .-M_DrawWeapons
	.align	2
	.global	M_DrawStatusHUD
	.type	M_DrawStatusHUD, %function
M_DrawStatusHUD:
.LFB69:
	.loc 1 2531 0
	.cfi_startproc
	@ args = 0, pretend = 0, frame = 0
	@ frame_needed = 0, uses_anonymous_args = 0
	.loc 1 2532 0
	mov	r1, #2
	.loc 1 2531 0
	str	lr, [sp, #-4]!
	.cfi_def_cfa_offset 4
	.cfi_offset 14, -4
.LBB1012:
.LBB1013:
	.loc 1 130 0
	ldr	r3, .L1400
.LBE1013:
.LBE1012:
	.loc 1 2532 0
	ldr	r2, .L1400+4
.LBB1018:
.LBB1014:
	.loc 1 130 0
	ldr	r3, [r3, #1540]
.LBE1014:
.LBE1018:
	.loc 1 2531 0
	sub	sp, sp, #12
	.cfi_def_cfa_offset 16
.LBB1019:
.LBB1015:
	.loc 1 130 0
	cmp	r3, #0
.LBE1015:
.LBE1019:
	.loc 1 2532 0
	strb	r1, [r2]
.LVL941:
.LBB1020:
.LBB1016:
	.loc 1 130 0
	bne	.L1398
.L1392:
.LBE1016:
.LBE1020:
	.loc 1 2537 0
	mov	r2, #5
	ldr	r3, .L1400+8
	mov	r0, #59
	mov	r1, #2
	str	r2, [sp, #4]
	str	r3, [sp]
	ldr	r2, .L1400+12
	mov	r3, #6
	bl	M_DrawTitle
.LVL942:
	.loc 1 2538 0
	bl	M_DrawInstructions
.LVL943:
	.loc 1 2539 0
	ldr	r3, .L1400+16
	ldr	r0, [r3]
	bl	M_DrawScreenItems
.LVL944:
	.loc 1 2544 0
	ldr	r3, .L1400+20
	ldr	r3, [r3, #12]
	cmp	r3, #0
	bne	.L1399
	.loc 1 2546 0
	add	sp, sp, #12
	.cfi_remember_state
	.cfi_def_cfa_offset 4
	@ sp needed
	ldr	pc, [sp], #4
.L1399:
	.cfi_restore_state
	add	sp, sp, #12
	.cfi_remember_state
	.cfi_def_cfa_offset 4
	@ sp needed
	ldr	lr, [sp], #4
	.cfi_restore 14
	.cfi_def_cfa_offset 0
	.loc 1 2545 0
	b	M_DrawDefVerify
.LVL945:
.L1398:
	.cfi_restore_state
.LBB1021:
.LBB1017:
	bl	M_DrawBackground.part.1.constprop.27
.LVL946:
	b	.L1392
.L1401:
	.align	2
.L1400:
	.word	.LANCHOR0
	.word	menuactive
	.word	.LC87
	.word	.LC86
	.word	current_setup_menu
	.word	.LANCHOR1
.LBE1017:
.LBE1021:
	.cfi_endproc
.LFE69:
	.size	M_DrawStatusHUD, .-M_DrawStatusHUD
	.align	2
	.global	M_DrawAutoMap
	.type	M_DrawAutoMap, %function
M_DrawAutoMap:
.LFB72:
	.loc 1 2684 0
	.cfi_startproc
	@ args = 0, pretend = 0, frame = 0
	@ frame_needed = 0, uses_anonymous_args = 0
	.loc 1 2685 0
	mov	r1, #2
	.loc 1 2684 0
	stmfd	sp!, {r4, r5, r6, r7, r8, lr}
	.cfi_def_cfa_offset 24
	.cfi_offset 4, -24
	.cfi_offset 5, -20
	.cfi_offset 6, -16
	.cfi_offset 7, -12
	.cfi_offset 8, -8
	.cfi_offset 14, -4
.LBB1026:
.LBB1027:
	.loc 1 130 0
	ldr	r3, .L1416
.LBE1027:
.LBE1026:
	.loc 1 2685 0
	ldr	r2, .L1416+4
.LBB1032:
.LBB1028:
	.loc 1 130 0
	ldr	r3, [r3, #1540]
.LBE1028:
.LBE1032:
	.loc 1 2684 0
	sub	sp, sp, #8
	.cfi_def_cfa_offset 32
.LBB1033:
.LBB1029:
	.loc 1 130 0
	cmp	r3, #0
.LBE1029:
.LBE1033:
	.loc 1 2685 0
	strb	r1, [r2]
.LVL947:
.LBB1034:
.LBB1030:
	.loc 1 130 0
	bne	.L1413
.L1403:
.LBE1030:
.LBE1034:
	.loc 1 2690 0
	mov	r2, #5
	ldr	r3, .L1416+8
	mov	r0, #109
	mov	r1, #2
	str	r2, [sp, #4]
	str	r3, [sp]
	ldr	r2, .L1416+12
	mov	r3, #6
	bl	M_DrawTitle
.LVL948:
	.loc 1 2691 0
	bl	M_DrawInstructions
.LVL949:
	.loc 1 2692 0
	ldr	r3, .L1416+16
	ldr	r0, [r3]
	bl	M_DrawScreenItems
.LVL950:
	.loc 1 2696 0
	ldr	r3, .L1416+20
	ldr	r2, [r3, #36]
	cmp	r2, #0
	bne	.L1414
	.loc 1 2702 0
	ldr	r3, [r3, #12]
	cmp	r3, #0
	bne	.L1415
	.loc 1 2704 0
	add	sp, sp, #8
	.cfi_remember_state
	.cfi_def_cfa_offset 24
	@ sp needed
	ldmfd	sp!, {r4, r5, r6, r7, r8, pc}
.L1415:
	.cfi_restore_state
	add	sp, sp, #8
	.cfi_remember_state
	.cfi_def_cfa_offset 24
	@ sp needed
	ldmfd	sp!, {r4, r5, r6, r7, r8, lr}
	.cfi_restore 14
	.cfi_restore 8
	.cfi_restore 7
	.cfi_restore 6
	.cfi_restore 5
	.cfi_restore 4
	.cfi_def_cfa_offset 0
	.loc 1 2703 0
	b	M_DrawDefVerify
.LVL951:
.L1413:
	.cfi_restore_state
.LBB1035:
.LBB1031:
	bl	M_DrawBackground.part.1.constprop.27
.LVL952:
	b	.L1403
.L1414:
.LBE1031:
.LBE1035:
.LBB1036:
.LBB1037:
	.loc 1 2669 0
	ldr	r8, .L1416+24
	ldr	r0, .L1416+28
	ldr	r4, [r8]
	mov	r7, #6
	bl	W_GetNumForName
.LVL953:
	mov	r6, #4
	mov	r3, r0
	mov	r1, #31
	str	r7, [sp]
	str	r6, [sp, #4]
	mov	r0, #91
	mov	r2, #0
	blx	r4
.LVL954:
	.loc 1 2674 0
	ldr	r2, .L1416+32
	.loc 1 2675 0
	ldr	r3, .L1416+36
	.loc 1 2677 0
	ldr	r0, .L1416+40
	.loc 1 2674 0
	ldr	r4, [r2]
	.loc 1 2675 0
	ldr	r5, [r3]
	.loc 1 2677 0
	ldr	r8, [r8]
	bl	W_GetNumForName
.LVL955:
	.loc 1 2674 0
	mov	r4, r4, asl #3
	.loc 1 2675 0
	mov	r5, r5, asl #3
	.loc 1 2674 0
	add	r4, r4, #95
.LVL956:
	.loc 1 2675 0
	add	r5, r5, #35
.LVL957:
	.loc 1 2677 0
	mov	r3, r0
	str	r7, [sp]
	mov	r1, r5
	str	r6, [sp, #4]
	mov	r0, r4
	mov	r2, #0
	blx	r8
.LVL958:
.LBE1037:
.LBE1036:
	.loc 1 2704 0
	add	sp, sp, #8
	.cfi_def_cfa_offset 24
	@ sp needed
	ldmfd	sp!, {r4, r5, r6, r7, r8, pc}
.LVL959:
.L1417:
	.align	2
.L1416:
	.word	.LANCHOR0
	.word	menuactive
	.word	.LC89
	.word	.LC88
	.word	current_setup_menu
	.word	.LANCHOR1
	.word	V_DrawNumPatch
	.word	.LC90
	.word	color_palette_x
	.word	color_palette_y
	.word	.LC91
	.cfi_endproc
.LFE72:
	.size	M_DrawAutoMap, .-M_DrawAutoMap
	.align	2
	.global	M_DrawEnemy
	.type	M_DrawEnemy, %function
M_DrawEnemy:
.LFB74:
	.loc 1 2811 0
	.cfi_startproc
	@ args = 0, pretend = 0, frame = 0
	@ frame_needed = 0, uses_anonymous_args = 0
	.loc 1 2812 0
	mov	r1, #2
	.loc 1 2811 0
	str	lr, [sp, #-4]!
	.cfi_def_cfa_offset 4
	.cfi_offset 14, -4
.LBB1038:
.LBB1039:
	.loc 1 130 0
	ldr	r3, .L1427
.LBE1039:
.LBE1038:
	.loc 1 2812 0
	ldr	r2, .L1427+4
.LBB1044:
.LBB1040:
	.loc 1 130 0
	ldr	r3, [r3, #1540]
.LBE1040:
.LBE1044:
	.loc 1 2811 0
	sub	sp, sp, #12
	.cfi_def_cfa_offset 16
.LBB1045:
.LBB1041:
	.loc 1 130 0
	cmp	r3, #0
.LBE1041:
.LBE1045:
	.loc 1 2812 0
	strb	r1, [r2]
.LVL960:
.LBB1046:
.LBB1042:
	.loc 1 130 0
	bne	.L1425
.L1419:
.LBE1042:
.LBE1046:
	.loc 1 2817 0
	mov	r2, #5
	ldr	r3, .L1427+8
	mov	r0, #114
	mov	r1, #2
	str	r2, [sp, #4]
	str	r3, [sp]
	ldr	r2, .L1427+12
	mov	r3, #6
	bl	M_DrawTitle
.LVL961:
	.loc 1 2818 0
	bl	M_DrawInstructions
.LVL962:
	.loc 1 2819 0
	ldr	r3, .L1427+16
	ldr	r0, [r3]
	bl	M_DrawScreenItems
.LVL963:
	.loc 1 2824 0
	ldr	r3, .L1427+20
	ldr	r3, [r3, #12]
	cmp	r3, #0
	bne	.L1426
	.loc 1 2826 0
	add	sp, sp, #12
	.cfi_remember_state
	.cfi_def_cfa_offset 4
	@ sp needed
	ldr	pc, [sp], #4
.L1426:
	.cfi_restore_state
	add	sp, sp, #12
	.cfi_remember_state
	.cfi_def_cfa_offset 4
	@ sp needed
	ldr	lr, [sp], #4
	.cfi_restore 14
	.cfi_def_cfa_offset 0
	.loc 1 2825 0
	b	M_DrawDefVerify
.LVL964:
.L1425:
	.cfi_restore_state
.LBB1047:
.LBB1043:
	bl	M_DrawBackground.part.1.constprop.27
.LVL965:
	b	.L1419
.L1428:
	.align	2
.L1427:
	.word	.LANCHOR0
	.word	menuactive
	.word	.LC93
	.word	.LC92
	.word	current_setup_menu
	.word	.LANCHOR1
.LBE1043:
.LBE1047:
	.cfi_endproc
.LFE74:
	.size	M_DrawEnemy, .-M_DrawEnemy
	.align	2
	.global	M_DrawGeneral
	.type	M_DrawGeneral, %function
M_DrawGeneral:
.LFB79:
	.loc 1 3140 0
	.cfi_startproc
	@ args = 0, pretend = 0, frame = 0
	@ frame_needed = 0, uses_anonymous_args = 0
	.loc 1 3141 0
	mov	r1, #2
	.loc 1 3140 0
	str	lr, [sp, #-4]!
	.cfi_def_cfa_offset 4
	.cfi_offset 14, -4
.LBB1048:
.LBB1049:
	.loc 1 130 0
	ldr	r3, .L1438
.LBE1049:
.LBE1048:
	.loc 1 3141 0
	ldr	r2, .L1438+4
.LBB1054:
.LBB1050:
	.loc 1 130 0
	ldr	r3, [r3, #1540]
.LBE1050:
.LBE1054:
	.loc 1 3140 0
	sub	sp, sp, #12
	.cfi_def_cfa_offset 16
.LBB1055:
.LBB1051:
	.loc 1 130 0
	cmp	r3, #0
.LBE1051:
.LBE1055:
	.loc 1 3141 0
	strb	r1, [r2]
.LVL966:
.LBB1056:
.LBB1052:
	.loc 1 130 0
	bne	.L1436
.L1430:
.LBE1052:
.LBE1056:
	.loc 1 3146 0
	mov	r2, #5
	ldr	r3, .L1438+8
	mov	r0, #114
	mov	r1, #2
	str	r2, [sp, #4]
	str	r3, [sp]
	ldr	r2, .L1438+12
	mov	r3, #6
	bl	M_DrawTitle
.LVL967:
	.loc 1 3147 0
	bl	M_DrawInstructions
.LVL968:
	.loc 1 3148 0
	ldr	r3, .L1438+16
	ldr	r0, [r3]
	bl	M_DrawScreenItems
.LVL969:
	.loc 1 3153 0
	ldr	r3, .L1438+20
	ldr	r3, [r3, #12]
	cmp	r3, #0
	bne	.L1437
	.loc 1 3155 0
	add	sp, sp, #12
	.cfi_remember_state
	.cfi_def_cfa_offset 4
	@ sp needed
	ldr	pc, [sp], #4
.L1437:
	.cfi_restore_state
	add	sp, sp, #12
	.cfi_remember_state
	.cfi_def_cfa_offset 4
	@ sp needed
	ldr	lr, [sp], #4
	.cfi_restore 14
	.cfi_def_cfa_offset 0
	.loc 1 3154 0
	b	M_DrawDefVerify
.LVL970:
.L1436:
	.cfi_restore_state
.LBB1057:
.LBB1053:
	bl	M_DrawBackground.part.1.constprop.27
.LVL971:
	b	.L1430
.L1439:
	.align	2
.L1438:
	.word	.LANCHOR0
	.word	menuactive
	.word	.LC95
	.word	.LC94
	.word	current_setup_menu
	.word	.LANCHOR1
.LBE1053:
.LBE1057:
	.cfi_endproc
.LFE79:
	.size	M_DrawGeneral, .-M_DrawGeneral
	.align	2
	.global	M_DrawCompat
	.type	M_DrawCompat, %function
M_DrawCompat:
.LFB81:
	.loc 1 3333 0
	.cfi_startproc
	@ args = 0, pretend = 0, frame = 0
	@ frame_needed = 0, uses_anonymous_args = 0
	.loc 1 3334 0
	mov	r1, #2
	.loc 1 3333 0
	str	lr, [sp, #-4]!
	.cfi_def_cfa_offset 4
	.cfi_offset 14, -4
.LBB1058:
.LBB1059:
	.loc 1 130 0
	ldr	r3, .L1449
.LBE1059:
.LBE1058:
	.loc 1 3334 0
	ldr	r2, .L1449+4
.LBB1064:
.LBB1060:
	.loc 1 130 0
	ldr	r3, [r3, #1540]
.LBE1060:
.LBE1064:
	.loc 1 3333 0
	sub	sp, sp, #12
	.cfi_def_cfa_offset 16
.LBB1065:
.LBB1061:
	.loc 1 130 0
	cmp	r3, #0
.LBE1061:
.LBE1065:
	.loc 1 3334 0
	strb	r1, [r2]
.LVL972:
.LBB1066:
.LBB1062:
	.loc 1 130 0
	bne	.L1447
.L1441:
.LBE1062:
.LBE1066:
	.loc 1 3338 0
	mov	r2, #5
	ldr	r3, .L1449+8
	mov	r0, #52
	mov	r1, #2
	str	r2, [sp, #4]
	str	r3, [sp]
	ldr	r2, .L1449+12
	mov	r3, #6
	bl	M_DrawTitle
.LVL973:
	.loc 1 3339 0
	bl	M_DrawInstructions
.LVL974:
	.loc 1 3340 0
	ldr	r3, .L1449+16
	ldr	r0, [r3]
	bl	M_DrawScreenItems
.LVL975:
	.loc 1 3345 0
	ldr	r3, .L1449+20
	ldr	r3, [r3, #12]
	cmp	r3, #0
	bne	.L1448
	.loc 1 3347 0
	add	sp, sp, #12
	.cfi_remember_state
	.cfi_def_cfa_offset 4
	@ sp needed
	ldr	pc, [sp], #4
.L1448:
	.cfi_restore_state
	add	sp, sp, #12
	.cfi_remember_state
	.cfi_def_cfa_offset 4
	@ sp needed
	ldr	lr, [sp], #4
	.cfi_restore 14
	.cfi_def_cfa_offset 0
	.loc 1 3346 0
	b	M_DrawDefVerify
.LVL976:
.L1447:
	.cfi_restore_state
.LBB1067:
.LBB1063:
	bl	M_DrawBackground.part.1.constprop.27
.LVL977:
	b	.L1441
.L1450:
	.align	2
.L1449:
	.word	.LANCHOR0
	.word	menuactive
	.word	.LC97
	.word	.LC96
	.word	current_setup_menu
	.word	.LANCHOR1
.LBE1063:
.LBE1067:
	.cfi_endproc
.LFE81:
	.size	M_DrawCompat, .-M_DrawCompat
	.align	2
	.global	M_DrawMessages
	.type	M_DrawMessages, %function
M_DrawMessages:
.LFB83:
	.loc 1 3454 0
	.cfi_startproc
	@ args = 0, pretend = 0, frame = 0
	@ frame_needed = 0, uses_anonymous_args = 0
	.loc 1 3455 0
	mov	r1, #2
	.loc 1 3454 0
	str	lr, [sp, #-4]!
	.cfi_def_cfa_offset 4
	.cfi_offset 14, -4
.LBB1068:
.LBB1069:
	.loc 1 130 0
	ldr	r3, .L1460
.LBE1069:
.LBE1068:
	.loc 1 3455 0
	ldr	r2, .L1460+4
.LBB1074:
.LBB1070:
	.loc 1 130 0
	ldr	r3, [r3, #1540]
.LBE1070:
.LBE1074:
	.loc 1 3454 0
	sub	sp, sp, #12
	.cfi_def_cfa_offset 16
.LBB1075:
.LBB1071:
	.loc 1 130 0
	cmp	r3, #0
.LBE1071:
.LBE1075:
	.loc 1 3455 0
	strb	r1, [r2]
.LVL978:
.LBB1076:
.LBB1072:
	.loc 1 130 0
	bne	.L1458
.L1452:
.LBE1072:
.LBE1076:
	.loc 1 3460 0
	mov	r2, #5
	ldr	r3, .L1460+8
	mov	r0, #103
	mov	r1, #2
	str	r2, [sp, #4]
	str	r3, [sp]
	ldr	r2, .L1460+12
	mov	r3, #6
	bl	M_DrawTitle
.LVL979:
	.loc 1 3461 0
	bl	M_DrawInstructions
.LVL980:
	.loc 1 3462 0
	ldr	r3, .L1460+16
	ldr	r0, [r3]
	bl	M_DrawScreenItems
.LVL981:
	.loc 1 3463 0
	ldr	r3, .L1460+20
	ldr	r3, [r3, #12]
	cmp	r3, #0
	bne	.L1459
	.loc 1 3465 0
	add	sp, sp, #12
	.cfi_remember_state
	.cfi_def_cfa_offset 4
	@ sp needed
	ldr	pc, [sp], #4
.L1459:
	.cfi_restore_state
	add	sp, sp, #12
	.cfi_remember_state
	.cfi_def_cfa_offset 4
	@ sp needed
	ldr	lr, [sp], #4
	.cfi_restore 14
	.cfi_def_cfa_offset 0
	.loc 1 3464 0
	b	M_DrawDefVerify
.LVL982:
.L1458:
	.cfi_restore_state
.LBB1077:
.LBB1073:
	bl	M_DrawBackground.part.1.constprop.27
.LVL983:
	b	.L1452
.L1461:
	.align	2
.L1460:
	.word	.LANCHOR0
	.word	menuactive
	.word	.LC99
	.word	.LC98
	.word	current_setup_menu
	.word	.LANCHOR1
.LBE1073:
.LBE1077:
	.cfi_endproc
.LFE83:
	.size	M_DrawMessages, .-M_DrawMessages
	.align	2
	.global	M_DrawChatStrings
	.type	M_DrawChatStrings, %function
M_DrawChatStrings:
.LFB85:
	.loc 1 3528 0
	.cfi_startproc
	@ args = 0, pretend = 0, frame = 0
	@ frame_needed = 0, uses_anonymous_args = 0
	.loc 1 3529 0
	mov	r1, #2
	.loc 1 3528 0
	str	lr, [sp, #-4]!
	.cfi_def_cfa_offset 4
	.cfi_offset 14, -4
.LBB1078:
.LBB1079:
	.loc 1 130 0
	ldr	r3, .L1471
.LBE1079:
.LBE1078:
	.loc 1 3529 0
	ldr	r2, .L1471+4
.LBB1084:
.LBB1080:
	.loc 1 130 0
	ldr	r3, [r3, #1540]
.LBE1080:
.LBE1084:
	.loc 1 3528 0
	sub	sp, sp, #12
	.cfi_def_cfa_offset 16
.LBB1085:
.LBB1081:
	.loc 1 130 0
	cmp	r3, #0
.LBE1081:
.LBE1085:
	.loc 1 3529 0
	strb	r1, [r2]
.LVL984:
.LBB1086:
.LBB1082:
	.loc 1 130 0
	bne	.L1469
.L1463:
.LBE1082:
.LBE1086:
	.loc 1 3534 0
	mov	r2, #5
	ldr	r3, .L1471+8
	mov	r0, #83
	mov	r1, #2
	str	r2, [sp, #4]
	str	r3, [sp]
	ldr	r2, .L1471+12
	mov	r3, #6
	bl	M_DrawTitle
.LVL985:
	.loc 1 3535 0
	bl	M_DrawInstructions
.LVL986:
	.loc 1 3536 0
	ldr	r3, .L1471+16
	ldr	r0, [r3]
	bl	M_DrawScreenItems
.LVL987:
	.loc 1 3541 0
	ldr	r3, .L1471+20
	ldr	r3, [r3, #12]
	cmp	r3, #0
	bne	.L1470
	.loc 1 3543 0
	add	sp, sp, #12
	.cfi_remember_state
	.cfi_def_cfa_offset 4
	@ sp needed
	ldr	pc, [sp], #4
.L1470:
	.cfi_restore_state
	add	sp, sp, #12
	.cfi_remember_state
	.cfi_def_cfa_offset 4
	@ sp needed
	ldr	lr, [sp], #4
	.cfi_restore 14
	.cfi_def_cfa_offset 0
	.loc 1 3542 0
	b	M_DrawDefVerify
.LVL988:
.L1469:
	.cfi_restore_state
.LBB1087:
.LBB1083:
	bl	M_DrawBackground.part.1.constprop.27
.LVL989:
	b	.L1463
.L1472:
	.align	2
.L1471:
	.word	.LANCHOR0
	.word	menuactive
	.word	.LC101
	.word	.LC100
	.word	current_setup_menu
	.word	.LANCHOR1
.LBE1083:
.LBE1087:
	.cfi_endproc
.LFE85:
	.size	M_DrawChatStrings, .-M_DrawChatStrings
	.align	2
	.global	M_DrawCredits
	.type	M_DrawCredits, %function
M_DrawCredits:
.LFB99:
	.loc 1 4092 0
	.cfi_startproc
	@ args = 0, pretend = 0, frame = 0
	@ frame_needed = 0, uses_anonymous_args = 0
	.loc 1 4093 0
	mov	r1, #1
	.loc 1 4092 0
	str	lr, [sp, #-4]!
	.cfi_def_cfa_offset 4
	.cfi_offset 14, -4
	.loc 1 4095 0
	ldr	r3, .L1477
	ldr	ip, .L1477+4
	ldrb	lr, [r3]	@ zero_extendqisi2
	.loc 1 4093 0
	ldr	r2, .L1477+8
	.loc 1 4095 0
	ldr	r3, .L1477+12
	cmp	lr, #0
	.loc 1 4092 0
	sub	sp, sp, #12
	.cfi_def_cfa_offset 16
	.loc 1 4095 0
	ldr	r0, .L1477+16
	.loc 1 4093 0
	str	r1, [r2]
	.loc 1 4095 0
	movne	r0, ip
	ldr	r3, [r3]
	mov	r1, #0
	blx	r3
.LVL990:
	.loc 1 4096 0
	mov	r3, #5
	ldr	r2, .L1477+20
	mov	r0, #115
	stmia	sp, {r2, r3}
	mov	r1, #9
	ldr	r2, .L1477+24
	bl	M_DrawTitle
.LVL991:
	.loc 1 4098 0
	ldr	r0, .L1477+28
	.loc 1 4099 0
	add	sp, sp, #12
	.cfi_def_cfa_offset 4
	@ sp needed
	ldr	lr, [sp], #4
	.cfi_restore 14
	.cfi_def_cfa_offset 0
	.loc 1 4098 0
	b	M_DrawScreenItems
.LVL992:
.L1478:
	.align	2
.L1477:
	.word	gamemode
	.word	.LC103
	.word	inhelpscreens
	.word	V_DrawBackground
	.word	.LC102
	.word	.LC105
	.word	.LC104
	.word	.LANCHOR0+3532
	.cfi_endproc
.LFE99:
	.size	M_DrawCredits, .-M_DrawCredits
	.align	2
	.global	M_DrawReadThis1
	.type	M_DrawReadThis1, %function
M_DrawReadThis1:
.LFB15:
	.loc 1 470 0
	.cfi_startproc
	@ args = 0, pretend = 0, frame = 0
	@ frame_needed = 0, uses_anonymous_args = 0
	.loc 1 471 0
	mov	r2, #1
	.loc 1 470 0
	stmfd	sp!, {r4, r5, lr}
	.cfi_def_cfa_offset 12
	.cfi_offset 4, -12
	.cfi_offset 5, -8
	.cfi_offset 14, -4
	.loc 1 472 0
	ldr	r1, .L1485
	.loc 1 471 0
	ldr	r3, .L1485+4
	.loc 1 472 0
	ldrb	r4, [r1]	@ zero_extendqisi2
	.loc 1 470 0
	sub	sp, sp, #12
	.cfi_def_cfa_offset 24
	.loc 1 472 0
	cmp	r4, #0
	.loc 1 471 0
	str	r2, [r3]
	.loc 1 472 0
	beq	.L1484
	.loc 1 476 0
	add	sp, sp, #12
	.cfi_remember_state
	.cfi_def_cfa_offset 12
	@ sp needed
	ldmfd	sp!, {r4, r5, lr}
	.cfi_restore 14
	.cfi_restore 5
	.cfi_restore 4
	.cfi_def_cfa_offset 0
	.loc 1 475 0
	b	M_DrawCredits
.LVL993:
.L1484:
	.cfi_restore_state
.LBB1090:
.LBB1091:
	.loc 1 473 0
	ldr	r3, .L1485+8
	ldr	r0, .L1485+12
	ldr	r5, [r3]
	bl	W_GetNumForName
.LVL994:
	mov	r1, #6
	mov	r2, #4
	mov	r3, r0
	stmia	sp, {r1, r2}
	mov	r0, r4
	mov	r1, r4
	mov	r2, r4
	blx	r5
.LVL995:
.LBE1091:
.LBE1090:
	.loc 1 476 0
	add	sp, sp, #12
	.cfi_def_cfa_offset 12
	@ sp needed
	ldmfd	sp!, {r4, r5, pc}
.L1486:
	.align	2
.L1485:
	.word	gamemode
	.word	inhelpscreens
	.word	V_DrawNumPatch
	.word	.LC106
	.cfi_endproc
.LFE15:
	.size	M_DrawReadThis1, .-M_DrawReadThis1
	.align	2
	.global	M_DrawReadThis2
	.type	M_DrawReadThis2, %function
M_DrawReadThis2:
.LFB16:
	.loc 1 484 0
	.cfi_startproc
	@ args = 0, pretend = 0, frame = 0
	@ frame_needed = 0, uses_anonymous_args = 0
	.loc 1 485 0
	mov	r1, #1
	.loc 1 486 0
	ldr	r3, .L1491
	.loc 1 485 0
	ldr	r2, .L1491+4
	.loc 1 486 0
	ldrb	r3, [r3]	@ zero_extendqisi2
	.loc 1 485 0
	str	r1, [r2]
	.loc 1 486 0
	cmp	r3, #0
	beq	.L1490
	.loc 1 484 0
	stmfd	sp!, {r4, lr}
	.cfi_def_cfa_offset 8
	.cfi_offset 4, -8
	.cfi_offset 14, -4
.LBB1094:
.LBB1095:
	.loc 1 489 0
	ldr	r3, .L1491+8
.LBE1095:
.LBE1094:
	.loc 1 484 0
	sub	sp, sp, #8
	.cfi_def_cfa_offset 16
.LBB1097:
.LBB1096:
	.loc 1 489 0
	ldr	r0, .L1491+12
	ldr	r4, [r3]
	bl	W_GetNumForName
.LVL996:
	mov	r1, #6
	mov	r3, r0
	mov	r2, #4
	mov	r0, #0
	stmia	sp, {r1, r2}
	mov	r1, r0
	mov	r2, r0
	blx	r4
.LVL997:
.LBE1096:
.LBE1097:
	.loc 1 490 0
	add	sp, sp, #8
	.cfi_def_cfa_offset 8
	@ sp needed
	ldmfd	sp!, {r4, pc}
.L1490:
	.cfi_def_cfa_offset 0
	.cfi_restore 4
	.cfi_restore 14
	.loc 1 487 0
	b	M_DrawCredits
.LVL998:
.L1492:
	.align	2
.L1491:
	.word	gamemode
	.word	inhelpscreens
	.word	V_DrawNumPatch
	.word	.LC107
	.cfi_endproc
.LFE16:
	.size	M_DrawReadThis2, .-M_DrawReadThis2
	.align	2
	.global	M_InitHelpScreen
	.type	M_InitHelpScreen, %function
M_InitHelpScreen:
.LFB116:
	.loc 1 5596 0
	.cfi_startproc
	@ args = 0, pretend = 0, frame = 0
	@ frame_needed = 0, uses_anonymous_args = 0
.LVL999:
	.loc 1 5600 0
	ldr	r3, .L1515
	ldr	r3, [r3, #1548]
	tst	r3, #32768
	bxne	lr
	.loc 1 5602 0
	ldr	r3, .L1515+4
	.loc 1 5596 0
	stmfd	sp!, {r4, r5, r6, r7, r8, lr}
	.cfi_def_cfa_offset 24
	.cfi_offset 4, -24
	.cfi_offset 5, -20
	.cfi_offset 6, -16
	.cfi_offset 7, -12
	.cfi_offset 8, -8
	.cfi_offset 14, -4
	.loc 1 5605 0
	mov	r8, #8192
	ldr	r4, .L1515+8
	.loc 1 5602 0
	ldrb	r7, [r3]	@ zero_extendqisi2
	b	.L1501
.LVL1000:
.L1514:
	.loc 1 5602 0 is_stmt 0 discriminator 1
	cmp	r7, #0
	bne	.L1497
	.loc 1 5604 0 is_stmt 1
	mov	r0, r5
	ldr	r1, .L1515+12
	mov	r2, #3
	.loc 1 5603 0
	str	r8, [r4, #-32]
	.loc 1 5604 0
	bl	strncmp
.LVL1001:
	cmp	r0, #0
	bne	.L1497
.L1498:
	.loc 1 5605 0
	str	r8, [r4, #-32]
.L1497:
	.loc 1 5606 0
	mov	r0, r5
	ldr	r1, .L1515+16
	mov	r2, #3
	bl	strncmp
.LVL1002:
	cmp	r0, #0
	bne	.L1500
	.loc 1 5606 0 is_stmt 0 discriminator 1
	cmp	r7, #2
	.loc 1 5607 0 is_stmt 1 discriminator 1
	strne	r8, [r4, #-32]
.L1500:
.LVL1003:
	.loc 1 5600 0
	ldr	r3, [r6, #4]
	add	r4, r4, #36
.LVL1004:
	tst	r3, #32768
	bne	.L1513
.LVL1005:
.L1501:
	.loc 1 5602 0
	ldr	r5, [r4, #-36]
	ldr	r1, .L1515+20
	mov	r0, r5
	mov	r2, #6
	bl	strncmp
.LVL1006:
	cmp	r0, #0
	mov	r6, r4
	beq	.L1514
	.loc 1 5604 0
	mov	r0, r5
	ldr	r1, .L1515+12
	mov	r2, #3
	bl	strncmp
.LVL1007:
	cmp	r0, #0
	bne	.L1497
	.loc 1 5604 0 is_stmt 0 discriminator 1
	cmp	r7, #0
	bne	.L1497
	b	.L1498
.LVL1008:
.L1513:
	ldmfd	sp!, {r4, r5, r6, r7, r8, pc}
.L1516:
	.align	2
.L1515:
	.word	.LANCHOR0
	.word	gamemode
	.word	.LANCHOR0+1580
	.word	.LC109
	.word	.LC110
	.word	.LC108
	.cfi_endproc
.LFE116:
	.size	M_InitHelpScreen, .-M_InitHelpScreen
	.align	2
	.global	M_Init
	.type	M_Init, %function
M_Init:
.LFB117:
	.loc 1 5616 0 is_stmt 1
	.cfi_startproc
	@ args = 0, pretend = 0, frame = 0
	@ frame_needed = 0, uses_anonymous_args = 0
.LVL1009:
	stmfd	sp!, {r3, r4, r5, r6, r7, r8, r9, r10, fp, lr}
	.cfi_def_cfa_offset 40
	.cfi_offset 3, -40
	.cfi_offset 4, -36
	.cfi_offset 5, -32
	.cfi_offset 6, -28
	.cfi_offset 7, -24
	.cfi_offset 8, -20
	.cfi_offset 9, -16
	.cfi_offset 10, -12
	.cfi_offset 11, -8
	.cfi_offset 14, -4
	ldr	r6, .L1542
	add	r7, r6, #36
.LVL1010:
.L1526:
.LBB1100:
.LBB1101:
	.loc 1 3670 0
	ldr	r5, [r6, #4]!
.LVL1011:
	ldr	r4, [r5]
	cmp	r4, #0
	bne	.L1540
	b	.L1519
.LVL1012:
.L1520:
	.loc 1 3671 0
	add	r4, r4, #36
.LVL1013:
.L1540:
	ldr	r2, [r4, #4]
	tst	r2, #32768
	bne	.L1541
	.loc 1 3672 0
	ldr	r3, .L1542+4
	and	r3, r3, r2
	cmp	r3, #0
	beq	.L1520
	.loc 1 3673 0
	ldr	r0, [r4, #16]
	bl	M_LookupDefault
.LVL1014:
	cmp	r0, #0
	.loc 1 3676 0
	strne	r0, [r4, #16]
	strne	r4, [r0, #40]
	.loc 1 3673 0
	bne	.L1520
	.loc 1 3674 0
	ldr	r0, .L1542+8
.LVL1015:
	ldr	r1, [r4, #16]
	bl	I_Error
.LVL1016:
	b	.L1520
.L1541:
.LVL1017:
	.loc 1 3670 0
	ldr	r4, [r5, #4]!
.LVL1018:
	cmp	r4, #0
	bne	.L1540
.LVL1019:
.L1519:
	.loc 1 3669 0
	cmp	r6, r7
	bne	.L1526
.LBE1101:
.LBE1100:
	.loc 1 5619 0
	mov	r3, #0
	.loc 1 5622 0
	mov	lr, #10
	.loc 1 5627 0
	mvn	r1, #0
	.loc 1 5623 0
	ldr	r0, .L1542+12
	.loc 1 5618 0
	ldr	ip, .L1542+16
	.loc 1 5623 0
	ldr	r0, [r0]
	.loc 1 5632 0
	ldr	r2, .L1542+20
	.loc 1 5623 0
	ldr	r4, .L1542+24
	.loc 1 5620 0
	ldrh	fp, [ip, #68]
	ldr	r5, .L1542+28
	.loc 1 5623 0
	sub	r0, r0, #3
	.loc 1 5632 0
	ldrb	r2, [r2]	@ zero_extendqisi2
	.loc 1 5623 0
	str	r0, [r4]
	.loc 1 5620 0
	strh	fp, [r5]	@ movhi
	.loc 1 5618 0
	ldr	r10, .L1542+32
	.loc 1 5619 0
	ldr	r9, .L1542+36
	.loc 1 5621 0
	ldr	r8, .L1542+40
	.loc 1 5624 0
	ldr	r7, .L1542+44
	.loc 1 5625 0
	ldr	r6, .L1542+48
	.loc 1 5626 0
	ldr	r4, .L1542+52
	.loc 1 5622 0
	ldr	r0, .L1542+56
	.loc 1 5627 0
	ldr	fp, .L1542+60
	.loc 1 5618 0
	add	r5, ip, #48
	.loc 1 5632 0
	cmp	r2, #1
	.loc 1 5618 0
	str	r5, [r10]
	.loc 1 5619 0
	strb	r3, [r9]
	.loc 1 5621 0
	strh	r3, [r8]	@ movhi
	.loc 1 5624 0
	str	r3, [r7]
	.loc 1 5625 0
	str	r3, [r6, #220]
	.loc 1 5626 0
	str	r3, [r4]
	.loc 1 5622 0
	strh	lr, [r0]	@ movhi
	.loc 1 5627 0
	str	r1, [fp]
	.loc 1 5632 0
	beq	.L1528
	bcc	.L1529
	cmp	r2, #2
	bne	.L1527
	.loc 1 5644 0
	mov	r6, #165
	.loc 1 5638 0
	ldr	r4, .L1542+64
	.loc 1 5642 0
	ldr	r8, .L1542+68
	.loc 1 5638 0
	sub	lr, r4, #24
	ldmia	r4!, {r0, r1, r2, r3}
	stmia	lr!, {r0, r1, r2, r3}
	ldmia	r4, {r0, r1}
	.loc 1 5639 0
	ldrh	r2, [ip, #48]
	.loc 1 5640 0
	ldrh	r3, [ip, #66]
	.loc 1 5643 0
	ldr	r7, .L1542+72
	.loc 1 5645 0
	ldr	r4, .L1542+76
	.loc 1 5638 0
	stmia	lr, {r0, r1}
	.loc 1 5639 0
	sub	r2, r2, #1
	.loc 1 5640 0
	add	r3, r3, #8
	.loc 1 5641 0
	str	r5, [ip, #1192]
	.loc 1 5639 0
	strh	r2, [ip, #48]	@ movhi
	.loc 1 5640 0
	strh	r3, [ip, #66]	@ movhi
	.loc 1 5644 0
	strh	r6, [ip, #18]	@ movhi
	.loc 1 5642 0
	str	r8, [ip, #12]
	.loc 1 5643 0
	strh	r7, [ip, #16]	@ movhi
	.loc 1 5645 0
	str	r4, [ip, #1488]
.L1527:
	.loc 1 5665 0
	bl	M_InitHelpScreen
.LVL1020:
	.loc 1 5666 0
	bl	M_InitExtendedHelp
.LVL1021:
	.loc 1 5669 0
	ldmfd	sp!, {r3, r4, r5, r6, r7, r8, r9, r10, fp, lr}
	.cfi_remember_state
	.cfi_restore 14
	.cfi_restore 11
	.cfi_restore 10
	.cfi_restore 9
	.cfi_restore 8
	.cfi_restore 7
	.cfi_restore 6
	.cfi_restore 5
	.cfi_restore 4
	.cfi_restore 3
	.cfi_def_cfa_offset 0
	.loc 1 5668 0
	b	M_ChangeDemoSmoothTurns
.LVL1022:
.L1528:
	.cfi_restore_state
	.loc 1 5653 0
	mov	r3, #15
	strh	r3, [ip, #42]	@ movhi
.L1529:
	.loc 1 5657 0
	ldr	r2, .L1542+80
	ldrh	r3, [r2, #12]
	sub	r3, r3, #1
	strh	r3, [r2, #12]	@ movhi
	.loc 1 5665 0
	bl	M_InitHelpScreen
.LVL1023:
	.loc 1 5666 0
	bl	M_InitExtendedHelp
.LVL1024:
	.loc 1 5669 0
	ldmfd	sp!, {r3, r4, r5, r6, r7, r8, r9, r10, fp, lr}
	.cfi_restore 3
	.cfi_restore 4
	.cfi_restore 5
	.cfi_restore 6
	.cfi_restore 7
	.cfi_restore 8
	.cfi_restore 9
	.cfi_restore 10
	.cfi_restore 11
	.cfi_restore 14
	.cfi_def_cfa_offset 0
	.loc 1 5668 0
	b	M_ChangeDemoSmoothTurns
.LVL1025:
.L1543:
	.align	2
.L1542:
	.word	.LANCHOR2+8
	.word	8919160
	.word	.LC111
	.word	screenblocks
	.word	.LANCHOR0
	.word	gamemode
	.word	screenSize
	.word	itemOn
	.word	currentMenu
	.word	menuactive
	.word	whichSkull
	.word	messageToPrint
	.word	.LANCHOR1
	.word	messageLastMenuActive
	.word	skullAnimCounter
	.word	quickSaveSlot
	.word	.LANCHOR0+4192
	.word	M_DrawReadThis1
	.word	330
	.word	M_FinishReadThis
	.word	.LANCHOR0+1200
	.cfi_endproc
.LFE117:
	.size	M_Init, .-M_Init
	.global	cred_settings
	.global	helpstrings
	.global	ExtHelpDef
	.global	ExtHelpMenu
	.comm	extended_help_index,4,4
	.comm	extended_help_count,4,4
	.global	chat_settings
	.global	chat_settings1
	.global	mess_settings
	.global	mess_settings1
	.global	comp_settings
	.global	comp_settings3
	.global	comp_settings2
	.global	comp_settings1
	.global	gen_settings
	.global	gen_settings3
	.global	gen_settings2
	.global	gen_settings1
	.global	enem_settings
	.global	enem_settings1
	.comm	palette_background,136,4
	.comm	color_palette_y,4,4
	.comm	color_palette_x,4,4
	.global	auto_settings
	.global	auto_settings2
	.global	auto_settings1
	.global	stat_settings
	.global	stat_settings1
	.global	weap_settings
	.global	weap_settings1
	.comm	mult_screens_index,4,4
	.global	keys_settings
	.global	keys_settings4
	.global	keys_settings3
	.global	keys_settings2
	.global	keys_settings1
	.comm	gather_buffer,6,4
	.comm	gather_count,4,4
	.global	ResetButtonName
	.comm	chat_string_buffer,4,4
	.comm	chat_index,4,4
	.global	CompatDef
	.global	GeneralDef
	.global	ChatStrDef
	.global	MessageDef
	.global	EnemyDef
	.global	AutoMapDef
	.global	StatusHUDDef
	.global	WeaponDef
	.global	KeybndDef
	.global	SetupDef
	.global	Generic_Setup
	.comm	generic_setup_e,1,1
	.global	SetupMenu
	.comm	setup_screen,4,4
	.comm	setup_e,1,1
	.comm	current_setup_menu,4,4
	.global	set_compat_active
	.global	set_general_active
	.global	default_verify
	.global	colorbox_active
	.global	setup_gather
	.global	setup_select
	.global	set_chat_active
	.global	set_mess_active
	.global	set_enemy_active
	.global	set_auto_active
	.global	set_status_active
	.global	set_weapon_active
	.global	set_keybnd_active
	.global	setup_active
	.comm	tempstring,80,4
	.global	MouseDef
	.global	MouseMenu
	.comm	mouse_e,1,1
	.global	SoundDef
	.global	SoundMenu
	.comm	sound_e,1,1
	.global	quitsounds2
	.global	quitsounds
	.global	msgNames
	.global	detailNames
	.global	OptionsDef
	.global	OptionsMenu
	.comm	options_e,1,1
	.global	SaveDef
	.global	SaveMenu
	.global	LoadDef
	.global	LoadMenue
	.comm	load_e,1,1
	.global	NewGameMenu
	.comm	newgame_e,1,1
	.comm	epi,4,4
	.global	EpiDef
	.global	EpisodeMenu
	.comm	episodes_e,1,1
	.global	HelpDef
	.global	ReadDef2
	.global	ReadDef1
	.global	HelpMenu
	.global	ReadMenu2
	.global	ReadMenu1
	.comm	help_e,1,1
	.comm	read_e2,1,1
	.comm	read_e,1,1
	.global	MainDef
	.global	MainMenu
	.comm	main_e,1,1
	.global	NewDef
	.comm	mapcolor_me,4,4
	.comm	currentMenu,4,4
	.global	skullName
	.comm	whichSkull,2,2
	.comm	skullAnimCounter,2,2
	.comm	itemOn,2,2
	.comm	savegamestrings,240,4
	.comm	menuactive,1,1
	.comm	inhelpscreens,4,4
	.comm	saveOldString,24,4
	.comm	saveCharIndex,4,4
	.comm	saveSlot,4,4
	.comm	saveStringEnter,4,4
	.global	menu_background
	.comm	print_warning_about_changes,4,4
	.comm	warning_about_changes,4,4
	.comm	messageRoutine,4,4
	.comm	messageNeedsInput,4,4
	.comm	messageLastMenuActive,4,4
	.comm	messy,4,4
	.comm	messx,4,4
	.comm	messageToPrint,4,4
	.comm	quickSaveSlot,4,4
	.comm	screenSize,4,4
	.comm	screenblocks,4,4
	.global	hide_setup
	.comm	showMessages,4,4
	.comm	mouseSensitivity_vert,4,4
	.comm	mouseSensitivity_horiz,4,4
	.section	.rodata
	.align	2
	.set	.LANCHOR2,. + 0
.LC4:
	.ascii	"HELPnn\000"
	.space	3
	.space	2
	.type	setup_screens, %object
	.size	setup_screens, 36
setup_screens:
	.word	keys_settings
	.word	weap_settings
	.word	stat_settings
	.word	auto_settings
	.word	enem_settings
	.word	mess_settings
	.word	chat_settings
	.word	gen_settings
	.word	comp_settings
	.type	skullName, %object
	.size	skullName, 18
skullName:
	.ascii	"M_SKULL1\000"
	.ascii	"M_SKULL2\000"
	.data
	.align	2
	.set	.LANCHOR0,. + 0
	.type	ReadDef1, %object
	.size	ReadDef1, 24
ReadDef1:
	.short	1
	.space	2
	.word	MainDef
	.word	ReadMenu1
	.word	M_DrawReadThis1
	.short	330
	.short	175
	.short	0
	.space	2
	.type	ReadDef2, %object
	.size	ReadDef2, 24
ReadDef2:
	.short	1
	.space	2
	.word	ReadDef1
	.word	ReadMenu2
	.word	M_DrawReadThis2
	.short	330
	.short	175
	.short	0
	.space	2
	.type	MainDef, %object
	.size	MainDef, 24
MainDef:
	.short	6
	.space	2
	.word	0
	.word	MainMenu
	.word	M_DrawMainMenu
	.short	97
	.short	64
	.short	0
	.space	2
	.type	OptionsDef, %object
	.size	OptionsDef, 24
OptionsDef:
	.short	8
	.space	2
	.word	MainDef
	.word	OptionsMenu
	.word	M_DrawOptions
	.short	60
	.short	37
	.short	0
	.space	2
	.type	SoundDef, %object
	.size	SoundDef, 24
SoundDef:
	.short	4
	.space	2
	.word	OptionsDef
	.word	SoundMenu
	.word	M_DrawSound
	.short	80
	.short	64
	.short	0
	.space	2
	.type	MouseDef, %object
	.size	MouseDef, 24
MouseDef:
	.short	4
	.space	2
	.word	OptionsDef
	.word	MouseMenu
	.word	M_DrawMouse
	.short	60
	.short	64
	.short	0
	.space	2
	.type	SetupDef, %object
	.size	SetupDef, 24
SetupDef:
	.short	8
	.space	2
	.word	OptionsDef
	.word	SetupMenu
	.word	M_DrawSetup
	.short	59
	.short	37
	.short	0
	.space	2
	.type	KeybndDef, %object
	.size	KeybndDef, 24
KeybndDef:
	.short	1
	.space	2
	.word	SetupDef
	.word	Generic_Setup
	.word	M_DrawKeybnd
	.short	34
	.short	5
	.short	0
	.space	2
	.type	keys_settings, %object
	.size	keys_settings, 20
keys_settings:
	.word	keys_settings1
	.word	keys_settings2
	.word	keys_settings3
	.word	keys_settings4
	.word	0
	.type	WeaponDef, %object
	.size	WeaponDef, 24
WeaponDef:
	.short	1
	.space	2
	.word	SetupDef
	.word	Generic_Setup
	.word	M_DrawWeapons
	.short	34
	.short	5
	.short	0
	.space	2
	.type	weap_settings, %object
	.size	weap_settings, 8
weap_settings:
	.word	weap_settings1
	.word	0
	.type	StatusHUDDef, %object
	.size	StatusHUDDef, 24
StatusHUDDef:
	.short	1
	.space	2
	.word	SetupDef
	.word	Generic_Setup
	.word	M_DrawStatusHUD
	.short	34
	.short	5
	.short	0
	.space	2
	.type	stat_settings, %object
	.size	stat_settings, 8
stat_settings:
	.word	stat_settings1
	.word	0
	.type	AutoMapDef, %object
	.size	AutoMapDef, 24
AutoMapDef:
	.short	1
	.space	2
	.word	SetupDef
	.word	Generic_Setup
	.word	M_DrawAutoMap
	.short	34
	.short	5
	.short	0
	.space	2
	.type	auto_settings, %object
	.size	auto_settings, 12
auto_settings:
	.word	auto_settings1
	.word	auto_settings2
	.word	0
	.type	EnemyDef, %object
	.size	EnemyDef, 24
EnemyDef:
	.short	1
	.space	2
	.word	SetupDef
	.word	Generic_Setup
	.word	M_DrawEnemy
	.short	34
	.short	5
	.short	0
	.space	2
	.type	enem_settings, %object
	.size	enem_settings, 8
enem_settings:
	.word	enem_settings1
	.word	0
	.type	GeneralDef, %object
	.size	GeneralDef, 24
GeneralDef:
	.short	1
	.space	2
	.word	OptionsDef
	.word	Generic_Setup
	.word	M_DrawGeneral
	.short	34
	.short	5
	.short	0
	.space	2
	.type	gen_settings, %object
	.size	gen_settings, 16
gen_settings:
	.word	gen_settings1
	.word	gen_settings2
	.word	gen_settings3
	.word	0
	.type	CompatDef, %object
	.size	CompatDef, 24
CompatDef:
	.short	1
	.space	2
	.word	SetupDef
	.word	Generic_Setup
	.word	M_DrawCompat
	.short	34
	.short	5
	.short	0
	.space	2
	.type	comp_settings, %object
	.size	comp_settings, 16
comp_settings:
	.word	comp_settings1
	.word	comp_settings2
	.word	comp_settings3
	.word	0
	.type	MessageDef, %object
	.size	MessageDef, 24
MessageDef:
	.short	1
	.space	2
	.word	SetupDef
	.word	Generic_Setup
	.word	M_DrawMessages
	.short	34
	.short	5
	.short	0
	.space	2
	.type	mess_settings, %object
	.size	mess_settings, 8
mess_settings:
	.word	mess_settings1
	.word	0
	.type	ChatStrDef, %object
	.size	ChatStrDef, 24
ChatStrDef:
	.short	1
	.space	2
	.word	SetupDef
	.word	Generic_Setup
	.word	M_DrawChatStrings
	.short	34
	.short	5
	.short	0
	.space	2
	.type	chat_settings, %object
	.size	chat_settings, 8
chat_settings:
	.word	chat_settings1
	.word	0
	.type	ExtHelpDef, %object
	.size	ExtHelpDef, 24
ExtHelpDef:
	.short	1
	.space	2
	.word	ReadDef1
	.word	ExtHelpMenu
	.word	M_DrawExtHelp
	.short	330
	.short	181
	.short	0
	.space	2
	.type	gen_settings2, %object
	.size	gen_settings2, 612
gen_settings2:
	.word	.LC286
	.word	8196
	.byte	0
	.space	1
	.short	250
	.short	32
	.space	22
	.word	.LC287
	.word	8
	.byte	0
	.space	1
	.short	250
	.short	44
	.space	2
	.word	.LC288
	.space	16
	.word	.LC289
	.word	8196
	.byte	0
	.space	1
	.short	250
	.short	76
	.space	22
	.word	.LC290
	.word	524288
	.byte	0
	.space	1
	.short	76
	.short	88
	.space	2
	.word	.LC291
	.space	16
	.word	.LC292
	.word	524288
	.byte	0
	.space	1
	.short	76
	.short	96
	.space	2
	.word	.LC293
	.space	16
	.word	.LC294
	.word	524288
	.byte	0
	.space	1
	.short	76
	.short	104
	.space	2
	.word	.LC295
	.space	16
	.word	.LC296
	.word	524288
	.byte	0
	.space	1
	.short	76
	.short	112
	.space	2
	.word	.LC297
	.space	16
	.word	.LC298
	.word	8196
	.byte	0
	.space	1
	.short	250
	.short	128
	.space	22
	.word	.LC299
	.word	135168
	.byte	0
	.space	1
	.short	250
	.short	140
	.space	2
	.word	.LC300
	.space	16
	.word	.LC301
	.word	135168
	.byte	0
	.space	1
	.short	250
	.short	148
	.space	2
	.word	.LC302
	.space	16
	.word	.LC303
	.word	8
	.byte	0
	.space	1
	.short	250
	.short	156
	.space	2
	.word	.LC304
	.word	0
	.word	0
	.word	M_ChangeDemoSmoothTurns
	.space	4
	.word	.LC305
	.word	4096
	.byte	0
	.space	1
	.short	250
	.short	164
	.space	2
	.word	.LC306
	.word	0
	.word	0
	.word	M_ChangeDemoSmoothTurns
	.space	4
	.word	.LC307
	.word	8388608
	.byte	0
	.space	1
	.short	250
	.short	172
	.space	2
	.word	.LC308
	.word	0
	.word	0
	.word	0
	.word	gen_skillstrings
	.word	.LC309
	.word	8
	.byte	0
	.space	1
	.short	250
	.short	180
	.space	2
	.word	.LC310
	.space	16
	.word	.LC210
	.word	8448
	.byte	0
	.space	1
	.short	57
	.short	191
	.space	2
	.word	gen_settings1
	.space	16
	.word	.LC231
	.word	8704
	.byte	0
	.space	1
	.short	310
	.short	191
	.space	2
	.word	gen_settings3
	.space	16
	.word	0
	.word	40960
	.byte	0
	.space	27
	.type	quitsounds2, %object
	.size	quitsounds2, 32
quitsounds2:
	.word	80
	.word	93
	.word	95
	.word	31
	.word	56
	.word	72
	.word	78
	.word	52
	.type	quitsounds, %object
	.size	quitsounds, 32
quitsounds:
	.word	57
	.word	26
	.word	27
	.word	31
	.word	35
	.word	36
	.word	38
	.word	52
	.type	NewDef, %object
	.size	NewDef, 24
NewDef:
	.short	5
	.space	2
	.word	EpiDef
	.word	NewGameMenu
	.word	M_DrawNewGame
	.short	48
	.short	63
	.short	2
	.space	2
	.type	EpiDef, %object
	.size	EpiDef, 24
EpiDef:
	.short	4
	.space	2
	.word	MainDef
	.word	EpisodeMenu
	.word	M_DrawEpisode
	.short	48
	.short	63
	.short	0
	.space	2
	.type	LoadMenue, %object
	.size	LoadMenue, 192
LoadMenue:
	.short	1
	.ascii	"\000"
	.space	9
	.word	M_LoadSelect
	.byte	49
	.space	7
	.short	1
	.ascii	"\000"
	.space	9
	.word	M_LoadSelect
	.byte	50
	.space	7
	.short	1
	.ascii	"\000"
	.space	9
	.word	M_LoadSelect
	.byte	51
	.space	7
	.short	1
	.ascii	"\000"
	.space	9
	.word	M_LoadSelect
	.byte	52
	.space	7
	.short	1
	.ascii	"\000"
	.space	9
	.word	M_LoadSelect
	.byte	53
	.space	7
	.short	1
	.ascii	"\000"
	.space	9
	.word	M_LoadSelect
	.byte	54
	.space	7
	.short	1
	.ascii	"\000"
	.space	9
	.word	M_LoadSelect
	.byte	55
	.space	7
	.short	1
	.ascii	"\000"
	.space	9
	.word	M_LoadSelect
	.byte	56
	.space	7
	.type	LoadDef, %object
	.size	LoadDef, 24
LoadDef:
	.short	8
	.space	2
	.word	MainDef
	.word	LoadMenue
	.word	M_DrawLoad
	.short	80
	.short	34
	.short	0
	.space	2
	.type	SaveDef, %object
	.size	SaveDef, 24
SaveDef:
	.short	8
	.space	2
	.word	MainDef
	.word	SaveMenu
	.word	M_DrawSave
	.short	80
	.short	34
	.short	0
	.space	2
	.type	ReadMenu1, %object
	.size	ReadMenu1, 24
ReadMenu1:
	.short	1
	.ascii	"\000"
	.space	9
	.word	M_ReadThis2
	.byte	0
	.space	7
	.type	ReadMenu2, %object
	.size	ReadMenu2, 24
ReadMenu2:
	.short	1
	.ascii	"\000"
	.space	9
	.word	M_FinishReadThis
	.byte	0
	.space	7
	.type	ResetButtonName, %object
	.size	ResetButtonName, 16
ResetButtonName:
	.ascii	"M_BUTT1\000"
	.ascii	"M_BUTT2\000"
	.type	menu_background, %object
	.size	menu_background, 4
menu_background:
	.word	1
	.type	helpstrings, %object
	.size	helpstrings, 1944
helpstrings:
	.word	.LC126
	.word	8196
	.byte	0
	.space	1
	.short	283
	.short	2
	.space	22
	.word	.LC127
	.word	9216
	.byte	0
	.space	1
	.short	283
	.short	10
	.space	2
	.word	key_help
	.space	16
	.word	.LC128
	.word	9216
	.byte	0
	.space	1
	.short	283
	.short	18
	.space	2
	.word	key_escape
	.space	16
	.word	.LC81
	.word	9216
	.byte	0
	.space	1
	.short	283
	.short	26
	.space	2
	.word	key_setup
	.space	16
	.word	.LC129
	.word	9216
	.byte	0
	.space	1
	.short	283
	.short	34
	.space	2
	.word	key_pause
	.space	16
	.word	.LC89
	.word	9216
	.byte	0
	.space	1
	.short	283
	.short	42
	.space	2
	.word	key_map
	.space	16
	.word	.LC130
	.word	9216
	.byte	0
	.space	1
	.short	283
	.short	50
	.space	2
	.word	key_soundvolume
	.space	16
	.word	.LC131
	.word	9216
	.byte	0
	.space	1
	.short	283
	.short	58
	.space	2
	.word	key_hud
	.space	16
	.word	.LC99
	.word	9216
	.byte	0
	.space	1
	.short	283
	.short	66
	.space	2
	.word	key_messages
	.space	16
	.word	.LC132
	.word	9216
	.byte	0
	.space	1
	.short	283
	.short	74
	.space	2
	.word	key_gamma
	.space	16
	.word	.LC133
	.word	9216
	.byte	0
	.space	1
	.short	283
	.short	82
	.space	2
	.word	key_spy
	.space	16
	.word	.LC134
	.word	9216
	.byte	0
	.space	1
	.short	283
	.short	90
	.space	2
	.word	key_zoomin
	.space	16
	.word	.LC135
	.word	9216
	.byte	0
	.space	1
	.short	283
	.short	98
	.space	2
	.word	key_zoomout
	.space	16
	.word	.LC136
	.word	9216
	.byte	0
	.space	1
	.short	283
	.short	106
	.space	2
	.word	key_screenshot
	.space	16
	.word	.LC89
	.word	8196
	.byte	0
	.space	1
	.short	283
	.short	118
	.space	22
	.word	.LC137
	.word	9216
	.byte	0
	.space	1
	.short	283
	.short	126
	.space	2
	.word	key_map_follow
	.space	16
	.word	.LC138
	.word	9216
	.byte	0
	.space	1
	.short	283
	.short	134
	.space	2
	.word	key_map_zoomin
	.space	16
	.word	.LC139
	.word	9216
	.byte	0
	.space	1
	.short	283
	.short	142
	.space	2
	.word	key_map_zoomout
	.space	16
	.word	.LC140
	.word	9216
	.byte	0
	.space	1
	.short	283
	.short	150
	.space	2
	.word	key_map_mark
	.space	16
	.word	.LC141
	.word	9216
	.byte	0
	.space	1
	.short	283
	.short	158
	.space	2
	.word	key_map_clear
	.space	16
	.word	.LC142
	.word	9216
	.byte	0
	.space	1
	.short	283
	.short	166
	.space	2
	.word	key_map_gobig
	.space	16
	.word	.LC143
	.word	9216
	.byte	0
	.space	1
	.short	283
	.short	174
	.space	2
	.word	key_map_grid
	.space	16
	.word	.LC85
	.word	8196
	.byte	0
	.space	1
	.short	87
	.short	2
	.space	22
	.word	.LC144
	.word	9216
	.byte	0
	.space	1
	.short	87
	.short	10
	.space	2
	.word	key_weapon1
	.space	16
	.word	.LC145
	.word	9216
	.byte	0
	.space	1
	.short	87
	.short	18
	.space	2
	.word	key_weapon2
	.space	16
	.word	.LC146
	.word	9216
	.byte	0
	.space	1
	.short	87
	.short	26
	.space	2
	.word	key_weapon3
	.space	16
	.word	.LC147
	.word	9216
	.byte	0
	.space	1
	.short	87
	.short	34
	.space	2
	.word	key_weapon4
	.space	16
	.word	.LC148
	.word	9216
	.byte	0
	.space	1
	.short	87
	.short	42
	.space	2
	.word	key_weapon5
	.space	16
	.word	.LC108
	.word	9216
	.byte	0
	.space	1
	.short	87
	.short	50
	.space	2
	.word	key_weapon6
	.space	16
	.word	.LC149
	.word	9216
	.byte	0
	.space	1
	.short	87
	.short	58
	.space	2
	.word	key_weapon7
	.space	16
	.word	.LC150
	.word	9216
	.byte	0
	.space	1
	.short	87
	.short	66
	.space	2
	.word	key_weapon8
	.space	16
	.word	.LC110
	.word	9216
	.byte	0
	.space	1
	.short	87
	.short	74
	.space	2
	.word	key_weapon9
	.space	16
	.word	.LC151
	.word	9216
	.byte	0
	.space	1
	.short	87
	.short	82
	.space	2
	.word	key_weapontoggle
	.space	16
	.word	.LC152
	.word	9216
	.byte	0
	.space	1
	.short	87
	.short	90
	.space	2
	.word	key_fire
	.word	mousebfire
	.word	joybfire
	.space	8
	.word	.LC153
	.word	8196
	.byte	0
	.space	1
	.short	87
	.short	102
	.space	22
	.word	.LC154
	.word	9216
	.byte	0
	.space	1
	.short	87
	.short	110
	.space	2
	.word	key_up
	.word	mousebforward
	.space	12
	.word	.LC155
	.word	9216
	.byte	0
	.space	1
	.short	87
	.short	118
	.space	2
	.word	key_down
	.word	mousebbackward
	.space	12
	.word	.LC156
	.word	9216
	.byte	0
	.space	1
	.short	87
	.short	126
	.space	2
	.word	key_left
	.space	16
	.word	.LC157
	.word	9216
	.byte	0
	.space	1
	.short	87
	.short	134
	.space	2
	.word	key_right
	.space	16
	.word	.LC158
	.word	9216
	.byte	0
	.space	1
	.short	87
	.short	142
	.space	2
	.word	key_speed
	.word	0
	.word	joybspeed
	.space	8
	.word	.LC159
	.word	9216
	.byte	0
	.space	1
	.short	87
	.short	150
	.space	2
	.word	key_strafeleft
	.space	16
	.word	.LC160
	.word	9216
	.byte	0
	.space	1
	.short	87
	.short	158
	.space	2
	.word	key_straferight
	.space	16
	.word	.LC161
	.word	9216
	.byte	0
	.space	1
	.short	87
	.short	166
	.space	2
	.word	key_strafe
	.word	mousebstrafe
	.word	joybstrafe
	.space	8
	.word	.LC162
	.word	9216
	.byte	0
	.space	1
	.short	87
	.short	174
	.space	2
	.word	key_autorun
	.space	16
	.word	.LC163
	.word	9216
	.byte	0
	.space	1
	.short	87
	.short	182
	.space	2
	.word	key_reverse
	.space	16
	.word	.LC164
	.word	9216
	.byte	0
	.space	1
	.short	87
	.short	190
	.space	2
	.word	key_use
	.word	mousebuse
	.word	joybuse
	.space	8
	.word	.LC165
	.word	8196
	.byte	0
	.space	1
	.short	172
	.short	2
	.space	22
	.word	.LC166
	.word	9216
	.byte	0
	.space	1
	.short	172
	.short	10
	.space	2
	.word	key_savegame
	.space	16
	.word	.LC167
	.word	9216
	.byte	0
	.space	1
	.short	172
	.short	18
	.space	2
	.word	key_loadgame
	.space	16
	.word	.LC168
	.word	9216
	.byte	0
	.space	1
	.short	172
	.short	26
	.space	2
	.word	key_quicksave
	.space	16
	.word	.LC169
	.word	9216
	.byte	0
	.space	1
	.short	172
	.short	34
	.space	2
	.word	key_endgame
	.space	16
	.word	.LC170
	.word	9216
	.byte	0
	.space	1
	.short	172
	.short	42
	.space	2
	.word	key_quickload
	.space	16
	.word	.LC171
	.word	9216
	.byte	0
	.space	1
	.short	172
	.short	50
	.space	2
	.word	key_quit
	.space	16
	.word	0
	.word	40960
	.byte	0
	.space	27
	.type	msgNames, %object
	.size	msgNames, 18
msgNames:
	.ascii	"M_MSGOFF\000"
	.ascii	"M_MSGON\000"
	.space	1
	.space	2
	.type	HelpDef, %object
	.size	HelpDef, 24
HelpDef:
	.short	1
	.space	2
	.word	HelpDef
	.word	HelpMenu
	.word	M_DrawHelp
	.short	330
	.short	175
	.short	0
	.space	2
	.type	cred_settings, %object
	.size	cred_settings, 540
cred_settings:
	.word	.LC112
	.word	3153920
	.byte	0
	.space	1
	.short	20
	.short	32
	.space	22
	.word	.LC113
	.word	3153920
	.byte	0
	.space	1
	.short	50
	.short	41
	.space	22
	.word	.LC114
	.word	3153920
	.byte	0
	.space	1
	.short	50
	.short	50
	.space	22
	.word	.LC115
	.word	3153920
	.byte	0
	.space	1
	.short	50
	.short	59
	.space	22
	.word	.LC116
	.word	3153920
	.byte	0
	.space	1
	.short	50
	.short	68
	.space	22
	.word	.LC117
	.word	3153920
	.byte	0
	.space	1
	.short	20
	.short	86
	.space	22
	.word	.LC118
	.word	3153920
	.byte	0
	.space	1
	.short	50
	.short	95
	.space	22
	.word	.LC119
	.word	3153920
	.byte	0
	.space	1
	.short	50
	.short	104
	.space	22
	.word	.LC120
	.word	3153920
	.byte	0
	.space	1
	.short	50
	.short	113
	.space	22
	.word	.LC121
	.word	3153920
	.byte	0
	.space	1
	.short	50
	.short	122
	.space	22
	.word	.LC122
	.word	3153920
	.byte	0
	.space	1
	.short	50
	.short	131
	.space	22
	.word	.LC123
	.word	3153920
	.byte	0
	.space	1
	.short	50
	.short	140
	.space	22
	.word	.LC124
	.word	3153920
	.byte	0
	.space	1
	.short	50
	.short	149
	.space	22
	.word	.LC125
	.word	3153920
	.byte	0
	.space	1
	.short	50
	.short	158
	.space	22
	.word	0
	.word	40960
	.byte	0
	.space	27
	.type	MainMenu, %object
	.size	MainMenu, 144
MainMenu:
	.short	1
	.ascii	"M_NGAME\000"
	.space	2
	.word	M_NewGame
	.byte	110
	.space	7
	.short	1
	.ascii	"M_OPTION\000"
	.space	1
	.word	M_Options
	.byte	111
	.space	7
	.short	1
	.ascii	"M_LOADG\000"
	.space	2
	.word	M_LoadGame
	.byte	108
	.space	7
	.short	1
	.ascii	"M_SAVEG\000"
	.space	2
	.word	M_SaveGame
	.byte	115
	.space	7
	.short	1
	.ascii	"M_RDTHIS\000"
	.space	1
	.word	M_ReadThis
	.byte	114
	.space	7
	.short	1
	.ascii	"M_QUITG\000"
	.space	2
	.word	M_QuitDOOM
	.byte	113
	.space	7
	.type	ExtHelpMenu, %object
	.size	ExtHelpMenu, 24
ExtHelpMenu:
	.short	1
	.ascii	"\000"
	.space	9
	.word	M_ExtHelpNextScreen
	.byte	0
	.space	7
	.type	chat_settings1, %object
	.size	chat_settings1, 432
chat_settings1:
	.word	.LC172
	.word	64
	.byte	0
	.space	1
	.short	20
	.short	47
	.space	2
	.word	.LC173
	.space	16
	.word	.LC174
	.word	64
	.byte	0
	.space	1
	.short	20
	.short	55
	.space	2
	.word	.LC175
	.space	16
	.word	.LC176
	.word	64
	.byte	0
	.space	1
	.short	20
	.short	63
	.space	2
	.word	.LC177
	.space	16
	.word	.LC178
	.word	64
	.byte	0
	.space	1
	.short	20
	.short	71
	.space	2
	.word	.LC179
	.space	16
	.word	.LC180
	.word	64
	.byte	0
	.space	1
	.short	20
	.short	79
	.space	2
	.word	.LC181
	.space	16
	.word	.LC182
	.word	64
	.byte	0
	.space	1
	.short	20
	.short	87
	.space	2
	.word	.LC183
	.space	16
	.word	.LC184
	.word	64
	.byte	0
	.space	1
	.short	20
	.short	95
	.space	2
	.word	.LC185
	.space	16
	.word	.LC186
	.word	64
	.byte	0
	.space	1
	.short	20
	.short	103
	.space	2
	.word	.LC187
	.space	16
	.word	.LC188
	.word	64
	.byte	0
	.space	1
	.short	20
	.short	111
	.space	2
	.word	.LC189
	.space	16
	.word	.LC190
	.word	64
	.byte	0
	.space	1
	.short	20
	.short	119
	.space	2
	.word	.LC191
	.space	16
	.word	0
	.word	128
	.byte	0
	.space	1
	.short	301
	.short	3
	.space	22
	.word	0
	.word	40960
	.byte	0
	.space	27
	.type	mess_settings1, %object
	.size	mess_settings1, 252
mess_settings1:
	.word	.LC192
	.word	16
	.byte	0
	.space	1
	.short	230
	.short	39
	.space	2
	.word	.LC193
	.space	16
	.word	.LC194
	.word	16
	.byte	0
	.space	1
	.short	230
	.short	55
	.space	2
	.word	.LC195
	.space	16
	.word	.LC196
	.word	16
	.byte	0
	.space	1
	.short	230
	.short	71
	.space	2
	.word	.LC197
	.space	16
	.word	.LC198
	.word	4096
	.byte	0
	.space	1
	.short	230
	.short	95
	.space	2
	.word	.LC199
	.space	16
	.word	.LC200
	.word	8
	.byte	0
	.space	1
	.short	230
	.short	111
	.space	2
	.word	.LC201
	.space	16
	.word	0
	.word	128
	.byte	0
	.space	1
	.short	301
	.short	3
	.space	22
	.word	0
	.word	40960
	.byte	0
	.space	27
	.type	comp_settings3, %object
	.size	comp_settings3, 216
comp_settings3:
	.word	.LC202
	.word	8
	.byte	0
	.space	1
	.short	284
	.short	32
	.space	2
	.word	.LC203
	.space	16
	.word	.LC204
	.word	8
	.byte	0
	.space	1
	.short	284
	.short	44
	.space	2
	.word	.LC205
	.space	16
	.word	.LC206
	.word	8
	.byte	0
	.space	1
	.short	284
	.short	56
	.space	2
	.word	.LC207
	.space	16
	.word	.LC208
	.word	8
	.byte	0
	.space	1
	.short	284
	.short	68
	.space	2
	.word	.LC209
	.space	16
	.word	.LC210
	.word	8448
	.byte	0
	.space	1
	.short	57
	.short	163
	.space	2
	.word	comp_settings2
	.space	16
	.word	0
	.word	40960
	.byte	0
	.space	27
	.type	comp_settings2, %object
	.size	comp_settings2, 468
comp_settings2:
	.word	.LC211
	.word	8
	.byte	0
	.space	1
	.short	284
	.short	32
	.space	2
	.word	.LC212
	.space	16
	.word	.LC213
	.word	8
	.byte	0
	.space	1
	.short	284
	.short	44
	.space	2
	.word	.LC214
	.space	16
	.word	.LC215
	.word	8
	.byte	0
	.space	1
	.short	284
	.short	56
	.space	2
	.word	.LC216
	.space	16
	.word	.LC217
	.word	8
	.byte	0
	.space	1
	.short	284
	.short	68
	.space	2
	.word	.LC218
	.space	16
	.word	.LC219
	.word	8
	.byte	0
	.space	1
	.short	284
	.short	80
	.space	2
	.word	.LC220
	.space	16
	.word	.LC221
	.word	8
	.byte	0
	.space	1
	.short	284
	.short	92
	.space	2
	.word	.LC222
	.space	16
	.word	.LC223
	.word	8
	.byte	0
	.space	1
	.short	284
	.short	104
	.space	2
	.word	.LC224
	.space	16
	.word	.LC225
	.word	8
	.byte	0
	.space	1
	.short	284
	.short	116
	.space	2
	.word	.LC226
	.space	16
	.word	.LC227
	.word	8
	.byte	0
	.space	1
	.short	284
	.short	128
	.space	2
	.word	.LC228
	.space	16
	.word	.LC229
	.word	8
	.byte	0
	.space	1
	.short	284
	.short	140
	.space	2
	.word	.LC230
	.space	16
	.word	.LC210
	.word	8448
	.byte	0
	.space	1
	.short	57
	.short	163
	.space	2
	.word	comp_settings1
	.space	16
	.word	.LC231
	.word	8704
	.byte	0
	.space	1
	.short	310
	.short	163
	.space	2
	.word	comp_settings3
	.space	16
	.word	0
	.word	40960
	.byte	0
	.space	27
	.type	comp_settings1, %object
	.size	comp_settings1, 468
comp_settings1:
	.word	.LC232
	.word	8
	.byte	0
	.space	1
	.short	284
	.short	32
	.space	2
	.word	.LC233
	.space	16
	.word	.LC234
	.word	8
	.byte	0
	.space	1
	.short	284
	.short	44
	.space	2
	.word	.LC235
	.space	16
	.word	.LC236
	.word	8
	.byte	0
	.space	1
	.short	284
	.short	56
	.space	2
	.word	.LC237
	.space	16
	.word	.LC238
	.word	8
	.byte	0
	.space	1
	.short	284
	.short	68
	.space	2
	.word	.LC239
	.space	16
	.word	.LC240
	.word	8
	.byte	0
	.space	1
	.short	284
	.short	80
	.space	2
	.word	.LC241
	.space	16
	.word	.LC242
	.word	8
	.byte	0
	.space	1
	.short	284
	.short	92
	.space	2
	.word	.LC243
	.space	16
	.word	.LC244
	.word	8
	.byte	0
	.space	1
	.short	284
	.short	104
	.space	2
	.word	.LC245
	.space	16
	.word	.LC246
	.word	8
	.byte	0
	.space	1
	.short	284
	.short	116
	.space	2
	.word	.LC247
	.space	16
	.word	.LC248
	.word	8
	.byte	0
	.space	1
	.short	284
	.short	128
	.space	2
	.word	.LC249
	.space	16
	.word	.LC250
	.word	8
	.byte	0
	.space	1
	.short	284
	.short	140
	.space	2
	.word	.LC251
	.space	16
	.word	0
	.word	128
	.byte	0
	.space	1
	.short	301
	.short	3
	.space	22
	.word	.LC231
	.word	8704
	.byte	0
	.space	1
	.short	310
	.short	163
	.space	2
	.word	comp_settings2
	.space	16
	.word	0
	.word	40960
	.byte	0
	.space	27
	.type	edgetypes, %object
	.size	edgetypes, 8
edgetypes:
	.word	.LC252
	.word	.LC253
	.type	renderfilters, %object
	.size	renderfilters, 16
renderfilters:
	.word	.LC254
	.word	.LC255
	.word	.LC256
	.word	.LC257
	.type	gen_skillstrings, %object
	.size	gen_skillstrings, 28
gen_skillstrings:
	.word	.LC258
	.word	.LC259
	.word	.LC260
	.word	.LC261
	.word	.LC262
	.word	.LC263
	.word	0
	.type	videomodes, %object
	.size	videomodes, 24
videomodes:
	.word	.LC264
	.word	.LC265
	.word	.LC266
	.word	.LC267
	.word	.LC268
	.word	0
	.type	gen_settings3, %object
	.size	gen_settings3, 396
gen_settings3:
	.word	.LC269
	.word	8196
	.byte	0
	.space	1
	.short	250
	.short	32
	.space	22
	.word	.LC270
	.word	8388608
	.byte	0
	.space	1
	.short	250
	.short	44
	.space	2
	.word	.LC271
	.word	0
	.word	0
	.word	0
	.word	renderfilters
	.word	.LC272
	.word	8388608
	.byte	0
	.space	1
	.short	250
	.short	52
	.space	2
	.word	.LC273
	.word	0
	.word	0
	.word	0
	.word	renderfilters
	.word	.LC274
	.word	8388608
	.byte	0
	.space	1
	.short	250
	.short	60
	.space	2
	.word	.LC275
	.word	0
	.word	0
	.word	0
	.word	renderfilters
	.word	.LC276
	.word	8388608
	.byte	0
	.space	1
	.short	250
	.short	68
	.space	2
	.word	.LC277
	.word	0
	.word	0
	.word	0
	.word	renderfilters
	.word	.LC278
	.word	8388608
	.byte	0
	.space	1
	.short	250
	.short	76
	.space	2
	.word	.LC279
	.word	0
	.word	0
	.word	0
	.word	renderfilters
	.word	.LC280
	.word	8388608
	.byte	0
	.space	1
	.short	250
	.short	92
	.space	2
	.word	.LC281
	.word	0
	.word	0
	.word	0
	.word	edgetypes
	.word	.LC282
	.word	8388608
	.byte	0
	.space	1
	.short	250
	.short	100
	.space	2
	.word	.LC283
	.word	0
	.word	0
	.word	0
	.word	edgetypes
	.word	.LC284
	.word	8
	.byte	0
	.space	1
	.short	250
	.short	108
	.space	2
	.word	.LC285
	.space	16
	.word	.LC210
	.word	8448
	.byte	0
	.space	1
	.short	57
	.short	191
	.space	2
	.word	gen_settings2
	.space	16
	.word	0
	.word	40960
	.byte	0
	.space	27
	.type	gen_settings1, %object
	.size	gen_settings1, 432
gen_settings1:
	.word	.LC311
	.word	8196
	.byte	0
	.space	1
	.short	250
	.short	32
	.space	22
	.word	.LC312
	.word	8
	.byte	0
	.space	1
	.short	250
	.short	44
	.space	2
	.word	.LC313
	.word	0
	.word	0
	.word	M_Trans
	.space	4
	.word	.LC314
	.word	4096
	.byte	0
	.space	1
	.short	250
	.short	52
	.space	2
	.word	.LC315
	.word	0
	.word	0
	.word	M_Trans
	.space	4
	.word	.LC316
	.word	131080
	.byte	0
	.space	1
	.short	250
	.short	60
	.space	2
	.word	.LC317
	.word	0
	.word	0
	.word	0
	.space	4
	.word	.LC318
	.word	8519680
	.byte	0
	.space	1
	.short	250
	.short	68
	.space	2
	.word	.LC319
	.word	0
	.word	0
	.word	0
	.word	videomodes
	.word	.LC320
	.word	8
	.byte	0
	.space	1
	.short	250
	.short	76
	.space	2
	.word	.LC321
	.space	16
	.word	.LC322
	.word	8196
	.byte	0
	.space	1
	.short	250
	.short	144
	.space	22
	.word	.LC323
	.word	135168
	.byte	0
	.space	1
	.short	250
	.short	156
	.space	2
	.word	.LC324
	.space	16
	.word	.LC325
	.word	8
	.byte	0
	.space	1
	.short	250
	.short	164
	.space	2
	.word	.LC326
	.space	16
	.word	0
	.word	128
	.byte	0
	.space	1
	.short	301
	.short	3
	.space	22
	.word	.LC231
	.word	8704
	.byte	0
	.space	1
	.short	310
	.short	191
	.space	2
	.word	gen_settings2
	.space	16
	.word	0
	.word	40960
	.byte	0
	.space	27
	.type	enem_settings1, %object
	.size	enem_settings1, 432
enem_settings1:
	.word	.LC327
	.word	8
	.byte	0
	.space	1
	.short	250
	.short	31
	.space	2
	.word	.LC328
	.space	16
	.word	.LC329
	.word	8
	.byte	0
	.space	1
	.short	250
	.short	39
	.space	2
	.word	.LC330
	.space	16
	.word	.LC331
	.word	8
	.byte	0
	.space	1
	.short	250
	.short	47
	.space	2
	.word	.LC332
	.space	16
	.word	.LC333
	.word	8
	.byte	0
	.space	1
	.short	250
	.short	55
	.space	2
	.word	.LC334
	.space	16
	.word	.LC335
	.word	8
	.byte	0
	.space	1
	.short	250
	.short	63
	.space	2
	.word	.LC336
	.space	16
	.word	.LC337
	.word	8
	.byte	0
	.space	1
	.short	250
	.short	71
	.space	2
	.word	.LC338
	.space	16
	.word	.LC339
	.word	8
	.byte	0
	.space	1
	.short	250
	.short	79
	.space	2
	.word	.LC340
	.space	16
	.word	.LC341
	.word	69632
	.byte	0
	.space	1
	.short	250
	.short	87
	.space	2
	.word	.LC342
	.space	16
	.word	.LC343
	.word	4096
	.byte	0
	.space	1
	.short	250
	.short	95
	.space	2
	.word	.LC344
	.space	16
	.word	.LC345
	.word	8
	.byte	0
	.space	1
	.short	250
	.short	103
	.space	2
	.word	.LC346
	.space	16
	.word	0
	.word	128
	.byte	0
	.space	1
	.short	301
	.short	3
	.space	22
	.word	0
	.word	40960
	.byte	0
	.space	27
	.type	auto_settings2, %object
	.size	auto_settings2, 504
auto_settings2:
	.word	.LC347
	.word	32
	.byte	0
	.space	1
	.short	250
	.short	31
	.space	2
	.word	.LC348
	.space	16
	.word	.LC349
	.word	32
	.byte	0
	.space	1
	.short	250
	.short	39
	.space	2
	.word	.LC350
	.space	16
	.word	.LC351
	.word	32
	.byte	0
	.space	1
	.short	250
	.short	47
	.space	2
	.word	.LC352
	.space	16
	.word	.LC353
	.word	32
	.byte	0
	.space	1
	.short	250
	.short	55
	.space	2
	.word	.LC354
	.space	16
	.word	.LC355
	.word	32
	.byte	0
	.space	1
	.short	250
	.short	63
	.space	2
	.word	.LC356
	.space	16
	.word	.LC357
	.word	32
	.byte	0
	.space	1
	.short	250
	.short	71
	.space	2
	.word	.LC358
	.space	16
	.word	.LC359
	.word	32
	.byte	0
	.space	1
	.short	250
	.short	79
	.space	2
	.word	.LC360
	.space	16
	.word	.LC361
	.word	32
	.byte	0
	.space	1
	.short	250
	.short	87
	.space	2
	.word	.LC362
	.space	16
	.word	.LC363
	.word	32
	.byte	0
	.space	1
	.short	250
	.short	95
	.space	2
	.word	.LC364
	.space	16
	.word	.LC365
	.word	32
	.byte	0
	.space	1
	.short	250
	.short	103
	.space	2
	.word	.LC366
	.space	16
	.word	.LC367
	.word	32
	.byte	0
	.space	1
	.short	250
	.short	111
	.space	2
	.word	.LC368
	.space	16
	.word	.LC369
	.word	32
	.byte	0
	.space	1
	.short	250
	.short	127
	.space	2
	.word	.LC370
	.space	16
	.word	.LC210
	.word	8448
	.byte	0
	.space	1
	.short	57
	.short	191
	.space	2
	.word	auto_settings1
	.space	16
	.word	0
	.word	40960
	.byte	0
	.space	27
	.type	auto_settings1, %object
	.size	auto_settings1, 684
auto_settings1:
	.word	.LC371
	.word	32
	.byte	0
	.space	1
	.short	250
	.short	31
	.space	2
	.word	.LC372
	.space	16
	.word	.LC373
	.word	32
	.byte	0
	.space	1
	.short	250
	.short	39
	.space	2
	.word	.LC374
	.space	16
	.word	.LC375
	.word	32
	.byte	0
	.space	1
	.short	250
	.short	47
	.space	2
	.word	.LC376
	.space	16
	.word	.LC377
	.word	32
	.byte	0
	.space	1
	.short	250
	.short	55
	.space	2
	.word	.LC378
	.space	16
	.word	.LC379
	.word	32
	.byte	0
	.space	1
	.short	250
	.short	63
	.space	2
	.word	.LC380
	.space	16
	.word	.LC381
	.word	32
	.byte	0
	.space	1
	.short	250
	.short	71
	.space	2
	.word	.LC382
	.space	16
	.word	.LC383
	.word	32
	.byte	0
	.space	1
	.short	250
	.short	79
	.space	2
	.word	.LC384
	.space	16
	.word	.LC385
	.word	32
	.byte	0
	.space	1
	.short	250
	.short	87
	.space	2
	.word	.LC386
	.space	16
	.word	.LC387
	.word	32
	.byte	0
	.space	1
	.short	250
	.short	95
	.space	2
	.word	.LC388
	.space	16
	.word	.LC389
	.word	32
	.byte	0
	.space	1
	.short	250
	.short	103
	.space	2
	.word	.LC390
	.space	16
	.word	.LC391
	.word	32
	.byte	0
	.space	1
	.short	250
	.short	111
	.space	2
	.word	.LC392
	.space	16
	.word	.LC393
	.word	32
	.byte	0
	.space	1
	.short	250
	.short	119
	.space	2
	.word	.LC394
	.space	16
	.word	.LC395
	.word	16
	.byte	0
	.space	1
	.short	250
	.short	135
	.space	2
	.word	.LC396
	.space	16
	.word	.LC397
	.word	16
	.byte	0
	.space	1
	.short	250
	.short	143
	.space	2
	.word	.LC398
	.space	16
	.word	.LC399
	.word	8
	.byte	0
	.space	1
	.short	250
	.short	151
	.space	2
	.word	.LC400
	.space	16
	.word	.LC401
	.word	8
	.byte	0
	.space	1
	.short	250
	.short	159
	.space	2
	.word	.LC402
	.space	16
	.word	0
	.word	128
	.byte	0
	.space	1
	.short	301
	.short	3
	.space	22
	.word	.LC231
	.word	8704
	.byte	0
	.space	1
	.short	310
	.short	191
	.space	2
	.word	auto_settings2
	.space	16
	.word	0
	.word	40960
	.byte	0
	.space	27
	.type	stat_settings1, %object
	.size	stat_settings1, 576
stat_settings1:
	.word	.LC403
	.word	8196
	.byte	0
	.space	1
	.short	203
	.short	39
	.space	22
	.word	.LC404
	.word	8
	.byte	0
	.space	1
	.short	203
	.short	47
	.space	2
	.word	.LC405
	.space	16
	.word	.LC406
	.word	8
	.byte	0
	.space	1
	.short	203
	.short	55
	.space	2
	.word	.LC407
	.space	16
	.word	.LC408
	.word	8
	.byte	0
	.space	1
	.short	203
	.short	63
	.space	2
	.word	.LC409
	.space	16
	.word	.LC410
	.word	8196
	.byte	0
	.space	1
	.short	203
	.short	79
	.space	22
	.word	.LC411
	.word	8
	.byte	0
	.space	1
	.short	203
	.short	87
	.space	2
	.word	.LC412
	.space	16
	.word	.LC413
	.word	4096
	.byte	0
	.space	1
	.short	203
	.short	95
	.space	2
	.word	.LC414
	.space	16
	.word	.LC415
	.word	4096
	.byte	0
	.space	1
	.short	203
	.short	103
	.space	2
	.word	.LC416
	.space	16
	.word	.LC417
	.word	4096
	.byte	0
	.space	1
	.short	203
	.short	111
	.space	2
	.word	.LC418
	.space	16
	.word	.LC419
	.word	4096
	.byte	0
	.space	1
	.short	203
	.short	119
	.space	2
	.word	.LC420
	.space	16
	.word	.LC421
	.word	4096
	.byte	0
	.space	1
	.short	203
	.short	127
	.space	2
	.word	.LC422
	.space	16
	.word	.LC423
	.word	4096
	.byte	0
	.space	1
	.short	203
	.short	135
	.space	2
	.word	.LC424
	.space	16
	.word	.LC425
	.word	4096
	.byte	0
	.space	1
	.short	203
	.short	143
	.space	2
	.word	.LC426
	.space	16
	.word	.LC427
	.word	4096
	.byte	0
	.space	1
	.short	203
	.short	151
	.space	2
	.word	.LC428
	.space	16
	.word	0
	.word	128
	.byte	0
	.space	1
	.short	301
	.short	3
	.space	22
	.word	0
	.word	40960
	.byte	0
	.space	27
	.type	weap_settings1, %object
	.size	weap_settings1, 504
weap_settings1:
	.word	.LC429
	.word	8
	.byte	0
	.space	1
	.short	203
	.short	33
	.space	2
	.word	.LC430
	.space	16
	.word	.LC431
	.word	8
	.byte	0
	.space	1
	.short	203
	.short	41
	.space	2
	.word	.LC432
	.space	16
	.word	.LC433
	.word	2048
	.byte	0
	.space	1
	.short	203
	.short	65
	.space	2
	.word	.LC434
	.space	16
	.word	.LC435
	.word	2048
	.byte	0
	.space	1
	.short	203
	.short	73
	.space	2
	.word	.LC436
	.space	16
	.word	.LC437
	.word	2048
	.byte	0
	.space	1
	.short	203
	.short	81
	.space	2
	.word	.LC438
	.space	16
	.word	.LC439
	.word	2048
	.byte	0
	.space	1
	.short	203
	.short	89
	.space	2
	.word	.LC440
	.space	16
	.word	.LC441
	.word	2048
	.byte	0
	.space	1
	.short	203
	.short	97
	.space	2
	.word	.LC442
	.space	16
	.word	.LC443
	.word	2048
	.byte	0
	.space	1
	.short	203
	.short	105
	.space	2
	.word	.LC444
	.space	16
	.word	.LC445
	.word	2048
	.byte	0
	.space	1
	.short	203
	.short	113
	.space	2
	.word	.LC446
	.space	16
	.word	.LC447
	.word	2048
	.byte	0
