	.arch armv6k
	.fpu softvfp
	.eabi_attribute 23, 1
	.eabi_attribute 24, 1
	.eabi_attribute 25, 1
	.eabi_attribute 26, 1
	.eabi_attribute 30, 2
	.eabi_attribute 34, 1
	.eabi_attribute 18, 4
	.file	"md5.c"
	.text
.Ltext0:
	.cfi_sections	.debug_frame
	.align	2
	.global	MD5Init
	.type	MD5Init, %function
MD5Init:
.LFB0:
	.file 1 "c:/devl/prboom3ds/src/md5.c"
	.loc 1 51 0
	.cfi_startproc
	@ args = 0, pretend = 0, frame = 0
	@ frame_needed = 0, uses_anonymous_args = 0
.LVL0:
	.loc 1 57 0
	mov	r3, #0
	.loc 1 51 0
	str	lr, [sp, #-4]!
	.cfi_def_cfa_offset 4
	.cfi_offset 14, -4
	.loc 1 53 0
	ldr	ip, .L3
	.loc 1 52 0
	ldr	lr, .L3+4
	.loc 1 54 0
	ldr	r1, .L3+8
	.loc 1 55 0
	ldr	r2, .L3+12
	.loc 1 52 0
	str	lr, [r0]
	.loc 1 53 0
	str	ip, [r0, #4]
	.loc 1 54 0
	str	r1, [r0, #8]
	.loc 1 55 0
	str	r2, [r0, #12]
	.loc 1 57 0
	str	r3, [r0, #16]
	.loc 1 58 0
	str	r3, [r0, #20]
	ldr	pc, [sp], #4
.L4:
	.align	2
.L3:
	.word	-271733879
	.word	1732584193
	.word	-1732584194
	.word	271733878
	.cfi_endproc
.LFE0:
	.size	MD5Init, .-MD5Init
	.align	2
	.global	MD5Transform
	.type	MD5Transform, %function
MD5Transform:
.LFB3:
	.loc 1 158 0
	.cfi_startproc
	@ args = 0, pretend = 0, frame = 40
	@ frame_needed = 0, uses_anonymous_args = 0
.LVL1:
	.loc 1 166 0
	ldr	r3, [r0, #12]
	ldr	ip, [r0, #8]
	.loc 1 158 0
	stmfd	sp!, {r4, r5, r6, r7, r8, r9, r10, fp, lr}
	.cfi_def_cfa_offset 36
	.cfi_offset 4, -36
	.cfi_offset 5, -32
	.cfi_offset 6, -28
	.cfi_offset 7, -24
	.cfi_offset 8, -20
	.cfi_offset 9, -16
	.cfi_offset 10, -12
	.cfi_offset 11, -8
	.cfi_offset 14, -4
	.loc 1 166 0
	eor	r6, r3, ip
	ldr	r3, [r0, #4]
	ldr	fp, [r1]
	and	r6, r6, r3
	ldr	r3, [r0, #12]
	ldr	r2, .L7
	eor	r6, r6, r3
	ldr	r3, [r0]
	add	r2, fp, r2
	ldr	ip, [r0, #4]
	add	r2, r2, r3
.LVL2:
	add	r6, r2, r6
	add	r6, ip, r6, ror #25
.LVL3:
	.loc 1 167 0
	ldr	lr, [r0, #4]
	ldr	ip, [r0, #8]
	ldr	r3, [r1, #4]
	eor	r4, ip, lr
	and	r4, r4, r6
	ldr	r2, .L7+4
	eor	r4, r4, ip
	ldr	ip, [r0, #12]
	add	r2, r3, r2
	.loc 1 158 0
	sub	sp, sp, #44
	.cfi_def_cfa_offset 80
	add	r2, r2, ip
.LVL4:
	str	r3, [sp]
	.loc 1 167 0
	add	r4, r2, r4
.LVL5:
	ldr	r3, .L7+8
	.loc 1 168 0
	ldr	r2, [r1, #8]
	ldr	ip, [r0, #8]
	add	r3, r2, r3
	.loc 1 167 0
	add	r4, r6, r4, ror #20
.LVL6:
	.loc 1 168 0
	eor	r5, r6, lr
	add	r3, r3, ip
.LVL7:
	.loc 1 169 0
	ldr	ip, [r1, #12]
	.loc 1 168 0
	and	r5, r5, r4
	eor	r5, r5, lr
	.loc 1 169 0
	mov	lr, ip
.LVL8:
	.loc 1 168 0
	add	r5, r3, r5
.LVL9:
	ldr	ip, .L7+12
	add	r5, r4, r5, ror #15
.LVL10:
	ldr	r7, [r0, #4]
	str	r2, [sp, #4]
	.loc 1 169 0
	eor	r2, r4, r6
	and	r2, r2, r5
	add	ip, lr, ip
	eor	r3, r2, r6
	add	r2, ip, r7
.LVL11:
	add	r2, r2, r3
.LVL12:
	.loc 1 170 0
	ldr	r7, [r1, #16]
	ldr	r3, .L7+16
	.loc 1 169 0
	add	r2, r5, r2, ror #10
.LVL13:
	.loc 1 170 0
	eor	ip, r5, r4
	add	r3, r7, r3
	and	ip, ip, r2
	add	r6, r3, r6
.LVL14:
	eor	r3, ip, r4
	add	r3, r6, r3
.LVL15:
	ldr	ip, .L7+20
	.loc 1 171 0
	ldr	r6, [r1, #20]
	.loc 1 170 0
	add	r3, r2, r3, ror #25
.LVL16:
	str	lr, [sp, #8]
	.loc 1 171 0
	eor	lr, r2, r5
	add	ip, r6, ip
	and	lr, lr, r3
	add	r4, ip, r4
.LVL17:
	eor	ip, lr, r5
	.loc 1 172 0
	ldr	r8, [r1, #24]
	.loc 1 171 0
	add	ip, r4, ip
.LVL18:
	ldr	lr, .L7+24
	add	ip, r3, ip, ror #20
.LVL19:
	.loc 1 172 0
	eor	r4, r3, r2
	add	lr, r8, lr
	and	r4, r4, ip
	add	r5, lr, r5
.LVL20:
	eor	lr, r4, r2
	.loc 1 173 0
	ldr	r9, [r1, #28]
	str	r7, [sp, #12]
	.loc 1 172 0
	add	lr, r5, lr
.LVL21:
	ldr	r7, .L7+28
	add	lr, ip, lr, ror #15
.LVL22:
	.loc 1 173 0
	eor	r4, ip, r3
	add	r7, r9, r7
	and	r4, r4, lr
	add	r2, r7, r2
.LVL23:
	eor	r7, r4, r3
	.loc 1 175 0
	ldr	r4, [r1, #36]
	.loc 1 174 0
	ldr	r5, [r1, #32]
	.loc 1 175 0
	mov	r10, r4
	str	r8, [sp, #20]
	.loc 1 173 0
	add	r7, r2, r7
.LVL24:
	ldr	r8, .L7+32
	add	r7, lr, r7, ror #10
.LVL25:
	.loc 1 174 0
	eor	r2, lr, ip
	add	r8, r5, r8
	and	r2, r2, r7
	add	r3, r8, r3
.LVL26:
	eor	r8, r2, ip
	str	r5, [sp, #24]
	add	r8, r3, r8
.LVL27:
	ldr	r5, .L7+36
	add	r8, r7, r8, ror #25
.LVL28:
	.loc 1 175 0
	eor	r4, r7, lr
	add	r5, r10, r5
	and	r4, r4, r8
	eor	r4, r4, lr
	add	ip, r5, ip
.LVL29:
	add	ip, ip, r4
.LVL30:
	add	r4, r8, ip, ror #20
.LVL31:
	.loc 1 177 0
	ldr	ip, [r1, #44]
	str	r6, [sp, #16]
	mov	r2, ip
	.loc 1 176 0
	ldr	r6, [r1, #40]
	eor	r3, r8, r7
	sub	r5, r6, #41984
	and	r3, r3, r4
	sub	r5, r5, #79
	add	lr, r5, lr
.LVL32:
	eor	r5, r3, r7
	add	r5, lr, r5
.LVL33:
	ldr	r3, .L7+40
	add	r5, r4, r5, ror #15
.LVL34:
	.loc 1 177 0
	eor	ip, r4, r8
	add	r3, r2, r3
	and	ip, ip, r5
	str	r2, [sp, #32]
	add	r7, r3, r7
.LVL35:
	eor	r2, ip, r8
	str	r10, [sp, #28]
	add	r2, r7, r2
.LVL36:
	ldr	r3, .L7+44
	.loc 1 178 0
	ldr	r7, [r1, #48]
	.loc 1 177 0
	add	r2, r5, r2, ror #10
.LVL37:
	.loc 1 178 0
	eor	ip, r5, r4
	add	r3, r7, r3
	and	ip, ip, r2
	add	r8, r3, r8
.LVL38:
	eor	r3, ip, r4
	.loc 1 179 0
	ldr	ip, [r1, #52]
	.loc 1 178 0
	add	r3, r8, r3
.LVL39:
	.loc 1 179 0
	mov	r8, ip
	ldr	ip, .L7+48
	.loc 1 178 0
	add	r3, r2, r3, ror #25
.LVL40:
	.loc 1 179 0
	eor	lr, r2, r5
	add	ip, r8, ip
	and	lr, lr, r3
	add	r4, ip, r4
.LVL41:
	eor	ip, lr, r5
	str	r8, [sp, #36]
	add	ip, r4, ip
.LVL42:
	.loc 1 180 0
	ldr	r8, [r1, #56]
	ldr	lr, .L7+52
	.loc 1 179 0
	add	ip, r3, ip, ror #20
.LVL43:
	.loc 1 180 0
	eor	r4, r3, r2
	add	lr, r8, lr
	and	r4, r4, ip
	eor	r4, r4, r2
	add	lr, lr, r5
.LVL44:
	add	lr, lr, r4
.LVL45:
	.loc 1 181 0
	ldr	r5, [r1, #60]
	ldr	r4, .L7+56
	.loc 1 180 0
	add	lr, ip, lr, ror #15
.LVL46:
	.loc 1 181 0
	eor	r1, ip, r3
.LVL47:
	add	r4, r5, r4
	and	r1, r1, lr
	eor	r1, r1, r3
	add	r2, r4, r2
.LVL48:
	add	r2, r2, r1
.LVL49:
	add	r2, lr, r2, ror #10
.LVL50:
	ldr	r4, [sp]
	ldr	r10, .L7+60
	.loc 1 183 0
	eor	r1, r2, lr
	add	r10, r4, r10
	and	r1, r1, ip
	eor	r1, r1, lr
	add	r3, r10, r3
.LVL51:
	add	r10, r3, r1
.LVL52:
	add	r10, r2, r10, ror #27
.LVL53:
	ldr	r1, [sp, #20]
	ldr	r4, .L7+64
	.loc 1 184 0
	eor	r3, r10, r2
	add	r4, r1, r4
	and	r3, r3, lr
	eor	r3, r3, r2
	add	ip, r4, ip
.LVL54:
	add	r4, ip, r3
.LVL55:
	add	r4, r10, r4, ror #23
.LVL56:
	ldr	ip, [sp, #32]
	ldr	r1, .L7+68
	.loc 1 185 0
	eor	r3, r4, r10
	add	r1, ip, r1
	and	r3, r3, r2
	eor	r3, r3, r10
	add	lr, r1, lr
.LVL57:
	add	r1, lr, r3
.LVL58:
	add	r1, r4, r1, ror #18
.LVL59:
	ldr	r3, .L7+72
	.loc 1 186 0
	eor	ip, r1, r4
	add	r3, fp, r3
	and	ip, ip, r10
	eor	ip, ip, r4
	add	r2, r3, r2
.LVL60:
	add	r2, r2, ip
.LVL61:
	add	r2, r1, r2, ror #12
.LVL62:
	ldr	lr, [sp, #16]
	ldr	r3, .L7+76
	.loc 1 187 0
	eor	ip, r2, r1
	add	r3, lr, r3
	and	ip, ip, r4
	eor	ip, ip, r1
	add	r10, r3, r10
.LVL63:
	add	r3, r10, ip
.LVL64:
	add	r3, r2, r3, ror #27
.LVL65:
	ldr	ip, .L7+80
	.loc 1 188 0
	eor	lr, r3, r2
	add	ip, r6, ip
	and	lr, lr, r1
	eor	lr, lr, r2
	add	r4, ip, r4
.LVL66:
	add	ip, r4, lr
.LVL67:
	add	ip, r3, ip, ror #23
.LVL68:
	ldr	lr, .L7+84
	.loc 1 189 0
	eor	r4, ip, r3
	add	lr, r5, lr
	and	r4, r4, r2
	eor	r4, r4, r3
	add	r1, lr, r1
.LVL69:
	add	lr, r1, r4
.LVL70:
	add	lr, ip, lr, ror #18
.LVL71:
	ldr	r10, [sp, #12]
	ldr	r1, .L7+88
	.loc 1 190 0
	eor	r4, lr, ip
	add	r1, r10, r1
	and	r4, r4, r3
	eor	r4, r4, ip
	add	r2, r1, r2
.LVL72:
	add	r2, r2, r4
.LVL73:
	add	r2, lr, r2, ror #12
.LVL74:
	ldr	r4, [sp, #28]
	ldr	r10, .L7+92
	.loc 1 191 0
	eor	r1, r2, lr
	add	r10, r4, r10
	and	r1, r1, ip
	eor	r1, r1, lr
	add	r3, r10, r3
.LVL75:
	add	r10, r3, r1
.LVL76:
	add	r10, r2, r10, ror #27
.LVL77:
	ldr	r4, .L7+96
	.loc 1 192 0
	eor	r3, r10, r2
	add	r4, r8, r4
	and	r3, r3, lr
	eor	r3, r3, r2
	add	ip, r4, ip
.LVL78:
	add	r4, ip, r3
.LVL79:
	add	r4, r10, r4, ror #23
.LVL80:
	ldr	ip, [sp, #8]
	ldr	r1, .L7+100
	.loc 1 193 0
	eor	r3, r4, r10
	add	r1, ip, r1
	and	r3, r3, r2
	eor	r3, r3, r10
	add	lr, r1, lr
.LVL81:
	add	r1, lr, r3
.LVL82:
	add	r1, r4, r1, ror #18
.LVL83:
	ldr	lr, [sp, #24]
	ldr	r3, .L7+104
	.loc 1 194 0
	eor	ip, r1, r4
	add	r3, lr, r3
	and	ip, ip, r10
	eor	ip, ip, r4
	add	r2, r3, r2
.LVL84:
	add	r2, r2, ip
.LVL85:
	add	r2, r1, r2, ror #12
.LVL86:
	ldr	lr, [sp, #36]
	ldr	r3, .L7+108
	.loc 1 195 0
	eor	ip, r2, r1
	add	r3, lr, r3
	and	ip, ip, r4
	eor	ip, ip, r1
	add	r10, r3, r10
.LVL87:
	add	r3, r10, ip
.LVL88:
	add	r3, r2, r3, ror #27
.LVL89:
	ldr	r10, [sp, #4]
	ldr	ip, .L7+112
	.loc 1 196 0
	eor	lr, r3, r2
	add	ip, r10, ip
	and	lr, lr, r1
	eor	lr, lr, r2
	add	r4, ip, r4
.LVL90:
	add	ip, r4, lr
.LVL91:
	add	ip, r3, ip, ror #23
.LVL92:
	ldr	lr, .L7+116
	.loc 1 197 0
	eor	r10, ip, r3
	add	lr, r9, lr
	and	r10, r10, r2
	eor	r10, r10, r3
	add	r1, lr, r1
.LVL93:
	add	lr, r1, r10
.LVL94:
	add	lr, ip, lr, ror #18
.LVL95:
	ldr	r1, .L7+120
	.loc 1 198 0
	eor	r4, lr, ip
	add	r1, r7, r1
	and	r10, r4, r3
	eor	r10, r10, ip
	add	r2, r1, r2
.LVL96:
	add	r2, r2, r10
.LVL97:
	ldr	r1, .L7+124
	ldr	r10, [sp, #16]
	add	r2, lr, r2, ror #12
.LVL98:
	add	r1, r10, r1
	.loc 1 200 0
	eor	r4, r4, r2
	add	r3, r1, r3
.LVL99:
	ldr	r10, .L7+128
	ldr	r1, [sp, #24]
	add	r3, r3, r4
.LVL100:
	add	r3, r2, r3, ror #28
.LVL101:
	add	r10, r1, r10
	eor	r1, r2, lr
	ldr	r4, [sp, #32]
	add	ip, r10, ip
.LVL102:
	.loc 1 201 0
	eor	r10, r1, r3
	ldr	r1, .L7+132
	add	ip, ip, r10
.LVL103:
	add	ip, r3, ip, ror #21
.LVL104:
	add	r1, r4, r1
	eor	r4, r3, r2
	add	lr, r1, lr
.LVL105:
	.loc 1 202 0
	eor	r4, r4, ip
	ldr	r1, .L7+136
	add	r4, lr, r4
.LVL106:
	add	r4, ip, r4, ror #16
.LVL107:
	add	r1, r8, r1
	eor	r10, ip, r3
	.loc 1 203 0
	eor	r10, r10, r4
	add	r2, r1, r2
.LVL108:
	ldr	lr, .L7+140
	ldr	r1, [sp]
	add	r2, r2, r10
.LVL109:
	add	r2, r4, r2, ror #9
.LVL110:
	add	lr, r1, lr
	eor	r10, r4, ip
	.loc 1 204 0
	eor	r10, r10, r2
	add	r3, lr, r3
.LVL111:
	add	r3, r3, r10
.LVL112:
	add	r10, r2, r3, ror #28
.LVL113:
	ldr	lr, .L7+144
	ldr	r3, [sp, #12]
	eor	r1, r2, r4
	add	lr, r3, lr
	add	ip, lr, ip
.LVL114:
	.loc 1 205 0
	eor	lr, r1, r10
	ldr	r1, .L7+148
	add	ip, ip, lr
.LVL115:
	add	ip, r10, ip, ror #21
.LVL116:
	add	r1, r9, r1
	eor	r3, r10, r2
	.loc 1 206 0
	eor	r3, r3, ip
	add	r4, r1, r4
.LVL117:
	ldr	lr, .L7+152
	add	r4, r4, r3
.LVL118:
	add	r4, ip, r4, ror #16
.LVL119:
	eor	r3, ip, r10
	add	lr, r6, lr
	add	r2, lr, r2
.LVL120:
	.loc 1 207 0
	eor	lr, r3, r4
	add	lr, r2, lr
.LVL121:
	ldr	r3, .L7+156
	ldr	r2, [sp, #36]
	add	lr, r4, lr, ror #9
.LVL122:
	add	r3, r2, r3
	eor	r1, r4, ip
	.loc 1 208 0
	eor	r1, r1, lr
	add	r10, r3, r10
.LVL123:
	ldr	r3, .L7+160
	add	r10, r10, r1
.LVL124:
	add	r1, lr, r10, ror #28
.LVL125:
	eor	r2, lr, r4
	add	r3, fp, r3
	add	ip, r3, ip
.LVL126:
	.loc 1 209 0
	eor	r3, r2, r1
	add	r3, ip, r3
.LVL127:
	ldr	r2, .L7+164
	ldr	ip, [sp, #8]
	add	r3, r1, r3, ror #21
.LVL128:
	add	r2, ip, r2
	eor	ip, r1, lr
	.loc 1 210 0
	eor	ip, ip, r3
	add	r4, r2, r4
.LVL129:
	add	r4, r4, ip
.LVL130:
	ldr	r2, .L7+168
	ldr	ip, [sp, #20]
	add	r4, r3, r4, ror #16
.LVL131:
	add	r2, ip, r2
	eor	ip, r3, r1
	add	lr, r2, lr
.LVL132:
	.loc 1 211 0
	eor	r2, ip, r4
	add	r2, lr, r2
.LVL133:
	ldr	ip, .L7+172
	ldr	lr, [sp, #28]
	add	r2, r4, r2, ror #9
.LVL134:
	add	ip, lr, ip
	eor	r10, r4, r3
	.loc 1 212 0
	eor	r10, r10, r2
	add	r1, ip, r1
.LVL135:
	ldr	ip, .L7+176
	add	r1, r1, r10
.LVL136:
	add	r10, r2, r1, ror #28
.LVL137:
	add	ip, r7, ip
	eor	r1, r2, r4
	.loc 1 213 0
	eor	r1, r1, r10
	add	r3, ip, r3
.LVL138:
	add	ip, r3, r1
.LVL139:
	add	ip, r10, ip, ror #21
.LVL140:
	.loc 1 217 0
	mvn	r3, ip
	ldr	lr, .L7+180
	eor	r1, r10, r2
	add	lr, r5, lr
	.loc 1 214 0
	eor	r1, r1, ip
	add	r4, lr, r4
.LVL141:
	add	r4, r4, r1
.LVL142:
	ldr	lr, .L7+184
	ldr	r1, [sp, #4]
	add	r4, ip, r4, ror #16
.LVL143:
	add	lr, r1, lr
	add	lr, lr, r2
.LVL144:
	eor	r1, ip, r10
	.loc 1 218 0
	mvn	r2, r4
	.loc 1 215 0
	eor	r1, r1, r4
	add	lr, lr, r1
.LVL145:
	ldr	r1, .L7+188
	add	lr, r4, lr, ror #9
.LVL146:
	add	r1, fp, r1
	.loc 1 217 0
	orr	fp, lr, r3
	.loc 1 219 0
	mvn	r3, lr
	.loc 1 217 0
	eor	fp, fp, r4
	add	r10, r1, r10
.LVL147:
	add	r1, r10, fp
.LVL148:
	add	r1, lr, r1, ror #26
.LVL149:
	.loc 1 220 0
	mvn	r10, r1
	ldr	fp, .L7+192
	.loc 1 218 0
	orr	r2, r1, r2
	add	fp, r9, fp
	eor	r2, r2, lr
	add	ip, fp, ip
.LVL150:
	add	ip, ip, r2
.LVL151:
	ldr	r9, .L7+196
	add	ip, r1, ip, ror #22
.LVL152:
	add	r9, r8, r9
	.loc 1 219 0
	orr	r3, ip, r3
	.loc 1 221 0
	mvn	r2, ip
	add	r4, r9, r4
.LVL153:
	.loc 1 219 0
	eor	r3, r3, r1
	add	r3, r4, r3
.LVL154:
	add	r3, ip, r3, ror #17
.LVL155:
	.loc 1 222 0
	mvn	r4, r3
	ldr	r9, [sp, #16]
	ldr	r8, .L7+200
	.loc 1 220 0
	orr	r10, r3, r10
	add	r8, r9, r8
	eor	r10, r10, ip
	add	lr, r8, lr
.LVL156:
	add	lr, lr, r10
.LVL157:
	add	lr, r3, lr, ror #11
.LVL158:
	.loc 1 223 0
	mvn	r8, lr
	ldr	r9, .L7+204
	.loc 1 221 0
	orr	r2, lr, r2
	add	r9, r7, r9
	eor	r2, r2, r3
	add	r1, r9, r1
.LVL159:
	add	r1, r1, r2
.LVL160:
	ldr	fp, .L7+208
	ldr	r2, [sp, #8]
	add	r1, lr, r1, ror #26
.LVL161:
	add	fp, r2, fp
	.loc 1 222 0
	orr	r4, r1, r4
	.loc 1 224 0
	mvn	r7, r1
	.loc 1 222 0
	eor	r4, r4, lr
	add	ip, fp, ip
.LVL162:
	add	ip, ip, r4
.LVL163:
	ldr	r2, .L7+212
	add	ip, r1, ip, ror #22
.LVL164:
	add	r2, r6, r2
	.loc 1 225 0
	mvn	r6, ip
	.loc 1 223 0
	orr	r8, ip, r8
	eor	r8, r8, r1
	add	r3, r2, r3
.LVL165:
	add	r3, r3, r8
.LVL166:
	add	r3, ip, r3, ror #17
.LVL167:
	.loc 1 226 0
	mvn	fp, r3
	ldr	r4, [sp]
	ldr	r8, .L7+216
	.loc 1 224 0
	orr	r7, r3, r7
	add	r8, r4, r8
	add	lr, r8, lr
.LVL168:
	eor	r7, r7, ip
	ldr	r4, [sp, #24]
	add	r7, lr, r7
.LVL169:
	ldr	r2, .L7+220
	add	r7, r3, r7, ror #11
.LVL170:
	add	r2, r4, r2
	.loc 1 225 0
	orr	r6, r7, r6
	.loc 1 227 0
	mvn	lr, r7
	add	r1, r2, r1
.LVL171:
	.loc 1 225 0
	eor	r6, r6, r3
	add	r6, r1, r6
.LVL172:
	add	r6, r7, r6, ror #26
.LVL173:
	.loc 1 228 0
	mvn	r1, r6
	ldr	r4, .L7+224
	.loc 1 226 0
	orr	fp, r6, fp
	add	r4, r5, r4
	eor	fp, fp, r7
	add	ip, r4, ip
.LVL174:
	add	ip, ip, fp
.LVL175:
	add	ip, r6, ip, ror #22
.LVL176:
	.loc 1 229 0
	mvn	r4, ip
	ldr	r5, [sp, #20]
	ldr	r2, .L7+228
	.loc 1 227 0
	orr	lr, ip, lr
	add	r2, r5, r2
	eor	lr, lr, r6
	add	r3, r2, r3
.LVL177:
	ldr	r8, [sp, #36]
	add	r3, r3, lr
.LVL178:
	ldr	r5, .L7+232
	add	r3, ip, r3, ror #17
.LVL179:
	add	r5, r8, r5
	.loc 1 228 0
	orr	r1, r3, r1
	.loc 1 230 0
	mvn	r9, r3
	.loc 1 228 0
	eor	r1, r1, ip
	add	r7, r5, r7
.LVL180:
	add	r7, r7, r1
.LVL181:
	add	r7, r3, r7, ror #11
.LVL182:
	.loc 1 231 0
	mvn	r5, r7
	ldr	lr, [sp, #12]
	ldr	r2, .L7+236
	.loc 1 229 0
	orr	r4, r7, r4
	add	r2, lr, r2
	eor	r4, r4, r3
	add	r6, r2, r6
.LVL183:
	add	r6, r6, r4
.LVL184:
	add	r6, r7, r6, ror #26
.LVL185:
	.loc 1 232 0
	mvn	r8, r6
	ldr	r2, [sp, #32]
	ldr	r1, .L7+240
	.loc 1 230 0
	orr	r9, r6, r9
	add	r1, r2, r1
	add	ip, r1, ip
.LVL186:
	eor	r9, r9, r7
	ldr	r1, [sp, #4]
	add	r9, ip, r9
.LVL187:
	ldr	lr, .L7+244
	add	r9, r6, r9, ror #22
.LVL188:
	add	lr, r1, lr
	.loc 1 231 0
	orr	r5, r9, r5
	eor	r5, r5, r6
	add	r3, lr, r3
.LVL189:
	ldr	r2, [r0, #4]
	ldr	lr, [sp, #28]
	add	r3, r3, r5
.LVL190:
	ldr	r1, .L7+248
	add	r3, r9, r3, ror #17
.LVL191:
	add	r1, lr, r1
	add	lr, r3, r2
	.loc 1 234 0
	ldr	r2, [r0]
	.loc 1 232 0
	orr	r8, r3, r8
	.loc 1 234 0
	add	r6, r6, r2
.LVL192:
	.loc 1 237 0
	ldr	r2, [r0, #12]
	.loc 1 232 0
	eor	r8, r8, r9
	add	r7, r1, r7
.LVL193:
	.loc 1 237 0
	add	r9, r9, r2
.LVL194:
	.loc 1 236 0
	ldr	r2, [r0, #8]
	.loc 1 232 0
	add	r7, r7, r8
	.loc 1 236 0
	add	r3, r3, r2
.LVL195:
	.loc 1 235 0
	add	r7, lr, r7, ror #11
	.loc 1 234 0
	str	r6, [r0]
	.loc 1 237 0
	str	r9, [r0, #12]
	.loc 1 236 0
	str	r3, [r0, #8]
	.loc 1 235 0
	str	r7, [r0, #4]
	.loc 1 238 0
	add	sp, sp, #44
	.cfi_def_cfa_offset 36
	@ sp needed
	ldmfd	sp!, {r4, r5, r6, r7, r8, r9, r10, fp, pc}
.L8:
	.align	2
.L7:
	.word	-680876936
	.word	-389564586
	.word	606105819
	.word	-1044525330
	.word	-176418897
	.word	1200080426
	.word	-1473231341
	.word	-45705983
	.word	1770035416
	.word	-1958414417
	.word	-1990404162
	.word	1804603682
	.word	-40341101
	.word	-1502002290
	.word	1236535329
	.word	-165796510
	.word	-1069501632
	.word	643717713
	.word	-373897302
	.word	-701558691
	.word	38016083
	.word	-660478335
	.word	-405537848
	.word	568446438
	.word	-1019803690
	.word	-187363961
	.word	1163531501
	.word	-1444681467
	.word	-51403784
	.word	1735328473
	.word	-1926607734
	.word	-378558
	.word	-2022574463
	.word	1839030562
	.word	-35309556
	.word	-1530992060
	.word	1272893353
	.word	-155497632
	.word	-1094730640
	.word	681279174
	.word	-358537222
	.word	-722521979
	.word	76029189
	.word	-640364487
	.word	-421815835
	.word	530742520
	.word	-995338651
	.word	-198630844
	.word	1126891415
	.word	-1416354905
	.word	-57434055
	.word	1700485571
	.word	-1894986606
	.word	-1051523
	.word	-2054922799
	.word	1873313359
	.word	-30611744
	.word	-1560198380
	.word	1309151649
	.word	-145523070
	.word	-1120210379
	.word	718787259
	.word	-343485551
	.cfi_endproc
.LFE3:
	.size	MD5Transform, .-MD5Transform
	.align	2
	.global	MD5Update
	.type	MD5Update, %function
MD5Update:
.LFB1:
	.loc 1 67 0
	.cfi_startproc
	@ args = 0, pretend = 0, frame = 0
	@ frame_needed = 0, uses_anonymous_args = 0
.LVL196:
	stmfd	sp!, {r3, r4, r5, r6, r7, r8, r9, lr}
	.cfi_def_cfa_offset 32
	.cfi_offset 3, -32
	.cfi_offset 4, -28
	.cfi_offset 5, -24
	.cfi_offset 6, -20
	.cfi_offset 7, -16
	.cfi_offset 8, -12
	.cfi_offset 9, -8
	.cfi_offset 14, -4
	.loc 1 72 0
	ldr	r4, [r0, #16]
.LVL197:
	.loc 1 73 0
	add	r3, r2, r4
	cmp	r4, r3
	str	r3, [r0, #16]
	.loc 1 74 0
	ldrhi	r3, [r0, #20]
	.loc 1 76 0
	and	r4, r4, #63
.LVL198:
	.loc 1 74 0
	addhi	r3, r3, #1
	.loc 1 76 0
	rsb	r4, r4, #64
.LVL199:
	.loc 1 74 0
	strhi	r3, [r0, #20]
	.loc 1 77 0
	cmp	r2, r4
	bcc	.L19
	mov	r5, r0
	mov	r6, r2
	mov	r7, r1
	.loc 1 82 0
	add	r0, r0, #88
.LVL200:
	mov	r2, r4
.LVL201:
	rsb	r0, r4, r0
	.loc 1 84 0
	add	r8, r5, #24
	.loc 1 82 0
	bl	memcpy
.LVL202:
	.loc 1 86 0
	rsb	r6, r4, r6
.LVL203:
	.loc 1 84 0
	mov	r1, r8
	mov	r0, r5
	bl	MD5Transform
.LVL204:
	.loc 1 89 0
	cmp	r6, #63
	.loc 1 85 0
	add	r7, r7, r4
.LVL205:
	.loc 1 89 0
	bls	.L12
	mov	r9, r6
	mov	r4, r7
.LVL206:
.L14:
	.loc 1 90 0
	mov	r3, r8
	add	ip, r4, #64
.LVL207:
.L13:
	ldr	r0, [r4]	@ unaligned
	ldr	r1, [r4, #4]	@ unaligned
	ldr	r2, [r4, #8]	@ unaligned
	ldr	lr, [r4, #12]	@ unaligned
	add	r4, r4, #16
	cmp	r4, ip
	str	r0, [r3]	@ unaligned
	str	r1, [r3, #4]	@ unaligned
	str	r2, [r3, #8]	@ unaligned
	str	lr, [r3, #12]	@ unaligned
	add	r3, r3, #16
	bne	.L13
	.loc 1 94 0
	sub	r9, r9, #64
.LVL208:
	.loc 1 92 0
	mov	r0, r5
	mov	r1, r8
	bl	MD5Transform
.LVL209:
	.loc 1 89 0
	cmp	r9, #63
.LVL210:
	bhi	.L14
	sub	r3, r6, #64
	bic	r3, r3, #63
	add	r3, r3, #64
	add	r7, r7, r3
	and	r6, r6, #63
.LVL211:
.L12:
	.loc 1 98 0
	mov	r0, r8
	mov	r1, r7
	mov	r2, r6
	.loc 1 99 0
	ldmfd	sp!, {r3, r4, r5, r6, r7, r8, r9, lr}
	.cfi_remember_state
	.cfi_restore 14
	.cfi_restore 9
	.cfi_restore 8
	.cfi_restore 7
	.cfi_restore 6
	.cfi_restore 5
	.cfi_restore 4
	.cfi_restore 3
	.cfi_def_cfa_offset 0
.LVL212:
	.loc 1 98 0
	b	memcpy
.LVL213:
.L19:
	.cfi_restore_state
	.loc 1 78 0
	add	r0, r0, #88
.LVL214:
	rsb	r0, r4, r0
.LVL215:
	.loc 1 99 0
	ldmfd	sp!, {r3, r4, r5, r6, r7, r8, r9, lr}
	.cfi_restore 14
	.cfi_restore 9
	.cfi_restore 8
	.cfi_restore 7
	.cfi_restore 6
	.cfi_restore 5
	.cfi_restore 4
	.cfi_restore 3
	.cfi_def_cfa_offset 0
.LVL216:
	.loc 1 78 0
	b	memcpy
.LVL217:
	.cfi_endproc
.LFE1:
	.size	MD5Update, .-MD5Update
	.align	2
	.global	MD5Final
	.type	MD5Final, %function
MD5Final:
.LFB2:
	.loc 1 107 0
	.cfi_startproc
	@ args = 0, pretend = 0, frame = 0
	@ frame_needed = 0, uses_anonymous_args = 0
.LVL218:
	.loc 1 112 0
	mvn	ip, #127
	.loc 1 108 0
	ldr	r3, [r1, #16]
	.loc 1 107 0
	stmfd	sp!, {r4, r5, r6, lr}
	.cfi_def_cfa_offset 16
	.cfi_offset 4, -16
	.cfi_offset 5, -12
	.cfi_offset 6, -8
	.cfi_offset 14, -4
	.loc 1 108 0
	and	r3, r3, #63
.LVL219:
	.loc 1 109 0
	add	r6, r1, #24
	.loc 1 107 0
	mov	r4, r1
	.loc 1 117 0
	rsbs	r2, r3, #55
	.loc 1 109 0
	add	r1, r6, r3
.LVL220:
	.loc 1 107 0
	mov	r5, r0
	.loc 1 112 0
	strb	ip, [r6, r3]
	add	r0, r1, #1
.LVL221:
	.loc 1 117 0
	bmi	.L24
.LVL222:
.L22:
	.loc 1 124 0
	mov	r1, #0
	bl	memset
.LVL223:
	.loc 1 129 0
	ldr	r3, [r4, #20]
	.loc 1 128 0
	ldr	r2, [r4, #16]
	.loc 1 129 0
	mov	r3, r3, asl #3
	orr	r3, r3, r2, lsr #29
	.loc 1 128 0
	mov	r2, r2, asl #3
	.loc 1 130 0
	mov	r1, r6
	.loc 1 129 0
	str	r3, [r4, #84]
	.loc 1 128 0
	str	r2, [r4, #80]
	.loc 1 130 0
	mov	r0, r4
	bl	MD5Transform
.LVL224:
	.loc 1 134 0
	mov	r2, #0
	mov	r3, r4
	.loc 1 133 0
	ldr	lr, [r4]	@ unaligned
	ldr	ip, [r4, #4]	@ unaligned
	ldr	r0, [r4, #8]	@ unaligned
	ldr	r1, [r4, #12]	@ unaligned
	str	lr, [r5]	@ unaligned
	str	ip, [r5, #4]	@ unaligned
	str	r0, [r5, #8]	@ unaligned
	str	r1, [r5, #12]	@ unaligned
	.loc 1 134 0
	strb	r2, [r3], #1
	add	r3, r3, #1
	strb	r2, [r4, #1]
	strb	r2, [r3], #1
	strb	r2, [r3]
	ldmfd	sp!, {r4, r5, r6, pc}
.LVL225:
.L24:
	.loc 1 118 0
	rsb	r2, r3, #63
.LVL226:
	mov	r1, #0
	bl	memset
.LVL227:
	.loc 1 120 0
	mov	r0, r4
	mov	r1, r6
	bl	MD5Transform
.LVL228:
	.loc 1 121 0
	mov	r0, r6
	.loc 1 120 0
	mov	r2, #56
	b	.L22
	.cfi_endproc
.LFE2:
	.size	MD5Final, .-MD5Final
.Letext0:
	.file 2 "c:\\devkitpro\\devkitarm\\arm-none-eabi\\include\\machine\\_default_types.h"
	.file 3 "c:\\devkitpro\\devkitarm\\arm-none-eabi\\include\\stdint.h"
	.file 4 "c:/devl/prboom3ds/src/md5.h"