	.arch armv6k
	.fpu softvfp
	.eabi_attribute 23, 1
	.eabi_attribute 24, 1
	.eabi_attribute 25, 1
	.eabi_attribute 26, 1
	.eabi_attribute 30, 2
	.eabi_attribute 34, 1
	.eabi_attribute 18, 4
	.file	"musplay.c"
	.text
.Ltext0:
	.cfi_sections	.debug_frame
	.align	2
	.global	mus_init_music
	.type	mus_init_music, %function
mus_init_music:
.LFB3:
	.file 1 "c:/devl/prboom3ds/arm9/source/musplay.c"
	.loc 1 898 0
	.cfi_startproc
	@ args = 0, pretend = 0, frame = 0
	@ frame_needed = 0, uses_anonymous_args = 0
	@ link register save eliminated.
	bx	lr
	.cfi_endproc
.LFE3:
	.size	mus_init_music, .-mus_init_music
	.align	2
	.global	mus_play_music
	.type	mus_play_music, %function
mus_play_music:
.LFB4:
	.loc 1 900 0
	.cfi_startproc
	@ args = 0, pretend = 0, frame = 0
	@ frame_needed = 0, uses_anonymous_args = 0
	@ link register save eliminated.
.LVL0:
	bx	lr
	.cfi_endproc
.LFE4:
	.size	mus_play_music, .-mus_play_music
	.align	2
	.global	mus_stop_music
	.type	mus_stop_music, %function
mus_stop_music:
.LFB5:
	.loc 1 902 0
	.cfi_startproc
	@ args = 0, pretend = 0, frame = 0
	@ frame_needed = 0, uses_anonymous_args = 0
	@ link register save eliminated.
	bx	lr
	.cfi_endproc
.LFE5:
	.size	mus_stop_music, .-mus_stop_music
	.align	2
	.global	mus_update_volume
	.type	mus_update_volume, %function
mus_update_volume:
.LFB6:
	.loc 1 904 0
	.cfi_startproc
	@ args = 0, pretend = 0, frame = 0
	@ frame_needed = 0, uses_anonymous_args = 0
	@ link register save eliminated.
	bx	lr
	.cfi_endproc
.LFE6:
	.size	mus_update_volume, .-mus_update_volume
	.global	playingChannels
	.comm	MLtime,4,4
	.global	OPLchannels
	.data
	.align	2
	.type	OPLchannels, %object
	.size	OPLchannels, 4
OPLchannels:
	.word	9
	.bss
	.align	2
	.type	playingChannels, %object
	.size	playingChannels, 4
playingChannels:
	.space	4
	.text
.Letext0:
	.file 2 "c:\\devkitpro\\devkitarm\\arm-none-eabi\\include\\machine\\_default_types.h"
	.file 3 "c:\\devkitpro\\devkitarm\\arm-none-eabi\\include\\stdint.h"
	.file 4 "c:/devl/prboom3ds/arm9/source/musplay.h"
	.file 5 "c:/devkitPro/libctru/include/3ds/types.h"