	.arch armv6k
	.fpu softvfp
	.eabi_attribute 23, 1
	.eabi_attribute 24, 1
	.eabi_attribute 25, 1
	.eabi_attribute 26, 1
	.eabi_attribute 30, 2
	.eabi_attribute 34, 1
	.eabi_attribute 18, 4
	.file	"p_enemy.c"
	.text
.Ltext0:
	.cfi_sections	.debug_frame
	.align	2
	.type	P_RecursiveSound, %function
P_RecursiveSound:
.LFB4:
	.file 1 "c:/devl/prboom3ds/src/p_enemy.c"
	.loc 1 87 0
	.cfi_startproc
	@ args = 0, pretend = 0, frame = 0
	@ frame_needed = 0, uses_anonymous_args = 0
.LVL0:
	.loc 1 91 0
	ldr	r3, .L24
	ldr	ip, [r0, #88]
	ldr	r3, [r3]
	.loc 1 87 0
	stmfd	sp!, {r4, r5, r6, r7, r8, r9, r10, lr}
	.cfi_def_cfa_offset 32
	.cfi_offset 4, -32
	.cfi_offset 5, -28
	.cfi_offset 6, -24
	.cfi_offset 7, -20
	.cfi_offset 8, -16
	.cfi_offset 9, -12
	.cfi_offset 10, -8
	.cfi_offset 14, -4
	.loc 1 91 0
	cmp	ip, r3
	beq	.L2
	add	ip, r1, #1
.L5:
	mov	r6, r0
	.loc 1 94 0
	str	r3, [r0, #88]
	.loc 1 95 0
	str	ip, [r0, #28]
	mov	r7, r1
	.loc 1 96 0
	add	r0, r0, #32
.LVL1:
	mov	r1, r2
.LVL2:
	mov	r8, r2
	bl	P_SetTarget
.LVL3:
	.loc 1 98 0
	ldr	r2, [r6, #148]
	cmp	r2, #0
	ble	.L20
	mov	r4, #0
.LBB80:
	.loc 1 108 0
	ldr	r9, .L24+4
	.loc 1 111 0
	ldr	r10, .L24+8
	b	.L3
.LVL4:
.L7:
.LBE80:
	.loc 1 98 0 discriminator 2
	add	r4, r4, #1
.LVL5:
	cmp	r2, r4
	ble	.L21
.LVL6:
.L3:
.LBB81:
	.loc 1 101 0
	ldr	r3, [r6, #152]
	ldr	r5, [r3, r4, asl #2]
.LVL7:
	.loc 1 103 0
	ldrh	r3, [r5, #20]
	tst	r3, #4
	beq	.L7
	.loc 1 106 0
	mov	r0, r5
	bl	P_LineOpening
.LVL8:
	.loc 1 108 0
	ldr	r3, [r9]
	cmp	r3, #0
	ble	.L17
	.loc 1 111 0
	ldrh	r3, [r5, #26]
	ldr	r2, [r10]
	add	r3, r3, r3, asl #4
	add	r3, r2, r3, asl #2
	ldr	r3, [r3, #16]
	.loc 1 113 0
	ldrh	r1, [r5, #20]
	.loc 1 111 0
	cmp	r3, r6
	moveq	r3, #26
	movne	r3, #24
	add	r5, r5, r3
.LVL9:
	ldrh	r3, [r5, #2]
	.loc 1 113 0
	tst	r1, #64
	.loc 1 111 0
	add	r3, r3, r3, asl #4
	add	r2, r2, r3, asl #2
	ldr	r0, [r2, #16]
.LVL10:
	.loc 1 113 0
	beq	.L22
	.loc 1 116 0
	cmp	r7, #0
	beq	.L23
.LVL11:
.L17:
	ldr	r2, [r6, #148]
.LBE81:
	.loc 1 98 0
	add	r4, r4, #1
.LVL12:
	cmp	r2, r4
	bgt	.L3
.L21:
	ldmfd	sp!, {r4, r5, r6, r7, r8, r9, r10, pc}
.LVL13:
.L22:
.LBB82:
	.loc 1 114 0
	mov	r2, r8
	mov	r1, r7
	bl	P_RecursiveSound
.LVL14:
	ldr	r2, [r6, #148]
	b	.L7
.LVL15:
.L2:
.LBE82:
	.loc 1 91 0 discriminator 1
	ldr	lr, [r0, #28]
	add	ip, r1, #1
	cmp	lr, ip
	bgt	.L5
	ldmfd	sp!, {r4, r5, r6, r7, r8, r9, r10, pc}
.LVL16:
.L23:
.LBB83:
	.loc 1 117 0
	mov	r1, #1
	mov	r2, r8
	bl	P_RecursiveSound
.LVL17:
	b	.L17
.LVL18:
.L20:
	ldmfd	sp!, {r4, r5, r6, r7, r8, r9, r10, pc}
.L25:
	.align	2
.L24:
	.word	validcount
	.word	openrange
	.word	sides
.LBE83:
	.cfi_endproc
.LFE4:
	.size	P_RecursiveSound, .-P_RecursiveSound
	.align	2
	.type	P_IsVisible, %function
P_IsVisible:
.LFB18:
	.loc 1 710 0
	.cfi_startproc
	@ args = 0, pretend = 0, frame = 0
	@ frame_needed = 0, uses_anonymous_args = 0
.LVL19:
	stmfd	sp!, {r4, r5, r6, lr}
	.cfi_def_cfa_offset 16
	.cfi_offset 4, -16
	.cfi_offset 5, -12
	.cfi_offset 6, -8
	.cfi_offset 14, -4
	.loc 1 711 0
	subs	r6, r2, #0
	.loc 1 710 0
	mov	r4, r0
	mov	r5, r1
	.loc 1 711 0
	bne	.L28
.LBB84:
	.loc 1 713 0
	ldr	r2, [r5, #24]
.LVL20:
	ldr	r3, [r5, #28]
	ldr	r0, [r0, #24]
.LVL21:
	ldr	r1, [r4, #28]
.LVL22:
	bl	R_PointToAngle2
.LVL23:
	mvn	r3, #1073741824
	ldr	r2, [r4, #44]
	rsb	r3, r2, r3
	.loc 1 715 0
	add	r0, r3, r0
.LVL24:
	cmn	r0, #-2147483646
	bhi	.L28
	.loc 1 716 0 discriminator 1
	ldr	r2, [r4, #24]
	ldr	r3, [r4, #28]
	ldr	r0, [r5, #24]
	ldr	r1, [r5, #28]
	rsb	r0, r2, r0
	rsb	r1, r3, r1
	bl	P_AproxDistance
.LVL25:
	.loc 1 715 0 discriminator 1
	cmp	r0, #4194304
	bgt	.L30
.L28:
.LBE84:
	.loc 1 719 0
	mov	r0, r4
	mov	r1, r5
	.loc 1 720 0
	ldmfd	sp!, {r4, r5, r6, lr}
	.cfi_remember_state
	.cfi_restore 14
	.cfi_restore 6
	.cfi_restore 5
	.cfi_restore 4
	.cfi_def_cfa_offset 0
.LVL26:
	.loc 1 719 0
	b	P_CheckSight
.LVL27:
.L30:
	.cfi_restore_state
	.loc 1 720 0
	mov	r0, r6
	ldmfd	sp!, {r4, r5, r6, pc}
	.cfi_endproc
.LFE18:
	.size	P_IsVisible, .-P_IsVisible
	.align	2
	.type	P_LookForPlayers, %function
P_LookForPlayers:
.LFB20:
	.loc 1 778 0
	.cfi_startproc
	@ args = 0, pretend = 0, frame = 8
	@ frame_needed = 0, uses_anonymous_args = 0
.LVL28:
	.loc 1 782 0
	ldrd	r2, [r0, #120]
	mov	r2, #0
	.loc 1 778 0
	stmfd	sp!, {r4, r5, r6, r7, r8, r9, r10, fp, lr}
	.cfi_def_cfa_offset 36
	.cfi_offset 4, -36
	.cfi_offset 5, -32
	.cfi_offset 6, -28
	.cfi_offset 7, -24
	.cfi_offset 8, -20
	.cfi_offset 9, -16
	.cfi_offset 10, -12
	.cfi_offset 11, -8
	.cfi_offset 14, -4
	.loc 1 782 0
	and	r3, r3, #4
	orrs	r3, r2, r3
	.loc 1 778 0
	sub	sp, sp, #12
	.cfi_def_cfa_offset 48
	.loc 1 778 0
	mov	r4, r0
	mov	r10, r1
	.loc 1 782 0
	beq	.L69
	mov	r9, #0
	ldr	r5, .L74
	ldr	r8, .L74+4
.LVL29:
.L32:
	.loc 1 778 0
	mov	r6, #0
	ldr	r7, .L74+4
.LVL30:
.L40:
.LBB85:
	.loc 1 794 0
	ldr	r3, [r5, r6, asl #2]
	cmp	r3, #0
	beq	.L34
	.loc 1 794 0 is_stmt 0 discriminator 1
	ldrb	r3, [r7, #4]	@ zero_extendqisi2
	cmp	r3, #0
	bne	.L34
	.loc 1 794 0 discriminator 2
	cmp	r9, #0
	bne	.L38
	.loc 1 795 0 is_stmt 1
	mov	r0, r4
	ldr	r1, [r7]
	mov	r2, r10
	bl	P_IsVisible
.LVL31:
	cmp	r0, #0
	bne	.L38
.L34:
	.loc 1 793 0
	add	r6, r6, #1
.LVL32:
	cmp	r6, #4
	add	r7, r7, #284
	bne	.L40
.LVL33:
	.loc 1 792 0 discriminator 2
	cmp	r9, #1
	bne	.L48
.LVL34:
.L44:
	.loc 1 811 0
	mov	r0, #0
.LVL35:
.L39:
.LBE85:
	.loc 1 867 0
	add	sp, sp, #12
	.cfi_remember_state
	.cfi_def_cfa_offset 36
	@ sp needed
	ldmfd	sp!, {r4, r5, r6, r7, r8, r9, r10, fp, pc}
.LVL36:
.L69:
	.cfi_restore_state
	.loc 1 819 0
	ldr	r3, .L74+8
	.loc 1 815 0
	ldrh	r2, [r0, #160]
	.loc 1 819 0
	ldrb	r3, [r3]	@ zero_extendqisi2
	.loc 1 815 0
	sxth	r1, r2
.LVL37:
	.loc 1 821 0
	sub	r3, r3, #7
	cmp	r3, #3
	.loc 1 815 0
	sub	r9, r1, #1
	and	r9, r9, #3
.LVL38:
	.loc 1 821 0
	movhi	r3, #2
	bls	.L70
.L41:
.LVL39:
	.loc 1 817 0
	mov	lr, #0
	.loc 1 851 0
	mov	fp, #284
	ldr	r5, .L74
	ldr	r8, .L74+4
	b	.L46
.LVL40:
.L72:
	.loc 1 854 0
	ldr	r1, [r8, r1]
	mov	r0, r4
	mov	r2, r10
	str	r3, [sp, #4]
	bl	P_IsVisible
.LVL41:
	cmp	r0, #0
	bne	.L45
	.loc 1 829 0
	mov	lr, r6
	ldrh	r2, [r4, #160]
	ldr	r3, [sp, #4]
.L42:
.LVL42:
	.loc 1 823 0
	add	r2, r2, #1
	and	r2, r2, #3
	strh	r2, [r4, #160]	@ movhi
	sxth	r1, r2
.LVL43:
.L46:
	.loc 1 825 0
	ldr	r0, [r5, r1, asl #2]
	.loc 1 829 0
	add	r6, lr, #1
.LVL44:
	.loc 1 825 0
	cmp	r0, #0
	beq	.L42
	.loc 1 829 0
	cmp	lr, r3
	cmpne	r9, r1
	beq	.L71
	.loc 1 851 0
	mul	r1, fp, r1
.LVL45:
	add	r7, r8, r1
	ldr	r0, [r7, #40]
	cmp	r0, #0
	bgt	.L72
	.loc 1 829 0
	mov	lr, r6
	b	.L42
.LVL46:
.L48:
.LBB86:
	mov	r9, #1
.LVL47:
	b	.L32
.LVL48:
.L70:
.LBE86:
	.loc 1 820 0
	ldr	r3, .L74+12
	ldr	r3, [r3]
	.loc 1 821 0
	cmp	r3, #0
	moveq	r3, #2
	movne	r3, #4
	b	.L41
.LVL49:
.L45:
	.loc 1 857 0
	ldr	r1, [r7]
	add	r0, r4, #144
	bl	P_SetTarget
.LVL50:
	.loc 1 862 0
	ldr	r3, .L74+16
	ldr	r3, [r3, #48]
	cmp	r3, #0
	bne	.L37
	.loc 1 863 0
	mov	r3, #60
	.loc 1 865 0
	mov	r0, #1
	.loc 1 863 0
	strh	r3, [r4, #150]	@ movhi
	.loc 1 867 0
	add	sp, sp, #12
	.cfi_remember_state
	.cfi_def_cfa_offset 36
	@ sp needed
	ldmfd	sp!, {r4, r5, r6, r7, r8, r9, r10, fp, pc}
.LVL51:
.L38:
	.cfi_restore_state
.LBB87:
	.loc 1 797 0
	mov	r3, #284
	mul	r6, r3, r6
.LVL52:
	add	r0, r4, #144
	ldr	r1, [r8, r6]
	bl	P_SetTarget
.LVL53:
	.loc 1 802 0
	ldr	r3, [r4, #108]
	ldr	r2, [r3, #44]
	cmp	r2, #0
	bne	.L73
.LVL54:
.L37:
	.loc 1 808 0
	mov	r0, #1
.LBE87:
	.loc 1 867 0
	add	sp, sp, #12
	.cfi_remember_state
	.cfi_def_cfa_offset 36
	@ sp needed
	ldmfd	sp!, {r4, r5, r6, r7, r8, r9, r10, fp, pc}
.LVL55:
.L71:
	.cfi_restore_state
	.loc 1 836 0
	ldr	r3, .L74+8
	ldrb	r3, [r3]	@ zero_extendqisi2
	sub	r3, r3, #7
	cmp	r3, #3
	bhi	.L44
	.loc 1 836 0 is_stmt 0 discriminator 1
	ldr	r3, .L74+12
	ldr	r3, [r3]
	cmp	r3, #0
	beq	.L44
	.loc 1 838 0 is_stmt 1
	ldr	r3, [r4, #176]
	cmp	r3, #0
	beq	.L44
	.loc 1 838 0 is_stmt 0 discriminator 1
	ldr	r2, [r3, #132]
	cmp	r2, #0
	ble	.L44
	.loc 1 841 0 is_stmt 1
	mov	r2, #0
	.loc 1 840 0
	str	r3, [r4, #144]
	.loc 1 841 0
	str	r2, [r4, #176]
	.loc 1 842 0
	mov	r0, #1
	b	.L39
.LVL56:
.L73:
.LBB88:
	.loc 1 804 0
	ldrh	r1, [r3, #12]
	mov	r0, r4
	bl	P_SetMobjState
.LVL57:
	.loc 1 805 0
	ldrd	r2, [r4, #120]
	bic	r2, r2, #64
	.loc 1 808 0
	mov	r0, #1
	.loc 1 805 0
	strd	r2, [r4, #120]
	b	.L39
.L75:
	.align	2
.L74:
	.word	playeringame
	.word	players
	.word	compatibility_level
	.word	monsters_remember
	.word	comp
.LBE88:
	.cfi_endproc
.LFE20:
	.size	P_LookForPlayers, .-P_LookForPlayers
	.align	2
	.type	PIT_FindTarget, %function
PIT_FindTarget:
.LFB19:
	.loc 1 733 0
	.cfi_startproc
	@ args = 0, pretend = 0, frame = 0
	@ frame_needed = 0, uses_anonymous_args = 0
.LVL58:
	.loc 1 736 0
	mov	r2, #0
	.loc 1 733 0
	stmfd	sp!, {r3, r4, r5, r6, r7, r8, r9, lr}
	.cfi_def_cfa_offset 32
	.cfi_offset 3, -32
	.cfi_offset 4, -28
	.cfi_offset 5, -24
	.cfi_offset 6, -20
	.cfi_offset 7, -16
	.cfi_offset 8, -12
	.cfi_offset 9, -8
	.cfi_offset 14, -4
	.loc 1 736 0
	ldrd	r4, [r0, #120]
	.loc 1 734 0
	ldr	r7, .L96
	ldr	r6, [r7]
.LVL59:
	.loc 1 736 0
	ldrd	r8, [r6, #120]
	eor	r3, r5, r9
	and	r3, r3, #4
	orrs	r3, r2, r3
	beq	.L79
	.loc 1 736 0 is_stmt 0 discriminator 1
	ldr	r3, [r0, #132]
	cmp	r3, #0
	ble	.L79
	.loc 1 737 0 is_stmt 1 discriminator 2
	mov	r5, #0
	and	r4, r4, #4194304
	.loc 1 736 0 discriminator 2
	orrs	r3, r4, r5
	bne	.L80
	.loc 1 737 0
	ldrb	r3, [r0, #104]	@ zero_extendqisi2
	cmp	r3, #18
	beq	.L80
.LVL60:
.L79:
	.loc 1 738 0
	mov	r0, #1
	ldmfd	sp!, {r3, r4, r5, r6, r7, r8, r9, pc}
.LVL61:
.L80:
.LBB89:
	.loc 1 743 0
	ldr	r9, [r0, #144]
.LVL62:
	mov	r8, r0
	.loc 1 744 0
	cmp	r9, #0
	beq	.L83
	.loc 1 744 0 is_stmt 0 discriminator 1
	ldr	r3, [r9, #144]
	cmp	r3, r0
	beq	.L95
.LVL63:
.L83:
.LBE89:
	.loc 1 751 0 is_stmt 1
	ldr	r2, [r7, #4]
	mov	r0, r6
	mov	r1, r8
	bl	P_IsVisible
.LVL64:
	cmp	r0, #0
	beq	.L79
	.loc 1 754 0
	add	r0, r6, #176
	ldr	r1, [r6, #144]!
.LVL65:
	bl	P_SetTarget
.LVL66:
	.loc 1 755 0
	mov	r0, r6
	mov	r1, r8
	bl	P_SetTarget
.LVL67:
.LBB90:
	.loc 1 761 0
	ldrd	r2, [r8, #120]
	mov	r2, #0
	and	r3, r3, #4
	.loc 1 762 0
	orrs	r3, r2, r3
.LVL68:
	.loc 1 764 0
	movne	ip, #48
	moveq	ip, #72
	.loc 1 763 0
	ldr	r2, [r8, #12]
	ldr	r1, [r8, #16]
	.loc 1 764 0
	ldr	r3, .L96+4
	.loc 1 763 0
	str	r2, [r1, #12]
	.loc 1 764 0
	add	r3, r3, ip
	.loc 1 763 0
	str	r1, [r2, #16]
	.loc 1 764 0
	ldr	r2, [r3, #16]
.LBE90:
	.loc 1 768 0
	mov	r0, #0
.LBB91:
	.loc 1 764 0
	str	r2, [r8, #16]
	str	r8, [r2, #12]
	.loc 1 765 0
	str	r3, [r8, #12]
	str	r8, [r3, #16]
.LBE91:
	.loc 1 769 0
	ldmfd	sp!, {r3, r4, r5, r6, r7, r8, r9, pc}
.LVL69:
.L95:
.LBB92:
	.loc 1 745 0 discriminator 2
	mov	r0, #54
.LVL70:
	bl	P_Random
.LVL71:
	.loc 1 744 0 discriminator 2
	cmp	r0, #100
	ble	.L83
	.loc 1 746 0
	ldrd	r2, [r8, #120]
	ldrd	r4, [r9, #120]
	mov	r2, #0
	eor	r3, r3, r5
	and	r3, r3, #4
	.loc 1 745 0
	orrs	r3, r2, r3
	beq	.L83
	.loc 1 747 0
	ldr	r3, [r9, #108]
	ldr	r2, [r9, #132]
	.loc 1 746 0
	ldr	r3, [r3, #8]
	cmp	r3, r2, asl #1
	bgt	.L83
	b	.L79
.L97:
	.align	2
.L96:
	.word	.LANCHOR0
	.word	thinkerclasscap
.LBE92:
	.cfi_endproc
.LFE19:
	.size	PIT_FindTarget, .-PIT_FindTarget
	.align	2
	.type	P_CheckMeleeRange, %function
P_CheckMeleeRange:
.LFB6:
	.loc 1 137 0
	.cfi_startproc
	@ args = 0, pretend = 0, frame = 0
	@ frame_needed = 0, uses_anonymous_args = 0
.LVL72:
	stmfd	sp!, {r3, r4, r5, r6, r7, lr}
	.cfi_def_cfa_offset 24
	.cfi_offset 3, -24
	.cfi_offset 4, -20
	.cfi_offset 5, -16
	.cfi_offset 6, -12
	.cfi_offset 7, -8
	.cfi_offset 14, -4
	.loc 1 138 0
	ldr	r4, [r0, #144]
.LVL73:
	.loc 1 143 0
	cmp	r4, #0
	beq	.L100
	.loc 1 141 0
	ldrd	r2, [r0, #120]
	ldrd	r6, [r4, #120]
	mov	r2, #0
	and	r3, r3, r7
	and	r3, r3, #4
	orrs	r3, r2, r3
	bne	.L102
	mov	r5, r0
	.loc 1 142 0 discriminator 1
	ldr	r1, [r4, #28]
	ldr	r3, [r5, #28]
	ldr	r2, [r5, #24]
	ldr	r0, [r4, #24]
.LVL74:
	rsb	r1, r3, r1
	rsb	r0, r2, r0
	bl	P_AproxDistance
.LVL75:
	.loc 1 143 0 discriminator 1
	ldr	r3, [r4, #108]
	.loc 1 142 0 discriminator 1
	ldr	r3, [r3, #64]
	sub	r3, r3, #-67108863
	sub	r3, r3, #64225280
	.loc 1 141 0 discriminator 1
	cmp	r3, r0
	bge	.L104
.LVL76:
.L102:
	.loc 1 143 0
	mov	r0, #0
	.loc 1 145 0
	ldmfd	sp!, {r3, r4, r5, r6, r7, pc}
.LVL77:
.L104:
	.loc 1 144 0 discriminator 3
	mov	r0, r5
	mov	r1, r4
	bl	P_CheckSight
.LVL78:
	.loc 1 143 0 discriminator 3
	adds	r0, r0, #0
	movne	r0, #1
	ldmfd	sp!, {r3, r4, r5, r6, r7, pc}
.LVL79:
.L100:
	.loc 1 143 0 is_stmt 0
	mov	r0, r4
.LVL80:
	ldmfd	sp!, {r3, r4, r5, r6, r7, pc}
	.cfi_endproc
.LFE6:
	.size	P_CheckMeleeRange, .-P_CheckMeleeRange
	.align	2
	.type	PIT_AvoidDropoff, %function
PIT_AvoidDropoff:
.LFB15:
	.loc 1 574 0 is_stmt 1
	.cfi_startproc
	@ args = 0, pretend = 0, frame = 0
	@ frame_needed = 0, uses_anonymous_args = 0
.LVL81:
	stmfd	sp!, {r4, r5, r6, lr}
	.cfi_def_cfa_offset 16
	.cfi_offset 4, -16
	.cfi_offset 5, -12
	.cfi_offset 6, -8
	.cfi_offset 14, -4
	.loc 1 575 0
	ldr	r5, [r0, #56]
	cmp	r5, #0
	beq	.L106
	.loc 1 576 0 discriminator 1
	ldr	r3, .L115
	.loc 1 575 0 discriminator 1
	ldr	r2, [r0, #40]
	ldr	r1, [r3, #12]
	cmp	r1, r2
	ble	.L106
	.loc 1 576 0
	ldr	r1, [r3, #8]
	ldr	r2, [r0, #44]
	cmp	r1, r2
	bge	.L106
	.loc 1 577 0
	ldr	r1, [r3]
	ldr	r2, [r0, #36]
	cmp	r1, r2
	ble	.L106
	.loc 1 578 0
	ldr	r1, [r3, #4]
	ldr	r2, [r0, #32]
	cmp	r1, r2
	bge	.L106
	mov	r4, r0
	.loc 1 580 0
	mov	r0, r3
.LVL82:
	mov	r1, r4
	bl	P_BoxOnLineSide
.LVL83:
	.loc 1 579 0
	cmn	r0, #1
	beq	.L113
.LVL84:
.L106:
	.loc 1 603 0
	mov	r0, #1
	ldmfd	sp!, {r4, r5, r6, pc}
.LVL85:
.L113:
.LBB93:
	.loc 1 589 0
	ldr	r6, .L115+4
	.loc 1 583 0
	ldr	r1, [r5, #12]
	.loc 1 589 0
	ldr	r2, [r6, #8]
	.loc 1 582 0
	ldr	r3, [r4, #52]
	.loc 1 589 0
	cmp	r1, r2
	.loc 1 582 0
	ldr	r3, [r3, #12]
.LVL86:
	.loc 1 589 0
	beq	.L114
.L107:
	.loc 1 592 0
	cmp	r3, r2
	bne	.L106
	.loc 1 592 0 is_stmt 0 discriminator 1
	sub	r3, r3, #1572864
.LVL87:
	cmp	r1, r3
	bge	.L106
	.loc 1 593 0 is_stmt 1
	mov	r2, #0
	ldr	r0, [r4, #12]
	mov	r3, r2
	ldr	r1, [r4, #16]
.LVL88:
	bl	R_PointToAngle2
.LVL89:
.L108:
	.loc 1 599 0
	mov	r3, r0, lsr #19
	ldr	r1, .L115+8
	.loc 1 600 0
	add	r2, r3, #2048
	ldr	r0, [r1, r2, asl #2]
.LVL90:
	.loc 1 599 0
	ldr	r1, [r1, r3, asl #2]
	.loc 1 600 0
	ldr	r2, [r6, #16]
	.loc 1 599 0
	ldr	r3, [r6, #12]
	.loc 1 600 0
	add	r2, r2, r0, asl #5
	.loc 1 599 0
	sub	r3, r3, r1, asl #5
	.loc 1 600 0
	str	r2, [r6, #16]
	.loc 1 599 0
	str	r3, [r6, #12]
	b	.L106
.LVL91:
.L114:
	.loc 1 589 0 discriminator 1
	sub	r0, r1, #1572864
	cmp	r3, r0
	bge	.L107
	.loc 1 590 0
	mov	r0, #0
	ldr	r2, [r4, #12]
	mov	r1, r0
.LVL92:
	ldr	r3, [r4, #16]
.LVL93:
	bl	R_PointToAngle2
.LVL94:
	b	.L108
.L116:
	.align	2
.L115:
	.word	tmbbox
	.word	.LANCHOR0
	.word	finesine
.LBE93:
	.cfi_endproc
.LFE15:
	.size	PIT_AvoidDropoff, .-PIT_AvoidDropoff
	.align	2
	.type	PIT_VileCheck, %function
PIT_VileCheck:
.LFB44:
	.loc 1 1572 0
	.cfi_startproc
	@ args = 0, pretend = 0, frame = 0
	@ frame_needed = 0, uses_anonymous_args = 0
.LVL95:
	stmfd	sp!, {r3, r4, r5, r6, r7, r8, r9, lr}
	.cfi_def_cfa_offset 32
	.cfi_offset 3, -32
	.cfi_offset 4, -28
	.cfi_offset 5, -24
	.cfi_offset 6, -20
	.cfi_offset 7, -16
	.cfi_offset 8, -12
	.cfi_offset 9, -8
	.cfi_offset 14, -4
	.loc 1 1576 0
	ldrd	r4, [r0, #120]
	mov	r7, #0
	and	r6, r4, #1048576
	orrs	r2, r6, r7
	beq	.L125
	.loc 1 1579 0
	ldr	r2, [r0, #112]
	cmn	r2, #1
	beq	.L127
.L125:
	.loc 1 1577 0
	mov	r0, #1
.LVL96:
	.loc 1 1628 0
	ldmfd	sp!, {r3, r4, r5, r6, r7, r8, r9, pc}
.LVL97:
.L127:
	.loc 1 1582 0
	ldr	lr, [r0, #108]
	ldr	r2, [lr, #96]
	cmp	r2, #0
	beq	.L125
	.loc 1 1587 0
	ldr	r2, .L129
	ldr	r1, [r0, #24]
	ldr	r2, [r2]
	.loc 1 1585 0
	ldr	r6, .L129+4
	.loc 1 1587 0
	rsb	r2, r2, r1
.LBB94:
.LBB95:
	.file 2 "c:/devl/prboom3ds/src/m_fixed.h"
	.loc 2 59 0
	mov	ip, r2, asr #31
.LBE95:
.LBE94:
	.loc 1 1585 0
	ldr	r7, [r6, #376]
	ldr	r6, [lr, #64]
.LBB97:
.LBB96:
	.loc 2 60 0
	eor	r2, r2, ip
	rsb	r2, ip, r2
.LBE96:
.LBE97:
	.loc 1 1585 0
	add	r7, r6, r7
.LVL98:
	.loc 1 1587 0
	cmp	r7, r2
	blt	.L125
	.loc 1 1587 0 is_stmt 0 discriminator 1
	ldr	ip, .L129+8
.LVL99:
	ldr	r2, [r0, #28]
	ldr	ip, [ip]
	rsb	ip, ip, r2
.LVL100:
.LBB98:
.LBB99:
	.loc 2 59 0 is_stmt 1 discriminator 1
	mov	r8, ip, asr #31
.LVL101:
	.loc 2 60 0 discriminator 1
	eor	ip, ip, r8
.LVL102:
	rsb	ip, r8, ip
.LBE99:
.LBE98:
	.loc 1 1587 0 discriminator 1
	cmp	r7, ip
	blt	.L125
	.loc 1 1603 0
	mov	ip, #0
	.loc 1 1604 0
	ldr	r8, .L129+12
.LVL103:
	.loc 1 1602 0
	ldr	r7, .L129+16
.LVL104:
	.loc 1 1604 0
	ldr	r8, [r8, #8]
	.loc 1 1602 0
	str	r0, [r7]
	.loc 1 1604 0
	cmp	r8, ip
	.loc 1 1603 0
	str	ip, [r0, #92]
	str	ip, [r0, #88]
	.loc 1 1604 0
	bne	.L128
.LBB100:
	.loc 1 1616 0
	ldr	ip, [lr, #68]
	.loc 1 1618 0
	orr	r4, r4, #2
	.loc 1 1614 0
	ldr	r9, [r0, #84]
.LVL105:
	.loc 1 1615 0
	ldr	r8, [r0, #80]
.LVL106:
	.loc 1 1618 0
	strd	r4, [r0, #120]
	.loc 1 1616 0
	str	ip, [r0, #84]
	.loc 1 1617 0
	str	r6, [r0, #80]
	.loc 1 1619 0
	bl	P_CheckPosition
.LVL107:
	.loc 1 1620 0
	ldr	r3, [r7]
	.loc 1 1622 0
	ldrd	r4, [r3, #120]
	bic	r4, r4, #2
	strd	r4, [r3, #120]
	.loc 1 1620 0
	str	r9, [r3, #84]
	.loc 1 1621 0
	str	r8, [r3, #80]
.LVL108:
.L120:
.LBE100:
	.loc 1 1625 0
	clz	r0, r0
.LVL109:
	mov	r0, r0, lsr #5
	ldmfd	sp!, {r3, r4, r5, r6, r7, r8, r9, pc}
.LVL110:
.L128:
	.loc 1 1606 0
	ldr	ip, [r0, #84]
	mov	ip, ip, asl #2
	str	ip, [r0, #84]
	.loc 1 1607 0
	bl	P_CheckPosition
.LVL111:
	.loc 1 1608 0
	ldr	r2, [r7]
	ldr	r3, [r2, #84]
	mov	r3, r3, asr #2
	str	r3, [r2, #84]
	b	.L120
.L130:
	.align	2
.L129:
	.word	viletryx
	.word	mobjinfo
	.word	viletryy
	.word	comp
	.word	corpsehit
	.cfi_endproc
.LFE44:
	.size	PIT_VileCheck, .-PIT_VileCheck
	.align	2
	.type	P_LookForMonsters, %function
P_LookForMonsters:
.LFB21:
	.loc 1 878 0
	.cfi_startproc
	@ args = 0, pretend = 0, frame = 8
	@ frame_needed = 0, uses_anonymous_args = 0
.LVL112:
	stmfd	sp!, {r4, r5, r6, r7, r8, r9, r10, fp, lr}
	.cfi_def_cfa_offset 36
	.cfi_offset 4, -36
	.cfi_offset 5, -32
	.cfi_offset 6, -28
	.cfi_offset 7, -24
	.cfi_offset 8, -20
	.cfi_offset 9, -16
	.cfi_offset 10, -12
	.cfi_offset 11, -8
	.cfi_offset 14, -4
	.loc 1 881 0
	ldr	r3, .L178
	.loc 1 878 0
	sub	sp, sp, #12
	.cfi_def_cfa_offset 48
	.loc 1 881 0
	ldrb	lr, [r3]	@ zero_extendqisi2
	cmp	lr, #6
	bls	.L135
	mov	ip, r1
	.loc 1 884 0
	ldr	r1, [r0, #176]
.LVL113:
	mov	r5, r0
	cmp	r1, #0
	beq	.L134
	.loc 1 884 0 is_stmt 0 discriminator 1
	ldr	r3, [r1, #132]
	cmp	r3, #0
	ble	.L134
	.loc 1 884 0 discriminator 2
	ldr	r3, .L178+4
	ldr	r3, [r3]
	cmp	r3, #0
	beq	.L134
	.loc 1 885 0 is_stmt 1 discriminator 3
	ldrd	r2, [r1, #120]
	ldrd	r6, [r0, #120]
	mov	r2, #0
	and	r3, r3, r7
	and	r3, r3, #4
	.loc 1 884 0 discriminator 3
	orrs	r3, r2, r3
	beq	.L171
.L134:
	.loc 1 893 0
	cmp	lr, #10
	bls	.L135
.LVL114:
.LBB106:
.LBB107:
	.loc 1 897 0
	ldrd	r2, [r5, #120]
	mov	r2, #0
	and	r3, r3, #4
	orrs	r3, r2, r3
	movne	r8, #3
	moveq	r8, #2
	mov	r3, r8, asl #1
	add	r6, r3, r8
	str	r3, [sp]
	ldr	r3, .L178+8
	add	r6, r3, r6, asl #3
.LVL115:
	.loc 1 901 0
	ldr	r3, [r6, #12]
	cmp	r6, r3
	beq	.L135
.LBB108:
	.loc 1 904 0
	ldr	r3, .L178+12
	.loc 1 903 0
	ldr	r2, .L178+16
	.loc 1 904 0
	ldr	r7, [r3]
	ldr	r3, [r5, #28]
	.loc 1 903 0
	ldr	r4, [r2]
	ldr	r2, [r5, #24]
	.loc 1 904 0
	rsb	r7, r7, r3
	mov	r3, r7, asr #23
	.loc 1 903 0
	rsb	r4, r4, r2
	.loc 1 904 0
	mov	r1, r3
	.loc 1 903 0
	mov	r4, r4, asr #23
.LVL116:
	.loc 1 904 0
	mov	r7, r3
.LVL117:
	.loc 1 907 0
	ldr	r3, .L178+20
	.loc 1 912 0
	mov	r0, r4
.LVL118:
	ldr	r2, .L178+24
	.loc 1 908 0
	stmia	r3, {r5, ip}
	.loc 1 912 0
	bl	P_BlockThingsIterator
.LVL119:
	cmp	r0, #0
	beq	.L138
	mov	r5, #1
.LVL120:
	mov	fp, r7
	str	r6, [sp, #4]
.LVL121:
.L137:
	rsb	r7, r5, #1
.LVL122:
	rsb	r9, r5, fp
	add	r10, r5, fp
	b	.L139
.LVL123:
.L173:
.LBB109:
	.loc 1 920 0
	mov	r0, r6
	mov	r1, r10
	bl	P_BlockThingsIterator
.LVL124:
	.loc 1 919 0
	cmp	r0, #0
	beq	.L138
	.loc 1 922 0
	cmp	r7, r5
	bge	.L172
.L139:
	add	r6, r7, r4
	.loc 1 919 0
	ldr	r2, .L178+24
	mov	r0, r6
	mov	r1, r9
	bl	P_BlockThingsIterator
.LVL125:
	cmp	r0, #0
	.loc 1 920 0
	ldr	r2, .L178+24
	.loc 1 922 0
	add	r7, r7, #1
.LVL126:
	.loc 1 919 0
	bne	.L173
.LVL127:
.L138:
.LBE109:
	.loc 1 913 0
	mov	r0, #1
.LBE108:
.LBE107:
.LBE106:
	.loc 1 951 0
	add	sp, sp, #12
	.cfi_remember_state
	.cfi_def_cfa_offset 36
.LVL128:
	@ sp needed
	ldmfd	sp!, {r4, r5, r6, r7, r8, r9, r10, fp, pc}
.LVL129:
.L135:
	.cfi_restore_state
	.loc 1 882 0
	mov	r0, #0
.L133:
	.loc 1 951 0
	add	sp, sp, #12
	.cfi_remember_state
	.cfi_def_cfa_offset 36
	@ sp needed
	ldmfd	sp!, {r4, r5, r6, r7, r8, r9, r10, fp, pc}
.LVL130:
.L171:
	.cfi_restore_state
	.loc 1 887 0
	add	r0, r0, #144
.LVL131:
	bl	P_SetTarget
.LVL132:
	.loc 1 888 0
	add	r0, r5, #176
	mov	r1, #0
	bl	P_SetTarget
.LVL133:
	.loc 1 889 0
	mov	r0, #1
	b	.L133
.LVL134:
.L172:
	add	r6, fp, r7
	rsb	r9, r5, r4
	add	r10, r4, r5
	rsb	r7, fp, r5
.LVL135:
	b	.L140
.L175:
.LBB116:
.LBB115:
.LBB113:
.LBB110:
	.loc 1 925 0
	mov	r1, r6
	mov	r0, r10
	bl	P_BlockThingsIterator
.LVL136:
	.loc 1 924 0
	cmp	r0, #0
	sub	r6, r6, #1
	beq	.L138
	.loc 1 927 0
	cmn	r6, r7
	bmi	.L174
.L140:
	.loc 1 924 0
	ldr	r2, .L178+24
	mov	r0, r9
	mov	r1, r6
	bl	P_BlockThingsIterator
.LVL137:
	cmp	r0, #0
	.loc 1 925 0
	ldr	r2, .L178+24
	.loc 1 924 0
	bne	.L175
	b	.L138
.L174:
.LBE110:
	.loc 1 915 0
	add	r5, r5, #1
.LVL138:
	cmp	r5, #5
	bne	.L137
.LBB111:
	.loc 1 931 0
	mov	r0, #52
	ldr	r6, [sp, #4]
	bl	P_Random
.LVL139:
	.loc 1 933 0
	ldr	r3, [sp]
	ldr	r2, .L178+8
	add	r3, r3, r8
	add	r3, r2, r3, asl #3
	ldr	r4, [r3, #12]
.LVL140:
	.loc 1 931 0
	and	r0, r0, #31
.LVL141:
	.loc 1 933 0
	cmp	r6, r4
	beq	.L135
	.loc 1 934 0
	add	r5, r0, #14
.LVL142:
	b	.L141
.L177:
	.loc 1 933 0
	ldr	r4, [r4, #12]
.LVL143:
	cmp	r6, r4
	beq	.L135
	.loc 1 934 0
	cmn	r5, #1
	beq	.L176
.L141:
	.loc 1 945 0
	mov	r0, r4
	bl	PIT_FindTarget
.LVL144:
	cmp	r0, #0
	.loc 1 934 0
	sub	r5, r5, #1
.LVL145:
	.loc 1 945 0
	bne	.L177
	b	.L138
.L176:
	ldr	r3, [sp]
	ldr	r2, .L178+8
	add	r3, r3, r8
	add	r3, r2, r3, asl #3
	ldr	r1, [r3, #12]
	.loc 1 939 0
	ldr	r0, [r3, #16]
	mov	ip, r1
	str	r0, [r1, #16]
	.loc 1 940 0
	ldr	r1, [r4, #16]
	.loc 1 939 0
	str	ip, [r0, #12]
	.loc 1 940 0
	str	r1, [r3, #16]
.LBE111:
.LBE113:
	.loc 1 950 0
	mov	r0, #0
.LBB114:
.LBB112:
	.loc 1 940 0
	str	r6, [r1, #12]
	.loc 1 941 0
	str	r6, [r4, #16]
	str	r4, [r3, #12]
	b	.L133
.L179:
	.align	2
.L178:
	.word	compatibility_level
	.word	monsters_remember
	.word	thinkerclasscap
	.word	bmaporgy
	.word	bmaporgx
	.word	.LANCHOR0
	.word	PIT_FindTarget
.LBE112:
.LBE114:
.LBE115:
.LBE116:
	.cfi_endproc
.LFE21:
	.size	P_LookForMonsters, .-P_LookForMonsters
	.align	2
	.type	P_LookForTargets, %function
P_LookForTargets:
.LFB22:
	.loc 1 960 0
	.cfi_startproc
	@ args = 0, pretend = 0, frame = 0
	@ frame_needed = 0, uses_anonymous_args = 0
.LVL146:
	stmfd	sp!, {r3, r4, r5, lr}
	.cfi_def_cfa_offset 16
	.cfi_offset 3, -16
	.cfi_offset 4, -12
	.cfi_offset 5, -8
	.cfi_offset 14, -4
	.loc 1 961 0
	ldrd	r2, [r0, #120]
	mov	r2, #0
	and	r3, r3, #4
	.loc 1 962 0
	orrs	r3, r2, r3
	.loc 1 960 0
	mov	r4, r0
	mov	r5, r1
	.loc 1 962 0
	beq	.L181
.LVL147:
.LBB119:
.LBB120:
	bl	P_LookForMonsters
.LVL148:
	cmp	r0, #0
	beq	.L182
.LVL149:
.L184:
	mov	r0, #1
	ldmfd	sp!, {r3, r4, r5, pc}
.LVL150:
.L181:
.LBE120:
.LBE119:
	.loc 1 963 0 discriminator 2
	bl	P_LookForPlayers
.LVL151:
	.loc 1 962 0 discriminator 2
	cmp	r0, #0
	bne	.L184
	.loc 1 963 0
	mov	r0, r4
	mov	r1, r5
	bl	P_LookForMonsters
.LVL152:
	adds	r0, r0, #0
	movne	r0, #1
	.loc 1 964 0
	ldmfd	sp!, {r3, r4, r5, pc}
.LVL153:
.L182:
.LBB122:
.LBB121:
	.loc 1 962 0
	mov	r0, r4
	mov	r1, r5
	bl	P_LookForPlayers
.LVL154:
	adds	r0, r0, #0
	movne	r0, #1
	ldmfd	sp!, {r3, r4, r5, pc}
.LBE121:
.LBE122:
	.cfi_endproc
.LFE22:
	.size	P_LookForTargets, .-P_LookForTargets
	.align	2
	.type	P_HitFriend.part.3, %function
P_HitFriend.part.3:
.LFB95:
	.loc 1 153 0
	.cfi_startproc
	@ args = 0, pretend = 0, frame = 0
	@ frame_needed = 0, uses_anonymous_args = 0
.LVL155:
	.loc 1 155 0
	ldr	r3, [r0, #144]
	cmp	r3, #0
	beq	.L196
	.loc 1 153 0
	stmfd	sp!, {r4, r5, r6, r7, lr}
	.cfi_def_cfa_offset 20
	.cfi_offset 4, -20
	.cfi_offset 5, -16
	.cfi_offset 6, -12
	.cfi_offset 7, -8
	.cfi_offset 14, -4
	mov	r4, r0
	sub	sp, sp, #12
	.cfi_def_cfa_offset 32
	.loc 1 156 0
	ldr	r2, [r3, #24]
	ldr	r1, [r4, #28]
	ldr	r3, [r3, #28]
	ldr	r0, [r0, #24]
.LVL156:
	bl	R_PointToAngle2
.LVL157:
	.loc 1 159 0
	ldr	r3, [r4, #144]
	.loc 1 156 0
	ldr	r1, [r4, #28]
	ldr	r2, [r3, #24]
	mov	r5, r0
	ldr	r3, [r3, #28]
	ldr	r0, [r4, #24]
	rsb	r1, r3, r1
	rsb	r0, r2, r0
	bl	P_AproxDistance
.LVL158:
	mov	r6, #0
	mov	r7, #0
	mov	r2, r0
	mov	r1, r5
	strd	r6, [sp]
	mov	r0, r4
	bl	P_AimLineAttack
.LVL159:
	.loc 1 155 0
	ldr	r3, .L197
	ldr	r3, [r3]
	cmp	r3, #0
	beq	.L189
	.loc 1 161 0
	ldr	r2, [r4, #144]
	cmp	r3, r2
	beq	.L189
	.loc 1 162 0
	ldrd	r4, [r4, #120]
.LVL160:
	ldrd	r6, [r3, #120]
	eor	r3, r5, r7
	.loc 1 161 0
	mov	r0, r3, lsr #2
	eor	r0, r0, #1
	and	r0, r0, #1
	.loc 1 163 0
	add	sp, sp, #12
	.cfi_def_cfa_offset 20
	@ sp needed
	ldmfd	sp!, {r4, r5, r6, r7, pc}
.LVL161:
.L196:
	.cfi_def_cfa_offset 0
	.cfi_restore 4
	.cfi_restore 5
	.cfi_restore 6
	.cfi_restore 7
	.cfi_restore 14
	.loc 1 161 0
	mov	r0, #0
.LVL162:
	.loc 1 163 0
	bx	lr
.LVL163:
.L189:
	.cfi_def_cfa_offset 32
	.cfi_offset 4, -20
	.cfi_offset 5, -16
	.cfi_offset 6, -12
	.cfi_offset 7, -8
	.cfi_offset 14, -4
	.loc 1 161 0
	mov	r0, #0
	.loc 1 163 0
	add	sp, sp, #12
	.cfi_def_cfa_offset 20
	@ sp needed
	ldmfd	sp!, {r4, r5, r6, r7, pc}
.LVL164:
.L198:
	.align	2
.L197:
	.word	linetarget
	.cfi_endproc
.LFE95:
	.size	P_HitFriend.part.3, .-P_HitFriend.part.3
	.align	2
	.type	P_IsOnLift.isra.4, %function
P_IsOnLift.isra.4:
.LFB96:
	.loc 1 253 0
	.cfi_startproc
	@ args = 0, pretend = 0, frame = 128
	@ frame_needed = 0, uses_anonymous_args = 0
.LVL165:
	stmfd	sp!, {r4, lr}
	.cfi_def_cfa_offset 8
	.cfi_offset 4, -8
	.cfi_offset 14, -4
	.loc 1 255 0
	ldr	r3, [r0]
.LVL166:
	.loc 1 253 0
	sub	sp, sp, #128
	.cfi_def_cfa_offset 136
	.loc 1 260 0
	ldr	r2, [r3, #104]
	cmp	r2, #0
	beq	.L200
	ldr	r1, [r2, #8]
	ldr	r2, .L214
	cmp	r1, r2
	beq	.L208
.L200:
	.loc 1 264 0
	ldrh	r3, [r3, #194]
.LVL167:
	cmp	r3, #0
	strh	r3, [sp, #28]	@ movhi
	beq	.L205
	mvn	r1, #0
	.loc 1 266 0
	ldr	r4, .L214+4
.LVL168:
.L202:
	.loc 1 265 0
	add	r0, sp, #4
	bl	P_FindLineFromLineTag
.LVL169:
	subs	r1, r0, #0
	.loc 1 266 0
	rsb	r2, r1, r1, asl #5
	.loc 1 265 0
	blt	.L205
	.loc 1 266 0
	ldr	r3, [r4]
	add	r3, r3, r2, asl #2
	ldrsh	r3, [r3, #22]
	sub	r3, r3, #10
	cmp	r3, #226
	ldrls	pc, [pc, r3, asl #2]
	b	.L202
.L203:
	.word	.L208
	.word	.L202
	.word	.L202
	.word	.L202
	.word	.L208
	.word	.L208
	.word	.L202
	.word	.L202
	.word	.L202
	.word	.L202
	.word	.L208
	.word	.L208
	.word	.L208
	.word	.L202
	.word	.L202
	.word	.L202
	.word	.L202
	.word	.L202
	.word	.L202
	.word	.L202
	.word	.L202
	.word	.L202
	.word	.L202
	.word	.L202
	.word	.L202
	.word	.L202
	.word	.L202
	.word	.L202
	.word	.L202
	.word	.L202
	.word	.L202
	.word	.L202
	.word	.L202
	.word	.L202
	.word	.L202
	.word	.L202
	.word	.L202
	.word	.L208
	.word	.L202
	.word	.L202
	.word	.L202
	.word	.L202
	.word	.L202
	.word	.L208
	.word	.L202
	.word	.L202
	.word	.L202
	.word	.L202
	.word	.L202
	.word	.L202
	.word	.L202
	.word	.L202
	.word	.L208
	.word	.L202
	.word	.L202
	.word	.L202
	.word	.L208
	.word	.L208
	.word	.L208
	.word	.L202
	.word	.L202
	.word	.L202
	.word	.L202
	.word	.L202
	.word	.L202
	.word	.L202
	.word	.L202
	.word	.L202
	.word	.L202
	.word	.L202
	.word	.L202
	.word	.L202
	.word	.L202
	.word	.L202
	.word	.L202
	.word	.L202
	.word	.L202
	.word	.L208
	.word	.L208
	.word	.L202
	.word	.L202
	.word	.L202
	.word	.L202
	.word	.L202
	.word	.L202
	.word	.L208
	.word	.L202
	.word	.L202
	.word	.L202
	.word	.L202
	.word	.L202
	.word	.L202
	.word	.L202
	.word	.L202
	.word	.L202
	.word	.L202
	.word	.L202
	.word	.L202
	.word	.L202
	.word	.L202
	.word	.L202
	.word	.L202
	.word	.L202
	.word	.L202
	.word	.L202
	.word	.L202
	.word	.L202
	.word	.L202
	.word	.L202
	.word	.L202
	.word	.L208
	.word	.L208
	.word	.L208
	.word	.L208
	.word	.L202
	.word	.L202
	.word	.L202
	.word	.L202
	.word	.L202
	.word	.L202
	.word	.L202
	.word	.L202
	.word	.L202
	.word	.L202
	.word	.L202
	.word	.L202
	.word	.L202
	.word	.L202
	.word	.L202
	.word	.L202
	.word	.L202
	.word	.L202
	.word	.L202
	.word	.L208
	.word	.L208
	.word	.L202
	.word	.L202
	.word	.L202
	.word	.L208
	.word	.L208
	.word	.L202
	.word	.L202
	.word	.L202
	.word	.L202
	.word	.L202
	.word	.L202
	.word	.L202
	.word	.L202
	.word	.L202
	.word	.L202
	.word	.L202
	.word	.L202
	.word	.L208
	.word	.L208
	.word	.L202
	.word	.L202
	.word	.L202
	.word	.L202
	.word	.L202
	.word	.L202
	.word	.L202
	.word	.L202
	.word	.L202
	.word	.L202
	.word	.L202
	.word	.L202
	.word	.L202
	.word	.L202
	.word	.L202
	.word	.L202
	.word	.L202
	.word	.L208
	.word	.L208
	.word	.L202
	.word	.L202
	.word	.L202
	.word	.L202
	.word	.L202
	.word	.L202
	.word	.L202
	.word	.L202
	.word	.L202
	.word	.L202
	.word	.L202
	.word	.L202
	.word	.L202
	.word	.L202
	.word	.L202
	.word	.L202
	.word	.L202
	.word	.L202
	.word	.L202
	.word	.L202
	.word	.L202
	.word	.L202
	.word	.L202
	.word	.L202
	.word	.L202
	.word	.L202
	.word	.L202
	.word	.L202
	.word	.L208
	.word	.L202
	.word	.L202
	.word	.L202
	.word	.L202
	.word	.L202
	.word	.L202
	.word	.L202
	.word	.L202
	.word	.L202
	.word	.L202
	.word	.L202
	.word	.L202
	.word	.L202
	.word	.L202
	.word	.L202
	.word	.L208
	.word	.L208
	.word	.L202
	.word	.L202
	.word	.L208
	.word	.L208
	.word	.L202
	.word	.L202
	.word	.L208
	.word	.L208
.LVL170:
.L208:
	.loc 1 274 0
	mov	r0, #1
	.loc 1 278 0
	add	sp, sp, #128
	.cfi_remember_state
	.cfi_def_cfa_offset 8
	@ sp needed
	ldmfd	sp!, {r4, pc}
.L205:
	.cfi_restore_state
	.loc 1 277 0
	mov	r0, #0
	.loc 1 278 0
	add	sp, sp, #128
	.cfi_def_cfa_offset 8
	@ sp needed
	ldmfd	sp!, {r4, pc}
.L215:
	.align	2
.L214:
	.word	T_PlatRaise
	.word	lines
	.cfi_endproc
.LFE96:
	.size	P_IsOnLift.isra.4, .-P_IsOnLift.isra.4
	.align	2
	.type	P_SmartMove, %function
P_SmartMove:
.LFB12:
	.loc 1 431 0
	.cfi_startproc
	@ args = 0, pretend = 0, frame = 24
	@ frame_needed = 0, uses_anonymous_args = 0
.LVL171:
	stmfd	sp!, {r4, r5, r6, r7, r8, r9, r10, fp, lr}
	.cfi_def_cfa_offset 36
	.cfi_offset 4, -36
	.cfi_offset 5, -32
	.cfi_offset 6, -28
	.cfi_offset 7, -24
	.cfi_offset 8, -20
	.cfi_offset 9, -16
	.cfi_offset 10, -12
	.cfi_offset 11, -8
	.cfi_offset 14, -4
	.loc 1 432 0
	ldr	r6, [r0, #144]
.LVL172:
	.loc 1 436 0
	ldr	r10, .L314
	.loc 1 437 0
	adds	r7, r6, #0
	movne	r7, #1
	.loc 1 438 0
	ldr	r3, [r10, #56]
	.loc 1 431 0
	sub	sp, sp, #28
	.cfi_def_cfa_offset 64
	.loc 1 437 0
	cmp	r3, #0
	movne	r3, #0
	andeq	r3, r7, #1
	cmp	r3, #0
	.loc 1 431 0
	mov	r4, r0
	.loc 1 437 0
	beq	.L309
	.loc 1 437 0 is_stmt 0 discriminator 1
	ldr	r3, [r6, #132]
	cmp	r3, #0
	ble	.L258
	.loc 1 438 0 is_stmt 1 discriminator 3
	ldr	r0, [r0, #64]
.LVL173:
	ldr	r2, [r6, #64]
	ldr	r3, [r0]
	ldr	r2, [r2]
	ldrsh	r3, [r3, #194]
	ldrsh	r2, [r2, #194]
	cmp	r2, r3
	beq	.L310
.L258:
	.loc 1 438 0 is_stmt 0
	mov	r3, #0
.L309:
	str	r3, [sp, #8]
.L217:
.LVL174:
	.loc 1 441 0 is_stmt 1
	ldr	r9, .L314+4
	ldr	r5, [r9]
	cmp	r5, #0
	streq	r5, [sp, #4]
	beq	.L218
	ldr	r3, [r4, #188]
.LVL175:
.LBB134:
.LBB135:
	.loc 1 295 0 discriminator 1
	cmp	r3, #0
	beq	.L260
	.loc 1 295 0 is_stmt 0
	mov	r5, #0
	.loc 1 296 0 is_stmt 1
	ldr	r0, .L314+8
.LVL176:
.L220:
	ldr	r2, [r3]
	ldr	r2, [r2, #108]
.LVL177:
	cmp	r2, #0
	beq	.L219
	ldr	r1, [r2, #8]
	cmp	r1, r0
	.loc 1 298 0
	ldreq	r2, [r2, #64]
.LVL178:
	orreq	r5, r5, r2
.LVL179:
.L219:
	.loc 1 295 0
	ldr	r3, [r3, #12]
.LVL180:
	cmp	r3, #0
	bne	.L220
.LBE135:
.LBE134:
	.loc 1 441 0
	adds	r3, r5, #0
.LVL181:
	movne	r3, #1
	str	r3, [sp, #4]
.LVL182:
.L218:
	.loc 1 450 0 discriminator 6
	ldrb	r2, [r4, #104]	@ zero_extendqisi2
	cmp	r2, #139
	beq	.L221
	.loc 1 450 0 is_stmt 0 discriminator 1
	ldr	r3, .L314+12
	ldr	r3, [r3]
	sub	r3, r3, #1
	cmp	r2, r3
	beq	.L222
.L224:
	.loc 1 433 0 is_stmt 1
	mov	r3, #0
.L223:
.LVL183:
.LBB136:
.LBB137:
	.loc 1 320 0
	mov	r1, #59392
	.loc 1 323 0
	ldrsh	r2, [r4, #136]
	.loc 1 320 0
	str	r1, [sp, #20]
	.loc 1 323 0
	cmp	r2, #8
	beq	.L225
	.loc 1 333 0
	ldr	r1, .L314+16
	ldr	r1, [r1]
	cmp	r1, #0
	bne	.L311
	.loc 1 319 0
	mov	r8, #2048
	.loc 1 336 0
	ldr	r1, [r4, #108]
	ldr	r6, [r1, #60]
.LVL184:
.L228:
	.loc 1 343 0
	ldr	r1, .L314+20
	.loc 1 344 0
	ldr	fp, [r4, #28]
	add	r0, r1, r2, asl #2
	ldr	r7, [r0, #32]
	.loc 1 343 0
	ldr	r2, [r1, r2, asl #2]
	.loc 1 344 0
	mul	r7, r7, r6
	.loc 1 343 0
	mul	r6, r2, r6
.LVL185:
	ldr	r5, [r4, #24]
.LVL186:
	.loc 1 346 0
	add	r2, fp, r7
.LVL187:
	add	r1, r5, r6
.LVL188:
	mov	r0, r4
	bl	P_TryMove
.LVL189:
	.loc 1 351 0
	cmp	r0, #0
	beq	.L230
	ldr	r3, [sp, #20]
	cmp	r3, #59392
	ble	.L231
	.loc 1 355 0
	mov	r8, r8, asl #3
.LVL190:
.LBB138:
.LBB139:
	.loc 2 72 0
	smull	r0, r1, r6, r8
.LVL191:
.LBE139:
.LBE138:
.LBB142:
.LBB143:
	smull	r2, r3, r8, r7
.LBE143:
.LBE142:
.LBB146:
.LBB140:
	mov	r6, r0, lsr #16
.LVL192:
.LBE140:
.LBE146:
.LBB147:
.LBB144:
	mov	lr, r2, lsr #16
.LBE144:
.LBE147:
	.loc 1 356 0
	ldr	r0, [r4, #88]
	.loc 1 357 0
	ldr	r2, [r4, #92]
.LBB148:
.LBB141:
	.loc 2 72 0
	orr	r6, r6, r1, asl #16
.LBE141:
.LBE148:
.LBB149:
.LBB145:
	orr	lr, lr, r3, asl #16
.LBE145:
.LBE149:
	.loc 1 356 0
	add	r1, r0, r6
	.loc 1 357 0
	add	r3, r2, lr
	.loc 1 353 0
	str	r5, [r4, #24]
	.loc 1 354 0
	str	fp, [r4, #28]
	.loc 1 356 0
	str	r1, [r4, #88]
.LVL193:
	.loc 1 357 0
	str	r3, [r4, #92]
.LVL194:
.L231:
	.loc 1 417 0
	mov	r1, #0
	.loc 1 414 0
	ldrd	r2, [r4, #120]
	.loc 1 417 0
	and	r0, r2, #16384
	orrs	r1, r0, r1
	.loc 1 414 0
	bic	r2, r2, #2097152
	strd	r2, [r4, #120]
	.loc 1 417 0
	bne	.L255
	.loc 1 418 0
	ldr	r3, .L314+24
	.loc 1 417 0
	ldr	r3, [r3]
	cmp	r3, #0
	bne	.L312
.L244:
	.loc 1 419 0
	ldr	r3, [r4, #68]
	str	r3, [r4, #32]
.LVL195:
.L255:
.LBE137:
.LBE136:
	.loc 1 463 0
	ldr	r3, [sp, #8]
	cmp	r3, #0
	bne	.L246
.L249:
	ldr	r2, [sp, #4]
	.loc 1 466 0
	ldr	r3, [r9]
	eor	r5, r2, #1
	.loc 1 467 0
	cmp	r3, #0
	moveq	r5, #0
	andne	r5, r5, #1
	cmp	r5, #0
	beq	.L248
	ldr	r3, [r4, #188]
.LVL196:
.LBB161:
.LBB162:
	.loc 1 295 0 discriminator 1
	cmp	r3, #0
	beq	.L248
	.loc 1 295 0 is_stmt 0
	mov	ip, #0
	.loc 1 296 0 is_stmt 1
	ldr	r0, .L314+8
.LVL197:
.L251:
	ldr	r2, [r3]
	ldr	r2, [r2, #108]
.LVL198:
	cmp	r2, #0
	beq	.L250
	ldr	r1, [r2, #8]
	cmp	r1, r0
	.loc 1 298 0
	ldreq	r2, [r2, #64]
.LVL199:
	orreq	ip, ip, r2
.LVL200:
.L250:
	.loc 1 295 0
	ldr	r3, [r3, #12]
.LVL201:
	cmp	r3, #0
	bne	.L251
.LVL202:
.LBE162:
.LBE161:
	.loc 1 467 0
	cmp	ip, #0
	beq	.L248
	.loc 1 468 0
	blt	.L252
	.loc 1 469 0
	mov	r0, #56
	bl	P_Random
.LVL203:
	cmp	r0, #199
	bgt	.L248
.LVL204:
.L252:
	.loc 1 471 0
	mov	r3, #8
	.loc 1 473 0
	mov	r0, #1
	.loc 1 471 0
	strh	r3, [r4, #136]	@ movhi
	.loc 1 474 0
	add	sp, sp, #28
	.cfi_remember_state
	.cfi_def_cfa_offset 36
	@ sp needed
	ldmfd	sp!, {r4, r5, r6, r7, r8, r9, r10, fp, pc}
.LVL205:
.L230:
	.cfi_restore_state
.LBB163:
.LBB155:
.LBB150:
	.loc 1 364 0
	mov	r1, #0
	ldrd	r2, [r4, #120]
	and	r0, r2, #16384
.LVL206:
	orrs	r1, r0, r1
	beq	.L232
	ldr	r1, .L314+28
	ldr	r1, [r1]
	cmp	r1, #0
	beq	.L232
	.loc 1 366 0
	ldr	r0, .L314+32
	ldr	r1, [r4, #32]
	ldr	r0, [r0]
	.loc 1 371 0
	orr	r2, r2, #2097152
	strd	r2, [r4, #120]
.LBE150:
.LBE155:
.LBE163:
	.loc 1 463 0
	ldr	r3, [sp, #8]
.LBB164:
.LBB156:
.LBB151:
	.loc 1 366 0
	cmp	r1, r0
	.loc 1 367 0
	addlt	r1, r1, #262144
	.loc 1 369 0
	subge	r1, r1, #262144
.LBE151:
.LBE156:
.LBE164:
	.loc 1 463 0
	cmp	r3, #0
.LBB165:
.LBB157:
.LBB152:
	.loc 1 369 0
	str	r1, [r4, #32]
.LBE152:
.LBE157:
.LBE165:
	.loc 1 463 0
	beq	.L249
.LVL207:
.L246:
	.loc 1 464 0
	mov	r0, #57
	bl	P_Random
.LVL208:
	cmp	r0, #229
	bgt	.L249
	.loc 1 465 0 discriminator 1
	ldr	r0, [r4, #64]
	bl	P_IsOnLift.isra.4
.LVL209:
	.loc 1 464 0 discriminator 1
	cmp	r0, #0
	bne	.L249
	b	.L252
.LVL210:
.L232:
.LBB166:
.LBB158:
.LBB153:
	.loc 1 376 0
	ldr	r6, .L314+36
.LVL211:
	ldr	r0, [r6]
	cmp	r0, #0
	beq	.L225
	.loc 1 379 0
	mov	r3, #8
	.loc 1 398 0
	mov	r7, #0
.LVL212:
	mov	r8, r6
	.loc 1 399 0
	ldr	r5, .L314+40
.LVL213:
	.loc 1 400 0
	ldr	fp, .L314+44
.LVL214:
	.loc 1 379 0
	strh	r3, [r4, #136]	@ movhi
.LVL215:
.L236:
	.loc 1 398 0
	sub	r3, r0, #1
	cmp	r0, #0
	str	r3, [r6]
	beq	.L313
.L240:
	.loc 1 399 0
	ldr	r2, [r5]
	mov	r0, r4
	ldr	r1, [r2, r3, asl #2]
	mov	r2, #0
	bl	P_UseSpecialLine
.LVL216:
	cmp	r0, #0
	.loc 1 400 0
	ldr	r0, [r8]
	.loc 1 399 0
	beq	.L236
	.loc 1 400 0
	ldr	r3, [r5]
	ldr	r2, [fp]
	ldr	r3, [r3, r0, asl #2]
	cmp	r3, r2
	moveq	r3, #1
	movne	r3, #2
	.loc 1 398 0
	cmp	r0, #0
	.loc 1 400 0
	orr	r7, r7, r3
.LVL217:
	.loc 1 398 0
	sub	r3, r0, #1
	str	r3, [r6]
	bne	.L240
.L313:
	.loc 1 407 0
	cmp	r7, #0
	beq	.L277
	ldr	r3, [r10, #52]
	cmp	r3, #0
	movne	r0, r7
	bne	.L242
	.loc 1 408 0
	ldr	r3, .L314+48
	ldrb	r3, [r3]	@ zero_extendqisi2
	cmp	r3, #10
	bhi	.L243
	.loc 1 409 0
	mov	r0, #28
	bl	P_Random
.LVL218:
	and	r0, r0, #3
.LVL219:
.L242:
.LBE153:
.LBE158:
.LBE166:
	.loc 1 459 0
	cmp	r0, #0
	bne	.L255
	b	.L277
.L225:
	.loc 1 460 0
	mov	r0, #0
.L277:
	.loc 1 474 0
	add	sp, sp, #28
	.cfi_remember_state
	.cfi_def_cfa_offset 36
	@ sp needed
	ldmfd	sp!, {r4, r5, r6, r7, r8, r9, r10, fp, pc}
.LVL220:
.L248:
	.cfi_restore_state
	.loc 1 473 0
	mov	r0, #1
	.loc 1 474 0
	add	sp, sp, #28
	.cfi_remember_state
	.cfi_def_cfa_offset 36
	@ sp needed
	ldmfd	sp!, {r4, r5, r6, r7, r8, r9, r10, fp, pc}
.LVL221:
.L222:
	.cfi_restore_state
	.loc 1 450 0 discriminator 2
	ldrd	r2, [r4, #120]
	mov	r2, #0
	and	r3, r3, #4
	orrs	r3, r2, r3
	beq	.L224
.L221:
	.loc 1 451 0
	cmp	r7, #0
	beq	.L224
	.loc 1 451 0 is_stmt 0 discriminator 1
	ldr	r3, .L314+52
	ldr	r3, [r3]
	cmp	r3, #0
	beq	.L224
	.loc 1 452 0 is_stmt 1 discriminator 2
	ldrd	r2, [r4, #120]
	ldrd	r0, [r6, #120]
	mov	r2, #0
	eor	r3, r3, r1
	and	r3, r3, #4
	.loc 1 451 0 discriminator 2
	orrs	r3, r2, r3
	bne	.L224
	.loc 1 453 0
	ldr	r2, [r6, #24]
	ldr	r3, [r6, #28]
	ldr	r0, [r4, #24]
	ldr	r1, [r4, #28]
	rsb	r0, r2, r0
	rsb	r1, r3, r1
	bl	P_AproxDistance
.LVL222:
	.loc 1 452 0
	cmp	r0, #9437184
	bge	.L224
	.loc 1 455 0
	mov	r0, #59
	bl	P_Random
.LVL223:
	.loc 1 454 0
	cmp	r0, #234
	bgt	.L224
	.loc 1 456 0
	mov	r3, #2
	b	.L223
.LVL224:
.L311:
.LBB167:
.LBB159:
	.loc 1 334 0
	add	r1, sp, #20
	mov	r0, r4
	str	r3, [sp, #12]
	bl	P_GetMoveFactor
.LVL225:
	.loc 1 338 0
	ldr	r1, [sp, #20]
	.loc 1 336 0
	ldr	r2, [r4, #108]
	.loc 1 338 0
	cmp	r1, #59392
	.loc 1 334 0
	mov	r8, r0
.LVL226:
	.loc 1 336 0
	ldr	r6, [r2, #60]
.LVL227:
	.loc 1 338 0
	ldr	r3, [sp, #12]
	bge	.L229
	.loc 1 339 0
	rsb	r2, r0, #2048
	add	r2, r2, r2, lsr #31
	mov	r2, r2, asr #1
	rsb	r2, r2, #2048
	.loc 1 340 0
	mul	r6, r2, r6
.LVL228:
	.loc 1 339 0
	add	r2, r6, #2032
	cmp	r6, #0
	addlt	r6, r2, #15
.LVL229:
	.loc 1 338 0
	movs	r6, r6, asr #11
.LVL230:
	.loc 1 341 0
	moveq	r6, #1
.LVL231:
	ldreqsh	r2, [r4, #136]
.LVL232:
	beq	.L228
.LVL233:
.L229:
	ldrsh	r2, [r4, #136]
	b	.L228
.LVL234:
.L312:
	.loc 1 418 0
	ldr	r3, .L314+48
	ldrb	r3, [r3]	@ zero_extendqisi2
	cmp	r3, #10
	bls	.L244
	b	.L255
.LVL235:
.L260:
.LBE159:
.LBE167:
	.loc 1 441 0
	str	r3, [sp, #4]
	b	.L218
.LVL236:
.L243:
.LBB168:
.LBB160:
.LBB154:
	.loc 1 411 0
	mov	r0, #50
	bl	P_Random
.LVL237:
	and	r7, r7, #1
.LVL238:
	cmp	r0, #229
	movle	r0, r7
	eorgt	r0, r7, #1
	b	.L242
.LVL239:
.L310:
.LBE154:
.LBE160:
.LBE168:
	.loc 1 439 0 discriminator 2
	bl	P_IsOnLift.isra.4
.LVL240:
	.loc 1 438 0 discriminator 2
	adds	r3, r0, #0
	movne	r3, #1
	str	r3, [sp, #8]
	b	.L217
.L315:
	.align	2
.L314:
	.word	comp
	.word	monster_avoid_hazards
	.word	T_MoveCeiling
	.word	HelperThing
	.word	monster_friction
	.word	.LANCHOR1
	.word	felldown
	.word	floatok
	.word	tmfloorz
	.word	numspechit
	.word	spechit
	.word	blockline
	.word	compatibility_level
	.word	dog_jumping
	.cfi_endproc
.LFE12:
	.size	P_SmartMove, .-P_SmartMove
	.align	2
	.type	P_TryWalk, %function
P_TryWalk:
.LFB13:
	.loc 1 489 0
	.cfi_startproc
	@ args = 0, pretend = 0, frame = 0
	@ frame_needed = 0, uses_anonymous_args = 0
.LVL241:
	stmfd	sp!, {r4, lr}
	.cfi_def_cfa_offset 8
	.cfi_offset 4, -8
	.cfi_offset 14, -4
	.loc 1 489 0
	mov	r4, r0
	.loc 1 490 0
	bl	P_SmartMove
.LVL242:
	subs	r3, r0, #0
	beq	.L317
.LVL243:
.LBB171:
.LBB172:
	.loc 1 492 0
	mov	r0, #28
	bl	P_Random
.LVL244:
	mov	r3, #1
	and	r0, r0, #15
	strh	r0, [r4, #138]	@ movhi
.LVL245:
.L317:
.LBE172:
.LBE171:
	.loc 1 494 0
	mov	r0, r3
	ldmfd	sp!, {r4, pc}
	.cfi_endproc
.LFE13:
	.size	P_TryWalk, .-P_TryWalk
	.align	2
	.type	P_DoNewChaseDir, %function
P_DoNewChaseDir:
.LFB14:
	.loc 1 506 0
	.cfi_startproc
	@ args = 0, pretend = 0, frame = 0
	@ frame_needed = 0, uses_anonymous_args = 0
.LVL246:
	stmfd	sp!, {r4, r5, r6, r7, r8, r9, r10, lr}
	.cfi_def_cfa_offset 32
	.cfi_offset 4, -32
	.cfi_offset 5, -28
	.cfi_offset 6, -24
	.cfi_offset 7, -20
	.cfi_offset 8, -16
	.cfi_offset 9, -12
	.cfi_offset 10, -8
	.cfi_offset 14, -4
	.loc 1 508 0
	ldrb	r8, [r0, #136]	@ zero_extendqisi2
.LVL247:
	.loc 1 506 0
	mov	r4, r0
	.loc 1 511 0
	cmp	r8, #8
	.loc 1 512 0
	eorne	r6, r8, #4
.LVL248:
	moveq	r6, r8
.LVL249:
	.loc 1 514 0
	cmp	r1, #655360
	.loc 1 506 0
	mov	r5, r1
	mov	r7, r2
	.loc 1 514 0
	bgt	.L350
	.loc 1 514 0 is_stmt 0 discriminator 1
	cmn	r1, #655360
	bge	.L381
	.loc 1 518 0 is_stmt 1
	cmn	r7, #655360
	.loc 1 514 0
	mov	r10, #4
.LVL250:
	.loc 1 518 0
	bge	.L345
.L387:
	.loc 1 524 0
	cmp	r5, #0
	movgt	r3, #7
	.loc 1 518 0
	mov	r9, #6
.LVL251:
	.loc 1 524 0
	movgt	r2, r3
.LVL252:
	ble	.L382
.LVL253:
.L348:
	.loc 1 523 0 discriminator 12
	cmp	r6, r3
	.loc 1 524 0 discriminator 12
	strh	r2, [r4, #136]	@ movhi
	.loc 1 523 0 discriminator 12
	beq	.L326
	.loc 1 525 0
	mov	r0, r4
.LVL254:
	bl	P_TryWalk
.LVL255:
	cmp	r0, #0
	ldmnefd	sp!, {r4, r5, r6, r7, r8, r9, r10, pc}
.LVL256:
.L326:
	.loc 1 529 0
	mov	r0, #29
	bl	P_Random
.LVL257:
	cmp	r0, #200
	bgt	.L328
.LVL258:
.LBB173:
.LBB174:
	.loc 2 59 0
	mov	r2, r7, asr #31
.LVL259:
.LBE174:
.LBE173:
.LBB177:
.LBB178:
	mov	r1, r5, asr #31
.LVL260:
.LBE178:
.LBE177:
.LBB181:
.LBB175:
	.loc 2 60 0
	eor	r7, r7, r2
.LVL261:
.LBE175:
.LBE181:
.LBB182:
.LBB179:
	eor	r5, r5, r1
.LVL262:
.LBE179:
.LBE182:
.LBB183:
.LBB176:
	rsb	r7, r2, r7
.LBE176:
.LBE183:
.LBB184:
.LBB180:
	rsb	r5, r1, r5
.LBE180:
.LBE184:
	.loc 1 529 0
	cmp	r7, r5
	movle	r3, r9
	movle	r9, r10
	movle	r10, r3
.LVL263:
.L328:
	.loc 1 532 0
	cmp	r9, r6
	beq	.L332
	.loc 1 532 0 is_stmt 0 discriminator 2
	cmp	r9, #8
	bne	.L383
.L332:
	.loc 1 536 0 is_stmt 1
	cmp	r10, r6
	beq	.L330
	.loc 1 536 0 is_stmt 0 discriminator 2
	cmp	r10, #8
	bne	.L384
.L330:
	.loc 1 541 0 is_stmt 1
	cmp	r8, #8
	beq	.L335
	.loc 1 541 0 is_stmt 0 discriminator 1
	strh	r8, [r4, #136]	@ movhi
	mov	r0, r4
	bl	P_TryWalk
.LVL264:
	cmp	r0, #0
	bne	.L385
.L335:
	.loc 1 545 0 is_stmt 1
	mov	r0, #30
	bl	P_Random
.LVL265:
	tst	r0, #1
	moveq	r5, #7
	beq	.L337
	mov	r5, #0
.L336:
.LVL266:
	.loc 1 548 0
	uxtb	r3, r5
	cmp	r3, r6
	beq	.L340
	.loc 1 548 0 is_stmt 0 discriminator 1
	strh	r5, [r4, #136]	@ movhi
	mov	r0, r4
	bl	P_TryWalk
.LVL267:
	cmp	r0, #0
	bne	.L386
.L340:
.LVL268:
	add	r5, r5, #1
.LVL269:
	.loc 1 547 0 is_stmt 1
	cmp	r5, #8
	bne	.L336
	.loc 1 556 0
	cmp	r6, #8
	strh	r6, [r4, #136]	@ movhi
	ldmeqfd	sp!, {r4, r5, r6, r7, r8, r9, r10, pc}
	.loc 1 556 0 is_stmt 0 discriminator 1
	mov	r0, r4
	bl	P_TryWalk
.LVL270:
	cmp	r0, #0
	.loc 1 557 0 is_stmt 1 discriminator 1
	streqh	r5, [r4, #136]	@ movhi
	ldmfd	sp!, {r4, r5, r6, r7, r8, r9, r10, pc}
.LVL271:
.L350:
	.loc 1 518 0
	cmn	r7, #655360
	.loc 1 514 0
	mov	r10, #0
.LVL272:
	.loc 1 518 0
	blt	.L387
.L345:
	cmp	r7, #655360
	movle	r9, #8
	ble	.L326
	.loc 1 524 0
	cmp	r5, #0
	movle	r3, #3
	.loc 1 518 0
	mov	r9, #2
.LVL273:
	.loc 1 524 0
	movle	r2, r3
.LVL274:
	movgt	r3, #1
	movgt	r2, r3
	b	.L348
.LVL275:
.L337:
	.loc 1 553 0
	cmp	r5, r6
	beq	.L342
	.loc 1 553 0 is_stmt 0 discriminator 1
	strh	r5, [r4, #136]	@ movhi
	mov	r0, r4
	bl	P_TryWalk
.LVL276:
	cmp	r0, #0
	ldmnefd	sp!, {r4, r5, r6, r7, r8, r9, r10, pc}
.L342:
	.loc 1 552 0 is_stmt 1
	sub	r5, r5, #1
.LVL277:
	uxtb	r5, r5
.LVL278:
	.loc 1 556 0
	b	.L337
.LVL279:
.L381:
	.loc 1 518 0
	cmn	r2, #655360
	.loc 1 514 0
	mov	r10, #8
	.loc 1 518 0
	movlt	r9, #6
	blt	.L326
	cmp	r2, #655360
	movgt	r9, #2
	movle	r9, r10
	b	.L326
.LVL280:
.L383:
	.loc 1 533 0 discriminator 5
	strh	r9, [r4, #136]	@ movhi
	mov	r0, r4
	bl	P_TryWalk
.LVL281:
	.loc 1 532 0 discriminator 5
	cmp	r0, #0
	beq	.L332
	ldmfd	sp!, {r4, r5, r6, r7, r8, r9, r10, pc}
.L384:
	.loc 1 537 0 discriminator 5
	strh	r10, [r4, #136]	@ movhi
	mov	r0, r4
	bl	P_TryWalk
.LVL282:
	.loc 1 536 0 discriminator 5
	cmp	r0, #0
	beq	.L330
	ldmfd	sp!, {r4, r5, r6, r7, r8, r9, r10, pc}
.L385:
	ldmfd	sp!, {r4, r5, r6, r7, r8, r9, r10, pc}
.LVL283:
.L386:
	ldmfd	sp!, {r4, r5, r6, r7, r8, r9, r10, pc}
.LVL284:
.L382:
	.loc 1 524 0
	mov	r3, #5
	mov	r2, r3
	b	.L348
	.cfi_endproc
.LFE14:
	.size	P_DoNewChaseDir, .-P_DoNewChaseDir
	.align	2
	.type	P_NewChaseDir, %function
P_NewChaseDir:
.LFB17:
	.loc 1 638 0
	.cfi_startproc
	@ args = 0, pretend = 0, frame = 16
	@ frame_needed = 0, uses_anonymous_args = 0
.LVL285:
	.loc 1 648 0
	mov	r2, #0
	.loc 1 638 0
	stmfd	sp!, {r4, r5, r6, r7, r8, r9, r10, fp, lr}
	.cfi_def_cfa_offset 36
	.cfi_offset 4, -36
	.cfi_offset 5, -32
	.cfi_offset 6, -28
	.cfi_offset 7, -24
	.cfi_offset 8, -20
	.cfi_offset 9, -16
	.cfi_offset 10, -12
	.cfi_offset 11, -8
	.cfi_offset 14, -4
	.loc 1 650 0
	ldr	r3, .L443
	.loc 1 639 0
	ldr	r5, [r0, #144]
.LVL286:
	.loc 1 650 0
	ldrb	r1, [r3]	@ zero_extendqisi2
	.loc 1 640 0
	ldr	r7, [r5, #24]
	.loc 1 641 0
	ldr	r6, [r5, #28]
	.loc 1 640 0
	ldr	ip, [r0, #24]
	.loc 1 641 0
	ldr	r3, [r0, #28]
	.loc 1 650 0
	cmp	r1, #10
	.loc 1 638 0
	sub	sp, sp, #20
	.cfi_def_cfa_offset 56
	.loc 1 638 0
	mov	r4, r0
	.loc 1 648 0
	strh	r2, [r0, #140]	@ movhi
	.loc 1 640 0
	rsb	r7, ip, r7
.LVL287:
	.loc 1 641 0
	rsb	r6, r3, r6
.LVL288:
	.loc 1 650 0
	bls	.L389
	.loc 1 651 0
	ldr	r1, [r0, #68]
	ldr	r2, [r0, #76]
	rsb	r2, r2, r1
	cmp	r2, #1572864
	bgt	.L440
.L390:
	ldrd	r8, [r4, #120]
.LVL289:
.L391:
.LBB190:
	.loc 1 667 0
	mov	r0, r7
	mov	r1, r6
	bl	P_AproxDistance
.LVL290:
	ldrd	r2, [r5, #120]
	mov	r2, #0
	and	r3, r3, #4
	.loc 1 672 0
	and	r8, r8, r2
	and	r9, r9, r3
	orrs	r3, r8, r9
	.loc 1 667 0
	mov	r10, r0
.LVL291:
	.loc 1 672 0
	beq	.L400
	.loc 1 673 0 discriminator 1
	ldr	r3, .L443+4
	ldr	r3, [r3]
	.loc 1 672 0 discriminator 1
	cmp	r0, r3, asl #16
	blt	.L441
.LVL292:
.L400:
	.loc 1 678 0
	ldr	r3, [r5, #132]
	cmp	r3, #0
	ble	.L389
	.loc 1 678 0 is_stmt 0 discriminator 1
	ldrd	r2, [r5, #120]
	ldrd	r0, [r4, #120]
	mov	r2, #0
	eor	r3, r3, r1
	and	r3, r3, #4
	orrs	r3, r2, r3
	beq	.L389
	.loc 1 680 0 is_stmt 1
	ldr	r3, .L443+8
	ldr	r3, [r3]
	cmp	r3, #0
	beq	.L389
	.loc 1 681 0 discriminator 1
	ldr	r3, [r4, #108]
	.loc 1 680 0 discriminator 1
	ldr	r3, [r3, #44]
	cmp	r3, #0
	beq	.L389
	.loc 1 681 0
	ldrb	r3, [r4, #104]	@ zero_extendqisi2
	cmp	r3, #18
	beq	.L389
	.loc 1 682 0 discriminator 1
	ldr	r3, [r5, #108]
	cmp	r10, #8388608
	.loc 1 681 0 discriminator 1
	ldr	r2, [r3, #44]
	.loc 1 682 0 discriminator 1
	movge	r3, #0
	movlt	r3, #1
	cmp	r2, #0
	movne	r3, #0
	cmp	r3, #0
	beq	.L442
.L404:
	.loc 1 687 0
	mov	r0, #55
	bl	P_Random
.LVL293:
	and	r0, r0, #15
	.loc 1 688 0
	rsb	r7, r7, #0
.LVL294:
	rsb	r6, r6, #0
.LVL295:
	.loc 1 687 0
	strh	r0, [r4, #140]	@ movhi
.LVL296:
.L389:
.LBE190:
	.loc 1 694 0
	mov	r1, r7
	mov	r2, r6
	mov	r0, r4
	bl	P_DoNewChaseDir
.LVL297:
	.loc 1 699 0
	ldrh	r3, [r4, #140]
	cmp	r3, #0
	.loc 1 700 0
	strneh	r3, [r4, #138]	@ movhi
.L388:
	.loc 1 701 0
	add	sp, sp, #20
	.cfi_remember_state
	.cfi_def_cfa_offset 36
	@ sp needed
	ldmfd	sp!, {r4, r5, r6, r7, r8, r9, r10, fp, pc}
.LVL298:
.L440:
	.cfi_restore_state
	.loc 1 652 0 discriminator 1
	ldr	r2, [r0, #32]
	.loc 1 651 0 discriminator 1
	cmp	r1, r2
	blt	.L390
	.loc 1 653 0
	ldrd	r0, [r0, #120]
.LVL299:
	mov	r9, r1
	mov	r1, #0
	mov	r8, r0
	and	r0, r0, #17408
	.loc 1 652 0
	orrs	r1, r0, r1
	.loc 1 653 0
	strd	r8, [sp]
	.loc 1 652 0
	bne	.L391
	.loc 1 654 0
	ldr	r1, .L443+12
	.loc 1 653 0
	ldr	r1, [r1, #4]
	cmp	r1, #0
	bne	.L391
.LVL300:
.LBB193:
.LBB194:
	.loc 1 611 0
	ldr	r10, [r4, #80]
	.loc 1 613 0
	ldr	r0, .L443+16
	add	lr, ip, r10
	mov	fp, lr
	ldr	r0, [r0]
	.loc 1 611 0
	ldr	r8, .L443+20
	.loc 1 614 0
	rsb	r9, r10, ip
	.loc 1 613 0
	rsb	ip, r0, fp
	str	fp, [sp, #8]
	.loc 1 611 0
	ldr	fp, [r8]
	.loc 1 613 0
	mov	r8, ip, asr #23
	mov	ip, r8
	.loc 1 614 0
	rsb	r0, r0, r9
	.loc 1 613 0
	str	r8, [sp, #12]
	.loc 1 614 0
	mov	r8, r0, asr #23
	.loc 1 624 0
	cmp	ip, r8
	.loc 1 611 0
	ldr	r0, .L443+24
	.loc 1 623 0
	ldr	lr, .L443+28
	.loc 1 613 0
	ldr	ip, [sp, #8]
	.loc 1 614 0
	str	r9, [r0, #8]
	.loc 1 613 0
	str	ip, [r0, #12]
	.loc 1 611 0
	add	r9, r3, r10
	.loc 1 623 0
	ldr	ip, [lr]
	.loc 1 612 0
	rsb	r3, r10, r3
	rsb	r10, fp, r3
	str	r3, [r0, #4]
	.loc 1 617 0
	ldr	r3, .L443+32
	.loc 1 623 0
	add	ip, ip, #1
	.loc 1 611 0
	str	r9, [r0]
	rsb	r9, fp, r9
	mov	r9, r9, asr #23
.LVL301:
	.loc 1 612 0
	mov	r10, r10, asr #23
.LVL302:
	.loc 1 623 0
	str	ip, [lr]
.LVL303:
	.loc 1 617 0
	str	r2, [r3, #8]
	.loc 1 619 0
	str	r1, [r3, #16]
	str	r1, [r3, #12]
	ldrge	fp, [sp, #12]
	strge	r4, [sp]
	.loc 1 624 0
	blt	.L393
.LVL304:
.L395:
	.loc 1 625 0
	cmp	r9, r10
	movge	r4, r10
	blt	.L398
.LVL305:
.L394:
	.loc 1 626 0
	mov	r1, r4
	mov	r0, r8
	ldr	r2, .L443+36
	.loc 1 625 0
	add	r4, r4, #1
.LVL306:
	.loc 1 626 0
	bl	P_BlockLinesIterator
.LVL307:
	.loc 1 625 0
	cmp	r9, r4
	bge	.L394
.LVL308:
.L398:
	.loc 1 624 0
	add	r8, r8, #1
.LVL309:
	cmp	fp, r8
	bge	.L395
	ldr	r3, .L443+32
	ldr	r4, [sp]
	ldr	r1, [r3, #12]
	ldr	r2, [r3, #16]
.LBE194:
.LBE193:
	.loc 1 654 0
	orrs	r3, r2, r1
	bne	.L396
	ldrd	r2, [r4, #120]
	strd	r2, [sp]
.L393:
	ldrd	r8, [sp]
.LVL310:
	b	.L391
.LVL311:
.L441:
.LBB195:
	.loc 1 674 0
	ldr	r0, [r5, #64]
.LVL312:
	bl	P_IsOnLift.isra.4
.LVL313:
	.loc 1 673 0
	cmp	r0, #0
	bne	.L400
	ldr	r3, [r4, #188]
.LVL314:
.LBB191:
.LBB192:
	.loc 1 295 0
	cmp	r3, #0
	beq	.L401
	.loc 1 296 0
	ldr	ip, .L443+40
.LVL315:
.L403:
	ldr	r2, [r3]
	ldr	r2, [r2, #108]
.LVL316:
	cmp	r2, #0
	beq	.L402
	ldr	r1, [r2, #8]
	cmp	r1, ip
	.loc 1 298 0
	ldreq	r2, [r2, #64]
.LVL317:
	orreq	r0, r0, r2
.LVL318:
.L402:
	.loc 1 295 0
	ldr	r3, [r3, #12]
.LVL319:
	cmp	r3, #0
	bne	.L403
.LBE192:
.LBE191:
	.loc 1 674 0
	cmp	r0, #0
	bne	.L400
.LVL320:
.L401:
	.loc 1 676 0
	rsb	r7, r7, #0
.LVL321:
	rsb	r6, r6, #0
.LVL322:
	b	.L389
.LVL323:
.L442:
	.loc 1 683 0 discriminator 1
	ldr	r3, [r5, #156]
	cmp	r3, #0
	cmpne	r10, #12582912
	bge	.L389
	.loc 1 684 0 discriminator 1
	ldrb	r3, [r3, #120]	@ zero_extendqisi2
	.loc 1 683 0 discriminator 1
	cmp	r3, #0
	cmpne	r3, #7
	bne	.L389
	b	.L404
.LVL324:
.L396:
.LBE195:
	.loc 1 657 0
	mov	r0, r4
	bl	P_DoNewChaseDir
.LVL325:
	.loc 1 662 0
	mov	r3, #1
	strh	r3, [r4, #138]	@ movhi
	.loc 1 663 0
	b	.L388
.L444:
	.align	2
.L443:
	.word	compatibility_level
	.word	distfriend
	.word	monster_backing
	.word	comp
	.word	bmaporgx
	.word	bmaporgy
	.word	tmbbox
	.word	validcount
	.word	.LANCHOR0
	.word	PIT_AvoidDropoff
	.word	T_MoveCeiling
	.cfi_endproc
.LFE17:
	.size	P_NewChaseDir, .-P_NewChaseDir
	.align	2
	.type	A_SpawnFly.part.7, %function
A_SpawnFly.part.7:
.LFB99:
	.loc 1 2416 0
	.cfi_startproc
	@ args = 0, pretend = 0, frame = 0
	@ frame_needed = 0, uses_anonymous_args = 0
.LVL326:
	stmfd	sp!, {r3, r4, r5, r6, r7, lr}
	.cfi_def_cfa_offset 24
	.cfi_offset 3, -24
	.cfi_offset 4, -20
	.cfi_offset 5, -16
	.cfi_offset 6, -12
	.cfi_offset 7, -8
	.cfi_offset 14, -4
	.loc 1 2427 0
	ldr	r4, [r0, #144]
.LVL327:
	.loc 1 2416 0
	mov	r5, r0
	.loc 1 2430 0
	add	r0, r4, #24
.LVL328:
	mov	r3, #29
	ldmia	r0, {r0, r1, r2}
	bl	P_SpawnMobj
.LVL329:
	.loc 1 2431 0
	mov	r1, #35
	bl	S_StartSound
.LVL330:
	.loc 1 2434 0
	mov	r0, #47
	bl	P_Random
.LVL331:
	.loc 1 2437 0
	cmp	r0, #49
	.loc 1 2438 0
	movle	r3, #11
	.loc 1 2437 0
	ble	.L446
	.loc 1 2439 0
	cmp	r0, #89
	.loc 1 2440 0
	movle	r3, #12
	.loc 1 2439 0
	bgt	.L462
.L446:
.LVL332:
	.loc 1 2460 0
	add	r0, r4, #24
.LVL333:
	ldmia	r0, {r0, r1, r2}
	bl	P_SpawnMobj
.LVL334:
	.loc 1 2463 0
	ldrd	r2, [r5, #120]
	mov	r2, #0
	ldrd	r6, [r0, #120]
	.loc 1 2460 0
	mov	r4, r0
.LVL335:
	.loc 1 2463 0
	and	r3, r3, #4
	bic	r7, r7, #4
	orr	r2, r2, r6
	orr	r3, r3, r7
	strd	r2, [r0, #120]
	.loc 1 2466 0
	bl	P_UpdateThinker
.LVL336:
	.loc 1 2468 0
	mov	r0, r4
	mov	r1, #1
	bl	P_LookForTargets
.LVL337:
	cmp	r0, #0
	bne	.L463
.L447:
	.loc 1 2472 0
	mov	r0, r4
	ldr	r1, [r4, #24]
	ldr	r2, [r4, #28]
	mov	r3, #1
	bl	P_TeleportMove
.LVL338:
	.loc 1 2475 0
	mov	r0, r5
	.loc 1 2476 0
	ldmfd	sp!, {r3, r4, r5, r6, r7, lr}
	.cfi_remember_state
	.cfi_restore 14
	.cfi_restore 7
	.cfi_restore 6
	.cfi_restore 5
	.cfi_restore 4
	.cfi_restore 3
	.cfi_def_cfa_offset 0
.LVL339:
	.loc 1 2475 0
	b	P_RemoveMobj
.LVL340:
.L462:
	.cfi_restore_state
	.loc 1 2441 0
	cmp	r0, #119
	.loc 1 2442 0
	movle	r3, #13
	.loc 1 2441 0
	ble	.L446
	.loc 1 2443 0
	cmp	r0, #129
	.loc 1 2444 0
	movle	r3, #22
	.loc 1 2443 0
	ble	.L446
	.loc 1 2445 0
	cmp	r0, #159
	.loc 1 2446 0
	movle	r3, #14
	.loc 1 2445 0
	ble	.L446
	.loc 1 2447 0
	cmp	r0, #161
	.loc 1 2448 0
	movle	r3, #3
	.loc 1 2447 0
	ble	.L446
	.loc 1 2449 0
	cmp	r0, #171
	.loc 1 2450 0
	movle	r3, #5
	.loc 1 2449 0
	ble	.L446
	.loc 1 2451 0
	cmp	r0, #191
	.loc 1 2452 0
	movle	r3, #20
	.loc 1 2451 0
	ble	.L446
	.loc 1 2453 0
	cmp	r0, #221
	.loc 1 2454 0
	movle	r3, #8
	.loc 1 2453 0
	ble	.L446
	.loc 1 2458 0
	cmp	r0, #245
	movle	r3, #17
	movgt	r3, #15
	b	.L446
.LVL341:
.L463:
	.loc 1 2469 0
	ldr	r3, [r4, #108]
	mov	r0, r4
	ldrh	r1, [r3, #12]
	bl	P_SetMobjState
.LVL342:
	b	.L447
	.cfi_endproc
.LFE99:
	.size	A_SpawnFly.part.7, .-A_SpawnFly.part.7
	.align	2
	.global	P_NoiseAlert
	.type	P_NoiseAlert, %function
P_NoiseAlert:
.LFB5:
	.loc 1 127 0
	.cfi_startproc
	@ args = 0, pretend = 0, frame = 0
	@ frame_needed = 0, uses_anonymous_args = 0
	@ link register save eliminated.
.LVL343:
	.loc 1 128 0
	ldr	ip, .L465
	.loc 1 129 0
	ldr	r1, [r1, #64]
.LVL344:
	.loc 1 128 0
	ldr	r3, [ip]
	.loc 1 127 0
	mov	r2, r0
	.loc 1 128 0
	add	r3, r3, #1
	.loc 1 129 0
	ldr	r0, [r1]
.LVL345:
	mov	r1, #0
	.loc 1 128 0
	str	r3, [ip]
	.loc 1 129 0
	b	P_RecursiveSound
.LVL346:
.L466:
	.align	2
.L465:
	.word	validcount
	.cfi_endproc
.LFE5:
	.size	P_NoiseAlert, .-P_NoiseAlert
	.align	2
	.global	A_KeenDie
	.type	A_KeenDie, %function
A_KeenDie:
.LFB24:
	.loc 1 1012 0
	.cfi_startproc
	@ args = 0, pretend = 0, frame = 128
	@ frame_needed = 0, uses_anonymous_args = 0
.LVL347:
	str	lr, [sp, #-4]!
	.cfi_def_cfa_offset 4
	.cfi_offset 14, -4
.LBB196:
.LBB197:
	.loc 1 2087 0
	ldrd	r2, [r0, #120]
.LBE197:
.LBE196:
	.loc 1 1020 0
	ldr	ip, .L479
.LBB199:
.LBB198:
	.loc 1 2087 0
	bic	r2, r2, #2
	strd	r2, [r0, #120]
.LBE198:
.LBE199:
	.loc 1 1020 0
	ldr	r3, [ip, #100]
.LVL348:
	add	ip, ip, #96
	cmp	r3, ip
	.loc 1 1012 0
	sub	sp, sp, #132
	.cfi_def_cfa_offset 136
	.loc 1 1020 0
	beq	.L468
	ldr	lr, .L479+4
.L471:
.LVL349:
	.loc 1 1021 0
	ldr	r1, [r3, #8]
.LBB200:
	.loc 1 1024 0
	subs	r2, r3, r0
	movne	r2, #1
	cmp	r1, lr
	movne	r2, #0
	cmp	r2, #0
	beq	.L469
	.loc 1 1024 0 is_stmt 0 discriminator 1
	ldrb	r1, [r3, #104]	@ zero_extendqisi2
	ldrb	r2, [r0, #104]	@ zero_extendqisi2
	cmp	r1, r2
	beq	.L478
.L469:
.LBE200:
	.loc 1 1020 0 is_stmt 1 discriminator 2
	ldr	r3, [r3, #4]
.LVL350:
	cmp	r3, ip
	bne	.L471
.L468:
	.loc 1 1028 0
	ldr	r3, .L479+8
.LVL351:
	.loc 1 1029 0
	add	r0, sp, #4
.LVL352:
	mov	r1, #3
	.loc 1 1028 0
	strh	r3, [sp, #28]	@ movhi
	.loc 1 1029 0
	bl	EV_DoDoor
.LVL353:
.L467:
	.loc 1 1030 0
	add	sp, sp, #132
	.cfi_remember_state
	.cfi_def_cfa_offset 4
	@ sp needed
	ldr	pc, [sp], #4
.LVL354:
.L478:
	.cfi_restore_state
.LBB201:
	.loc 1 1024 0 discriminator 2
	ldr	r2, [r3, #132]
	cmp	r2, #0
	ble	.L469
	b	.L467
.L480:
	.align	2
.L479:
	.word	thinkerclasscap
	.word	P_MobjThinker
	.word	666
.LBE201:
	.cfi_endproc
.LFE24:
	.size	A_KeenDie, .-A_KeenDie
	.align	2
	.global	A_Look
	.type	A_Look, %function
A_Look:
.LFB25:
	.loc 1 1043 0
	.cfi_startproc
	@ args = 0, pretend = 0, frame = 0
	@ frame_needed = 0, uses_anonymous_args = 0
.LVL355:
	stmfd	sp!, {r3, r4, r5, lr}
	.cfi_def_cfa_offset 16
	.cfi_offset 3, -16
	.cfi_offset 4, -12
	.cfi_offset 5, -8
	.cfi_offset 14, -4
	.loc 1 1054 0
	ldrd	r2, [r0, #120]
	mov	r2, #0
	.loc 1 1045 0
	mov	r1, #0
	.loc 1 1054 0
	and	r3, r3, #4
	orrs	r3, r2, r3
	.loc 1 1043 0
	mov	r4, r0
.LVL356:
	.loc 1 1045 0
	strh	r1, [r0, #150]	@ movhi
.LVL357:
	.loc 1 1052 0
	strh	r1, [r0, #152]	@ movhi
	.loc 1 1054 0
	bne	.L519
	.loc 1 1055 0
	ldr	r3, [r0, #64]
	ldr	r3, [r3]
	ldr	r5, [r3, #32]
.LVL358:
	.loc 1 1054 0
	cmp	r5, #0
	beq	.L487
	.loc 1 1056 0
	ldrd	r2, [r5, #120]
	mov	r3, #0
	and	r2, r2, #4
	.loc 1 1055 0
	orrs	r3, r2, r3
	bne	.L498
.LVL359:
.L487:
	.loc 1 1059 0
	mov	r0, r4
	mov	r1, #0
	bl	P_LookForTargets
.LVL360:
	cmp	r0, #0
	ldmeqfd	sp!, {r3, r4, r5, pc}
.LVL361:
.L484:
	.loc 1 1064 0
	ldr	r3, [r4, #108]
	ldr	r1, [r3, #16]
	cmp	r1, #0
	beq	.L492
.LBB202:
	.loc 1 1067 0
	sub	r3, r1, #36
	cmp	r3, #4
	ldrls	pc, [pc, r3, asl #2]
	b	.L493
.L495:
	.word	.L494
	.word	.L494
	.word	.L494
	.word	.L496
	.word	.L496
.LVL362:
.L498:
.LBE202:
	.loc 1 1057 0
	add	r0, r4, #144
	mov	r1, r5
	bl	P_SetTarget
.LVL363:
	.loc 1 1058 0
	ldrd	r2, [r4, #120]
	mov	r3, #0
	and	r2, r2, #32
	orrs	r3, r2, r3
	beq	.L484
	.loc 1 1058 0 is_stmt 0 discriminator 2
	mov	r1, r5
	mov	r0, r4
	bl	P_CheckSight
.LVL364:
	cmp	r0, #0
	bne	.L484
	b	.L488
.LVL365:
.L496:
.LBB203:
	.loc 1 1077 0 is_stmt 1
	mov	r0, #31
	bl	P_Random
.LVL366:
	add	r1, r0, r0, lsr #31
	and	r1, r1, #1
	sub	r0, r1, r0, lsr #31
	add	r1, r0, #39
.LVL367:
.L493:
	.loc 1 1084 0
	ldrb	r0, [r4, #104]	@ zero_extendqisi2
	sub	r0, r0, #19
	ands	r0, r0, #253
	.loc 1 1087 0
	movne	r0, r4
	bl	S_StartSound
.LVL368:
	ldr	r3, [r4, #108]
.L492:
.LBE203:
	.loc 1 1089 0
	mov	r0, r4
	ldrh	r1, [r3, #12]
	.loc 1 1090 0
	ldmfd	sp!, {r3, r4, r5, lr}
	.cfi_remember_state
	.cfi_restore 14
	.cfi_restore 5
	.cfi_restore 4
	.cfi_restore 3
	.cfi_def_cfa_offset 0
.LVL369:
	.loc 1 1089 0
	b	P_SetMobjState
.LVL370:
.L519:
	.cfi_restore_state
	.loc 1 1054 0 discriminator 2
	bl	P_LookForTargets
.LVL371:
	cmp	r0, #0
	bne	.L484
	.loc 1 1055 0 discriminator 3
	ldr	r3, [r4, #64]
	ldr	r3, [r3]
	ldr	r5, [r3, #32]
.LVL372:
	.loc 1 1054 0 discriminator 3
	cmp	r5, #0
	beq	.L488
	.loc 1 1056 0
	ldrd	r2, [r5, #120]
	mov	r3, #0
	and	r2, r2, #4
	.loc 1 1055 0
	orrs	r3, r2, r3
	bne	.L498
.L488:
	.loc 1 1059 0
	ldrd	r2, [r4, #120]
	mov	r2, #0
	and	r3, r3, #4
	.loc 1 1058 0
	orrs	r3, r2, r3
	ldmnefd	sp!, {r3, r4, r5, pc}
	b	.L487
.LVL373:
.L494:
.LBB204:
	.loc 1 1072 0
	mov	r0, #31
	bl	P_Random
.LVL374:
	ldr	r1, .L520
	smull	r3, r1, r1, r0
	sub	r1, r1, r0, asr #31
	add	r1, r1, r1, asl #1
	rsb	r0, r1, r0
	add	r1, r0, #36
.LVL375:
	.loc 1 1073 0
	b	.L493
.L521:
	.align	2
.L520:
	.word	1431655766
.LBE204:
	.cfi_endproc
.LFE25:
	.size	A_Look, .-A_Look
	.align	2
	.global	A_FaceTarget
	.type	A_FaceTarget, %function
A_FaceTarget:
.LFB28:
	.loc 1 1245 0
	.cfi_startproc
	@ args = 0, pretend = 0, frame = 0
	@ frame_needed = 0, uses_anonymous_args = 0
.LVL376:
	stmfd	sp!, {r3, r4, r5, r6, r7, lr}
	.cfi_def_cfa_offset 24
	.cfi_offset 3, -24
	.cfi_offset 4, -20
	.cfi_offset 5, -16
	.cfi_offset 6, -12
	.cfi_offset 7, -8
	.cfi_offset 14, -4
	.loc 1 1246 0
	ldr	r3, [r0, #144]
	cmp	r3, #0
	ldmeqfd	sp!, {r3, r4, r5, r6, r7, pc}
	mov	r4, r0
	.loc 1 1248 0
	ldrd	r0, [r0, #120]
.LVL377:
	mov	r7, r1
	bic	r6, r0, #32
	.loc 1 1249 0
	ldr	r2, [r3, #24]
	ldr	r0, [r4, #24]
	ldr	r3, [r3, #28]
	.loc 1 1248 0
	strd	r6, [r4, #120]
	.loc 1 1249 0
	ldr	r1, [r4, #28]
	bl	R_PointToAngle2
.LVL378:
	.loc 1 1251 0
	ldr	r3, [r4, #144]
	.loc 1 1249 0
	str	r0, [r4, #44]
	.loc 1 1251 0
	ldrd	r2, [r3, #120]
	mov	r3, #0
	and	r2, r2, #262144
	orrs	r3, r2, r3
	ldmeqfd	sp!, {r3, r4, r5, r6, r7, pc}
.LVL379:
.LBB208:
.LBB209:
	.loc 1 1253 0
	mov	r0, #32
	bl	P_Random
.LVL380:
	mov	r5, r0
.LVL381:
	.loc 1 1254 0
	mov	r0, #32
.LVL382:
	bl	P_Random
.LVL383:
	ldr	r3, [r4, #44]
	rsb	r0, r0, r5
	add	r3, r3, r0, asl #21
	str	r3, [r4, #44]
	ldmfd	sp!, {r3, r4, r5, r6, r7, pc}
.LBE209:
.LBE208:
	.cfi_endproc
.LFE28:
	.size	A_FaceTarget, .-A_FaceTarget
	.align	2
	.global	A_Chase
	.type	A_Chase, %function
A_Chase:
.LFB27:
	.loc 1 1117 0
	.cfi_startproc
	@ args = 0, pretend = 0, frame = 0
	@ frame_needed = 0, uses_anonymous_args = 0
.LVL384:
	stmfd	sp!, {r3, r4, r5, r6, r7, r8, r9, lr}
	.cfi_def_cfa_offset 32
	.cfi_offset 3, -32
	.cfi_offset 4, -28
	.cfi_offset 5, -24
	.cfi_offset 6, -20
	.cfi_offset 7, -16
	.cfi_offset 8, -12
	.cfi_offset 9, -8
	.cfi_offset 14, -4
	.loc 1 1118 0
	ldrh	r3, [r0, #148]
	.loc 1 1117 0
	mov	r4, r0
	.loc 1 1118 0
	cmp	r3, #0
	.loc 1 1119 0
	subne	r3, r3, #1
	strneh	r3, [r0, #148]	@ movhi
	.loc 1 1121 0
	ldrh	r3, [r0, #150]
	cmp	r3, #0
	beq	.L532
	.loc 1 1122 0
	ldr	r2, [r0, #144]
	cmp	r2, #0
	beq	.L533
	.loc 1 1122 0 is_stmt 0 discriminator 1
	ldr	r2, [r2, #132]
	cmp	r2, #0
	.loc 1 1125 0 is_stmt 1 discriminator 1
	subgt	r3, r3, #1
	strgth	r3, [r0, #150]	@ movhi
	.loc 1 1122 0 discriminator 1
	ble	.L533
.L532:
	.loc 1 1132 0
	ldrsh	r3, [r4, #140]
	cmp	r3, #0
	bne	.L670
	.loc 1 1134 0
	ldrsh	r3, [r4, #136]
	cmp	r3, #7
	bgt	.L536
.LBB217:
	.loc 1 1136 0
	ldr	r2, [r4, #44]
	and	r2, r2, #-536870912
	sub	r3, r2, r3, asl #29
.LVL385:
	.loc 1 1137 0
	cmp	r3, #0
	ble	.L538
	.loc 1 1138 0
	add	r2, r2, #-536870912
	str	r2, [r4, #44]
.LVL386:
.L536:
.LBE217:
	.loc 1 1144 0
	ldr	r3, [r4, #144]
	cmp	r3, #0
	beq	.L541
	.loc 1 1144 0 is_stmt 0 discriminator 1
	ldrd	r2, [r3, #120]
	mov	r3, #0
	and	r2, r2, #4
	orrs	r3, r2, r3
	beq	.L541
	.loc 1 1152 0 is_stmt 1
	ldrd	r2, [r4, #120]
	mov	r1, #0
	and	r0, r2, #128
	orrs	r1, r0, r1
	beq	.L545
	.loc 1 1155 0
	ldr	r1, .L682
	.loc 1 1154 0
	bic	r2, r2, #128
	strd	r2, [r4, #120]
	.loc 1 1155 0
	ldrsb	r3, [r1]
	cmp	r3, #4
	ldmeqfd	sp!, {r3, r4, r5, r6, r7, r8, r9, pc}
	.loc 1 1155 0 is_stmt 0 discriminator 1
	ldr	r3, .L682+4
	ldr	r3, [r3]
	cmp	r3, #0
	ldmnefd	sp!, {r3, r4, r5, r6, r7, r8, r9, pc}
	.loc 1 1156 0 is_stmt 1
	mov	r0, r4
	.loc 1 1239 0
	ldmfd	sp!, {r3, r4, r5, r6, r7, r8, r9, lr}
	.cfi_remember_state
	.cfi_restore 14
	.cfi_restore 9
	.cfi_restore 8
	.cfi_restore 7
	.cfi_restore 6
	.cfi_restore 5
	.cfi_restore 4
	.cfi_restore 3
	.cfi_def_cfa_offset 0
.LVL387:
	.loc 1 1156 0
	b	P_NewChaseDir
.LVL388:
.L541:
	.cfi_restore_state
	.loc 1 1146 0
	mov	r0, r4
	mov	r1, #1
	bl	P_LookForTargets
.LVL389:
	cmp	r0, #0
	ldmnefd	sp!, {r3, r4, r5, r6, r7, r8, r9, pc}
	.loc 1 1147 0
	ldr	r3, [r4, #108]
	mov	r0, r4
	ldrh	r1, [r3, #4]
	.loc 1 1239 0
	ldmfd	sp!, {r3, r4, r5, r6, r7, r8, r9, lr}
	.cfi_remember_state
	.cfi_restore 14
	.cfi_restore 9
	.cfi_restore 8
	.cfi_restore 7
	.cfi_restore 6
	.cfi_restore 5
	.cfi_restore 4
	.cfi_restore 3
	.cfi_def_cfa_offset 0
.LVL390:
	.loc 1 1147 0
	b	P_SetMobjState
.LVL391:
.L670:
	.cfi_restore_state
	.loc 1 1133 0
	mov	r0, r4
.LVL392:
	bl	A_FaceTarget
.LVL393:
	b	.L536
.L545:
	.loc 1 1161 0
	ldr	r3, [r4, #108]
	ldr	r2, [r3, #40]
	cmp	r2, #0
	bne	.L671
.L547:
	.loc 1 1174 0
	ldr	r3, [r3, #44]
	cmp	r3, #0
	beq	.L550
	.loc 1 1175 0
	ldr	r3, .L682
	ldrsb	r3, [r3]
	cmp	r3, #3
	bgt	.L551
	.loc 1 1175 0 is_stmt 0 discriminator 1
	ldr	r3, .L682+4
	ldr	r3, [r3]
	cmp	r3, #0
	beq	.L672
.L551:
.LVL394:
.LBB218:
.LBB219:
	.loc 1 172 0 is_stmt 1
	mov	r0, r4
	ldr	r1, [r4, #144]
	bl	P_CheckSight
.LVL395:
	cmp	r0, #0
	beq	.L550
	.loc 1 175 0
	ldrd	r2, [r4, #120]
	mov	r1, #0
	and	r0, r2, #64
	orrs	r1, r0, r1
	bne	.L673
	.loc 1 195 0
	mov	r2, #0
	ldr	ip, [r4, #144]
	ldrd	r0, [ip, #120]
	and	r3, r3, r1
	and	r3, r3, #4
	orrs	r3, r2, r3
	bne	.L550
	.loc 1 198 0
	ldrsh	r3, [r4, #148]
	cmp	r3, #0
	bne	.L550
	.loc 1 202 0
	ldr	r3, [ip, #28]
	ldr	r2, [ip, #24]
	ldr	r0, [r4, #24]
	ldr	r1, [r4, #28]
	rsb	r0, r2, r0
	rsb	r1, r3, r1
	bl	P_AproxDistance
.LVL396:
	.loc 1 205 0
	ldr	r3, [r4, #108]
	ldr	r3, [r3, #40]
	cmp	r3, #0
	.loc 1 210 0
	ldrb	r3, [r4, #104]	@ zero_extendqisi2
	.loc 1 202 0
	subne	r0, r0, #4194304
.LVL397:
	.loc 1 206 0
	subeq	r0, r0, #12582912
.LVL398:
	.loc 1 210 0
	cmp	r3, #3
	.loc 1 208 0
	mov	r5, r0, asr #16
.LVL399:
	.loc 1 210 0
	beq	.L674
	.loc 1 215 0
	cmp	r3, #5
	beq	.L675
	.loc 1 222 0
	sub	r2, r3, #21
	clz	r2, r2
	.loc 1 223 0
	sub	r3, r3, #18
	.loc 1 222 0
	mov	r2, r2, lsr #5
	cmp	r3, #1
	movhi	r3, r2
	orrls	r3, r2, #1
	.loc 1 223 0
	cmp	r3, #0
	bne	.L676
	.loc 1 227 0
	cmp	r5, #200
	.loc 1 223 0
	mov	r2, r3
	.loc 1 228 0
	movgt	r5, #200
.LVL400:
	.loc 1 227 0
	ble	.L591
.LVL401:
.L565:
	.loc 1 233 0
	mov	r0, #27
	bl	P_Random
.LVL402:
	cmp	r0, r5
	blt	.L550
.LVL403:
.LBB220:
.LBB221:
	.loc 1 155 0
	ldrd	r2, [r4, #120]
	mov	r2, #0
	and	r3, r3, #4
	.loc 1 161 0
	orrs	r3, r2, r3
	beq	.L588
	mov	r0, r4
	bl	P_HitFriend.part.3
.LVL404:
.LBE221:
.LBE220:
	.loc 1 236 0
	cmp	r0, #0
	beq	.L588
.LVL405:
.L550:
.LBE219:
.LBE218:
	.loc 1 1183 0
	ldrsh	r3, [r4, #150]
	cmp	r3, #0
	bne	.L567
	.loc 1 1184 0
	ldr	r3, .L682+8
	ldrb	r3, [r3]	@ zero_extendqisi2
	cmp	r3, #10
	bls	.L677
	.loc 1 1191 0
	ldr	r3, .L682+12
	ldr	r3, [r3]
	cmp	r3, #0
	bne	.L678
.L570:
	.loc 1 1194 0
	ldrh	r3, [r4, #152]
	cmp	r3, #0
	.loc 1 1195 0
	subne	r3, r3, #1
	strneh	r3, [r4, #152]	@ movhi
	.loc 1 1194 0
	bne	.L567
	.loc 1 1199 0
	mov	r3, #100
	.loc 1 1206 0
	ldr	r1, [r4, #144]
	.loc 1 1199 0
	strh	r3, [r4, #152]	@ movhi
	.loc 1 1206 0
	cmp	r1, #0
	beq	.L579
	.loc 1 1206 0 is_stmt 0 discriminator 1
	ldr	r3, [r1, #132]
	cmp	r3, #0
	ble	.L579
	.loc 1 1207 0 is_stmt 1 discriminator 2
	ldr	r3, .L682+16
	.loc 1 1206 0 discriminator 2
	ldr	r3, [r3, #48]
	cmp	r3, #0
	beq	.L580
	.loc 1 1207 0
	ldr	r3, .L682+20
	ldr	r3, [r3]
	cmp	r3, #0
	beq	.L578
.L580:
	.loc 1 1208 0 discriminator 1
	ldrd	r2, [r1, #120]
	ldrd	r6, [r4, #120]
	eor	r8, r6, r2
	mov	r2, #0
	eor	r9, r7, r3
	and	r3, r9, #4
	.loc 1 1207 0 discriminator 1
	orrs	r3, r2, r3
	bne	.L582
	.loc 1 1209 0
	mov	r6, #0
	and	r7, r7, #4
	.loc 1 1208 0
	orrs	r3, r6, r7
	bne	.L579
	.loc 1 1209 0
	ldr	r3, .L682+24
	ldr	r3, [r3]
	cmp	r3, #0
	beq	.L579
.L582:
	.loc 1 1210 0 discriminator 1
	mov	r0, r4
	bl	P_CheckSight
.LVL406:
	.loc 1 1209 0 discriminator 1
	cmp	r0, #0
	bne	.L578
.L579:
	.loc 1 1211 0
	mov	r0, r4
	mov	r1, #1
	bl	P_LookForTargets
.LVL407:
	cmp	r0, #0
	bne	.L679
.L578:
	.loc 1 1220 0
	ldr	r3, [r4, #108]
	ldr	r3, [r3, #44]
	cmp	r3, #0
	bne	.L567
	.loc 1 1220 0 is_stmt 0 discriminator 1
	ldrd	r2, [r4, #120]
	mov	r0, #0
	and	r1, r3, #4
	orrs	r1, r0, r1
	beq	.L567
	.loc 1 1221 0 is_stmt 1
	mov	r1, #0
	and	r0, r2, #64
	orrs	r1, r0, r1
	beq	.L583
	.loc 1 1222 0
	bic	r2, r2, #64
	strd	r2, [r4, #120]
.L567:
	.loc 1 1229 0
	ldrh	r3, [r4, #140]
	cmp	r3, #0
	.loc 1 1230 0
	subne	r3, r3, #1
	strneh	r3, [r4, #140]	@ movhi
	.loc 1 1233 0
	ldrh	r3, [r4, #138]
	sub	r3, r3, #1
	uxth	r3, r3
	tst	r3, #32768
	strh	r3, [r4, #138]	@ movhi
	bne	.L587
	.loc 1 1233 0 is_stmt 0 discriminator 1
	mov	r0, r4
	bl	P_SmartMove
.LVL408:
	cmp	r0, #0
	bne	.L586
.L587:
	.loc 1 1234 0 is_stmt 1
	mov	r0, r4
	bl	P_NewChaseDir
.LVL409:
.L586:
	.loc 1 1237 0
	ldr	r3, [r4, #108]
	ldr	r3, [r3, #80]
	cmp	r3, #0
	ldmeqfd	sp!, {r3, r4, r5, r6, r7, r8, r9, pc}
	.loc 1 1237 0 is_stmt 0 discriminator 1
	mov	r0, #31
	bl	P_Random
.LVL410:
	cmp	r0, #2
	ldmgtfd	sp!, {r3, r4, r5, r6, r7, r8, r9, pc}
	.loc 1 1238 0 is_stmt 1
	ldr	r3, [r4, #108]
	mov	r0, r4
	ldr	r1, [r3, #80]
	.loc 1 1239 0
	ldmfd	sp!, {r3, r4, r5, r6, r7, r8, r9, lr}
	.cfi_remember_state
	.cfi_restore 14
	.cfi_restore 9
	.cfi_restore 8
	.cfi_restore 7
	.cfi_restore 6
	.cfi_restore 5
	.cfi_restore 4
	.cfi_restore 3
	.cfi_def_cfa_offset 0
.LVL411:
	.loc 1 1238 0
	b	S_StartSound
.LVL412:
.L533:
	.cfi_restore_state
	.loc 1 1123 0
	mov	r3, #0
	strh	r3, [r4, #150]	@ movhi
	b	.L532
.LVL413:
.L671:
	.loc 1 1161 0 discriminator 1
	mov	r0, r4
	bl	P_CheckMeleeRange
.LVL414:
	cmp	r0, #0
	.loc 1 1163 0 discriminator 1
	ldr	r3, [r4, #108]
	.loc 1 1161 0 discriminator 1
	beq	.L547
	.loc 1 1163 0
	ldr	r1, [r3, #24]
	cmp	r1, #0
	bne	.L680
.L549:
	.loc 1 1165 0
	ldrh	r1, [r3, #40]
	mov	r0, r4
	bl	P_SetMobjState
.LVL415:
	.loc 1 1168 0
	ldr	r3, [r4, #108]
	ldr	r3, [r3, #44]
	cmp	r3, #0
	.loc 1 1169 0
	ldreqd	r2, [r4, #120]
	orreq	r2, r2, #64
	streqd	r2, [r4, #120]
	ldmfd	sp!, {r3, r4, r5, r6, r7, r8, r9, pc}
.LVL416:
.L538:
.LBB225:
	.loc 1 1141 0
	addne	r2, r2, #536870912
	str	r2, [r4, #44]
	b	.L536
.LVL417:
.L677:
.LBE225:
	.loc 1 1186 0
	ldr	r3, .L682+20
	ldr	r3, [r3]
	cmp	r3, #0
	beq	.L567
	.loc 1 1186 0 is_stmt 0 discriminator 1
	mov	r0, r4
	ldr	r1, [r4, #144]
	bl	P_CheckSight
.LVL418:
	cmp	r0, #0
	bne	.L567
	.loc 1 1187 0 is_stmt 1 discriminator 2
	mov	r0, r4
	mov	r1, #1
	bl	P_LookForPlayers
.LVL419:
	.loc 1 1186 0 discriminator 2
	cmp	r0, #0
	beq	.L567
	ldmfd	sp!, {r3, r4, r5, r6, r7, r8, r9, pc}
.L672:
	.loc 1 1175 0 discriminator 2
	ldrsh	r3, [r4, #138]
	cmp	r3, #0
	bne	.L550
	b	.L551
.LVL420:
.L673:
.LBB226:
.LBB222:
	.loc 1 184 0
	mov	r0, #0
	and	r1, r3, #4
	.loc 1 177 0
	bic	r2, r2, #64
	.loc 1 184 0
	orrs	r1, r0, r1
	.loc 1 177 0
	strd	r2, [r4, #120]
	.loc 1 184 0
	beq	.L588
	.loc 1 185 0
	ldr	r3, [r4, #144]
	.loc 1 184 0
	ldr	r2, [r3, #132]
	cmp	r2, #0
	ble	.L550
	.loc 1 186 0
	ldrd	r0, [r3, #120]
	mov	r6, #0
	and	r7, r1, #4
	.loc 1 185 0
	orrs	r2, r6, r7
	beq	.L588
	.loc 1 184 0
	ldr	r3, [r3, #156]
	cmp	r3, #0
	beq	.L555
	.loc 1 188 0
	ldr	r3, .L682+24
	ldr	r3, [r3]
	cmp	r3, #0
	beq	.L669
.L588:
.LBE222:
.LBE226:
	.loc 1 1178 0
	ldr	r3, [r4, #108]
	mov	r0, r4
	ldrh	r1, [r3, #44]
	bl	P_SetMobjState
.LVL421:
	.loc 1 1179 0
	ldrd	r2, [r4, #120]
	orr	r2, r2, #128
	strd	r2, [r4, #120]
	.loc 1 1180 0
	ldmfd	sp!, {r3, r4, r5, r6, r7, r8, r9, pc}
.LVL422:
.L678:
.LBB227:
.LBB228:
	.loc 1 977 0
	ldr	r2, [r4, #108]
	ldr	r3, [r4, #132]
	ldr	r2, [r2, #8]
	add	r3, r3, r3, asl #1
	cmp	r3, r2
	blt	.L570
	.loc 1 984 0
	ldrd	r2, [r4, #120]
	mov	r2, #0
	and	r3, r3, #4
	orrs	r3, r2, r3
	movne	r6, #48
	moveq	r6, #72
	.loc 1 981 0
	mov	r2, #1
	.loc 1 984 0
	ldr	r1, .L682+28
	.loc 1 980 0
	ldr	r3, .L682+32
	.loc 1 984 0
	add	r6, r6, r1
.LVL423:
	.loc 1 986 0
	ldr	r5, [r6, #12]
.LVL424:
	.loc 1 981 0
	str	r2, [r3, #4]
	.loc 1 986 0
	cmp	r6, r5
	.loc 1 980 0
	str	r4, [r3]
	.loc 1 986 0
	bne	.L575
	b	.L570
.L573:
	.loc 1 993 0
	ldrd	r2, [r5, #120]
	mov	r3, #0
	and	r2, r2, #64
	orrs	r3, r2, r3
	beq	.L574
	.loc 1 994 0
	ldr	r0, [r5, #144]
	.loc 1 993 0
	cmp	r0, #0
	beq	.L574
	.loc 1 994 0
	ldr	r3, [r4, #144]
	cmp	r0, r3
	beq	.L574
	.loc 1 996 0
	bl	PIT_FindTarget
.LVL425:
	.loc 1 995 0
	cmp	r0, #0
	beq	.L681
.L574:
	.loc 1 986 0
	ldr	r5, [r5, #12]
.LVL426:
	cmp	r6, r5
	beq	.L570
.L575:
	.loc 1 987 0
	ldr	r3, [r5, #108]
	ldr	r2, [r5, #132]
	ldr	r3, [r3, #8]
	cmp	r3, r2, asl #1
	bgt	.L573
	.loc 1 989 0
	mov	r0, #58
	bl	P_Random
.LVL427:
	cmp	r0, #179
	bgt	.L574
	b	.L570
.LVL428:
.L680:
.LBE228:
.LBE227:
	.loc 1 1164 0
	mov	r0, r4
	bl	S_StartSound
.LVL429:
	ldr	r3, [r4, #108]
	b	.L549
.LVL430:
.L591:
.LBB230:
.LBB223:
	.loc 1 230 0
	cmp	r5, #160
	movle	r2, #0
	andgt	r2, r2, #1
	.loc 1 231 0
	cmp	r2, #0
	movne	r5, #160
.LVL431:
	b	.L565
.LVL432:
.L679:
.LBE223:
.LBE230:
	ldmfd	sp!, {r3, r4, r5, r6, r7, r8, r9, pc}
.LVL433:
.L676:
.LBB231:
.LBB224:
	.loc 1 225 0
	mov	r5, r0, asr #17
.LVL434:
.L590:
	.loc 1 227 0
	cmp	r5, #200
	ble	.L591
.LVL435:
	.loc 1 228 0
	cmp	r2, #0
	movne	r5, #160
	moveq	r5, #200
	b	.L565
.LVL436:
.L674:
	.loc 1 211 0
	cmp	r5, #896
	bgt	.L550
.LVL437:
.L561:
	.loc 1 222 0
	sub	r2, r3, #21
	clz	r2, r2
	mov	r2, r2, lsr #5
	b	.L590
.L675:
	.loc 1 217 0
	cmp	r5, #195
	.loc 1 219 0
	movgt	r5, r0, asr #17
.LVL438:
	.loc 1 217 0
	bgt	.L561
	b	.L550
.LVL439:
.L555:
	.loc 1 189 0
	mov	r1, #0
	and	r0, r0, #64
	orrs	r3, r0, r1
	bne	.L550
.L669:
	mov	r0, #61
	bl	P_Random
.LVL440:
	cmp	r0, #128
	bgt	.L588
	b	.L550
.LVL441:
.L681:
.LBE224:
.LBE231:
.LBB232:
.LBB229:
	.loc 1 999 0
	mov	r3, #100
	strh	r3, [r4, #150]	@ movhi
	ldmfd	sp!, {r3, r4, r5, r6, r7, r8, r9, pc}
.LVL442:
.L583:
.LBE229:
.LBE232:
	.loc 1 1223 0
	mov	r0, r4
	mov	r1, #1
	bl	P_LookForPlayers
.LVL443:
	cmp	r0, #0
	beq	.L567
	ldmfd	sp!, {r3, r4, r5, r6, r7, r8, r9, pc}
.L683:
	.align	2
.L682:
	.word	gameskill
	.word	fastparm
	.word	compatibility_level
	.word	help_friends
	.word	comp
	.word	netgame
	.word	monster_infighting
	.word	thinkerclasscap
	.word	.LANCHOR0
	.cfi_endproc
.LFE27:
	.size	A_Chase, .-A_Chase
	.align	2
	.global	A_PosAttack
	.type	A_PosAttack, %function
A_PosAttack:
.LFB29:
	.loc 1 1263 0
	.cfi_startproc
	@ args = 0, pretend = 0, frame = 0
	@ frame_needed = 0, uses_anonymous_args = 0
.LVL444:
	stmfd	sp!, {r4, r5, r6, r7, lr}
	.cfi_def_cfa_offset 20
	.cfi_offset 4, -20
	.cfi_offset 5, -16
	.cfi_offset 6, -12
	.cfi_offset 7, -8
	.cfi_offset 14, -4
	.loc 1 1266 0
	ldr	r3, [r0, #144]
	.loc 1 1263 0
	sub	sp, sp, #12
	.cfi_def_cfa_offset 32
	.loc 1 1266 0
	cmp	r3, #0
	.loc 1 1263 0
	mov	r4, r0
	.loc 1 1266 0
	beq	.L684
	.loc 1 1268 0
	bl	A_FaceTarget
.LVL445:
	.loc 1 1270 0
	mov	r3, #0
	mov	r2, #0
	.loc 1 1269 0
	ldr	r5, [r4, #44]
.LVL446:
	.loc 1 1270 0
	mov	r0, r4
	strd	r2, [sp]
	mov	r1, r5
	mov	r2, #134217728
	bl	P_AimLineAttack
.LVL447:
	.loc 1 1271 0
	mov	r1, #1
	.loc 1 1270 0
	mov	r6, r0
.LVL448:
	.loc 1 1271 0
	mov	r0, r4
.LVL449:
	bl	S_StartSound
.LVL450:
	.loc 1 1274 0
	mov	r0, #33
	bl	P_Random
.LVL451:
	mov	r7, r0
.LVL452:
	.loc 1 1275 0
	mov	r0, #33
.LVL453:
	bl	P_Random
.LVL454:
	rsb	r7, r0, r7
.LVL455:
	.loc 1 1276 0
	mov	r0, #33
	bl	P_Random
.LVL456:
	ldr	ip, .L690
	mov	lr, r0, asr #31
	smull	r3, ip, ip, r0
	rsb	ip, lr, ip, asr #1
	add	ip, ip, ip, asl #2
	rsb	r2, ip, r0
	add	r2, r2, #1
	add	r2, r2, r2, asl #1
	.loc 1 1275 0
	add	r5, r5, r7, asl #20
.LVL457:
	.loc 1 1277 0
	str	r2, [sp]
	mov	r1, r5
	mov	r3, r6
	mov	r0, r4
.LVL458:
	mov	r2, #134217728
	bl	P_LineAttack
.LVL459:
.L684:
	.loc 1 1278 0
	add	sp, sp, #12
	.cfi_def_cfa_offset 20
	@ sp needed
	ldmfd	sp!, {r4, r5, r6, r7, pc}
.LVL460:
.L691:
	.align	2
.L690:
	.word	1717986919
	.cfi_endproc
.LFE29:
	.size	A_PosAttack, .-A_PosAttack
	.align	2
	.global	A_SPosAttack
	.type	A_SPosAttack, %function
A_SPosAttack:
.LFB30:
	.loc 1 1281 0
	.cfi_startproc
	@ args = 0, pretend = 0, frame = 0
	@ frame_needed = 0, uses_anonymous_args = 0
.LVL461:
	stmfd	sp!, {r4, r5, r6, r7, r8, r9, lr}
	.cfi_def_cfa_offset 28
	.cfi_offset 4, -28
	.cfi_offset 5, -24
	.cfi_offset 6, -20
	.cfi_offset 7, -16
	.cfi_offset 8, -12
	.cfi_offset 9, -8
	.cfi_offset 14, -4
	.loc 1 1284 0
	ldr	r3, [r0, #144]
	.loc 1 1281 0
	sub	sp, sp, #12
	.cfi_def_cfa_offset 40
	.loc 1 1284 0
	cmp	r3, #0
	.loc 1 1281 0
	mov	r4, r0
	.loc 1 1284 0
	beq	.L692
	.loc 1 1286 0
	mov	r1, #2
	bl	S_StartSound
.LVL462:
	.loc 1 1287 0
	mov	r0, r4
	bl	A_FaceTarget
.LVL463:
	.loc 1 1289 0
	mov	r2, #0
	mov	r3, #0
	.loc 1 1288 0
	ldr	r5, [r4, #44]
.LVL464:
	.loc 1 1289 0
	mov	r0, r4
	strd	r2, [sp]
	mov	r1, r5
	mov	r2, #134217728
	bl	P_AimLineAttack
.LVL465:
	mov	r8, #3
	mov	r7, r0
.LVL466:
.LBB233:
	.loc 1 1294 0
	ldr	r6, .L698
.LVL467:
.L694:
	.loc 1 1292 0 discriminator 3
	mov	r0, #34
	bl	P_Random
.LVL468:
	mov	r9, r0
.LVL469:
	.loc 1 1293 0 discriminator 3
	mov	r0, #34
.LVL470:
	bl	P_Random
.LVL471:
	rsb	r9, r0, r9
.LVL472:
	.loc 1 1294 0 discriminator 3
	mov	r0, #34
	bl	P_Random
.LVL473:
	mov	r2, r0
	smull	r3, r0, r6, r0
	mov	r3, r2, asr #31
	rsb	r3, r3, r0, asr #1
	add	r3, r3, r3, asl #2
	rsb	r2, r3, r2
	add	r2, r2, #1
	add	r2, r2, r2, asl #1
	.loc 1 1293 0 discriminator 3
	add	r9, r5, r9, asl #20
.LVL474:
	.loc 1 1295 0 discriminator 3
	str	r2, [sp]
	mov	r1, r9
	mov	r0, r4
	mov	r2, #134217728
	mov	r3, r7
	bl	P_LineAttack
.LVL475:
.LBE233:
	.loc 1 1290 0 discriminator 3
	subs	r8, r8, #1
.LVL476:
	bne	.L694
.LVL477:
.L692:
	.loc 1 1297 0
	add	sp, sp, #12
	.cfi_def_cfa_offset 28
	@ sp needed
	ldmfd	sp!, {r4, r5, r6, r7, r8, r9, pc}
.LVL478:
.L699:
	.align	2
.L698:
	.word	1717986919
	.cfi_endproc
.LFE30:
	.size	A_SPosAttack, .-A_SPosAttack
	.align	2
	.global	A_CPosAttack
	.type	A_CPosAttack, %function
A_CPosAttack:
.LFB31:
	.loc 1 1300 0
	.cfi_startproc
	@ args = 0, pretend = 0, frame = 0
	@ frame_needed = 0, uses_anonymous_args = 0
.LVL479:
	stmfd	sp!, {r4, r5, r6, r7, lr}
	.cfi_def_cfa_offset 20
	.cfi_offset 4, -20
	.cfi_offset 5, -16
	.cfi_offset 6, -12
	.cfi_offset 7, -8
	.cfi_offset 14, -4
	.loc 1 1303 0
	ldr	r3, [r0, #144]
	.loc 1 1300 0
	sub	sp, sp, #12
	.cfi_def_cfa_offset 32
	.loc 1 1303 0
	cmp	r3, #0
	.loc 1 1300 0
	mov	r4, r0
	.loc 1 1303 0
	beq	.L700
	.loc 1 1305 0
	mov	r1, #2
	bl	S_StartSound
.LVL480:
	.loc 1 1306 0
	mov	r0, r4
	bl	A_FaceTarget
.LVL481:
	.loc 1 1308 0
	mov	r3, #0
	mov	r2, #0
	.loc 1 1307 0
	ldr	r5, [r4, #44]
.LVL482:
	.loc 1 1308 0
	mov	r0, r4
	strd	r2, [sp]
	mov	r1, r5
	mov	r2, #134217728
	bl	P_AimLineAttack
.LVL483:
	mov	r6, r0
.LVL484:
	.loc 1 1311 0
	mov	r0, #35
.LVL485:
	bl	P_Random
.LVL486:
	mov	r7, r0
.LVL487:
	.loc 1 1312 0
	mov	r0, #35
.LVL488:
	bl	P_Random
.LVL489:
	rsb	r7, r0, r7
.LVL490:
	.loc 1 1313 0
	mov	r0, #35
	bl	P_Random
.LVL491:
	ldr	ip, .L706
	mov	lr, r0, asr #31
	smull	r3, ip, ip, r0
	rsb	ip, lr, ip, asr #1
	add	ip, ip, ip, asl #2
	rsb	r2, ip, r0
	add	r2, r2, #1
	add	r2, r2, r2, asl #1
	.loc 1 1312 0
	add	r5, r5, r7, asl #20
.LVL492:
	.loc 1 1314 0
	str	r2, [sp]
	mov	r1, r5
	mov	r3, r6
	mov	r0, r4
.LVL493:
	mov	r2, #134217728
	bl	P_LineAttack
.LVL494:
.L700:
	.loc 1 1315 0
	add	sp, sp, #12
	.cfi_def_cfa_offset 20
	@ sp needed
	ldmfd	sp!, {r4, r5, r6, r7, pc}
.LVL495:
.L707:
	.align	2
.L706:
	.word	1717986919
	.cfi_endproc
.LFE31:
	.size	A_CPosAttack, .-A_CPosAttack
	.align	2
	.global	A_CPosRefire
	.type	A_CPosRefire, %function
A_CPosRefire:
.LFB32:
	.loc 1 1318 0
	.cfi_startproc
	@ args = 0, pretend = 0, frame = 0
	@ frame_needed = 0, uses_anonymous_args = 0
.LVL496:
	stmfd	sp!, {r4, lr}
	.cfi_def_cfa_offset 8
	.cfi_offset 4, -8
	.cfi_offset 14, -4
	.loc 1 1318 0
	mov	r4, r0
	.loc 1 1320 0
	bl	A_FaceTarget
.LVL497:
.LBB234:
.LBB235:
	.loc 1 155 0
	ldrd	r2, [r4, #120]
	mov	r2, #0
	and	r3, r3, #4
	.loc 1 161 0
	orrs	r3, r2, r3
	bne	.L709
.L712:
.LBE235:
.LBE234:
	.loc 1 1327 0
	mov	r0, #45
	bl	P_Random
.LVL498:
	cmp	r0, #39
	bgt	.L729
	.loc 1 1328 0
	ldr	r1, [r4, #144]
	cmp	r1, #0
	ldmeqfd	sp!, {r4, pc}
	.loc 1 1328 0 is_stmt 0 discriminator 1
	ldrd	r2, [r4, #120]
	mov	r2, #0
	ldrd	r0, [r1, #120]
	and	r3, r3, r1
	and	r3, r3, #4
	orrs	r3, r2, r3
	beq	.L730
.L715:
.LDL1:
	.loc 1 1336 0 is_stmt 1
	ldr	r3, [r4, #108]
	mov	r0, r4
	.loc 1 1337 0
	ldmfd	sp!, {r4, lr}
	.cfi_remember_state
	.cfi_restore 14
	.cfi_restore 4
	.cfi_def_cfa_offset 0
.LVL499:
	.loc 1 1336 0
	ldrh	r1, [r3, #12]
	b	P_SetMobjState
.LVL500:
.L729:
	.cfi_restore_state
	.loc 1 1334 0
	ldr	r1, [r4, #144]
	cmp	r1, #0
	beq	.L715
	.loc 1 1334 0 is_stmt 0 discriminator 1
	ldr	r3, [r1, #132]
	cmp	r3, #0
	ble	.L715
	.loc 1 1335 0 is_stmt 1
	mov	r0, r4
	bl	P_CheckSight
.LVL501:
	cmp	r0, #0
	beq	.L715
	ldmfd	sp!, {r4, pc}
.L709:
.LBB237:
.LBB236:
	mov	r0, r4
	bl	P_HitFriend.part.3
.LVL502:
.LBE236:
.LBE237:
	.loc 1 1323 0
	cmp	r0, #0
	bne	.L715
	b	.L712
.L730:
	ldmfd	sp!, {r4, pc}
	.cfi_endproc
.LFE32:
	.size	A_CPosRefire, .-A_CPosRefire
	.align	2
	.global	A_SpidRefire
	.type	A_SpidRefire, %function
A_SpidRefire:
.LFB33:
	.loc 1 1340 0
	.cfi_startproc
	@ args = 0, pretend = 0, frame = 0
	@ frame_needed = 0, uses_anonymous_args = 0
.LVL503:
	stmfd	sp!, {r4, r6, r7, lr}
	.cfi_def_cfa_offset 16
	.cfi_offset 4, -16
	.cfi_offset 6, -12
	.cfi_offset 7, -8
	.cfi_offset 14, -4
	.loc 1 1340 0
	mov	r4, r0
	.loc 1 1342 0
	bl	A_FaceTarget
.LVL504:
.LBB238:
.LBB239:
	.loc 1 155 0
	ldrd	r2, [r4, #120]
	mov	r2, #0
	and	r3, r3, #4
	.loc 1 161 0
	orrs	r3, r2, r3
	bne	.L732
.L735:
.LBE239:
.LBE238:
	.loc 1 1348 0
	mov	r0, #36
	bl	P_Random
.LVL505:
	cmp	r0, #9
	ble	.L750
	.loc 1 1352 0
	ldr	r1, [r4, #144]
	cmp	r1, #0
	beq	.L737
	.loc 1 1352 0 is_stmt 0 discriminator 1
	ldr	r3, [r1, #132]
	cmp	r3, #0
	ble	.L737
	.loc 1 1353 0 is_stmt 1
	ldrd	r2, [r4, #120]
	ldrd	r6, [r1, #120]
	mov	r2, #0
	and	r3, r3, r7
	and	r3, r3, #4
	orrs	r3, r2, r3
	bne	.L737
	.loc 1 1354 0
	mov	r0, r4
	bl	P_CheckSight
.LVL506:
	cmp	r0, #0
	bne	.L751
.L737:
.LDL2:
	.loc 1 1355 0
	ldr	r3, [r4, #108]
	mov	r0, r4
	.loc 1 1356 0
	ldmfd	sp!, {r4, r6, r7, lr}
	.cfi_remember_state
	.cfi_restore 14
	.cfi_restore 7
	.cfi_restore 6
	.cfi_restore 4
	.cfi_def_cfa_offset 0
.LVL507:
	.loc 1 1355 0
	ldrh	r1, [r3, #12]
	b	P_SetMobjState
.LVL508:
.L750:
	.cfi_restore_state
	ldmfd	sp!, {r4, r6, r7, pc}
.L732:
.LBB241:
.LBB240:
	mov	r0, r4
	bl	P_HitFriend.part.3
.LVL509:
.LBE240:
.LBE241:
	.loc 1 1345 0
	cmp	r0, #0
	bne	.L737
	b	.L735
.L751:
	ldmfd	sp!, {r4, r6, r7, pc}
	.cfi_endproc
.LFE33:
	.size	A_SpidRefire, .-A_SpidRefire
	.align	2
	.global	A_BspiAttack
	.type	A_BspiAttack, %function
A_BspiAttack:
.LFB34:
	.loc 1 1359 0
	.cfi_startproc
	@ args = 0, pretend = 0, frame = 0
	@ frame_needed = 0, uses_anonymous_args = 0
.LVL510:
	.loc 1 1360 0
	ldr	r2, [r0, #144]
	cmp	r2, #0
	bxeq	lr
	.loc 1 1359 0
	stmfd	sp!, {r4, lr}
	.cfi_def_cfa_offset 8
	.cfi_offset 4, -8
	.cfi_offset 14, -4
	mov	r4, r0
	.loc 1 1362 0
	bl	A_FaceTarget
.LVL511:
	.loc 1 1363 0
	mov	r0, r4
	ldr	r1, [r4, #144]
	mov	r2, #36
	.loc 1 1364 0
	ldmfd	sp!, {r4, lr}
	.cfi_restore 14
	.cfi_restore 4
	.cfi_def_cfa_offset 0
.LVL512:
	.loc 1 1363 0
	b	P_SpawnMissile
.LVL513:
	.cfi_endproc
.LFE34:
	.size	A_BspiAttack, .-A_BspiAttack
	.align	2
	.global	A_TroopAttack
	.type	A_TroopAttack, %function
A_TroopAttack:
.LFB35:
	.loc 1 1371 0
	.cfi_startproc
	@ args = 0, pretend = 0, frame = 0
	@ frame_needed = 0, uses_anonymous_args = 0
.LVL514:
	.loc 1 1372 0
	ldr	r3, [r0, #144]
	.loc 1 1371 0
	stmfd	sp!, {r4, lr}
	.cfi_def_cfa_offset 8
	.cfi_offset 4, -8
	.cfi_offset 14, -4
	.loc 1 1372 0
	cmp	r3, #0
	.loc 1 1371 0
	mov	r4, r0
	.loc 1 1372 0
	ldmeqfd	sp!, {r4, pc}
	.loc 1 1374 0
	bl	A_FaceTarget
.LVL515:
	.loc 1 1375 0
	mov	r0, r4
	bl	P_CheckMeleeRange
.LVL516:
	cmp	r0, #0
.LBB242:
	.loc 1 1378 0
	mov	r0, r4
.LBE242:
	.loc 1 1375 0
	bne	.L759
	.loc 1 1383 0
	ldr	r1, [r4, #144]
	mov	r2, #31
	.loc 1 1384 0
	ldmfd	sp!, {r4, lr}
	.cfi_remember_state
	.cfi_restore 14
	.cfi_restore 4
	.cfi_def_cfa_offset 0
.LVL517:
	.loc 1 1383 0
	b	P_SpawnMissile
.LVL518:
.L759:
	.cfi_restore_state
.LBB243:
	.loc 1 1378 0
	mov	r1, #55
	bl	S_StartSound
.LVL519:
	.loc 1 1379 0
	mov	r0, #37
	bl	P_Random
.LVL520:
	mov	r3, r0, asr #31
	mov	r3, r3, lsr #29
	add	r0, r0, r3
.LVL521:
	and	r0, r0, #7
	rsb	r3, r3, r0
	add	r3, r3, #1
	.loc 1 1380 0
	ldr	r0, [r4, #144]
	mov	r1, r4
	mov	r2, r4
.LBE243:
	.loc 1 1384 0
	ldmfd	sp!, {r4, lr}
	.cfi_restore 14
	.cfi_restore 4
	.cfi_def_cfa_offset 0
.LVL522:
.LBB244:
	.loc 1 1380 0
	add	r3, r3, r3, asl #1
	b	P_DamageMobj
.LVL523:
.LBE244:
	.cfi_endproc
.LFE35:
	.size	A_TroopAttack, .-A_TroopAttack
	.align	2
	.global	A_SargAttack
	.type	A_SargAttack, %function
A_SargAttack:
.LFB36:
	.loc 1 1387 0
	.cfi_startproc
	@ args = 0, pretend = 0, frame = 0
	@ frame_needed = 0, uses_anonymous_args = 0
.LVL524:
	.loc 1 1388 0
	ldr	r3, [r0, #144]
	cmp	r3, #0
	bxeq	lr
	.loc 1 1387 0
	stmfd	sp!, {r4, lr}
	.cfi_def_cfa_offset 8
	.cfi_offset 4, -8
	.cfi_offset 14, -4
	mov	r4, r0
	.loc 1 1390 0
	bl	A_FaceTarget
.LVL525:
	.loc 1 1391 0
	mov	r0, r4
	bl	P_CheckMeleeRange
.LVL526:
	cmp	r0, #0
	ldmeqfd	sp!, {r4, pc}
.LBB245:
	.loc 1 1393 0
	mov	r0, #38
	bl	P_Random
.LVL527:
	ldr	r3, .L769
	mov	r2, r0, asr #31
	smull	r1, r3, r3, r0
	rsb	r3, r2, r3, asr #2
	add	r3, r3, r3, asl #2
	sub	r0, r0, r3, asl #1
.LVL528:
	add	r3, r0, #1
	.loc 1 1394 0
	mov	r1, r4
	ldr	r0, [r4, #144]
	mov	r2, r4
.LBE245:
	.loc 1 1396 0
	ldmfd	sp!, {r4, lr}
	.cfi_restore 14
	.cfi_restore 4
	.cfi_def_cfa_offset 0
.LVL529:
.LBB246:
	.loc 1 1394 0
	mov	r3, r3, asl #2
	b	P_DamageMobj
.LVL530:
.L770:
	.align	2
.L769:
	.word	1717986919
.LBE246:
	.cfi_endproc
.LFE36:
	.size	A_SargAttack, .-A_SargAttack
	.align	2
	.global	A_HeadAttack
	.type	A_HeadAttack, %function
A_HeadAttack:
.LFB37:
	.loc 1 1399 0
	.cfi_startproc
	@ args = 0, pretend = 0, frame = 0
	@ frame_needed = 0, uses_anonymous_args = 0
.LVL531:
	.loc 1 1400 0
	ldr	r3, [r0, #144]
	cmp	r3, #0
	bxeq	lr
	.loc 1 1399 0
	stmfd	sp!, {r4, lr}
	.cfi_def_cfa_offset 8
	.cfi_offset 4, -8
	.cfi_offset 14, -4
	mov	r4, r0
	.loc 1 1402 0
	bl	A_FaceTarget
.LVL532:
	.loc 1 1403 0
	mov	r0, r4
	bl	P_CheckMeleeRange
.LVL533:
	cmp	r0, #0
	bne	.L775
	.loc 1 1409 0
	mov	r0, r4
	ldr	r1, [r4, #144]
	mov	r2, #32
	.loc 1 1410 0
	ldmfd	sp!, {r4, lr}
	.cfi_remember_state
	.cfi_restore 14
	.cfi_restore 4
	.cfi_def_cfa_offset 0
.LVL534:
	.loc 1 1409 0
	b	P_SpawnMissile
.LVL535:
.L775:
	.cfi_restore_state
.LBB247:
	.loc 1 1405 0
	mov	r0, #39
	bl	P_Random
.LVL536:
	mov	r3, r0
.LVL537:
	ldr	r2, .L776
	.loc 1 1406 0
	ldr	r0, [r4, #144]
.LVL538:
	.loc 1 1405 0
	smull	r1, r2, r2, r3
	sub	r2, r2, r3, asr #31
	add	r2, r2, r2, asl #1
	sub	r3, r3, r2, asl #1
.LVL539:
	add	r3, r3, #1
	add	r3, r3, r3, asl #2
	.loc 1 1406 0
	mov	r1, r4
	mov	r2, r4
.LBE247:
	.loc 1 1410 0
	ldmfd	sp!, {r4, lr}
	.cfi_restore 14
	.cfi_restore 4
	.cfi_def_cfa_offset 0
.LVL540:
.LBB248:
	.loc 1 1406 0
	mov	r3, r3, asl #1
	b	P_DamageMobj
.LVL541:
.L777:
	.align	2
.L776:
	.word	715827883
.LBE248:
	.cfi_endproc
.LFE37:
	.size	A_HeadAttack, .-A_HeadAttack
	.align	2
	.global	A_CyberAttack
	.type	A_CyberAttack, %function
A_CyberAttack:
.LFB38:
	.loc 1 1413 0
	.cfi_startproc
	@ args = 0, pretend = 0, frame = 0
	@ frame_needed = 0, uses_anonymous_args = 0
.LVL542:
	.loc 1 1414 0
	ldr	r2, [r0, #144]
	cmp	r2, #0
	bxeq	lr
	.loc 1 1413 0
	stmfd	sp!, {r4, lr}
	.cfi_def_cfa_offset 8
	.cfi_offset 4, -8
	.cfi_offset 14, -4
	mov	r4, r0
	.loc 1 1416 0
	bl	A_FaceTarget
.LVL543:
	.loc 1 1417 0
	mov	r0, r4
	ldr	r1, [r4, #144]
	mov	r2, #33
	.loc 1 1418 0
	ldmfd	sp!, {r4, lr}
	.cfi_restore 14
	.cfi_restore 4
	.cfi_def_cfa_offset 0
.LVL544:
	.loc 1 1417 0
	b	P_SpawnMissile
.LVL545:
	.cfi_endproc
.LFE38:
	.size	A_CyberAttack, .-A_CyberAttack
	.align	2
	.global	A_BruisAttack
	.type	A_BruisAttack, %function
A_BruisAttack:
.LFB39:
	.loc 1 1421 0
	.cfi_startproc
	@ args = 0, pretend = 0, frame = 0
	@ frame_needed = 0, uses_anonymous_args = 0
.LVL546:
	.loc 1 1422 0
	ldr	r3, [r0, #144]
	cmp	r3, #0
	bxeq	lr
	.loc 1 1421 0
	stmfd	sp!, {r4, lr}
	.cfi_def_cfa_offset 8
	.cfi_offset 4, -8
	.cfi_offset 14, -4
	mov	r4, r0
	.loc 1 1424 0
	bl	P_CheckMeleeRange
.LVL547:
	cmp	r0, #0
.LBB249:
	.loc 1 1427 0
	mov	r0, r4
.LBE249:
	.loc 1 1424 0
	bne	.L785
	.loc 1 1432 0
	ldr	r1, [r4, #144]
	mov	r2, #16
	.loc 1 1433 0
	ldmfd	sp!, {r4, lr}
	.cfi_remember_state
	.cfi_restore 14
	.cfi_restore 4
	.cfi_def_cfa_offset 0
.LVL548:
	.loc 1 1432 0
	b	P_SpawnMissile
.LVL549:
.L785:
	.cfi_restore_state
.LBB250:
	.loc 1 1427 0
	mov	r1, #55
	bl	S_StartSound
.LVL550:
	.loc 1 1428 0
	mov	r0, #40
	bl	P_Random
.LVL551:
	mov	r3, r0, asr #31
	mov	r3, r3, lsr #29
	add	r0, r0, r3
.LVL552:
	and	r0, r0, #7
	rsb	r3, r3, r0
	add	r3, r3, #1
	add	r3, r3, r3, asl #2
	.loc 1 1429 0
	ldr	r0, [r4, #144]
	mov	r1, r4
	mov	r2, r4
.LBE250:
	.loc 1 1433 0
	ldmfd	sp!, {r4, lr}
	.cfi_restore 14
	.cfi_restore 4
	.cfi_def_cfa_offset 0
.LVL553:
.LBB251:
	.loc 1 1429 0
	mov	r3, r3, asl #1
	b	P_DamageMobj
.LVL554:
.LBE251:
	.cfi_endproc
.LFE39:
	.size	A_BruisAttack, .-A_BruisAttack
	.align	2
	.global	A_SkelMissile
	.type	A_SkelMissile, %function
A_SkelMissile:
.LFB40:
	.loc 1 1440 0
	.cfi_startproc
	@ args = 0, pretend = 0, frame = 0
	@ frame_needed = 0, uses_anonymous_args = 0
.LVL555:
	.loc 1 1443 0
	ldr	r3, [r0, #144]
	.loc 1 1440 0
	stmfd	sp!, {r4, lr}
	.cfi_def_cfa_offset 8
	.cfi_offset 4, -8
	.cfi_offset 14, -4
	.loc 1 1443 0
	cmp	r3, #0
	.loc 1 1440 0
	mov	r4, r0
	.loc 1 1443 0
	ldmeqfd	sp!, {r4, pc}
	.loc 1 1446 0
	bl	A_FaceTarget
.LVL556:
	.loc 1 1447 0
	ldr	r3, [r4, #32]
	.loc 1 1448 0
	ldr	r1, [r4, #144]
	.loc 1 1447 0
	add	r3, r3, #1048576
	str	r3, [r4, #32]
	.loc 1 1448 0
	mov	r0, r4
	mov	r2, #6
	bl	P_SpawnMissile
.LVL557:
	.loc 1 1449 0
	ldr	r1, [r4, #32]
	.loc 1 1451 0
	ldr	r2, [r0, #24]
	ldr	lr, [r0, #88]
	.loc 1 1452 0
	ldr	r3, [r0, #28]
	ldr	ip, [r0, #92]
	.loc 1 1451 0
	add	r2, r2, lr
	.loc 1 1449 0
	sub	r1, r1, #1048576
	.loc 1 1452 0
	add	r3, r3, ip
	.loc 1 1449 0
	str	r1, [r4, #32]
	.loc 1 1453 0
	add	r0, r0, #172
.LVL558:
	ldr	r1, [r4, #144]
	.loc 1 1451 0
	str	r2, [r0, #-148]
	.loc 1 1452 0
	str	r3, [r0, #-144]
	.loc 1 1454 0
	ldmfd	sp!, {r4, lr}
	.cfi_restore 14
	.cfi_restore 4
	.cfi_def_cfa_offset 0
.LVL559:
	.loc 1 1453 0
	b	P_SetTarget
.LVL560:
	.cfi_endproc
.LFE40:
	.size	A_SkelMissile, .-A_SkelMissile
	.global	__aeabi_idiv
	.align	2
	.global	A_Tracer
	.type	A_Tracer, %function
A_Tracer:
.LFB41:
	.loc 1 1459 0
	.cfi_startproc
	@ args = 0, pretend = 0, frame = 0
	@ frame_needed = 0, uses_anonymous_args = 0
.LVL561:
	.loc 1 1481 0
	ldr	r3, .L808
	ldr	r2, .L808+4
	ldr	r3, [r3]
	ldr	r2, [r2]
	rsb	r3, r2, r3
	tst	r3, #3
	bxne	lr
	.loc 1 1459 0
	stmfd	sp!, {r4, r5, r6, r7, r8, lr}
	.cfi_def_cfa_offset 24
	.cfi_offset 4, -24
	.cfi_offset 5, -20
	.cfi_offset 6, -16
	.cfi_offset 7, -12
	.cfi_offset 8, -8
	.cfi_offset 14, -4
	mov	r4, r0
	.loc 1 1485 0
	add	r0, r0, #24
.LVL562:
	ldmia	r0, {r0, r1, r2}
	bl	P_SpawnPuff
.LVL563:
	.loc 1 1487 0
	ldr	r2, [r4, #88]
	ldr	r3, [r4, #92]
	ldr	r0, [r4, #24]
	ldr	r1, [r4, #28]
	rsb	r0, r2, r0
	rsb	r1, r3, r1
	ldr	r2, [r4, #32]
	mov	r3, #7
	bl	P_SpawnMobj
.LVL564:
	.loc 1 1491 0
	mov	r3, #65536
	.loc 1 1487 0
	mov	r5, r0
.LVL565:
	.loc 1 1492 0
	mov	r0, #41
.LVL566:
	.loc 1 1491 0
	str	r3, [r5, #96]
	.loc 1 1492 0
	bl	P_Random
.LVL567:
	ldr	r3, [r5, #112]
	and	r0, r0, #3
	rsb	r3, r0, r3
	.loc 1 1493 0
	cmp	r3, #0
	.loc 1 1494 0
	movle	r3, #1
	str	r3, [r5, #112]
	.loc 1 1497 0
	ldr	r5, [r4, #172]
.LVL568:
	.loc 1 1499 0
	cmp	r5, #0
	ldmeqfd	sp!, {r4, r5, r6, r7, r8, pc}
	.loc 1 1499 0 is_stmt 0 discriminator 1
	ldr	r3, [r5, #132]
	cmp	r3, #0
	ldmlefd	sp!, {r4, r5, r6, r7, r8, pc}
	.loc 1 1503 0 is_stmt 1
	ldr	r3, [r5, #28]
	ldr	r0, [r4, #24]
	ldr	r1, [r4, #28]
	ldr	r2, [r5, #24]
	bl	R_PointToAngle2
.LVL569:
	.loc 1 1505 0
	ldr	r3, [r4, #44]
	cmp	r3, r0
	beq	.L795
	.loc 1 1506 0
	rsb	r2, r3, r0
	cmp	r2, #-2147483648
	.loc 1 1508 0
	ldr	r2, .L808+8
	ldr	r2, [r2]
	.loc 1 1506 0
	bls	.L796
	.loc 1 1508 0
	rsb	r3, r2, r3
	.loc 1 1509 0
	rsb	r2, r3, r0
	cmp	r2, #0
	.loc 1 1510 0
	strge	r0, [r4, #44]
	movge	r3, r0
	.loc 1 1509 0
	blt	.L807
.L795:
	.loc 1 1520 0
	mov	r3, r3, lsr #19
.LVL570:
	.loc 1 1521 0
	ldr	r1, .L808+12
	ldr	r2, [r4, #108]
	add	r0, r3, #2048
	ldr	r8, [r2, #60]
.LVL571:
	ldr	r6, [r1, r0, asl #2]
.LVL572:
	.loc 1 1525 0
	ldr	r0, [r5, #24]
.LBB252:
.LBB253:
	.loc 2 72 0
	smull	r6, r7, r8, r6
.LVL573:
	mov	r2, r6, lsr #16
	orr	r2, r2, r7, asl #16
	str	r2, [r4, #88]
.LVL574:
.LBE253:
.LBE252:
	.loc 1 1522 0
	ldr	r2, [r1, r3, asl #2]
.LVL575:
	.loc 1 1525 0
	ldr	ip, [r5, #28]
.LBB254:
.LBB255:
	.loc 2 72 0
	smull	r2, r3, r8, r2
.LVL576:
.LBE255:
.LBE254:
	.loc 1 1525 0
	ldr	lr, [r4, #24]
.LBB259:
.LBB256:
	.loc 2 72 0
	mov	r2, r2, lsr #16
.LBE256:
.LBE259:
	.loc 1 1525 0
	ldr	r1, [r4, #28]
.LVL577:
.LBB260:
.LBB257:
	.loc 2 72 0
	orr	r2, r2, r3, asl #16
.LBE257:
.LBE260:
	.loc 1 1525 0
	rsb	r1, r1, ip
.LBB261:
.LBB258:
	.loc 2 72 0
	str	r2, [r4, #92]
.LVL578:
.LBE258:
.LBE261:
	.loc 1 1525 0
	rsb	r0, lr, r0
	bl	P_AproxDistance
.LVL579:
	.loc 1 1527 0
	mov	r1, r8
	bl	__aeabi_idiv
.LVL580:
	.loc 1 1532 0
	ldr	r3, [r5, #32]
	.loc 1 1530 0
	cmp	r0, #1
	movge	r1, r0
	.loc 1 1532 0
	ldr	r0, [r4, #32]
.LVL581:
	add	r3, r3, #2621440
	.loc 1 1530 0
	movlt	r1, #1
.LVL582:
	.loc 1 1532 0
	rsb	r0, r0, r3
	bl	__aeabi_idiv
.LVL583:
	.loc 1 1534 0
	ldr	r3, [r4, #96]
	cmp	r0, r3
	.loc 1 1535 0
	sublt	r3, r3, #8192
	.loc 1 1537 0
	addge	r3, r3, #8192
	str	r3, [r4, #96]
	ldmfd	sp!, {r4, r5, r6, r7, r8, pc}
.LVL584:
.L796:
	.loc 1 1514 0
	add	r3, r3, r2
	.loc 1 1515 0
	rsb	r2, r3, r0
	cmp	r2, #-2147483648
	.loc 1 1516 0
	movhi	r3, r0
	strhi	r0, [r4, #44]
	.loc 1 1515 0
	bhi	.L795
.L807:
	.loc 1 1514 0
	str	r3, [r4, #44]
	b	.L795
.L809:
	.align	2
.L808:
	.word	gametic
	.word	basetic
	.word	.LANCHOR2
	.word	finesine
	.cfi_endproc
.LFE41:
	.size	A_Tracer, .-A_Tracer
	.align	2
	.global	A_SkelWhoosh
	.type	A_SkelWhoosh, %function
A_SkelWhoosh:
.LFB42:
	.loc 1 1541 0
	.cfi_startproc
	@ args = 0, pretend = 0, frame = 0
	@ frame_needed = 0, uses_anonymous_args = 0
.LVL585:
	.loc 1 1542 0
	ldr	r2, [r0, #144]
	cmp	r2, #0
	bxeq	lr
	.loc 1 1541 0
	stmfd	sp!, {r4, lr}
	.cfi_def_cfa_offset 8
	.cfi_offset 4, -8
	.cfi_offset 14, -4
	mov	r4, r0
	.loc 1 1544 0
	bl	A_FaceTarget
.LVL586:
	.loc 1 1545 0
	mov	r0, r4
	.loc 1 1546 0
	ldmfd	sp!, {r4, lr}
	.cfi_restore 14
	.cfi_restore 4
	.cfi_def_cfa_offset 0
.LVL587:
	.loc 1 1545 0
	mov	r1, #56
	b	S_StartSound
.LVL588:
	.cfi_endproc
.LFE42:
	.size	A_SkelWhoosh, .-A_SkelWhoosh
	.align	2
	.global	A_SkelFist
	.type	A_SkelFist, %function
A_SkelFist:
.LFB43:
	.loc 1 1549 0
	.cfi_startproc
	@ args = 0, pretend = 0, frame = 0
	@ frame_needed = 0, uses_anonymous_args = 0
.LVL589:
	.loc 1 1550 0
	ldr	r3, [r0, #144]
	cmp	r3, #0
	bxeq	lr
	.loc 1 1549 0
	stmfd	sp!, {r4, r5, r6, lr}
	.cfi_def_cfa_offset 16
	.cfi_offset 4, -16
	.cfi_offset 5, -12
	.cfi_offset 6, -8
	.cfi_offset 14, -4
	mov	r5, r0
	.loc 1 1552 0
	bl	A_FaceTarget
.LVL590:
	.loc 1 1553 0
	mov	r0, r5
	bl	P_CheckMeleeRange
.LVL591:
	cmp	r0, #0
	ldmeqfd	sp!, {r4, r5, r6, pc}
.LBB262:
	.loc 1 1555 0
	mov	r0, #42
	bl	P_Random
.LVL592:
	mov	r4, r0
.LVL593:
	.loc 1 1556 0
	mov	r1, #53
	mov	r0, r5
.LVL594:
	bl	S_StartSound
.LVL595:
	.loc 1 1555 0
	ldr	r3, .L822
	mov	r2, r4, asr #31
	smull	r1, r3, r3, r4
	rsb	r3, r2, r3, asr #2
	add	r3, r3, r3, asl #2
	sub	r3, r4, r3, asl #1
	add	r3, r3, #1
	add	r3, r3, r3, asl #1
	.loc 1 1557 0
	ldr	r0, [r5, #144]
	mov	r1, r5
	mov	r2, r5
.LBE262:
	.loc 1 1559 0
	ldmfd	sp!, {r4, r5, r6, lr}
	.cfi_restore 14
	.cfi_restore 6
	.cfi_restore 5
	.cfi_restore 4
	.cfi_def_cfa_offset 0
.LVL596:
.LBB263:
	.loc 1 1557 0
	mov	r3, r3, asl #1
	b	P_DamageMobj
.LVL597:
.L823:
	.align	2
.L822:
	.word	1717986919
.LBE263:
	.cfi_endproc
.LFE43:
	.size	A_SkelFist, .-A_SkelFist
	.align	2
	.global	A_VileChase
	.type	A_VileChase, %function
A_VileChase:
.LFB45:
	.loc 1 1636 0
	.cfi_startproc
	@ args = 0, pretend = 0, frame = 0
	@ frame_needed = 0, uses_anonymous_args = 0
.LVL598:
	.loc 1 1641 0
	ldrsh	r1, [r0, #136]
	.loc 1 1636 0
	stmfd	sp!, {r3, r4, r5, r6, r7, r8, r9, lr}
	.cfi_def_cfa_offset 32
	.cfi_offset 3, -32
	.cfi_offset 4, -28
	.cfi_offset 5, -24
	.cfi_offset 6, -20
	.cfi_offset 7, -16
	.cfi_offset 8, -12
	.cfi_offset 9, -8
	.cfi_offset 14, -4
	.loc 1 1641 0
	cmp	r1, #8
	.loc 1 1636 0
	mov	r7, r0
	.loc 1 1641 0
	beq	.L825
	.loc 1 1645 0
	ldr	r2, [r0, #108]
	ldr	r3, .L844
	ldr	r0, [r2, #60]
.LVL599:
	ldr	lr, [r3, r1, asl #2]
	ldr	r2, [r7, #24]
	.loc 1 1647 0
	add	r3, r3, r1, asl #2
	ldr	ip, [r3, #32]
	.loc 1 1645 0
	mla	r1, lr, r0, r2
	.loc 1 1649 0
	ldr	r3, .L844+4
	.loc 1 1647 0
	ldr	r2, [r7, #28]
	.loc 1 1649 0
	ldr	r3, [r3]
	.loc 1 1647 0
	mla	r2, ip, r0, r2
	.loc 1 1651 0
	ldr	r0, .L844+8
	.loc 1 1649 0
	rsb	r3, r3, r1
	.loc 1 1651 0
	ldr	r5, [r0]
	.loc 1 1649 0
	sub	r6, r3, #4194304
	.loc 1 1650 0
	add	r3, r3, #4194304
	.loc 1 1651 0
	rsb	r5, r5, r2
	.loc 1 1650 0
	mov	r8, r3, asr #23
	.loc 1 1646 0
	ldr	ip, .L844+12
	.loc 1 1644 0
	ldr	r0, .L844+16
	.loc 1 1649 0
	mov	r6, r6, asr #23
.LVL600:
	.loc 1 1654 0
	ldr	r3, .L844+20
	.loc 1 1651 0
	sub	r9, r5, #4194304
	.loc 1 1655 0
	cmp	r6, r8
	.loc 1 1652 0
	add	r5, r5, #4194304
	.loc 1 1646 0
	str	r2, [ip]
	.loc 1 1644 0
	str	r1, [r0]
	.loc 1 1651 0
	mov	r9, r9, asr #23
.LVL601:
	.loc 1 1652 0
	mov	r5, r5, asr #23
.LVL602:
	.loc 1 1654 0
	str	r7, [r3]
.LVL603:
	.loc 1 1655 0
	bgt	.L825
.LVL604:
.L834:
	.loc 1 1657 0 discriminator 1
	cmp	r9, r5
	movle	r4, r9
	ble	.L833
	b	.L836
.LVL605:
.L827:
	.loc 1 1657 0 is_stmt 0 discriminator 2
	cmp	r5, r4
	blt	.L836
.LVL606:
.L833:
	.loc 1 1662 0 is_stmt 1
	mov	r1, r4
	mov	r0, r6
	ldr	r2, .L844+24
	bl	P_BlockThingsIterator
.LVL607:
	cmp	r0, #0
	.loc 1 1657 0
	add	r4, r4, #1
.LVL608:
	.loc 1 1662 0
	bne	.L827
.LBB264:
	.loc 1 1668 0
	ldr	r4, .L844+28
.LVL609:
	.loc 1 1667 0
	ldr	r5, [r7, #144]
.LVL610:
	.loc 1 1668 0
	ldr	r3, [r4]
	.loc 1 1669 0
	mov	r0, r7
	.loc 1 1668 0
	str	r3, [r7, #144]
	.loc 1 1669 0
	bl	A_FaceTarget
.LVL611:
	.loc 1 1670 0
	str	r5, [r7, #144]
	.loc 1 1672 0
	mov	r0, r7
	ldr	r1, .L844+32
	bl	P_SetMobjState
.LVL612:
	.loc 1 1673 0
	ldr	r0, [r4]
	mov	r1, #31
	bl	S_StartSound
.LVL613:
	.loc 1 1674 0
	ldr	r0, [r4]
	ldr	r5, [r0, #108]
.LVL614:
	.loc 1 1676 0
	ldrh	r1, [r5, #96]
	bl	P_SetMobjState
.LVL615:
	.loc 1 1690 0
	mov	r0, #0
	.loc 1 1678 0
	ldr	r3, .L844+36
	.loc 1 1679 0
	ldr	ip, [r4]
	.loc 1 1678 0
	ldr	r3, [r3, #8]
	cmp	r3, #0
	.loc 1 1679 0
	ldrne	r3, [ip, #84]
	.loc 1 1682 0
	ldreq	r2, [r5, #68]
	.loc 1 1683 0
	ldreq	r3, [r5, #64]
	.loc 1 1679 0
	movne	r3, r3, asl #2
	strne	r3, [ip, #84]
	.loc 1 1682 0
	streq	r2, [ip, #84]
	.loc 1 1683 0
	streq	r3, [ip, #80]
	.loc 1 1690 0
	ldrd	r2, [r7, #120]
	ldrd	r6, [r5, #88]
.LVL616:
	and	r1, r3, #4
	bic	r3, r7, #4
	orr	r3, r3, r1
	orr	r2, r6, r0
	.loc 1 1692 0
	and	r1, r3, #4
	cmp	r1, #0
	and	r0, r2, #4194304
	cmpeq	r0, #4194304
	.loc 1 1689 0
	strd	r2, [ip, #120]
	.loc 1 1693 0
	ldreq	r2, .L844+40
	.loc 1 1696 0
	add	r0, ip, #144
	.loc 1 1693 0
	ldreq	r3, [r2]
	.loc 1 1696 0
	mov	r1, #0
	.loc 1 1693 0
	addeq	r3, r3, #1
	streq	r3, [r2]
	.loc 1 1695 0
	ldr	r3, [r5, #8]
	str	r3, [ip, #132]
	.loc 1 1696 0
	bl	P_SetTarget
.LVL617:
	.loc 1 1698 0
	ldr	r3, .L844+44
	.loc 1 1700 0
	ldr	r0, [r4]
	.loc 1 1698 0
	ldrb	r3, [r3]	@ zero_extendqisi2
	cmp	r3, #10
	bhi	.L843
.LBE264:
	.loc 1 1713 0
	ldmfd	sp!, {r3, r4, r5, r6, r7, r8, r9, lr}
	.cfi_remember_state
	.cfi_restore 14
	.cfi_restore 9
	.cfi_restore 8
	.cfi_restore 7
	.cfi_restore 6
	.cfi_restore 5
	.cfi_restore 4
	.cfi_restore 3
	.cfi_def_cfa_offset 0
.LVL618:
.LBB265:
	.loc 1 1705 0
	b	P_UpdateThinker
.LVL619:
.L836:
	.cfi_restore_state
.LBE265:
	.loc 1 1655 0
	add	r6, r6, #1
.LVL620:
	cmp	r8, r6
	bge	.L834
.LVL621:
.L825:
	.loc 1 1712 0
	mov	r0, r7
	.loc 1 1713 0
	ldmfd	sp!, {r3, r4, r5, r6, r7, r8, r9, lr}
	.cfi_remember_state
	.cfi_restore 14
	.cfi_restore 9
	.cfi_restore 8
	.cfi_restore 7
	.cfi_restore 6
	.cfi_restore 5
	.cfi_restore 4
	.cfi_restore 3
	.cfi_def_cfa_offset 0
.LVL622:
	.loc 1 1712 0
	b	A_Chase
.LVL623:
.L843:
	.cfi_restore_state
.LBB266:
	.loc 1 1700 0
	add	r0, r0, #176
	mov	r1, #0
	bl	P_SetTarget
.LVL624:
	.loc 1 1701 0
	ldr	r0, [r4]
	ldrd	r2, [r0, #120]
	bic	r2, r2, #64
	strd	r2, [r0, #120]
.LBE266:
	.loc 1 1713 0
	ldmfd	sp!, {r3, r4, r5, r6, r7, r8, r9, lr}
	.cfi_restore 3
	.cfi_restore 4
	.cfi_restore 5
	.cfi_restore 6
	.cfi_restore 7
	.cfi_restore 8
	.cfi_restore 9
	.cfi_restore 14
	.cfi_def_cfa_offset 0
.LVL625:
.LBB267:
	.loc 1 1705 0
	b	P_UpdateThinker
.LVL626:
.L845:
	.align	2
.L844:
	.word	.LANCHOR1
	.word	bmaporgx
	.word	bmaporgy
	.word	viletryy
	.word	viletryx
	.word	vileobj
	.word	PIT_VileCheck
	.word	corpsehit
	.word	266
	.word	comp
	.word	totallive
	.word	compatibility_level
.LBE267:
	.cfi_endproc
.LFE45:
	.size	A_VileChase, .-A_VileChase
	.align	2
	.global	A_VileStart
	.type	A_VileStart, %function
A_VileStart:
.LFB46:
	.loc 1 1720 0
	.cfi_startproc
	@ args = 0, pretend = 0, frame = 0
	@ frame_needed = 0, uses_anonymous_args = 0
	@ link register save eliminated.
.LVL627:
	.loc 1 1721 0
	mov	r1, #54
	b	S_StartSound
.LVL628:
	.cfi_endproc
.LFE46:
	.size	A_VileStart, .-A_VileStart
	.align	2
	.global	A_Fire
	.type	A_Fire, %function
A_Fire:
.LFB49:
	.loc 1 1742 0
	.cfi_startproc
	@ args = 0, pretend = 0, frame = 0
	@ frame_needed = 0, uses_anonymous_args = 0
.LVL629:
	stmfd	sp!, {r4, r5, r6, lr}
	.cfi_def_cfa_offset 16
	.cfi_offset 4, -16
	.cfi_offset 5, -12
	.cfi_offset 6, -8
	.cfi_offset 14, -4
	.loc 1 1744 0
	ldr	r5, [r0, #172]
.LVL630:
	.loc 1 1746 0
	cmp	r5, #0
	ldmeqfd	sp!, {r4, r5, r6, pc}
	mov	r4, r0
	.loc 1 1750 0
	mov	r1, r5
	ldr	r0, [r0, #144]
.LVL631:
	bl	P_CheckSight
.LVL632:
	cmp	r0, #0
	ldmeqfd	sp!, {r4, r5, r6, pc}
	.loc 1 1755 0
	mov	r0, r4
	.loc 1 1753 0
	ldr	r6, [r5, #44]
	.loc 1 1755 0
	bl	P_UnsetThingPosition
.LVL633:
.LBB268:
.LBB269:
	.loc 2 72 0
	mov	r2, #1572864
.LBE269:
.LBE268:
	.loc 1 1753 0
	mov	r6, r6, lsr #19
.LVL634:
	.loc 1 1756 0
	ldr	ip, .L855
	add	r3, r6, #2048
	ldr	r0, [ip, r3, asl #2]
.LVL635:
	ldr	r3, [r5, #24]
.LBB271:
.LBB270:
	.loc 2 72 0
	smull	r0, r1, r0, r2
.LVL636:
	mov	r0, r0, lsr #16
	orr	r0, r0, r1, asl #16
.LBE270:
.LBE271:
	.loc 1 1756 0
	add	r3, r3, r0
	str	r3, [r4, #24]
.LVL637:
	.loc 1 1757 0
	ldr	r3, [ip, r6, asl #2]
.LVL638:
	ldr	r1, [r5, #28]
.LBB272:
.LBB273:
	.loc 2 72 0
	smull	r2, r3, r3, r2
	mov	r2, r2, lsr #16
.LBE273:
.LBE272:
	.loc 1 1758 0
	ldr	r0, [r5, #32]
.LBB275:
.LBB274:
	.loc 2 72 0
	orr	r2, r2, r3, asl #16
.LBE274:
.LBE275:
	.loc 1 1757 0
	add	r3, r1, r2
.LVL639:
	.loc 1 1758 0
	str	r0, [r4, #32]
.LVL640:
	.loc 1 1757 0
	str	r3, [r4, #28]
	.loc 1 1759 0
	mov	r0, r4
	.loc 1 1760 0
	ldmfd	sp!, {r4, r5, r6, lr}
	.cfi_restore 14
	.cfi_restore 6
	.cfi_restore 5
	.cfi_restore 4
	.cfi_def_cfa_offset 0
.LVL641:
	.loc 1 1759 0
	b	P_SetThingPosition
.LVL642:
.L856:
	.align	2
.L855:
	.word	finesine
	.cfi_endproc
.LFE49:
	.size	A_Fire, .-A_Fire
	.align	2
	.global	A_StartFire
	.type	A_StartFire, %function
A_StartFire:
.LFB47:
	.loc 1 1730 0
	.cfi_startproc
	@ args = 0, pretend = 0, frame = 0
	@ frame_needed = 0, uses_anonymous_args = 0
.LVL643:
	stmfd	sp!, {r4, lr}
	.cfi_def_cfa_offset 8
	.cfi_offset 4, -8
	.cfi_offset 14, -4
	.loc 1 1730 0
	mov	r4, r0
	.loc 1 1731 0
	mov	r1, #92
	bl	S_StartSound
.LVL644:
	.loc 1 1732 0
	mov	r0, r4
	.loc 1 1733 0
	ldmfd	sp!, {r4, lr}
	.cfi_restore 14
	.cfi_restore 4
	.cfi_def_cfa_offset 0
.LVL645:
	.loc 1 1732 0
	b	A_Fire
.LVL646:
	.cfi_endproc
.LFE47:
	.size	A_StartFire, .-A_StartFire
	.align	2
	.global	A_FireCrackle
	.type	A_FireCrackle, %function
A_FireCrackle:
.LFB48:
	.loc 1 1736 0
	.cfi_startproc
	@ args = 0, pretend = 0, frame = 0
	@ frame_needed = 0, uses_anonymous_args = 0
.LVL647:
	stmfd	sp!, {r4, lr}
	.cfi_def_cfa_offset 8
	.cfi_offset 4, -8
	.cfi_offset 14, -4
	.loc 1 1736 0
	mov	r4, r0
	.loc 1 1737 0
	mov	r1, #91
	bl	S_StartSound
.LVL648:
	.loc 1 1738 0
	mov	r0, r4
	.loc 1 1739 0
	ldmfd	sp!, {r4, lr}
	.cfi_restore 14
	.cfi_restore 4
	.cfi_def_cfa_offset 0
.LVL649:
	.loc 1 1738 0
	b	A_Fire
.LVL650:
	.cfi_endproc
.LFE48:
	.size	A_FireCrackle, .-A_FireCrackle
	.align	2
	.global	A_VileTarget
	.type	A_VileTarget, %function
A_VileTarget:
.LFB50:
	.loc 1 1768 0
	.cfi_startproc
	@ args = 0, pretend = 0, frame = 0
	@ frame_needed = 0, uses_anonymous_args = 0
.LVL651:
	stmfd	sp!, {r3, r4, r5, lr}
	.cfi_def_cfa_offset 16
	.cfi_offset 3, -16
	.cfi_offset 4, -12
	.cfi_offset 5, -8
	.cfi_offset 14, -4
	.loc 1 1771 0
	ldr	r3, [r0, #144]
	.loc 1 1768 0
	mov	r4, r0
	.loc 1 1771 0
	cmp	r3, #0
	ldmeqfd	sp!, {r3, r4, r5, pc}
	.loc 1 1774 0
	bl	A_FaceTarget
.LVL652:
	.loc 1 1778 0
	ldr	r2, .L866
	.loc 1 1777 0
	ldr	r3, [r4, #144]
	ldrb	r2, [r2]	@ zero_extendqisi2
	ldr	r0, [r3, #24]
	cmp	r2, #9
	ldrhi	r1, [r3, #28]
	movls	r1, r0
	ldr	r2, [r3, #32]
	mov	r3, #4
	bl	P_SpawnMobj
.LVL653:
	mov	r5, r0
.LVL654:
	.loc 1 1781 0
	add	r0, r4, #172
.LVL655:
	mov	r1, r5
	bl	P_SetTarget
.LVL656:
	.loc 1 1782 0
	add	r0, r5, #144
	mov	r1, r4
	bl	P_SetTarget
.LVL657:
	.loc 1 1783 0
	add	r0, r5, #172
	ldr	r1, [r4, #144]
	bl	P_SetTarget
.LVL658:
	.loc 1 1784 0
	mov	r0, r5
	.loc 1 1785 0
	ldmfd	sp!, {r3, r4, r5, lr}
	.cfi_restore 14
	.cfi_restore 5
	.cfi_restore 4
	.cfi_restore 3
	.cfi_def_cfa_offset 0
.LVL659:
	.loc 1 1784 0
	b	A_Fire
.LVL660:
.L867:
	.align	2
.L866:
	.word	compatibility_level
	.cfi_endproc
.LFE50:
	.size	A_VileTarget, .-A_VileTarget
	.align	2
	.global	A_VileAttack
	.type	A_VileAttack, %function
A_VileAttack:
.LFB51:
	.loc 1 1792 0
	.cfi_startproc
	@ args = 0, pretend = 0, frame = 0
	@ frame_needed = 0, uses_anonymous_args = 0
.LVL661:
	stmfd	sp!, {r3, r4, r5, r6, r7, lr}
	.cfi_def_cfa_offset 24
	.cfi_offset 3, -24
	.cfi_offset 4, -20
	.cfi_offset 5, -16
	.cfi_offset 6, -12
	.cfi_offset 7, -8
	.cfi_offset 14, -4
	.loc 1 1796 0
	ldr	r3, [r0, #144]
	.loc 1 1792 0
	mov	r4, r0
	.loc 1 1796 0
	cmp	r3, #0
	ldmeqfd	sp!, {r3, r4, r5, r6, r7, pc}
	.loc 1 1799 0
	bl	A_FaceTarget
.LVL662:
	.loc 1 1801 0
	mov	r0, r4
	ldr	r1, [r4, #144]
	bl	P_CheckSight
.LVL663:
	cmp	r0, #0
	ldmeqfd	sp!, {r3, r4, r5, r6, r7, pc}
	.loc 1 1804 0
	mov	r0, r4
	mov	r1, #82
	bl	S_StartSound
.LVL664:
	.loc 1 1805 0
	mov	r2, r4
	ldr	r0, [r4, #144]
	mov	r1, r4
	mov	r3, #20
	bl	P_DamageMobj
.LVL665:
	.loc 1 1806 0
	ldr	r5, [r4, #144]
	mov	r0, #65536000
	ldr	r3, [r5, #108]
	ldr	r1, [r3, #72]
	bl	__aeabi_idiv
.LVL666:
	.loc 1 1810 0
	ldr	r2, [r4, #172]
	.loc 1 1808 0
	ldr	r3, [r4, #44]
	.loc 1 1812 0
	cmp	r2, #0
	.loc 1 1806 0
	str	r0, [r5, #96]
	.loc 1 1808 0
	mov	r3, r3, lsr #19
.LVL667:
	.loc 1 1812 0
	ldmeqfd	sp!, {r3, r4, r5, r6, r7, pc}
.LBB276:
.LBB277:
	.loc 2 72 0
	mov	r0, #1572864
.LBE277:
.LBE276:
	.loc 1 1816 0
	ldr	lr, .L879
	add	r1, r3, #2048
	ldr	r6, [lr, r1, asl #2]
.LVL668:
	ldr	r1, [r5, #24]
.LBB279:
.LBB278:
	.loc 2 72 0
	smull	r6, r7, r6, r0
.LVL669:
	mov	ip, r6, lsr #16
	orr	ip, ip, r7, asl #16
.LBE278:
.LBE279:
	.loc 1 1816 0
	rsb	r1, ip, r1
	str	r1, [r2, #24]
.LVL670:
	.loc 1 1817 0
	ldr	r3, [lr, r3, asl #2]
.LVL671:
	ldr	ip, [r5, #28]
.LBB280:
.LBB281:
	.loc 2 72 0
	smull	r0, r1, r3, r0
	mov	r3, r0, lsr #16
.LVL672:
	orr	r3, r3, r1, asl #16
.LBE281:
.LBE280:
	.loc 1 1817 0
	rsb	r3, r3, ip
	str	r3, [r2, #28]
.LVL673:
	.loc 1 1818 0
	mov	r1, r4
	.loc 1 1819 0
	ldmfd	sp!, {r3, r4, r5, r6, r7, lr}
	.cfi_restore 14
	.cfi_restore 7
	.cfi_restore 6
	.cfi_restore 5
	.cfi_restore 4
	.cfi_restore 3
	.cfi_def_cfa_offset 0
.LVL674:
	.loc 1 1818 0
	mov	r0, r2
	mov	r2, #70
.LVL675:
	b	P_RadiusAttack
.LVL676:
.L880:
	.align	2
.L879:
	.word	finesine
	.cfi_endproc
.LFE51:
	.size	A_VileAttack, .-A_VileAttack
	.align	2
	.global	A_FatRaise
	.type	A_FatRaise, %function
A_FatRaise:
.LFB52:
	.loc 1 1831 0
	.cfi_startproc
	@ args = 0, pretend = 0, frame = 0
	@ frame_needed = 0, uses_anonymous_args = 0
.LVL677:
	stmfd	sp!, {r4, lr}
	.cfi_def_cfa_offset 8
	.cfi_offset 4, -8
	.cfi_offset 14, -4
	.loc 1 1831 0
	mov	r4, r0
	.loc 1 1832 0
	bl	A_FaceTarget
.LVL678:
	.loc 1 1833 0
	mov	r0, r4
	.loc 1 1834 0
	ldmfd	sp!, {r4, lr}
	.cfi_restore 14
	.cfi_restore 4
	.cfi_def_cfa_offset 0
.LVL679:
	.loc 1 1833 0
	mov	r1, #99
	b	S_StartSound
.LVL680:
	.cfi_endproc
.LFE52:
	.size	A_FatRaise, .-A_FatRaise
	.align	2
	.global	A_FatAttack1
	.type	A_FatAttack1, %function
A_FatAttack1:
.LFB53:
	.loc 1 1837 0
	.cfi_startproc
	@ args = 0, pretend = 0, frame = 0
	@ frame_needed = 0, uses_anonymous_args = 0
.LVL681:
	stmfd	sp!, {r3, r4, r5, lr}
	.cfi_def_cfa_offset 16
	.cfi_offset 3, -16
	.cfi_offset 4, -12
	.cfi_offset 5, -8
	.cfi_offset 14, -4
	.loc 1 1841 0
	ldr	r3, [r0, #144]
	.loc 1 1837 0
	mov	r4, r0
	.loc 1 1841 0
	cmp	r3, #0
	ldmeqfd	sp!, {r3, r4, r5, pc}
	.loc 1 1844 0
	bl	A_FaceTarget
.LVL682:
	.loc 1 1847 0
	ldr	r3, [r4, #44]
	.loc 1 1849 0
	ldr	r1, [r4, #144]
	.loc 1 1847 0
	add	r3, r3, #134217728
	str	r3, [r4, #44]
	.loc 1 1849 0
	mov	r0, r4
	mov	r2, #9
	bl	P_SpawnMissile
.LVL683:
	.loc 1 1851 0
	ldr	r1, [r4, #144]
	mov	r0, r4
	mov	r2, #9
	bl	P_SpawnMissile
.LVL684:
	.loc 1 1852 0
	ldr	r3, [r0, #44]
	.loc 1 1854 0
	ldr	r1, .L889
	.loc 1 1852 0
	add	r3, r3, #134217728
	.loc 1 1853 0
	mov	ip, r3, lsr #19
.LVL685:
	.loc 1 1854 0
	ldr	r2, [r0, #108]
	.loc 1 1852 0
	str	r3, [r0, #44]
	.loc 1 1854 0
	add	r3, ip, #2048
	ldr	r4, [r1, r3, asl #2]
.LVL686:
	ldr	r3, [r2, #60]
.LVL687:
.LBB282:
.LBB283:
	.loc 2 72 0
	smull	r4, r5, r3, r4
.LVL688:
	mov	r2, r4, lsr #16
	orr	r2, r2, r5, asl #16
	str	r2, [r0, #88]
.LVL689:
.LBE283:
.LBE282:
	.loc 1 1855 0
	ldr	r2, [r1, ip, asl #2]
.LVL690:
.LBB284:
.LBB285:
	.loc 2 72 0
	smull	r2, r3, r3, r2
.LVL691:
	mov	r2, r2, lsr #16
	orr	r2, r2, r3, asl #16
	str	r2, [r0, #92]
.LVL692:
	ldmfd	sp!, {r3, r4, r5, pc}
.L890:
	.align	2
.L889:
	.word	finesine
.LBE285:
.LBE284:
	.cfi_endproc
.LFE53:
	.size	A_FatAttack1, .-A_FatAttack1
	.align	2
	.global	A_FatAttack2
	.type	A_FatAttack2, %function
A_FatAttack2:
.LFB54:
	.loc 1 1859 0
	.cfi_startproc
	@ args = 0, pretend = 0, frame = 0
	@ frame_needed = 0, uses_anonymous_args = 0
.LVL693:
	stmfd	sp!, {r3, r4, r5, lr}
	.cfi_def_cfa_offset 16
	.cfi_offset 3, -16
	.cfi_offset 4, -12
	.cfi_offset 5, -8
	.cfi_offset 14, -4
	.loc 1 1863 0
	ldr	r3, [r0, #144]
	.loc 1 1859 0
	mov	r4, r0
	.loc 1 1863 0
	cmp	r3, #0
	ldmeqfd	sp!, {r3, r4, r5, pc}
	.loc 1 1866 0
	bl	A_FaceTarget
.LVL694:
	.loc 1 1868 0
	ldr	r3, [r4, #44]
	.loc 1 1869 0
	ldr	r1, [r4, #144]
	.loc 1 1868 0
	add	r3, r3, #-134217728
	str	r3, [r4, #44]
	.loc 1 1869 0
	mov	r0, r4
	mov	r2, #9
	bl	P_SpawnMissile
.LVL695:
	.loc 1 1871 0
	ldr	r1, [r4, #144]
	mov	r0, r4
	mov	r2, #9
	bl	P_SpawnMissile
.LVL696:
	.loc 1 1872 0
	ldr	r3, [r0, #44]
	.loc 1 1874 0
	ldr	r1, .L897
	.loc 1 1872 0
	add	r3, r3, #-268435456
	.loc 1 1873 0
	mov	ip, r3, lsr #19
.LVL697:
	.loc 1 1874 0
	ldr	r2, [r0, #108]
	.loc 1 1872 0
	str	r3, [r0, #44]
	.loc 1 1874 0
	add	r3, ip, #2048
	ldr	r4, [r1, r3, asl #2]
.LVL698:
	ldr	r3, [r2, #60]
.LVL699:
.LBB286:
.LBB287:
	.loc 2 72 0
	smull	r4, r5, r3, r4
.LVL700:
	mov	r2, r4, lsr #16
	orr	r2, r2, r5, asl #16
	str	r2, [r0, #88]
.LVL701:
.LBE287:
.LBE286:
	.loc 1 1875 0
	ldr	r2, [r1, ip, asl #2]
.LVL702:
.LBB288:
.LBB289:
	.loc 2 72 0
	smull	r2, r3, r3, r2
.LVL703:
	mov	r2, r2, lsr #16
	orr	r2, r2, r3, asl #16
	str	r2, [r0, #92]
.LVL704:
	ldmfd	sp!, {r3, r4, r5, pc}
.L898:
	.align	2
.L897:
	.word	finesine
.LBE289:
.LBE288:
	.cfi_endproc
.LFE54:
	.size	A_FatAttack2, .-A_FatAttack2
	.align	2
	.global	A_FatAttack3
	.type	A_FatAttack3, %function
A_FatAttack3:
.LFB55:
	.loc 1 1879 0
	.cfi_startproc
	@ args = 0, pretend = 0, frame = 0
	@ frame_needed = 0, uses_anonymous_args = 0
.LVL705:
	.loc 1 1883 0
	ldr	r3, [r0, #144]
	.loc 1 1879 0
	stmfd	sp!, {r4, r5, r6, lr}
	.cfi_def_cfa_offset 16
	.cfi_offset 4, -16
	.cfi_offset 5, -12
	.cfi_offset 6, -8
	.cfi_offset 14, -4
	.loc 1 1883 0
	cmp	r3, #0
	.loc 1 1879 0
	mov	r4, r0
	.loc 1 1883 0
	ldmeqfd	sp!, {r4, r5, r6, pc}
	.loc 1 1886 0
	bl	A_FaceTarget
.LVL706:
	.loc 1 1888 0
	ldr	r1, [r4, #144]
	mov	r0, r4
	mov	r2, #9
	bl	P_SpawnMissile
.LVL707:
	mov	r3, r0
.LVL708:
	.loc 1 1889 0
	ldr	r2, [r0, #44]
	.loc 1 1891 0
	ldr	r6, .L905
	.loc 1 1889 0
	add	r2, r2, #-67108864
	.loc 1 1891 0
	ldr	r0, [r0, #108]
.LVL709:
	.loc 1 1890 0
	mov	ip, r2, lsr #19
.LVL710:
	.loc 1 1889 0
	str	r2, [r3, #44]
	.loc 1 1891 0
	add	r2, ip, #2048
	ldr	r1, [r6, r2, asl #2]
	ldr	r2, [r0, #60]
.LVL711:
	.loc 1 1894 0
	mov	r0, r4
.LBB290:
.LBB291:
	.loc 2 72 0
	smull	r4, r5, r2, r1
.LVL712:
	mov	r1, r4, lsr #16
.LVL713:
	orr	r1, r1, r5, asl #16
	str	r1, [r3, #88]
.LVL714:
.LBE291:
.LBE290:
	.loc 1 1892 0
	ldr	r4, [r6, ip, asl #2]
.LVL715:
	.loc 1 1894 0
	ldr	r1, [r0, #144]
.LBB292:
.LBB293:
	.loc 2 72 0
	smull	r4, r5, r2, r4
.LVL716:
	mov	r2, r4, lsr #16
.LVL717:
	orr	r2, r2, r5, asl #16
	str	r2, [r3, #92]
.LVL718:
.LBE293:
.LBE292:
	.loc 1 1894 0
	mov	r2, #9
	bl	P_SpawnMissile
.LVL719:
	.loc 1 1895 0
	ldr	r3, [r0, #44]
	.loc 1 1897 0
	ldr	ip, [r0, #108]
	.loc 1 1895 0
	add	r3, r3, #67108864
	.loc 1 1896 0
	mov	r1, r3, lsr #19
.LVL720:
	.loc 1 1895 0
	str	r3, [r0, #44]
	.loc 1 1897 0
	add	r2, r1, #2048
	ldr	r3, [ip, #60]
	ldr	r4, [r6, r2, asl #2]
.LVL721:
.LBB294:
.LBB295:
	.loc 2 72 0
	smull	r4, r5, r3, r4
.LVL722:
	mov	r2, r4, lsr #16
.LVL723:
	orr	r2, r2, r5, asl #16
	str	r2, [r0, #88]
.LVL724:
.LBE295:
.LBE294:
	.loc 1 1898 0
	ldr	r2, [r6, r1, asl #2]
.LVL725:
.LBB296:
.LBB297:
	.loc 2 72 0
	smull	r2, r3, r3, r2
.LVL726:
	mov	r2, r2, lsr #16
	orr	r2, r2, r3, asl #16
	str	r2, [r0, #92]
.LVL727:
	ldmfd	sp!, {r4, r5, r6, pc}
.L906:
	.align	2
.L905:
	.word	finesine
.LBE297:
.LBE296:
	.cfi_endproc
.LFE55:
	.size	A_FatAttack3, .-A_FatAttack3
	.align	2
	.global	A_SkullAttack
	.type	A_SkullAttack, %function
A_SkullAttack:
.LFB56:
	.loc 1 1909 0
	.cfi_startproc
	@ args = 0, pretend = 0, frame = 0
	@ frame_needed = 0, uses_anonymous_args = 0
.LVL728:
	stmfd	sp!, {r3, r4, r5, r6, r7, lr}
	.cfi_def_cfa_offset 24
	.cfi_offset 3, -24
	.cfi_offset 4, -20
	.cfi_offset 5, -16
	.cfi_offset 6, -12
	.cfi_offset 7, -8
	.cfi_offset 14, -4
	.loc 1 1914 0
	ldr	r5, [r0, #144]
	.loc 1 1909 0
	mov	r4, r0
	.loc 1 1914 0
	cmp	r5, #0
	ldmeqfd	sp!, {r3, r4, r5, r6, r7, pc}
.LVL729:
	.loc 1 1920 0
	ldr	r1, [r0, #108]
	.loc 1 1918 0
	ldrd	r2, [r0, #120]
	orr	r2, r2, #16777216
	strd	r2, [r0, #120]
	.loc 1 1920 0
	ldr	r1, [r1, #24]
	bl	S_StartSound
.LVL730:
	.loc 1 1921 0
	mov	r0, r4
	bl	A_FaceTarget
.LVL731:
.LBB298:
.LBB299:
	.loc 2 72 0
	mov	r2, #1310720
.LBE299:
.LBE298:
	.loc 1 1922 0
	ldr	r3, [r4, #44]
	.loc 1 1923 0
	ldr	ip, .L914
	.loc 1 1922 0
	mov	r3, r3, lsr #19
.LVL732:
	.loc 1 1923 0
	add	r1, r3, #2048
	ldr	r6, [ip, r1, asl #2]
.LVL733:
	.loc 1 1925 0
	ldr	r0, [r5, #24]
.LBB301:
.LBB300:
	.loc 2 72 0
	smull	r6, r7, r6, r2
.LVL734:
	mov	r1, r6, lsr #16
.LVL735:
	orr	r1, r1, r7, asl #16
	str	r1, [r4, #88]
.LVL736:
.LBE300:
.LBE301:
	.loc 1 1924 0
	ldr	r3, [ip, r3, asl #2]
.LVL737:
	.loc 1 1925 0
	ldr	lr, [r4, #24]
.LBB302:
.LBB303:
	.loc 2 72 0
	smull	r2, r3, r3, r2
.LBE303:
.LBE302:
	.loc 1 1925 0
	ldr	ip, [r5, #28]
.LBB306:
.LBB304:
	.loc 2 72 0
	mov	r2, r2, lsr #16
.LBE304:
.LBE306:
	.loc 1 1925 0
	ldr	r1, [r4, #28]
.LBB307:
.LBB305:
	.loc 2 72 0
	orr	r2, r2, r3, asl #16
	str	r2, [r4, #92]
.LBE305:
.LBE307:
	.loc 1 1925 0
	rsb	r1, r1, ip
	rsb	r0, lr, r0
	bl	P_AproxDistance
.LVL738:
	.loc 1 1926 0
	ldr	r1, .L914+4
	mov	r3, r0, asr #31
	smull	r2, r1, r1, r0
	.loc 1 1930 0
	ldr	ip, [r5, #84]
	ldr	r2, [r5, #32]
	.loc 1 1926 0
	rsb	r1, r3, r1, asr #19
.LVL739:
	.loc 1 1930 0
	ldr	r0, [r4, #32]
	cmp	r1, #1
	add	r3, r2, ip, asr #1
	movlt	r1, #1
.LVL740:
	rsb	r0, r0, r3
	bl	__aeabi_idiv
.LVL741:
	str	r0, [r4, #96]
	ldmfd	sp!, {r3, r4, r5, r6, r7, pc}
.L915:
	.align	2
.L914:
	.word	finesine
	.word	1717986919
	.cfi_endproc
.LFE56:
	.size	A_SkullAttack, .-A_SkullAttack
	.align	2
	.type	A_PainShootSkull, %function
A_PainShootSkull:
.LFB57:
	.loc 1 1939 0
	.cfi_startproc
	@ args = 0, pretend = 0, frame = 0
	@ frame_needed = 0, uses_anonymous_args = 0
.LVL742:
	stmfd	sp!, {r4, r5, r6, r7, r8, r9, r10, lr}
	.cfi_def_cfa_offset 32
	.cfi_offset 4, -32
	.cfi_offset 5, -28
	.cfi_offset 6, -24
	.cfi_offset 7, -20
	.cfi_offset 8, -16
	.cfi_offset 9, -12
	.cfi_offset 10, -8
	.cfi_offset 14, -4
	.loc 1 1949 0
	ldr	r7, .L936
	.loc 1 1939 0
	mov	r6, r0
	.loc 1 1949 0
	ldr	r3, [r7, #12]
	.loc 1 1939 0
	mov	r5, r1
	.loc 1 1949 0
	cmp	r3, #0
	beq	.L922
	mov	r0, #0
.LVL743:
	mov	r8, r0
.LBB308:
	.loc 1 1955 0
	ldr	r4, .L936+4
.LVL744:
.L917:
	.loc 1 1954 0
	mov	r1, #4
	bl	P_NextThinker
.LVL745:
	cmp	r0, #0
	beq	.L933
.L921:
	.loc 1 1955 0
	ldr	r3, [r0, #8]
	cmp	r3, r4
	bne	.L917
	.loc 1 1956 0
	ldrb	r3, [r0, #104]	@ zero_extendqisi2
	.loc 1 1954 0
	mov	r1, #4
	.loc 1 1956 0
	cmp	r3, #18
	.loc 1 1957 0
	addeq	r8, r8, #1
.LVL746:
	.loc 1 1954 0
	bl	P_NextThinker
.LVL747:
	cmp	r0, #0
	bne	.L921
.L933:
	.loc 1 1958 0
	cmp	r8, #20
	bgt	.L934
.LVL748:
.L922:
.LBE308:
	.loc 1 1966 0
	ldr	r2, .L936+8
	ldr	r3, [r6, #108]
	ldr	r4, [r2, #1936]
	ldr	r3, [r3, #64]
	.loc 1 1964 0
	mov	r1, r5, lsr #19
.LVL749:
	.loc 1 1966 0
	add	r4, r3, r4
	.loc 1 1968 0
	ldr	r2, .L936+12
	.loc 1 1966 0
	add	r4, r4, r4, asl #1
	.loc 1 1968 0
	add	r0, r1, #2048
	.loc 1 1966 0
	add	r4, r4, r4, lsr #31
	.loc 1 1968 0
	ldr	r8, [r2, r0, asl #2]
	.loc 1 1966 0
	mov	r3, r4, asr #1
	.loc 1 1969 0
	ldr	r4, [r2, r1, asl #2]
	.loc 1 1966 0
	add	r3, r3, #262144
.LVL750:
.LBB309:
.LBB310:
	.loc 2 72 0
	smull	r4, r5, r3, r4
.LBE310:
.LBE309:
.LBB313:
.LBB314:
	smull	r8, r9, r3, r8
.LVL751:
.LBE314:
.LBE313:
	.loc 1 1972 0
	ldr	ip, [r7, #16]
.LBB317:
.LBB315:
	.loc 2 72 0
	mov	r0, r8, lsr #16
.LVL752:
.LBE315:
.LBE317:
	.loc 1 1968 0
	ldr	r1, [r6, #24]
.LVL753:
.LBB318:
.LBB311:
	.loc 2 72 0
	mov	r4, r4, lsr #16
.LBE311:
.LBE318:
	.loc 1 1969 0
	ldr	r3, [r6, #28]
.LVL754:
	.loc 1 1970 0
	ldr	r2, [r6, #32]
.LVL755:
.LBB319:
.LBB312:
	.loc 2 72 0
	orr	r4, r4, r5, asl #16
.LBE312:
.LBE319:
.LBB320:
.LBB316:
	orr	r0, r0, r9, asl #16
.LBE316:
.LBE320:
	.loc 1 1972 0
	cmp	ip, #0
	.loc 1 1968 0
	add	r5, r1, r0
.LVL756:
	.loc 1 1969 0
	add	r4, r3, r4
.LVL757:
	.loc 1 1970 0
	add	r7, r2, #524288
.LVL758:
	.loc 1 1972 0
	beq	.L935
	.loc 1 1973 0
	mov	r2, r7
	mov	r0, r5
	mov	r1, r4
	mov	r3, #18
	bl	P_SpawnMobj
.LVL759:
	mov	r7, r0
.LVL760:
.L924:
	.loc 1 2001 0
	ldrd	r2, [r6, #120]
	ldrd	r4, [r7, #120]
.LVL761:
	mov	r2, #0
	and	r3, r3, #4
	bic	r5, r5, #4
.LVL762:
	orr	r2, r2, r4
	orr	r3, r3, r5
	strd	r2, [r7, #120]
	.loc 1 2004 0
	mov	r0, r7
	bl	P_UpdateThinker
.LVL763:
	.loc 1 2009 0
	mov	r0, r7
	ldr	r1, [r7, #24]
	ldr	r2, [r7, #28]
	mov	r3, #0
	bl	P_TryMove
.LVL764:
	cmp	r0, #0
	beq	.L931
	.loc 1 2016 0
	add	r0, r7, #144
	ldr	r1, [r6, #144]
	bl	P_SetTarget
.LVL765:
	.loc 1 2017 0
	mov	r0, r7
	.loc 1 2018 0
	ldmfd	sp!, {r4, r5, r6, r7, r8, r9, r10, lr}
	.cfi_remember_state
	.cfi_restore 14
	.cfi_restore 10
	.cfi_restore 9
	.cfi_restore 8
	.cfi_restore 7
	.cfi_restore 6
	.cfi_restore 5
	.cfi_restore 4
	.cfi_def_cfa_offset 0
.LVL766:
	.loc 1 2017 0
	b	A_SkullAttack
.LVL767:
.L935:
	.cfi_restore_state
	.loc 1 1982 0
	mov	r0, r6
	mov	r1, r5
	mov	r2, r4
	bl	Check_Sides
.LVL768:
	cmp	r0, #0
	ldmnefd	sp!, {r4, r5, r6, r7, r8, r9, r10, pc}
	.loc 1 1985 0
	mov	r2, r7
	mov	r1, r4
	mov	r3, #18
	mov	r0, r5
	bl	P_SpawnMobj
.LVL769:
	mov	r7, r0
.LVL770:
	.loc 1 1991 0
	ldr	r3, [r0, #64]
	ldr	r0, [r0, #84]
.LVL771:
	ldr	r1, [r3]
	.loc 1 1990 0
	ldr	r2, [r7, #32]
	.loc 1 1991 0
	ldr	r3, [r1, #16]
	rsb	r3, r0, r3
	.loc 1 1990 0
	cmp	r2, r3
	bgt	.L931
	.loc 1 1991 0
	ldr	r3, [r1, #12]
	cmp	r2, r3
	bge	.L924
.LVL772:
.L931:
	.loc 1 2012 0
	mov	r0, r7
	mov	r1, r6
	mov	r2, r6
	.loc 1 2018 0
	ldmfd	sp!, {r4, r5, r6, r7, r8, r9, r10, lr}
	.cfi_remember_state
	.cfi_restore 14
	.cfi_restore 10
	.cfi_restore 9
	.cfi_restore 8
	.cfi_restore 7
	.cfi_restore 6
	.cfi_restore 5
	.cfi_restore 4
	.cfi_def_cfa_offset 0
.LVL773:
	.loc 1 2012 0
	ldr	r3, .L936+16
	b	P_DamageMobj
.LVL774:
.L934:
	.cfi_restore_state
.LBB321:
	ldmfd	sp!, {r4, r5, r6, r7, r8, r9, r10, pc}
.L937:
	.align	2
.L936:
	.word	comp
	.word	P_MobjThinker
	.word	mobjinfo
	.word	finesine
	.word	10000
.LBE321:
	.cfi_endproc
.LFE57:
	.size	A_PainShootSkull, .-A_PainShootSkull
	.align	2
	.global	A_PainAttack
	.type	A_PainAttack, %function
A_PainAttack:
.LFB58:
	.loc 1 2026 0
	.cfi_startproc
	@ args = 0, pretend = 0, frame = 0
	@ frame_needed = 0, uses_anonymous_args = 0
.LVL775:
	.loc 1 2027 0
	ldr	r2, [r0, #144]
	cmp	r2, #0
	bxeq	lr
	.loc 1 2026 0
	stmfd	sp!, {r4, lr}
	.cfi_def_cfa_offset 8
	.cfi_offset 4, -8
	.cfi_offset 14, -4
	mov	r4, r0
	.loc 1 2029 0
	bl	A_FaceTarget
.LVL776:
	.loc 1 2030 0
	mov	r0, r4
	ldr	r1, [r4, #44]
	.loc 1 2031 0
	ldmfd	sp!, {r4, lr}
	.cfi_restore 14
	.cfi_restore 4
	.cfi_def_cfa_offset 0
.LVL777:
	.loc 1 2030 0
	b	A_PainShootSkull
.LVL778:
	.cfi_endproc
.LFE58:
	.size	A_PainAttack, .-A_PainAttack
	.align	2
	.global	A_PainDie
	.type	A_PainDie, %function
A_PainDie:
.LFB59:
	.loc 1 2034 0
	.cfi_startproc
	@ args = 0, pretend = 0, frame = 0
	@ frame_needed = 0, uses_anonymous_args = 0
.LVL779:
	stmfd	sp!, {r4, lr}
	.cfi_def_cfa_offset 8
	.cfi_offset 4, -8
	.cfi_offset 14, -4
.LBB322:
.LBB323:
	.loc 1 2087 0
	ldrd	r2, [r0, #120]
.LBE323:
.LBE322:
	.loc 1 2034 0
	mov	r4, r0
.LVL780:
	.loc 1 2036 0
	ldr	r1, [r0, #44]
.LBB325:
.LBB324:
	.loc 1 2087 0
	bic	r2, r2, #2
	strd	r2, [r0, #120]
.LBE324:
.LBE325:
	.loc 1 2036 0
	add	r1, r1, #1073741824
	bl	A_PainShootSkull
.LVL781:
	.loc 1 2037 0
	ldr	r1, [r4, #44]
	mov	r0, r4
	add	r1, r1, #-2147483648
	bl	A_PainShootSkull
.LVL782:
	.loc 1 2038 0
	ldr	r1, [r4, #44]
	mov	r0, r4
	.loc 1 2039 0
	ldmfd	sp!, {r4, lr}
	.cfi_restore 14
	.cfi_restore 4
	.cfi_def_cfa_offset 0
.LVL783:
	.loc 1 2038 0
	add	r1, r1, #-1073741824
	b	A_PainShootSkull
.LVL784:
	.cfi_endproc
.LFE59:
	.size	A_PainDie, .-A_PainDie
	.align	2
	.global	A_Scream
	.type	A_Scream, %function
A_Scream:
.LFB60:
	.loc 1 2042 0
	.cfi_startproc
	@ args = 0, pretend = 0, frame = 0
	@ frame_needed = 0, uses_anonymous_args = 0
.LVL785:
	.loc 1 2045 0
	ldr	r3, [r0, #108]
	.loc 1 2042 0
	stmfd	sp!, {r4, lr}
	.cfi_def_cfa_offset 8
	.cfi_offset 4, -8
	.cfi_offset 14, -4
	.loc 1 2045 0
	ldr	r1, [r3, #56]
	.loc 1 2042 0
	mov	r4, r0
	.loc 1 2045 0
	cmp	r1, #61
	bgt	.L945
	cmp	r1, #59
	bge	.L946
	cmp	r1, #0
	ldmeqfd	sp!, {r4, pc}
	b	.L944
.L946:
	.loc 1 2053 0
	mov	r0, #43
.LVL786:
	bl	P_Random
.LVL787:
	ldr	r1, .L953
	smull	r3, r1, r1, r0
	sub	r1, r1, r0, asr #31
	add	r1, r1, r1, asl #1
	rsb	r1, r1, r0
	add	r1, r1, #59
.LVL788:
.L944:
	.loc 1 2067 0
	ldrb	r3, [r4, #104]	@ zero_extendqisi2
	sub	r3, r3, #19
	ands	r0, r3, #253
	.loc 1 2070 0
	movne	r0, r4
	.loc 1 2071 0
	ldmfd	sp!, {r4, lr}
	.cfi_remember_state
	.cfi_restore 14
	.cfi_restore 4
	.cfi_def_cfa_offset 0
.LVL789:
	.loc 1 2070 0
	b	S_StartSound
.LVL790:
.L945:
	.cfi_restore_state
	.loc 1 2045 0
	cmp	r1, #63
	bgt	.L944
	.loc 1 2058 0
	mov	r0, #43
.LVL791:
	bl	P_Random
.LVL792:
	add	r1, r0, r0, lsr #31
	and	r1, r1, #1
	sub	r0, r1, r0, lsr #31
	add	r1, r0, #62
.LVL793:
	.loc 1 2059 0
	b	.L944
.L954:
	.align	2
.L953:
	.word	1431655766
	.cfi_endproc
.LFE60:
	.size	A_Scream, .-A_Scream
	.align	2
	.global	A_XScream
	.type	A_XScream, %function
A_XScream:
.LFB61:
	.loc 1 2074 0
	.cfi_startproc
	@ args = 0, pretend = 0, frame = 0
	@ frame_needed = 0, uses_anonymous_args = 0
	@ link register save eliminated.
.LVL794:
	.loc 1 2075 0
	mov	r1, #31
	b	S_StartSound
.LVL795:
	.cfi_endproc
.LFE61:
	.size	A_XScream, .-A_XScream
	.align	2
	.global	A_Pain
	.type	A_Pain, %function
A_Pain:
.LFB62:
	.loc 1 2079 0
	.cfi_startproc
	@ args = 0, pretend = 0, frame = 0
	@ frame_needed = 0, uses_anonymous_args = 0
	@ link register save eliminated.
.LVL796:
	.loc 1 2080 0
	ldr	r3, [r0, #108]
	ldr	r1, [r3, #36]
	cmp	r1, #0
	bxeq	lr
	.loc 1 2081 0
	b	S_StartSound
.LVL797:
	.cfi_endproc
.LFE62:
	.size	A_Pain, .-A_Pain
	.align	2
	.global	A_Fall
	.type	A_Fall, %function
A_Fall:
.LFB63:
	.loc 1 2085 0
	.cfi_startproc
	@ args = 0, pretend = 0, frame = 0
	@ frame_needed = 0, uses_anonymous_args = 0
	@ link register save eliminated.
.LVL798:
	.loc 1 2087 0
	ldrd	r2, [r0, #120]
	bic	r2, r2, #2
	strd	r2, [r0, #120]
	bx	lr
	.cfi_endproc
.LFE63:
	.size	A_Fall, .-A_Fall
	.align	2
	.global	A_Explode
	.type	A_Explode, %function
A_Explode:
.LFB64:
	.loc 1 2094 0
	.cfi_startproc
	@ args = 0, pretend = 0, frame = 0
	@ frame_needed = 0, uses_anonymous_args = 0
	@ link register save eliminated.
.LVL799:
	.loc 1 2095 0
	ldr	r1, [r0, #144]
	mov	r2, #128
	b	P_RadiusAttack
.LVL800:
	.cfi_endproc
.LFE64:
	.size	A_Explode, .-A_Explode
	.align	2
	.global	A_BossDeath
	.type	A_BossDeath, %function
A_BossDeath:
.LFB65:
	.loc 1 2105 0
	.cfi_startproc
	@ args = 0, pretend = 0, frame = 128
	@ frame_needed = 0, uses_anonymous_args = 0
.LVL801:
	stmfd	sp!, {r4, r5, lr}
	.cfi_def_cfa_offset 12
	.cfi_offset 4, -12
	.cfi_offset 5, -8
	.cfi_offset 14, -4
	.loc 1 2110 0
	ldr	r3, .L1004
	.loc 1 2105 0
	sub	sp, sp, #132
	.cfi_def_cfa_offset 144
	.loc 1 2110 0
	ldrb	r4, [r3]	@ zero_extendqisi2
	cmp	r4, #2
	beq	.L1000
	.loc 1 2125 0
	ldr	r3, .L1004+4
	ldr	r3, [r3, #88]
	cmp	r3, #0
	ldr	r3, .L1004+8
	ldr	r3, [r3]
	beq	.L965
	.loc 1 2125 0 is_stmt 0 discriminator 1
	cmp	r3, #3
	bgt	.L965
	.loc 1 2132 0 is_stmt 1
	ldr	r5, .L1004+12
	ldr	r2, [r5]
	cmp	r2, #8
	bne	.L960
	.loc 1 2134 0
	ldrb	r2, [r0, #104]	@ zero_extendqisi2
	cmp	r3, #1
	sub	r2, r2, #15
	clz	r2, r2
	mov	r2, r2, lsr #5
	moveq	r2, #0
	cmp	r2, #0
	bne	.L960
.L963:
	ldr	r3, .L1004+16
	ldr	r2, .L1004+20
	add	ip, r3, #1136
.L974:
.LVL802:
	.loc 1 2196 0
	ldr	r1, [r2], #4
	cmp	r1, #0
	beq	.L975
	.loc 1 2196 0 is_stmt 0 discriminator 1
	ldr	r1, [r3, #40]
	cmp	r1, #0
	bgt	.L976
.L975:
	add	r3, r3, #284
	.loc 1 2195 0 is_stmt 1 discriminator 2
	cmp	r3, ip
	bne	.L974
	.loc 1 2260 0
	add	sp, sp, #132
	.cfi_remember_state
	.cfi_def_cfa_offset 12
	@ sp needed
	ldmfd	sp!, {r4, r5, pc}
.L965:
	.cfi_restore_state
	.loc 1 2139 0
	sub	r3, r3, #1
	.loc 1 2186 0
	ldr	r5, .L1004+12
	.loc 1 2139 0
	cmp	r3, #3
	ldrls	pc, [pc, r3, asl #2]
	b	.L966
.L968:
	.word	.L967
	.word	.L969
	.word	.L970
	.word	.L971
.L1000:
	.loc 1 2112 0
	ldr	r5, .L1004+12
	ldr	r3, [r5]
	cmp	r3, #7
	beq	.L1001
.LVL803:
.L960:
	.loc 1 2260 0
	add	sp, sp, #132
	.cfi_remember_state
	.cfi_def_cfa_offset 12
	@ sp needed
	ldmfd	sp!, {r4, r5, pc}
.LVL804:
.L967:
	.cfi_restore_state
	.loc 1 2142 0
	ldr	r3, [r5]
	cmp	r3, #8
	bne	.L960
	.loc 1 2145 0
	ldrb	r3, [r0, #104]	@ zero_extendqisi2
	cmp	r3, #15
	bne	.L960
	b	.L963
.L970:
	.loc 1 2158 0
	ldr	r3, [r5]
	cmp	r3, #8
	bne	.L960
.L973:
	.loc 1 2175 0
	ldrb	r3, [r0, #104]	@ zero_extendqisi2
	cmp	r3, #19
	bne	.L960
	b	.L963
.L971:
	.loc 1 2167 0
	ldr	r3, [r5]
	cmp	r3, #6
	beq	.L972
	cmp	r3, #8
	beq	.L973
	b	.L960
.L969:
	.loc 1 2150 0
	ldr	r3, [r5]
	cmp	r3, #8
	bne	.L960
.L972:
	.loc 1 2170 0
	ldrb	r3, [r0, #104]	@ zero_extendqisi2
	cmp	r3, #21
	bne	.L960
	b	.L963
.L966:
	.loc 1 2186 0
	ldr	r3, [r5]
	cmp	r3, #8
	bne	.L960
	b	.L963
.L1001:
	.loc 1 2115 0
	ldrb	r3, [r0, #104]	@ zero_extendqisi2
	cmp	r3, #20
	cmpne	r3, #8
	bne	.L960
	b	.L963
.L976:
	.loc 1 2204 0
	ldr	lr, .L1004+24
	ldr	r3, [lr, #100]
.LVL805:
	add	lr, lr, #96
	cmp	r3, lr
	ldrne	ip, .L1004+28
	beq	.L988
.L978:
.LVL806:
	.loc 1 2205 0
	ldr	r1, [r3, #8]
.LBB326:
	.loc 1 2208 0
	subs	r2, r3, r0
	movne	r2, #1
	cmp	r1, ip
	movne	r2, #0
	cmp	r2, #0
	beq	.L977
	.loc 1 2208 0 is_stmt 0 discriminator 1
	ldrb	r1, [r3, #104]	@ zero_extendqisi2
	ldrb	r2, [r0, #104]	@ zero_extendqisi2
	cmp	r1, r2
	beq	.L1002
.L977:
.LBE326:
	.loc 1 2204 0 is_stmt 1 discriminator 2
	ldr	r3, [r3, #4]
.LVL807:
	cmp	r3, lr
	bne	.L978
.L988:
	.loc 1 2213 0
	cmp	r4, #2
	beq	.L1003
	.loc 1 2234 0
	ldr	r3, .L1004+8
.LVL808:
	ldr	r1, [r3]
	cmp	r1, #1
	beq	.L982
	cmp	r1, #4
	bne	.L980
	.loc 1 2243 0
	ldr	r1, [r5]
	cmp	r1, #6
	beq	.L984
	cmp	r1, #8
	bne	.L980
.L985:
	.loc 1 2252 0
	ldr	r3, .L1004+32
	.loc 1 2253 0
	add	r0, sp, #4
.LVL809:
	mov	r1, #1
	.loc 1 2252 0
	strh	r3, [sp, #28]	@ movhi
	.loc 1 2253 0
	bl	EV_DoFloor
.LVL810:
	.loc 1 2254 0
	b	.L960
.LVL811:
.L1002:
.LBB327:
	.loc 1 2208 0 discriminator 2
	ldr	r2, [r3, #132]
	cmp	r2, #0
	ble	.L977
	b	.L960
.LVL812:
.L980:
.LBE327:
	.loc 1 2259 0 discriminator 3
	bl	G_ExitLevel
.LVL813:
	b	.L960
.LVL814:
.L1003:
	.loc 1 2215 0
	ldr	r3, [r5]
.LVL815:
	cmp	r3, #7
	bne	.L980
	.loc 1 2217 0
	ldrb	r3, [r0, #104]	@ zero_extendqisi2
	cmp	r3, #8
	beq	.L985
	.loc 1 2224 0
	cmp	r3, #20
	bne	.L980
	.loc 1 2226 0
	ldr	r3, .L1004+36
	.loc 1 2227 0
	add	r0, sp, #4
.LVL816:
	mov	r1, #8
	.loc 1 2226 0
	strh	r3, [sp, #28]	@ movhi
	.loc 1 2227 0
	bl	EV_DoFloor
.LVL817:
	.loc 1 2228 0
	b	.L960
.LVL818:
.L982:
	.loc 1 2237 0
	ldr	r3, .L1004+32
	.loc 1 2238 0
	add	r0, sp, #4
.LVL819:
	.loc 1 2237 0
	strh	r3, [sp, #28]	@ movhi
	.loc 1 2238 0
	bl	EV_DoFloor
.LVL820:
	.loc 1 2239 0
	b	.L960
.LVL821:
.L984:
	.loc 1 2246 0
	ldr	r3, .L1004+32
	.loc 1 2247 0
	add	r0, sp, #4
.LVL822:
	.loc 1 2246 0
	strh	r3, [sp, #28]	@ movhi
	.loc 1 2247 0
	bl	EV_DoDoor
.LVL823:
	.loc 1 2248 0
	b	.L960
.L1005:
	.align	2
.L1004:
	.word	gamemode
	.word	comp
	.word	gameepisode
	.word	gamemap
	.word	players
	.word	playeringame
	.word	thinkerclasscap
	.word	P_MobjThinker
	.word	666
	.word	667
	.cfi_endproc
.LFE65:
	.size	A_BossDeath, .-A_BossDeath
	.align	2
	.global	A_Hoof
	.type	A_Hoof, %function
A_Hoof:
.LFB66:
	.loc 1 2264 0
	.cfi_startproc
	@ args = 0, pretend = 0, frame = 0
	@ frame_needed = 0, uses_anonymous_args = 0
.LVL824:
	stmfd	sp!, {r4, lr}
	.cfi_def_cfa_offset 8
	.cfi_offset 4, -8
	.cfi_offset 14, -4
	.loc 1 2264 0
	mov	r4, r0
	.loc 1 2265 0
	mov	r1, #84
	bl	S_StartSound
.LVL825:
	.loc 1 2266 0
	mov	r0, r4
	.loc 1 2267 0
	ldmfd	sp!, {r4, lr}
	.cfi_restore 14
	.cfi_restore 4
	.cfi_def_cfa_offset 0
.LVL826:
	.loc 1 2266 0
	b	A_Chase
.LVL827:
	.cfi_endproc
.LFE66:
	.size	A_Hoof, .-A_Hoof
	.align	2
	.global	A_Metal
	.type	A_Metal, %function
A_Metal:
.LFB67:
	.loc 1 2270 0
	.cfi_startproc
	@ args = 0, pretend = 0, frame = 0
	@ frame_needed = 0, uses_anonymous_args = 0
.LVL828:
	stmfd	sp!, {r4, lr}
	.cfi_def_cfa_offset 8
	.cfi_offset 4, -8
	.cfi_offset 14, -4
	.loc 1 2270 0
	mov	r4, r0
	.loc 1 2271 0
	mov	r1, #85
	bl	S_StartSound
.LVL829:
	.loc 1 2272 0
	mov	r0, r4
	.loc 1 2273 0
	ldmfd	sp!, {r4, lr}
	.cfi_restore 14
	.cfi_restore 4
	.cfi_def_cfa_offset 0
.LVL830:
	.loc 1 2272 0
	b	A_Chase
.LVL831:
	.cfi_endproc
.LFE67:
	.size	A_Metal, .-A_Metal
	.align	2
	.global	A_BabyMetal
	.type	A_BabyMetal, %function
A_BabyMetal:
.LFB68:
	.loc 1 2276 0
	.cfi_startproc
	@ args = 0, pretend = 0, frame = 0
	@ frame_needed = 0, uses_anonymous_args = 0
.LVL832:
	stmfd	sp!, {r4, lr}
	.cfi_def_cfa_offset 8
	.cfi_offset 4, -8
	.cfi_offset 14, -4
	.loc 1 2276 0
	mov	r4, r0
	.loc 1 2277 0
	mov	r1, #79
	bl	S_StartSound
.LVL833:
	.loc 1 2278 0
	mov	r0, r4
	.loc 1 2279 0
	ldmfd	sp!, {r4, lr}
	.cfi_restore 14
	.cfi_restore 4
	.cfi_def_cfa_offset 0
.LVL834:
	.loc 1 2278 0
	b	A_Chase
.LVL835:
	.cfi_endproc
.LFE68:
	.size	A_BabyMetal, .-A_BabyMetal
	.align	2
	.global	A_OpenShotgun2
	.type	A_OpenShotgun2, %function
A_OpenShotgun2:
.LFB69:
	.loc 1 2282 0
	.cfi_startproc
	@ args = 0, pretend = 0, frame = 0
	@ frame_needed = 0, uses_anonymous_args = 0
	@ link register save eliminated.
.LVL836:
	.loc 1 2283 0
	ldr	r0, [r0]
.LVL837:
	mov	r1, #5
.LVL838:
	b	S_StartSound
.LVL839:
	.cfi_endproc
.LFE69:
	.size	A_OpenShotgun2, .-A_OpenShotgun2
	.align	2
	.global	A_LoadShotgun2
	.type	A_LoadShotgun2, %function
A_LoadShotgun2:
.LFB70:
	.loc 1 2287 0
	.cfi_startproc
	@ args = 0, pretend = 0, frame = 0
	@ frame_needed = 0, uses_anonymous_args = 0
	@ link register save eliminated.
.LVL840:
	.loc 1 2288 0
	ldr	r0, [r0]
.LVL841:
	mov	r1, #7
.LVL842:
	b	S_StartSound
.LVL843:
	.cfi_endproc
.LFE70:
	.size	A_LoadShotgun2, .-A_LoadShotgun2
	.align	2
	.global	A_CloseShotgun2
	.type	A_CloseShotgun2, %function
A_CloseShotgun2:
.LFB71:
	.loc 1 2292 0
	.cfi_startproc
	@ args = 0, pretend = 0, frame = 0
	@ frame_needed = 0, uses_anonymous_args = 0
.LVL844:
	stmfd	sp!, {r3, r4, r5, lr}
	.cfi_def_cfa_offset 16
	.cfi_offset 3, -16
	.cfi_offset 4, -12
	.cfi_offset 5, -8
	.cfi_offset 14, -4
	.loc 1 2292 0
	mov	r4, r0
	mov	r5, r1
	.loc 1 2293 0
	ldr	r0, [r0]
.LVL845:
	mov	r1, #6
.LVL846:
	bl	S_StartSound
.LVL847:
	.loc 1 2294 0
	mov	r0, r4
	mov	r1, r5
	.loc 1 2295 0
	ldmfd	sp!, {r3, r4, r5, lr}
	.cfi_restore 14
	.cfi_restore 5
	.cfi_restore 4
	.cfi_restore 3
	.cfi_def_cfa_offset 0
.LVL848:
	.loc 1 2294 0
	b	A_ReFire
.LVL849:
	.cfi_endproc
.LFE71:
	.size	A_CloseShotgun2, .-A_CloseShotgun2
	.align	2
	.global	P_SpawnBrainTargets
	.type	P_SpawnBrainTargets, %function
P_SpawnBrainTargets:
.LFB72:
	.loc 1 2308 0
	.cfi_startproc
	@ args = 0, pretend = 0, frame = 0
	@ frame_needed = 0, uses_anonymous_args = 0
	stmfd	sp!, {r3, r4, r5, r6, r7, r8, r9, lr}
	.cfi_def_cfa_offset 32
	.cfi_offset 3, -32
	.cfi_offset 4, -28
	.cfi_offset 5, -24
	.cfi_offset 6, -20
	.cfi_offset 7, -16
	.cfi_offset 8, -12
	.cfi_offset 9, -8
	.cfi_offset 14, -4
	.loc 1 2312 0
	mov	r3, #0
	.loc 1 2316 0
	ldr	r5, .L1028
	.loc 1 2313 0
	ldr	r2, .L1028+4
	.loc 1 2316 0
	ldr	r4, [r5, #100]
.LVL850:
	.loc 1 2312 0
	ldr	r7, .L1028+8
	.loc 1 2316 0
	add	r5, r5, #96
	cmp	r4, r5
	.loc 1 2312 0
	str	r3, [r7]
	.loc 1 2313 0
	str	r3, [r2, #4]
	.loc 1 2314 0
	str	r3, [r2]
	.loc 1 2316 0
	ldmeqfd	sp!, {r3, r4, r5, r6, r7, r8, r9, pc}
	ldr	r6, .L1028+12
.LBB328:
	.loc 1 2325 0
	ldr	r9, .L1028+16
	.loc 1 2326 0
	ldr	r8, .L1028+20
	b	.L1022
.L1018:
.LBE328:
	.loc 1 2318 0
	ldr	r4, [r4, #4]
.LVL851:
	.loc 1 2316 0
	cmp	r4, r5
	beq	.L1027
.L1022:
	.loc 1 2319 0
	ldr	r3, [r4, #8]
	cmp	r3, r6
	bne	.L1018
.LVL852:
.LBB329:
	.loc 1 2323 0
	ldrb	r3, [r4, #104]	@ zero_extendqisi2
	cmp	r3, #27
	bne	.L1018
	.loc 1 2325 0
	ldr	r3, [r7]
	ldr	r2, [r9]
	cmp	r3, r2
	bge	.L1019
	ldr	r2, [r8]
.L1020:
	.loc 1 2329 0
	add	r1, r3, #1
	str	r1, [r7]
	str	r4, [r2, r3, asl #2]
.LBE329:
	.loc 1 2318 0
	ldr	r4, [r4, #4]
.LVL853:
	.loc 1 2316 0
	cmp	r4, r5
	bne	.L1022
.LVL854:
.L1027:
	ldmfd	sp!, {r3, r4, r5, r6, r7, r8, r9, pc}
.LVL855:
.L1019:
.LBB330:
	.loc 1 2326 0
	cmp	r2, #0
	moveq	ip, #32
	movne	ip, r2, asl #1
	movne	r1, r2, asl #3
	mov	r3, #0
	mov	r2, #1
	ldr	r0, [r8]
	moveq	r1, #128
	str	ip, [r9]
	bl	Z_Realloc
.LVL856:
	ldr	r3, [r7]
	mov	r2, r0
	str	r0, [r8]
	b	.L1020
.L1029:
	.align	2
.L1028:
	.word	thinkerclasscap
	.word	brain
	.word	numbraintargets
	.word	P_MobjThinker
	.word	numbraintargets_alloc
	.word	braintargets
.LBE330:
	.cfi_endproc
.LFE72:
	.size	P_SpawnBrainTargets, .-P_SpawnBrainTargets
	.align	2
	.global	A_BrainAwake
	.type	A_BrainAwake, %function
A_BrainAwake:
.LFB73:
	.loc 1 2335 0
	.cfi_startproc
	@ args = 0, pretend = 0, frame = 0
	@ frame_needed = 0, uses_anonymous_args = 0
	@ link register save eliminated.
.LVL857:
	.loc 1 2336 0
	mov	r0, #0
.LVL858:
	mov	r1, #96
	b	S_StartSound
.LVL859:
	.cfi_endproc
.LFE73:
	.size	A_BrainAwake, .-A_BrainAwake
	.align	2
	.global	A_BrainPain
	.type	A_BrainPain, %function
A_BrainPain:
.LFB74:
	.loc 1 2340 0
	.cfi_startproc
	@ args = 0, pretend = 0, frame = 0
	@ frame_needed = 0, uses_anonymous_args = 0
	@ link register save eliminated.
.LVL860:
	.loc 1 2341 0
	mov	r0, #0
.LVL861:
	mov	r1, #97
	b	S_StartSound
.LVL862:
	.cfi_endproc
.LFE74:
	.size	A_BrainPain, .-A_BrainPain
	.align	2
	.global	A_BrainScream
	.type	A_BrainScream, %function
A_BrainScream:
.LFB75:
	.loc 1 2345 0
	.cfi_startproc
	@ args = 0, pretend = 0, frame = 0
	@ frame_needed = 0, uses_anonymous_args = 0
.LVL863:
	stmfd	sp!, {r3, r4, r5, r6, r7, lr}
	.cfi_def_cfa_offset 24
	.cfi_offset 3, -24
	.cfi_offset 4, -20
	.cfi_offset 5, -16
	.cfi_offset 6, -12
	.cfi_offset 7, -8
	.cfi_offset 14, -4
	.loc 1 2347 0
	ldr	r5, [r0, #24]
	sub	r3, r5, #-67108863
	sub	r3, r3, #46137344
	sub	r5, r5, #12845056
.LVL864:
	cmp	r3, r5
	movge	r7, r0
.LBB331:
	.loc 1 2356 0
	movge	r6, #1
.LBE331:
	.loc 1 2347 0
	blt	.L1037
.LVL865:
.L1036:
.LBB332:
	.loc 1 2350 0
	mov	r0, #44
	.loc 1 2349 0
	ldr	r4, [r7, #28]
	.loc 1 2350 0
	bl	P_Random
.LVL866:
	.loc 1 2349 0
	sub	r4, r4, #20971520
.LVL867:
	.loc 1 2350 0
	mov	r2, r0, asl #17
	.loc 1 2351 0
	add	r2, r2, #128
.LVL868:
	mov	r3, #33
	mov	r1, r4
	mov	r0, r5
	bl	P_SpawnMobj
.LVL869:
	mov	r4, r0
.LVL870:
	.loc 1 2352 0
	mov	r0, #44
.LVL871:
	bl	P_Random
.LVL872:
	mov	r0, r0, asl #9
	str	r0, [r4, #96]
	.loc 1 2353 0
	ldr	r1, .L1040
	mov	r0, r4
	bl	P_SetMobjState
.LVL873:
	.loc 1 2354 0
	mov	r0, #44
	bl	P_Random
.LVL874:
	ldr	r3, [r4, #112]
	and	r0, r0, #7
	rsb	r3, r0, r3
	cmp	r3, #0
	movgt	r2, r3
	movle	r2, r6
.LBE332:
	.loc 1 2347 0
	ldr	r3, [r7, #24]
	add	r5, r5, #524288
.LVL875:
	sub	r3, r3, #-67108863
	sub	r3, r3, #46137344
	cmp	r3, r5
.LBB333:
	.loc 1 2354 0
	str	r2, [r4, #112]
.LBE333:
	.loc 1 2347 0
	bge	.L1036
.LVL876:
.L1037:
	.loc 1 2358 0
	mov	r0, #0
	.loc 1 2359 0
	ldmfd	sp!, {r3, r4, r5, r6, r7, lr}
	.cfi_restore 14
	.cfi_restore 7
	.cfi_restore 6
	.cfi_restore 5
	.cfi_restore 4
	.cfi_restore 3
	.cfi_def_cfa_offset 0
.LVL877:
	.loc 1 2358 0
	mov	r1, #98
	b	S_StartSound
.LVL878:
.L1041:
	.align	2
.L1040:
	.word	799
	.cfi_endproc
.LFE75:
	.size	A_BrainScream, .-A_BrainScream
	.align	2
	.global	A_BrainExplode
	.type	A_BrainExplode, %function
A_BrainExplode:
.LFB76:
	.loc 1 2362 0
	.cfi_startproc
	@ args = 0, pretend = 0, frame = 0
	@ frame_needed = 0, uses_anonymous_args = 0
.LVL879:
	stmfd	sp!, {r4, r5, r6, lr}
	.cfi_def_cfa_offset 16
	.cfi_offset 4, -16
	.cfi_offset 5, -12
	.cfi_offset 6, -8
	.cfi_offset 14, -4
	.loc 1 2362 0
	mov	r6, r0
	.loc 1 2363 0
	mov	r0, #46
.LVL880:
	bl	P_Random
.LVL881:
	mov	r4, r0
.LVL882:
	.loc 1 2364 0
	mov	r0, #46
.LVL883:
	ldr	r5, [r6, #24]
	bl	P_Random
.LVL884:
	rsb	r4, r0, r4
.LVL885:
	.loc 1 2366 0
	mov	r0, #46
	.loc 1 2364 0
	add	r4, r5, r4, asl #11
.LVL886:
	.loc 1 2365 0
	ldr	r5, [r6, #28]
.LVL887:
	.loc 1 2366 0
	bl	P_Random
.LVL888:
	mov	r2, r0, asl #17
	.loc 1 2367 0
	mov	r3, #33
	add	r2, r2, #128
.LVL889:
	mov	r1, r5
	mov	r0, r4
	bl	P_SpawnMobj
.LVL890:
	mov	r4, r0
.LVL891:
	.loc 1 2368 0
	mov	r0, #46
.LVL892:
	bl	P_Random
.LVL893:
	mov	r0, r0, asl #9
	str	r0, [r4, #96]
	.loc 1 2369 0
	ldr	r1, .L1046
	mov	r0, r4
	bl	P_SetMobjState
.LVL894:
	.loc 1 2370 0
	mov	r0, #46
	bl	P_Random
.LVL895:
	ldr	r3, [r4, #112]
	and	r0, r0, #7
	rsb	r0, r0, r3
	.loc 1 2371 0
	cmp	r0, #0
	.loc 1 2372 0
	movle	r3, #1
	.loc 1 2370 0
	strgt	r0, [r4, #112]
	.loc 1 2372 0
	strle	r3, [r4, #112]
	ldmfd	sp!, {r4, r5, r6, pc}
.L1047:
	.align	2
.L1046:
	.word	799
	.cfi_endproc
.LFE76:
	.size	A_BrainExplode, .-A_BrainExplode
	.align	2
	.global	A_BrainDie
	.type	A_BrainDie, %function
A_BrainDie:
.LFB77:
	.loc 1 2376 0
	.cfi_startproc
	@ args = 0, pretend = 0, frame = 0
	@ frame_needed = 0, uses_anonymous_args = 0
	@ link register save eliminated.
.LVL896:
	.loc 1 2377 0
	b	G_ExitLevel
.LVL897:
	.cfi_endproc
.LFE77:
	.size	A_BrainDie, .-A_BrainDie
	.global	__aeabi_idivmod
	.align	2
	.global	A_BrainSpit
	.type	A_BrainSpit, %function
A_BrainSpit:
.LFB78:
	.loc 1 2381 0
	.cfi_startproc
	@ args = 0, pretend = 0, frame = 0
	@ frame_needed = 0, uses_anonymous_args = 0
.LVL898:
	.loc 1 2384 0
	ldr	r3, .L1055
	ldr	r1, [r3]
	cmp	r1, #0
	bxeq	lr
	.loc 1 2381 0
	stmfd	sp!, {r4, r5, r6, r7, r8, lr}
	.cfi_def_cfa_offset 24
	.cfi_offset 4, -24
	.cfi_offset 5, -20
	.cfi_offset 6, -16
	.cfi_offset 7, -12
	.cfi_offset 8, -8
	.cfi_offset 14, -4
	.loc 1 2387 0
	ldr	r4, .L1055+4
	.loc 1 2388 0
	ldr	r2, .L1055+8
	.loc 1 2387 0
	ldr	r3, [r4]
	.loc 1 2388 0
	ldrsb	r8, [r2]
	.loc 1 2387 0
	eor	r3, r3, #1
	.loc 1 2388 0
	cmp	r8, #1
	cmple	r3, #0
	.loc 1 2387 0
	str	r3, [r4]
	.loc 1 2388 0
	moveq	r8, #1
	movne	r8, #0
	ldmeqfd	sp!, {r4, r5, r6, r7, r8, pc}
	.loc 1 2392 0
	ldr	r2, .L1055+12
	ldr	r3, [r4, #4]
	ldr	r2, [r2]
	mov	r5, r0
	.loc 1 2393 0
	add	r0, r3, #1
.LVL899:
	.loc 1 2392 0
	ldr	r6, [r2, r3, asl #2]
.LVL900:
	.loc 1 2393 0
	bl	__aeabi_idivmod
.LVL901:
	.loc 1 2396 0
	mov	r2, #28
	.loc 1 2393 0
	str	r1, [r4, #4]
	.loc 1 2396 0
	mov	r0, r5
	mov	r1, r6
	bl	P_SpawnMissile
.LVL902:
	mov	r4, r0
.LVL903:
	.loc 1 2397 0
	mov	r1, r6
	add	r0, r0, #144
.LVL904:
	bl	P_SetTarget
.LVL905:
	.loc 1 2398 0
	ldr	r3, [r5, #28]
	ldr	r0, [r6, #28]
	ldr	r1, [r4, #92]
	rsb	r0, r3, r0
	bl	__aeabi_idiv
.LVL906:
	ldr	r3, [r4, #116]
	ldr	r1, [r3, #8]
	bl	__aeabi_idiv
.LVL907:
	.loc 1 2401 0
	ldrd	r2, [r5, #120]
	ldrd	r6, [r4, #120]
.LVL908:
	mov	r2, #0
	bic	r7, r7, #4
	and	r3, r3, #4
	orr	r2, r2, r6
	orr	r3, r3, r7
	.loc 1 2398 0
	strh	r0, [r4, #148]	@ movhi
	.loc 1 2401 0
	strd	r2, [r4, #120]
	.loc 1 2404 0
	mov	r0, r4
	bl	P_UpdateThinker
.LVL909:
	.loc 1 2406 0
	mov	r0, r8
	.loc 1 2407 0
	ldmfd	sp!, {r4, r5, r6, r7, r8, lr}
	.cfi_restore 14
	.cfi_restore 8
	.cfi_restore 7
	.cfi_restore 6
	.cfi_restore 5
	.cfi_restore 4
	.cfi_def_cfa_offset 0
.LVL910:
	.loc 1 2406 0
	mov	r1, #94
	b	S_StartSound
.LVL911:
.L1056:
	.align	2
.L1055:
	.word	numbraintargets
	.word	brain
	.word	gameskill
	.word	braintargets
	.cfi_endproc
.LFE78:
	.size	A_BrainSpit, .-A_BrainSpit
	.align	2
	.global	A_SpawnSound
	.type	A_SpawnSound, %function
A_SpawnSound:
.LFB79:
	.loc 1 2411 0
	.cfi_startproc
	@ args = 0, pretend = 0, frame = 0
	@ frame_needed = 0, uses_anonymous_args = 0
.LVL912:
	stmfd	sp!, {r4, lr}
	.cfi_def_cfa_offset 8
	.cfi_offset 4, -8
	.cfi_offset 14, -4
	.loc 1 2411 0
	mov	r4, r0
	.loc 1 2412 0
	mov	r1, #95
	bl	S_StartSound
.LVL913:
.LBB334:
.LBB335:
	.loc 1 2424 0
	ldrh	r3, [r4, #148]
	sub	r3, r3, #1
	uxth	r3, r3
	cmp	r3, #0
	strh	r3, [r4, #148]	@ movhi
	ldmnefd	sp!, {r4, pc}
	mov	r0, r4
.LBE335:
.LBE334:
	.loc 1 2414 0
	ldmfd	sp!, {r4, lr}
	.cfi_restore 14
	.cfi_restore 4
	.cfi_def_cfa_offset 0
.LVL914:
.LBB337:
.LBB336:
	b	A_SpawnFly.part.7
.LVL915:
.LBE336:
.LBE337:
	.cfi_endproc
.LFE79:
	.size	A_SpawnSound, .-A_SpawnSound
	.align	2
	.global	A_SpawnFly
	.type	A_SpawnFly, %function
A_SpawnFly:
.LFB80:
	.loc 1 2417 0
	.cfi_startproc
	@ args = 0, pretend = 0, frame = 0
	@ frame_needed = 0, uses_anonymous_args = 0
	@ link register save eliminated.
.LVL916:
	.loc 1 2424 0
	ldrh	r3, [r0, #148]
	sub	r3, r3, #1
	uxth	r3, r3
	cmp	r3, #0
	strh	r3, [r0, #148]	@ movhi
	bxne	lr
	b	A_SpawnFly.part.7
.LVL917:
	.cfi_endproc
.LFE80:
	.size	A_SpawnFly, .-A_SpawnFly
	.align	2
	.global	A_PlayerScream
	.type	A_PlayerScream, %function
A_PlayerScream:
.LFB81:
	.loc 1 2479 0
	.cfi_startproc
	@ args = 0, pretend = 0, frame = 0
	@ frame_needed = 0, uses_anonymous_args = 0
	@ link register save eliminated.
.LVL918:
	.loc 1 2481 0
	ldr	r3, .L1066
	ldrb	r3, [r3]	@ zero_extendqisi2
	cmp	r3, #0
	.loc 1 2480 0
	moveq	r1, #57
	.loc 1 2481 0
	beq	.L1063
	.loc 1 2481 0 is_stmt 0 discriminator 1
	ldr	r1, [r0, #132]
	.loc 1 2482 0 is_stmt 1 discriminator 1
	cmn	r1, #50
	movge	r1, #57
	movlt	r1, #58
.L1063:
.LVL919:
	.loc 1 2483 0
	b	S_StartSound
.LVL920:
.L1067:
	.align	2
.L1066:
	.word	gamemode
	.cfi_endproc
.LFE81:
	.size	A_PlayerScream, .-A_PlayerScream
	.align	2
	.global	A_Die
	.type	A_Die, %function
A_Die:
.LFB82:
	.loc 1 2490 0
	.cfi_startproc
	@ args = 0, pretend = 0, frame = 0
	@ frame_needed = 0, uses_anonymous_args = 0
	@ link register save eliminated.
.LVL921:
	.loc 1 2491 0
	mov	r1, #0
	ldr	r3, [r0, #132]
	mov	r2, r1
	b	P_DamageMobj
.LVL922:
	.cfi_endproc
.LFE82:
	.size	A_Die, .-A_Die
	.align	2
	.global	A_Detonate
	.type	A_Detonate, %function
A_Detonate:
.LFB83:
	.loc 1 2500 0
	.cfi_startproc
	@ args = 0, pretend = 0, frame = 0
	@ frame_needed = 0, uses_anonymous_args = 0
	@ link register save eliminated.
.LVL923:
	.loc 1 2501 0
	ldr	r2, [r0, #108]
	ldr	r1, [r0, #144]
	ldr	r2, [r2, #76]
	b	P_RadiusAttack
.LVL924:
	.cfi_endproc
.LFE83:
	.size	A_Detonate, .-A_Detonate
	.align	2
	.global	A_Mushroom
	.type	A_Mushroom, %function
A_Mushroom:
.LFB84:
	.loc 1 2510 0
	.cfi_startproc
	@ args = 0, pretend = 0, frame = 208
	@ frame_needed = 0, uses_anonymous_args = 0
.LVL925:
	stmfd	sp!, {r4, r5, r6, r7, r8, r9, r10, fp, lr}
	.cfi_def_cfa_offset 36
	.cfi_offset 4, -36
	.cfi_offset 5, -32
	.cfi_offset 6, -28
	.cfi_offset 7, -24
	.cfi_offset 8, -20
	.cfi_offset 9, -16
	.cfi_offset 10, -12
	.cfi_offset 11, -8
	.cfi_offset 14, -4
	.loc 1 2511 0
	ldr	r3, [r0, #108]
	.loc 1 2510 0
	sub	sp, sp, #212
	.cfi_def_cfa_offset 248
	.loc 1 2511 0
	ldr	r8, [r3, #76]
.LVL926:
.LBB338:
.LBB339:
	.loc 1 2095 0
	ldr	r1, [r0, #144]
.LBE339:
.LBE338:
	.loc 1 2516 0
	rsb	r10, r8, #0
.LBB342:
.LBB340:
	.loc 1 2095 0
	mov	r2, #128
.LBE340:
.LBE342:
	.loc 1 2510 0
	mov	r6, r0
.LVL927:
.LBB343:
.LBB341:
	.loc 1 2095 0
	bl	P_RadiusAttack
.LVL928:
.LBE341:
.LBE343:
	.loc 1 2516 0
	cmp	r8, r10
	movge	r7, r10
	blt	.L1070
.LVL929:
.L1074:
	.loc 1 2510 0 discriminator 1
	mov	fp, r10
	mov	r9, r7, asl #16
.LVL930:
.L1073:
.LBB344:
	.loc 1 2519 0 discriminator 3
	mov	r1, r6
	mov	r2, #208
	mov	r0, sp
	bl	memcpy
.LVL931:
	.loc 1 2520 0 discriminator 3
	ldr	r2, [sp, #24]
	.loc 1 2521 0 discriminator 3
	ldr	r3, [sp, #28]
	.loc 1 2520 0 discriminator 3
	add	r2, r2, r9
	.loc 1 2521 0 discriminator 3
	add	r3, r3, fp, asl #16
	.loc 1 2522 0 discriminator 3
	mov	r1, fp
	mov	r0, r7
	.loc 1 2520 0 discriminator 3
	str	r2, [sp, #24]
	.loc 1 2521 0 discriminator 3
	str	r3, [sp, #28]
	.loc 1 2522 0 discriminator 3
	bl	P_AproxDistance
.LVL932:
	ldr	r3, [sp, #32]
	.loc 1 2523 0 discriminator 3
	mov	r1, sp
	.loc 1 2522 0 discriminator 3
	add	r3, r3, r0, asl #18
	.loc 1 2523 0 discriminator 3
	mov	r2, #9
	mov	r0, r6
	.loc 1 2522 0 discriminator 3
	str	r3, [sp, #32]
	.loc 1 2523 0 discriminator 3
	bl	P_SpawnMissile
.LVL933:
	mov	r3, r0
.LVL934:
	.loc 1 2527 0 discriminator 3
	ldrd	r4, [r0, #120]
.LBE344:
	.loc 1 2517 0 discriminator 3
	add	fp, fp, #8
.LVL935:
.LBB345:
	.loc 1 2526 0 discriminator 3
	add	r0, r0, #88
.LVL936:
	ldmia	r0, {r0, r1, r2}
	.loc 1 2527 0 discriminator 3
	bic	r4, r4, #512
	.loc 1 2524 0 discriminator 3
	mov	r0, r0, asr #1
	.loc 1 2525 0 discriminator 3
	mov	r1, r1, asr #1
	.loc 1 2526 0 discriminator 3
	mov	r2, r2, asr #1
.LBE345:
	.loc 1 2517 0 discriminator 3
	cmp	r8, fp
.LBB346:
	.loc 1 2524 0 discriminator 3
	str	r0, [r3, #88]
	.loc 1 2525 0 discriminator 3
	str	r1, [r3, #92]
	.loc 1 2526 0 discriminator 3
	str	r2, [r3, #96]
	.loc 1 2527 0 discriminator 3
	strd	r4, [r3, #120]
.LBE346:
	.loc 1 2517 0 discriminator 3
	bge	.L1073
	.loc 1 2516 0 discriminator 2
	add	r7, r7, #8
.LVL937:
	cmp	r8, r7
	bge	.L1074
.LVL938:
.L1070:
	.loc 1 2529 0
	add	sp, sp, #212
	.cfi_def_cfa_offset 36
	@ sp needed
	ldmfd	sp!, {r4, r5, r6, r7, r8, r9, r10, fp, pc}
	.cfi_endproc
.LFE84:
	.size	A_Mushroom, .-A_Mushroom
	.align	2
	.global	A_Spawn
	.type	A_Spawn, %function
A_Spawn:
.LFB85:
	.loc 1 2540 0
	.cfi_startproc
	@ args = 0, pretend = 0, frame = 0
	@ frame_needed = 0, uses_anonymous_args = 0
	@ link register save eliminated.
.LVL939:
	.loc 1 2541 0
	ldr	r2, [r0, #116]
	.loc 1 2540 0
	mov	r1, r0
	.loc 1 2541 0
	ldr	r3, [r2, #20]
	cmp	r3, #0
	bxeq	lr
	.loc 1 2544 0
	ldr	r0, [r2, #24]
.LVL940:
	ldr	r2, [r1, #32]
	sub	r3, r3, #1
	add	r2, r2, r0, asl #16
	uxtb	r3, r3
	ldr	r0, [r1, #24]
	ldr	r1, [r1, #28]
.LVL941:
	b	P_SpawnMobj
.LVL942:
	.cfi_endproc
.LFE85:
	.size	A_Spawn, .-A_Spawn
	.global	__aeabi_uldivmod
	.align	2
	.global	A_Turn
	.type	A_Turn, %function
A_Turn:
.LFB86:
	.loc 1 2553 0
	.cfi_startproc
	@ args = 0, pretend = 0, frame = 0
	@ frame_needed = 0, uses_anonymous_args = 0
.LVL943:
	.loc 1 2554 0
	ldr	r3, [r0, #116]
	.loc 1 2553 0
	stmfd	sp!, {r4, lr}
	.cfi_def_cfa_offset 8
	.cfi_offset 4, -8
	.cfi_offset 14, -4
	.loc 1 2553 0
	mov	r4, r0
	.loc 1 2554 0
	ldr	r1, [r3, #20]
	mov	r0, #0
.LVL944:
	mov	r3, #0
	mov	r2, #360
	bl	__aeabi_uldivmod
.LVL945:
	ldr	r3, [r4, #44]
	add	r0, r3, r0
	str	r0, [r4, #44]
	ldmfd	sp!, {r4, pc}
	.cfi_endproc
.LFE86:
	.size	A_Turn, .-A_Turn
	.align	2
	.global	A_Face
	.type	A_Face, %function
A_Face:
.LFB87:
	.loc 1 2558 0
	.cfi_startproc
	@ args = 0, pretend = 0, frame = 0
	@ frame_needed = 0, uses_anonymous_args = 0
.LVL946:
	.loc 1 2559 0
	ldr	r3, [r0, #116]
	.loc 1 2558 0
	stmfd	sp!, {r4, lr}
	.cfi_def_cfa_offset 8
	.cfi_offset 4, -8
	.cfi_offset 14, -4
	.loc 1 2559 0
	ldr	r1, [r3, #20]
	.loc 1 2558 0
	mov	r4, r0
	.loc 1 2559 0
	mov	r2, #360
	mov	r0, #0
.LVL947:
	mov	r3, #0
	bl	__aeabi_uldivmod
.LVL948:
	str	r0, [r4, #44]
	ldmfd	sp!, {r4, pc}
	.cfi_endproc
.LFE87:
	.size	A_Face, .-A_Face
	.align	2
	.global	A_Scratch
	.type	A_Scratch, %function
A_Scratch:
.LFB88:
	.loc 1 2563 0
	.cfi_startproc
	@ args = 0, pretend = 0, frame = 0
	@ frame_needed = 0, uses_anonymous_args = 0
.LVL949:
	.loc 1 2566 0
	ldr	r3, [r0, #144]
	.loc 1 2563 0
	stmfd	sp!, {r4, lr}
	.cfi_def_cfa_offset 8
	.cfi_offset 4, -8
	.cfi_offset 14, -4
	.loc 1 2566 0
	cmp	r3, #0
	.loc 1 2563 0
	mov	r4, r0
	.loc 1 2566 0
	ldmeqfd	sp!, {r4, pc}
	.loc 1 2564 0
	bl	A_FaceTarget
.LVL950:
	mov	r0, r4
	bl	P_CheckMeleeRange
.LVL951:
	cmp	r0, #0
	ldmeqfd	sp!, {r4, pc}
	.loc 1 2565 0
	ldr	r3, [r4, #116]
	ldr	r1, [r3, #24]
	cmp	r1, #0
	bne	.L1096
.L1088:
	.loc 1 2566 0
	ldr	r0, [r4, #144]
	mov	r1, r4
	mov	r2, r4
	.loc 1 2567 0
	ldmfd	sp!, {r4, lr}
	.cfi_remember_state
	.cfi_restore 14
	.cfi_restore 4
	.cfi_def_cfa_offset 0
.LVL952:
	.loc 1 2566 0
	ldr	r3, [r3, #20]
	b	P_DamageMobj
.LVL953:
.L1096:
	.cfi_restore_state
	.loc 1 2565 0 discriminator 1
	mov	r0, r4
	bl	S_StartSound
.LVL954:
	ldr	r3, [r4, #116]
	b	.L1088
	.cfi_endproc
.LFE88:
	.size	A_Scratch, .-A_Scratch
	.align	2
	.global	A_PlaySound
	.type	A_PlaySound, %function
A_PlaySound:
.LFB89:
	.loc 1 2570 0
	.cfi_startproc
	@ args = 0, pretend = 0, frame = 0
	@ frame_needed = 0, uses_anonymous_args = 0
	@ link register save eliminated.
.LVL955:
	.loc 1 2571 0
	ldr	r3, [r0, #116]
	ldr	r2, [r3, #24]
	ldr	r1, [r3, #20]
	cmp	r2, #0
	movne	r0, #0
.LVL956:
	b	S_StartSound
.LVL957:
	.cfi_endproc
.LFE89:
	.size	A_PlaySound, .-A_PlaySound
	.align	2
	.global	A_RandomJump
	.type	A_RandomJump, %function
A_RandomJump:
.LFB90:
	.loc 1 2575 0
	.cfi_startproc
	@ args = 0, pretend = 0, frame = 0
	@ frame_needed = 0, uses_anonymous_args = 0
.LVL958:
	stmfd	sp!, {r4, lr}
	.cfi_def_cfa_offset 8
	.cfi_offset 4, -8
	.cfi_offset 14, -4
	.loc 1 2575 0
	mov	r4, r0
	.loc 1 2576 0
	mov	r0, #60
.LVL959:
	bl	P_Random
.LVL960:
	ldr	r3, [r4, #116]
	ldr	r2, [r3, #24]
	cmp	r0, r2
	ldmgefd	sp!, {r4, pc}
	.loc 1 2577 0
	mov	r0, r4
	.loc 1 2578 0
	ldmfd	sp!, {r4, lr}
	.cfi_restore 14
	.cfi_restore 4
	.cfi_def_cfa_offset 0
.LVL961:
	.loc 1 2577 0
	ldrh	r1, [r3, #20]
	b	P_SetMobjState
.LVL962:
	.cfi_endproc
.LFE90:
	.size	A_RandomJump, .-A_RandomJump
	.align	2
	.global	A_LineEffect
	.type	A_LineEffect, %function
A_LineEffect:
.LFB91:
	.loc 1 2585 0
	.cfi_startproc
	@ args = 0, pretend = 0, frame = 288
	@ frame_needed = 0, uses_anonymous_args = 0
.LVL963:
	stmfd	sp!, {r4, r5, r6, lr}
	.cfi_def_cfa_offset 16
	.cfi_offset 4, -16
	.cfi_offset 5, -12
	.cfi_offset 6, -8
	.cfi_offset 14, -4
	mov	r4, r0
	.loc 1 2589 0
	ldr	r3, .L1114
	ldr	r5, .L1114+4
	.loc 1 2585 0
	sub	sp, sp, #288
	.cfi_def_cfa_offset 304
	.loc 1 2589 0
	ldr	r1, [r3]
	mov	r2, #124
	add	r0, r5, #20
.LVL964:
	bl	memcpy
.LVL965:
	.loc 1 2592 0
	mov	r1, #100
	.loc 1 2593 0
	ldr	r2, [r4, #116]
	.loc 1 2591 0
	add	r0, sp, #4
	.loc 1 2593 0
	ldrh	r3, [r2, #20]
	.loc 1 2590 0
	ldr	r6, [r4, #156]
.LVL966:
	.loc 1 2594 0
	cmp	r3, #0
	.loc 1 2591 0
	str	r0, [r4, #156]
	.loc 1 2593 0
	strh	r3, [r5, #42]	@ movhi
	.loc 1 2592 0
	str	r1, [sp, #44]
	.loc 1 2594 0
	bne	.L1111
	.loc 1 2601 0
	add	sp, sp, #288
	.cfi_remember_state
	.cfi_def_cfa_offset 16
	@ sp needed
	ldmfd	sp!, {r4, r5, r6, pc}
.LVL967:
.L1111:
	.cfi_restore_state
	.loc 1 2596 0
	ldr	r3, [r2, #24]
	.loc 1 2597 0
	add	r1, r5, #20
	mov	r0, r4
	mov	r2, #0
	.loc 1 2596 0
	strh	r3, [r5, #44]	@ movhi
	.loc 1 2597 0
	bl	P_UseSpecialLine
.LVL968:
	subs	r1, r0, #0
	beq	.L1112
	.loc 1 2599 0
	ldrsh	r2, [r5, #42]
	ldr	r3, [r4, #116]
	str	r2, [r3, #20]
	.loc 1 2600 0
	str	r6, [r4, #156]
.L1113:
	.loc 1 2601 0
	add	sp, sp, #288
	.cfi_remember_state
	.cfi_def_cfa_offset 16
	@ sp needed
	ldmfd	sp!, {r4, r5, r6, pc}
.LVL969:
.L1112:
	.cfi_restore_state
	.loc 1 2598 0
	mov	r2, r4
	add	r0, r5, #20
	bl	P_CrossSpecialLine
.LVL970:
	.loc 1 2599 0
	ldrsh	r2, [r5, #42]
	ldr	r3, [r4, #116]
	str	r2, [r3, #20]
	.loc 1 2600 0
	str	r6, [r4, #156]
	b	.L1113
.L1115:
	.align	2
.L1114:
	.word	lines
	.word	.LANCHOR0
	.cfi_endproc
.LFE91:
	.size	A_LineEffect, .-A_LineEffect
	.comm	brain,8,4
	.comm	numbraintargets,4,4
	.comm	numbraintargets_alloc,4,4
	.comm	braintargets,4,4
	.comm	viletryy,4,4
	.comm	viletryx,4,4
	.comm	vileobj,4,4
	.comm	corpsehit,4,4
	.global	TRACEANGLE
	.section	.rodata
	.align	2
	.set	.LANCHOR1,. + 0
	.type	xspeed, %object
	.size	xspeed, 32
xspeed:
	.word	65536
	.word	47000
	.word	0
	.word	-47000
	.word	-65536
	.word	-47000
	.word	0
	.word	47000
	.type	yspeed, %object
	.size	yspeed, 32
yspeed:
	.word	0
	.word	47000
	.word	65536
	.word	47000
	.word	0
	.word	-47000
	.word	-65536
	.word	-47000
	.data
	.align	2
	.set	.LANCHOR2,. + 0
	.type	TRACEANGLE, %object
	.size	TRACEANGLE, 4
TRACEANGLE:
	.word	201326592
	.bss
	.align	2
	.set	.LANCHOR0,. + 0
	.type	current_actor, %object
	.size	current_actor, 4
current_actor:
	.space	4
	.type	current_allaround, %object
	.size	current_allaround, 4
current_allaround:
	.space	4
	.type	floorz, %object
	.size	floorz, 4
floorz:
	.space	4
	.type	dropoff_deltax, %object
	.size	dropoff_deltax, 4
dropoff_deltax:
	.space	4
	.type	dropoff_deltay, %object
	.size	dropoff_deltay, 4
dropoff_deltay:
	.space	4
	.type	junk.10104, %object
	.size	junk.10104, 124
junk.10104:
	.space	124
	.text
.Letext0:
	.file 3 "c:/devl/prboom3ds/src/z_zone.h"
	.file 4 "c:/devl/prboom3ds/src/doomdef.h"
	.file 5 "c:\\devkitpro\\devkitarm\\lib\\gcc\\arm-none-eabi\\4.9.2\\include\\stddef.h"
	.file 6 "c:/devl/prboom3ds/src/doomtype.h"
	.file 7 "c:/devl/prboom3ds/src/tables.h"
	.file 8 "c:/devl/prboom3ds/src/d_think.h"
	.file 9 "c:/devl/prboom3ds/src/info.h"
	.file 10 "c:/devl/prboom3ds/src/p_pspr.h"
	.file 11 "c:/devl/prboom3ds/src/doomdata.h"
	.file 12 "c:/devl/prboom3ds/src/p_mobj.h"
	.file 13 "c:/devl/prboom3ds/src/r_defs.h"
	.file 14 "c:/devl/prboom3ds/src/d_player.h"
	.file 15 "c:/devl/prboom3ds/src/d_ticcmd.h"
	.file 16 "c:/devl/prboom3ds/src/doomstat.h"
	.file 17 "c:/devl/prboom3ds/src/m_random.h"
	.file 18 "c:/devl/prboom3ds/src/p_spec.h"
	.file 19 "c:/devl/prboom3ds/src/sounds.h"
	.file 20 "c:/devl/prboom3ds/src/p_enemy.h"
	.file 21 "c:/devl/prboom3ds/src/p_tick.h"
	.file 22 "c:/devl/prboom3ds/src/m_bbox.h"
	.file 23 "c:/devl/prboom3ds/src/r_state.h"
	.file 24 "c:/devl/prboom3ds/src/r_main.h"
	.file 25 "c:/devl/prboom3ds/src/p_maputl.h"
	.file 26 "c:/devl/prboom3ds/src/p_map.h"
	.file 27 "c:/devl/prboom3ds/src/p_setup.h"
	.file 28 "c:/devl/prboom3ds/src/s_sound.h"
	.file 29 "c:/devl/prboom3ds/src/p_inter.h"
	.file 30 "c:/devl/prboom3ds/src/g_game.h"