	.arch armv6k
	.fpu softvfp
	.eabi_attribute 23, 1
	.eabi_attribute 24, 1
	.eabi_attribute 25, 1
	.eabi_attribute 26, 1
	.eabi_attribute 30, 2
	.eabi_attribute 34, 1
	.eabi_attribute 18, 4
	.file	"p_map.c"
	.text
.Ltext0:
	.cfi_sections	.debug_frame
	.align	2
	.global	PIT_StompThing
	.type	PIT_StompThing, %function
PIT_StompThing:
.LFB4:
	.file 1 "c:/devl/prboom3ds/src/p_map.c"
	.loc 1 104 0
	.cfi_startproc
	@ args = 0, pretend = 0, frame = 0
	@ frame_needed = 0, uses_anonymous_args = 0
.LVL0:
	.loc 1 111 0
	ldr	ip, .L12
	.loc 1 104 0
	stmfd	sp!, {r3, r4, r5, lr}
	.cfi_def_cfa_offset 16
	.cfi_offset 3, -16
	.cfi_offset 4, -12
	.cfi_offset 5, -8
	.cfi_offset 14, -4
	.loc 1 111 0
	ldr	r1, [ip]
	cmp	r0, r1
	beq	.L6
	.loc 1 114 0
	ldrd	r4, [r0, #120]
	mov	r5, #0
	and	r4, r4, #4
	orrs	r3, r4, r5
	beq	.L6
	.loc 1 119 0
	ldr	r4, [ip, #4]
	ldr	r3, [r0, #24]
	.loc 1 117 0
	ldr	lr, [r0, #80]
	.loc 1 119 0
	rsb	r3, r4, r3
.LBB200:
.LBB201:
	.file 2 "c:/devl/prboom3ds/src/m_fixed.h"
	.loc 2 59 0
	mov	r4, r3, asr #31
.LBE201:
.LBE200:
	.loc 1 117 0
	ldr	r5, [r1, #80]
.LBB203:
.LBB202:
	.loc 2 60 0
	eor	r3, r3, r4
	rsb	r3, r4, r3
.LBE202:
.LBE203:
	.loc 1 117 0
	add	lr, lr, r5
.LVL1:
	.loc 1 119 0
	cmp	lr, r3
	ble	.L6
	.loc 1 119 0 is_stmt 0 discriminator 1
	ldr	r2, [ip, #8]
	ldr	r3, [r0, #28]
	rsb	r3, r2, r3
.LVL2:
.LBB204:
.LBB205:
	.loc 2 59 0 is_stmt 1 discriminator 1
	mov	r2, r3, asr #31
.LVL3:
	.loc 2 60 0 discriminator 1
	eor	r3, r3, r2
.LVL4:
	rsb	r3, r2, r3
.LBE205:
.LBE204:
	.loc 1 119 0 discriminator 1
	cmp	lr, r3
	ble	.L6
	.loc 1 123 0
	ldr	r3, [ip, #12]
	cmp	r3, #0
	beq	.L2
	.loc 1 126 0
	ldr	r3, .L12+4
	mov	r2, r1
.LVL5:
	bl	P_DamageMobj
.LVL6:
	.loc 1 128 0
	mov	r3, #1
	b	.L2
.LVL7:
.L6:
	.loc 1 112 0
	mov	r3, #1
.LVL8:
.L2:
	.loc 1 129 0
	mov	r0, r3
	ldmfd	sp!, {r3, r4, r5, pc}
.L13:
	.align	2
.L12:
	.word	.LANCHOR0
	.word	10000
	.cfi_endproc
.LFE4:
	.size	PIT_StompThing, .-PIT_StompThing
	.align	2
	.type	PIT_CrossLine, %function
PIT_CrossLine:
.LFB8:
	.loc 1 357 0
	.cfi_startproc
	@ args = 0, pretend = 0, frame = 0
	@ frame_needed = 0, uses_anonymous_args = 0
.LVL9:
	.loc 1 358 0
	ldrh	r3, [r0, #20]
	and	r3, r3, #7
	cmp	r3, #4
	beq	.L20
	.loc 1 360 0
	ldr	r3, .L23
	ldr	r2, [r0, #44]
	ldr	r1, [r3, #8]
	cmp	r1, r2
	bgt	.L20
	.loc 1 360 0 is_stmt 0 discriminator 1
	ldr	r1, [r3, #12]
	ldr	r2, [r0, #40]
	cmp	r1, r2
	blt	.L20
	.loc 1 361 0 is_stmt 1
	ldr	r1, [r3]
	ldr	r2, [r0, #36]
	cmp	r1, r2
	blt	.L20
	.loc 1 360 0
	ldr	r2, [r3, #4]
	ldr	r3, [r0, #32]
	cmp	r2, r3
	bgt	.L20
	.loc 1 357 0
	stmfd	sp!, {r4, r5, r6, lr}
	.cfi_def_cfa_offset 16
	.cfi_offset 4, -16
	.cfi_offset 5, -12
	.cfi_offset 6, -8
	.cfi_offset 14, -4
	.loc 1 364 0
	ldr	r6, .L23+4
	mov	r4, r0
	mov	r2, r0
	ldr	r1, [r6, #20]
	ldr	r0, [r6, #16]
.LVL10:
	bl	P_PointOnLineSide
.LVL11:
	mov	r2, r4
	mov	r5, r0
	ldr	r1, [r6, #28]
	ldr	r0, [r6, #24]
	bl	P_PointOnLineSide
.LVL12:
	rsb	r0, r0, r5
	clz	r0, r0
	mov	r0, r0, lsr #5
	ldmfd	sp!, {r4, r5, r6, pc}
.LVL13:
.L20:
	.cfi_def_cfa_offset 0
	.cfi_restore 4
	.cfi_restore 5
	.cfi_restore 6
	.cfi_restore 14
	.loc 1 366 0
	mov	r0, #1
.LVL14:
	bx	lr
.L24:
	.align	2
.L23:
	.word	tmbbox
	.word	.LANCHOR0
	.cfi_endproc
.LFE8:
	.size	PIT_CrossLine, .-PIT_CrossLine
	.align	2
	.type	untouched, %function
untouched:
.LFB9:
	.loc 1 375 0
	.cfi_startproc
	@ args = 0, pretend = 0, frame = 16
	@ frame_needed = 0, uses_anonymous_args = 0
.LVL15:
	.loc 1 378 0
	ldr	r3, .L30
	.loc 1 375 0
	str	lr, [sp, #-4]!
	.cfi_def_cfa_offset 4
	.cfi_offset 14, -4
	.loc 1 378 0
	ldr	r2, [r3]
	.loc 1 381 0
	ldr	lr, [r0, #40]
	.loc 1 378 0
	ldr	r3, [r2, #24]
.LVL16:
	ldr	r1, [r2, #80]
	.loc 1 375 0
	sub	sp, sp, #20
	.cfi_def_cfa_offset 24
	.loc 1 378 0
	add	ip, r3, r1
	.loc 1 381 0
	cmp	ip, lr
	.loc 1 378 0
	str	ip, [sp, #12]
	.loc 1 381 0
	ble	.L28
	.loc 1 378 0
	ldr	ip, [r0, #44]
	.loc 1 379 0
	rsb	r3, r1, r3
.LVL17:
	.loc 1 378 0
	cmp	r3, ip
	.loc 1 379 0
	str	r3, [sp, #8]
	.loc 1 378 0
	bge	.L28
	.loc 1 380 0
	ldr	r3, [r2, #28]
.LVL18:
	.loc 1 379 0
	ldr	ip, [r0, #36]
	.loc 1 380 0
	add	r2, r1, r3
.LVL19:
	.loc 1 379 0
	cmp	r2, ip
	.loc 1 380 0
	str	r2, [sp]
	.loc 1 379 0
	ble	.L28
	.loc 1 380 0
	ldr	r2, [r0, #32]
	.loc 1 381 0
	rsb	r1, r1, r3
	.loc 1 380 0
	cmp	r1, r2
	.loc 1 381 0
	str	r1, [sp, #4]
	.loc 1 380 0
	bge	.L28
	mov	r1, r0
	.loc 1 382 0 discriminator 2
	mov	r0, sp
.LVL20:
	bl	P_BoxOnLineSide
.LVL21:
	.loc 1 381 0 discriminator 2
	adds	r0, r0, #1
	movne	r0, #1
	.loc 1 383 0 discriminator 2
	add	sp, sp, #20
	.cfi_remember_state
	.cfi_def_cfa_offset 4
	@ sp needed
	ldr	pc, [sp], #4
.LVL22:
.L28:
	.cfi_restore_state
	.loc 1 381 0
	mov	r0, #1
.LVL23:
	.loc 1 383 0
	add	sp, sp, #20
	.cfi_def_cfa_offset 4
	@ sp needed
	ldr	pc, [sp], #4
.L31:
	.align	2
.L30:
	.word	.LANCHOR0
	.cfi_endproc
.LFE9:
	.size	untouched, .-untouched
	.global	__aeabi_ldivmod
	.align	2
	.type	PIT_ApplyTorque, %function
PIT_ApplyTorque:
.LFB15:
	.loc 1 895 0
	.cfi_startproc
	@ args = 0, pretend = 0, frame = 0
	@ frame_needed = 0, uses_anonymous_args = 0
.LVL24:
	stmfd	sp!, {r3, r4, r5, r6, r7, r8, r9, r10, fp, lr}
	.cfi_def_cfa_offset 40
	.cfi_offset 3, -40
	.cfi_offset 4, -36
	.cfi_offset 5, -32
	.cfi_offset 6, -28
	.cfi_offset 7, -24
	.cfi_offset 8, -20
	.cfi_offset 9, -16
	.cfi_offset 10, -12
	.cfi_offset 11, -8
	.cfi_offset 14, -4
	.loc 1 896 0
	ldr	r5, [r0, #56]
	cmp	r5, #0
	beq	.L33
	.loc 1 897 0 discriminator 1
	ldr	r3, .L62
	.loc 1 896 0 discriminator 1
	ldr	r2, [r0, #40]
	ldr	r1, [r3, #12]
	cmp	r1, r2
	ble	.L33
	.loc 1 897 0
	ldr	r1, [r3, #8]
	ldr	r2, [r0, #44]
	cmp	r1, r2
	bge	.L33
	.loc 1 898 0
	ldr	r1, [r3]
	ldr	r2, [r0, #36]
	cmp	r1, r2
	ble	.L33
	.loc 1 899 0
	ldr	r1, [r3, #4]
	ldr	r2, [r0, #32]
	cmp	r1, r2
	bge	.L33
	mov	r4, r0
	.loc 1 901 0
	mov	r0, r3
.LVL25:
	mov	r1, r4
	bl	P_BoxOnLineSide
.LVL26:
	.loc 1 900 0
	cmn	r0, #1
	beq	.L59
.LVL27:
.L33:
	.loc 1 962 0
	mov	r0, #1
	ldmfd	sp!, {r3, r4, r5, r6, r7, r8, r9, r10, fp, pc}
.LVL28:
.L59:
.LBB206:
	.loc 1 903 0
	ldr	r3, .L62+4
	.loc 1 908 0
	ldr	r9, [r4, #4]
	.loc 1 903 0
	ldr	r6, [r3]
.LVL29:
	.loc 1 906 0
	ldr	r8, [r4, #12]
	.loc 1 907 0
	ldr	r7, [r4, #16]
	.loc 1 906 0
	ldrsh	r2, [r6, #30]
	.loc 1 907 0
	ldrsh	ip, [r6, #26]
	.loc 1 906 0
	mov	r3, r8, asr #16
	.loc 1 907 0
	mov	lr, r7, asr #16
	.loc 1 908 0
	ldrsh	r0, [r9, #6]
	.loc 1 906 0
	mul	r1, r2, r3
	.loc 1 907 0
	mul	r2, ip, lr
	.loc 1 908 0
	mul	r0, r0, r3
	.loc 1 907 0
	rsb	r2, r2, r1
	.loc 1 909 0
	ldrsh	r9, [r9, #2]
	.loc 1 908 0
	rsb	r3, r0, r2
.LVL30:
	.loc 1 911 0
	mlas	r9, lr, r9, r3
.LVL31:
	bmi	.L60
	.loc 1 914 0
	ldr	r2, [r5, #12]
	ldr	r3, [r6, #32]
	cmp	r2, r3
	bge	.L33
	.loc 1 915 0 discriminator 1
	ldr	r2, [r4, #52]
	.loc 1 914 0 discriminator 1
	ldr	r2, [r2, #12]
	cmp	r3, r2
	movgt	r3, #0
	movle	r3, #1
.L36:
	.loc 1 911 0 discriminator 1
	cmp	r3, #0
	beq	.L33
.LVL32:
.LBB207:
.LBB208:
.LBB209:
	.loc 2 59 0
	mov	r10, r8, asr #31
.LBE209:
.LBE208:
.LBB212:
.LBB213:
	mov	r3, r7, asr #31
.LBE213:
.LBE212:
.LBB216:
.LBB210:
	.loc 2 60 0
	eor	r2, r10, r8
.LBE210:
.LBE216:
.LBB217:
.LBB214:
	eor	r0, r3, r7
.LBE214:
.LBE217:
.LBB218:
.LBB211:
	rsb	r10, r10, r2
.LVL33:
.LBE211:
.LBE218:
.LBB219:
.LBB215:
	rsb	r3, r3, r0
.LVL34:
.LBE215:
.LBE219:
	.loc 1 923 0
	cmp	r10, r3
	movlt	r2, r10
	movlt	r10, r3
	movlt	r3, r2
.LVL35:
.LBB220:
.LBB221:
.LBB222:
.LBB223:
	.loc 2 59 0
	mov	fp, r10, asr #31
.LBE223:
.LBE222:
.LBB226:
.LBB227:
	mov	r2, r3, asr #31
.LVL36:
	.loc 2 60 0
	eor	r1, r2, r3
.LBE227:
.LBE226:
.LBB229:
.LBB224:
	eor	r0, fp, r10
.LBE224:
.LBE229:
.LBB230:
.LBB228:
	rsb	r2, r2, r1
.LBE228:
.LBE230:
.LBB231:
.LBB225:
	rsb	fp, fp, r0
.LVL37:
.LBE225:
.LBE231:
	.loc 2 84 0
	cmp	fp, r2, asr #14
	bgt	.L39
	eor	r0, r3, r10
	mov	r0, r0, asr #31
	eor	r0, r0, #-2147483648
	mvn	r0, r0
.LVL38:
.L40:
.LBE221:
.LBE220:
	.loc 1 930 0
	ldr	r3, .L62+8
	mov	r0, r0, asr #5
	ldr	r3, [r3, r0, asl #2]
	.loc 1 941 0
	ldrh	r4, [r6, #154]
.LVL39:
	.loc 1 930 0
	add	r3, r3, #1073741824
	ldr	r2, .L62+12
	.loc 1 931 0
	mov	r3, r3, lsr #19
	.loc 1 941 0
	sxth	r5, r4
	cmp	r5, #5
	.loc 1 930 0
	ldr	r2, [r2, r3, asl #2]
.LVL40:
	.loc 1 942 0
	rsble	r3, r5, #6
	.loc 1 943 0
	subgt	r3, r5, #6
	.loc 1 941 0
	movle	r2, r2, asl r3
.LVL41:
	movgt	r2, r2, asr r3
.LVL42:
.LBB233:
.LBB234:
	.loc 2 72 0
	smull	r2, r3, r9, r2
.LVL43:
	mov	r0, r2, lsr #16
.LVL44:
	orr	r0, r0, r3, asl #16
.LVL45:
.LBE234:
.LBE233:
.LBB235:
.LBB236:
.LBB237:
.LBB238:
	.loc 2 59 0
	mov	r2, r0, asr #31
.LVL46:
	.loc 2 60 0
	eor	r3, r2, r0
	rsb	r3, r2, r3
.LBE238:
.LBE237:
	.loc 2 84 0
	cmp	fp, r3, asr #14
	bgt	.L43
	eor	r0, r0, r10
.LVL47:
	mov	r0, r0, asr #31
	eor	r0, r0, #-2147483648
	mvn	r0, r0
.LVL48:
.L44:
.LBE236:
.LBE235:
.LBB240:
.LBB241:
	.loc 2 72 0
	smull	r2, r3, r7, r0
.LBE241:
.LBE240:
.LBB244:
.LBB245:
	smull	r0, r1, r0, r8
.LVL49:
.LBE245:
.LBE244:
.LBB248:
.LBB242:
	mov	ip, r2, lsr #16
.LBE242:
.LBE248:
.LBB249:
.LBB246:
	mov	r2, r0, lsr #16
.LBE246:
.LBE249:
.LBB250:
.LBB243:
	orr	ip, ip, r3, asl #16
.LVL50:
.LBE243:
.LBE250:
.LBB251:
.LBB247:
	orr	r1, r2, r1, asl #16
.LVL51:
.LBE247:
.LBE251:
.LBB252:
.LBB253:
	smull	r10, fp, ip, ip
.LVL52:
.LBE253:
.LBE252:
.LBB256:
.LBB257:
	smull	r8, r9, r1, r1
.LVL53:
.LBE257:
.LBE256:
.LBB260:
.LBB254:
	mov	r3, r10, lsr #16
.LBE254:
.LBE260:
.LBB261:
.LBB258:
	mov	r2, r8, lsr #16
.LBE258:
.LBE261:
.LBB262:
.LBB255:
	orr	r3, r3, fp, asl #16
.LBE255:
.LBE262:
.LBB263:
.LBB259:
	orr	r2, r2, r9, asl #16
.LBE259:
.LBE263:
	.loc 1 952 0
	add	r2, r3, r2
.LVL54:
	.loc 1 954 0
	cmp	r2, #262144
	ble	.L45
	cmp	r5, #21
	bgt	.L45
	add	r3, r4, #1
	uxth	r3, r3
	b	.L47
.LVL55:
.L61:
	.loc 1 954 0 is_stmt 0 discriminator 1
	cmp	r3, #23
	beq	.L58
.L47:
	.loc 1 955 0 is_stmt 1
	mov	r2, r2, asr #1
.LVL56:
	add	r0, r3, #1
	.loc 1 954 0
	cmp	r2, #262144
	.loc 1 955 0
	uxth	lr, r3
	mov	ip, ip, asr #1
.LVL57:
	mov	r1, r1, asr #1
.LVL58:
	uxth	r3, r0
	.loc 1 954 0
	bgt	.L61
.L58:
	strh	lr, [r6, #154]	@ movhi
.L45:
	.loc 1 957 0
	ldr	r2, [r6, #88]
.LVL59:
	.loc 1 958 0
	ldr	r3, [r6, #92]
	.loc 1 957 0
	rsb	ip, ip, r2
.LVL60:
	.loc 1 958 0
	add	r1, r3, r1
.LVL61:
	.loc 1 957 0
	str	ip, [r6, #88]
	.loc 1 958 0
	str	r1, [r6, #92]
	b	.L33
.LVL62:
.L43:
.LBB264:
.LBB239:
	.loc 2 85 0
	mov	r3, r0, asr #31
	mov	r1, r3, asl #16
	orr	r1, r1, r0, lsr #16
	mov	r2, r10
.LVL63:
	mov	r3, r10, asr #31
	mov	r0, r0, asl #16
.LVL64:
	bl	__aeabi_ldivmod
.LVL65:
	b	.L44
.LVL66:
.L39:
.LBE239:
.LBE264:
.LBB265:
.LBB232:
	mov	r1, r3, asr #31
	mov	r1, r1, asl #16
	orr	r1, r1, r3, lsr #16
	mov	r0, r3, asl #16
	mov	r2, r10
	mov	r3, r10, asr #31
.LVL67:
	bl	__aeabi_ldivmod
.LVL68:
	b	.L40
.LVL69:
.L60:
.LBE232:
.LBE265:
.LBE207:
	.loc 1 912 0
	ldr	r2, [r4, #52]
	ldr	r3, [r6, #32]
	ldr	r2, [r2, #12]
	cmp	r2, r3
	bge	.L33
	.loc 1 912 0 is_stmt 0 discriminator 1
	ldr	r2, [r5, #12]
	cmp	r3, r2
	movgt	r3, #0
	movle	r3, #1
	b	.L36
.L63:
	.align	2
.L62:
	.word	tmbbox
	.word	.LANCHOR0
	.word	tantoangle
	.word	finesine
.LBE206:
	.cfi_endproc
.LFE15:
	.size	PIT_ApplyTorque, .-PIT_ApplyTorque
	.align	2
	.global	PTR_AimTraverse
	.type	PTR_AimTraverse, %function
PTR_AimTraverse:
.LFB21:
	.loc 1 1389 0 is_stmt 1
	.cfi_startproc
	@ args = 0, pretend = 0, frame = 8
	@ frame_needed = 0, uses_anonymous_args = 0
.LVL70:
	stmfd	sp!, {r4, r5, r6, r7, r8, r9, r10, fp, lr}
	.cfi_def_cfa_offset 36
	.cfi_offset 4, -36
	.cfi_offset 5, -32
	.cfi_offset 6, -28
	.cfi_offset 7, -24
	.cfi_offset 8, -20
	.cfi_offset 9, -16
	.cfi_offset 10, -12
	.cfi_offset 11, -8
	.cfi_offset 14, -4
	.loc 1 1397 0
	ldr	r4, [r0, #4]
	.loc 1 1389 0
	sub	sp, sp, #12
	.cfi_def_cfa_offset 48
	.loc 1 1397 0
	cmp	r4, #0
	.loc 1 1389 0
	mov	r9, r0
	.loc 1 1397 0
	beq	.L65
	.loc 1 1399 0
	ldr	r4, [r0, #8]
.LVL71:
	.loc 1 1401 0
	ldrh	r3, [r4, #20]
	tst	r3, #4
	bne	.L66
.LVL72:
.L68:
	.loc 1 1402 0
	mov	r4, #0
.LVL73:
.L67:
	.loc 1 1475 0
	mov	r0, r4
	add	sp, sp, #12
	.cfi_remember_state
	.cfi_def_cfa_offset 36
	@ sp needed
	ldmfd	sp!, {r4, r5, r6, r7, r8, r9, r10, fp, pc}
.LVL74:
.L65:
	.cfi_restore_state
	.loc 1 1438 0
	ldr	r8, .L94
	.loc 1 1437 0
	ldr	r5, [r0, #8]
.LVL75:
	.loc 1 1438 0
	ldr	ip, [r8, #40]
	cmp	r5, ip
	beq	.L86
	.loc 1 1441 0
	ldrd	r2, [r5, #120]
	mov	r1, #0
	and	r0, r2, #4
.LVL76:
	orrs	r1, r0, r1
	beq	.L86
	.loc 1 1447 0
	ldrd	r10, [ip, #120]
	ldrd	r6, [r8, #48]
	and	r3, r3, fp
	and	r2, r2, r10
	and	r6, r6, r2
	and	r7, r7, r3
	orrs	r3, r6, r7
	beq	.L77
	.loc 1 1447 0 is_stmt 0 discriminator 1
	ldr	r3, [r5, #156]
	cmp	r3, #0
	beq	.L86
.L77:
	.loc 1 1452 0 is_stmt 1
	ldr	r2, .L94+4
	ldr	r3, [r9]
	ldr	r2, [r2]
.LVL77:
	.loc 1 1453 0
	ldr	r1, .L94+8
.LBB266:
.LBB267:
	.loc 2 72 0
	smull	r2, r3, r2, r3
.LVL78:
.LBE267:
.LBE266:
	.loc 1 1453 0
	ldr	fp, [r5, #32]
	ldr	r0, [r5, #84]
	ldr	r7, [r1]
.LBB270:
.LBB268:
	.loc 2 72 0
	mov	r9, r2, lsr #16
.LVL79:
.LBE268:
.LBE270:
	.loc 1 1453 0
	add	r0, fp, r0
.LBB271:
.LBB269:
	.loc 2 72 0
	orr	r9, r9, r3, asl #16
.LBE269:
.LBE271:
	.loc 1 1453 0
	rsb	r0, r7, r0
.LVL80:
.LBB272:
.LBB273:
.LBB274:
.LBB275:
	.loc 2 59 0
	mov	r1, r9, asr #31
.LBE275:
.LBE274:
.LBB278:
.LBB279:
	mov	r2, r0, asr #31
.LVL81:
.LBE279:
.LBE278:
.LBB282:
.LBB276:
	.loc 2 60 0
	eor	r10, r1, r9
.LBE276:
.LBE282:
.LBB283:
.LBB280:
	eor	r3, r2, r0
.LVL82:
.LBE280:
.LBE283:
.LBB284:
.LBB277:
	rsb	r10, r1, r10
.LBE277:
.LBE284:
.LBB285:
.LBB281:
	rsb	r3, r2, r3
.LBE281:
.LBE285:
	.loc 2 84 0
	cmp	r10, r3, asr #14
	ble	.L91
	.loc 2 85 0
	mov	r3, r0, asr #31
	mov	r1, r3, asl #16
.LVL83:
	orr	r1, r1, r0, lsr #16
	mov	r2, r9
.LVL84:
	mov	r0, r0, asl #16
.LVL85:
	mov	r3, r9, asr #31
.LVL86:
	bl	__aeabi_ldivmod
.LVL87:
	mov	r6, r0
.L79:
.LBE273:
.LBE272:
	.loc 1 1455 0
	ldr	ip, [r8, #32]
	cmp	ip, r6
	bgt	.L86
	.loc 1 1458 0
	rsb	r0, r7, fp
.LVL88:
.LBB287:
.LBB288:
.LBB289:
.LBB290:
	.loc 2 59 0
	mov	r2, r0, asr #31
.LVL89:
	.loc 2 60 0
	eor	r3, r2, r0
	rsb	r3, r2, r3
.LBE290:
.LBE289:
	.loc 2 84 0
	cmp	r10, r3, asr #14
	bgt	.L80
	eor	r0, r0, r9
.LVL90:
	mov	r0, r0, asr #31
	eor	r0, r0, #-2147483648
	mvn	r0, r0
.LVL91:
.L81:
.LBE288:
.LBE287:
	.loc 1 1460 0
	ldr	r3, [r8, #36]
	ldr	r2, .L94
	cmp	r3, r0
	blt	.L86
.LVL92:
	cmp	r0, ip
	movlt	r0, ip
.LVL93:
	.loc 1 1471 0
	cmp	r6, r3
	addle	r6, r0, r6
	addgt	r6, r0, r3
.LVL94:
	.loc 1 1472 0
	ldr	r3, .L94+12
	.loc 1 1471 0
	add	r6, r6, r6, lsr #31
	mov	r6, r6, asr #1
	str	r6, [r2, #56]
	.loc 1 1472 0
	str	r5, [r3]
	.loc 1 1474 0
	b	.L67
.LVL95:
.L86:
	.loc 1 1439 0
	mov	r4, #1
	.loc 1 1475 0
	mov	r0, r4
	add	sp, sp, #12
	.cfi_remember_state
	.cfi_def_cfa_offset 36
	@ sp needed
	ldmfd	sp!, {r4, r5, r6, r7, r8, r9, r10, fp, pc}
.LVL96:
.L66:
	.cfi_restore_state
	.loc 1 1408 0
	mov	r0, r4
.LVL97:
	bl	P_LineOpening
.LVL98:
	.loc 1 1410 0
	ldr	r2, .L94+16
	ldr	r3, .L94+20
	ldr	r1, [r2]
	ldr	r5, [r3]
	cmp	r1, r5
	bge	.L68
	.loc 1 1413 0
	ldr	r2, .L94+4
	ldr	r3, [r9]
	ldr	r2, [r2]
.LVL99:
	.loc 1 1415 0
	ldr	r7, [r4, #52]
.LBB292:
.LBB293:
	.loc 2 72 0
	smull	r2, r3, r2, r3
.LVL100:
.LBE293:
.LBE292:
	.loc 1 1415 0
	ldr	r9, [r4, #56]
.LVL101:
	ldr	lr, [r7, #12]
	ldr	ip, [r9, #12]
.LBB296:
.LBB294:
	.loc 2 72 0
	mov	r0, r2, lsr #16
.LBE294:
.LBE296:
	.loc 1 1415 0
	cmp	lr, ip
.LBB297:
.LBB295:
	.loc 2 72 0
	orr	r6, r0, r3, asl #16
.LBE295:
.LBE297:
	.loc 1 1415 0
	beq	.L92
	.loc 1 1417 0
	ldr	r3, .L94+8
.LVL102:
.LBB298:
.LBB299:
.LBB300:
.LBB301:
	.loc 2 59 0
	mov	r2, r6, asr #31
.LBE301:
.LBE300:
.LBE299:
.LBE298:
	.loc 1 1417 0
	ldr	r3, [r3]
.LBB311:
.LBB308:
.LBB304:
.LBB302:
	.loc 2 60 0
	eor	ip, r2, r6
.LBE302:
.LBE304:
.LBE308:
.LBE311:
	.loc 1 1417 0
	rsb	r3, r3, r1
.LVL103:
.LBB312:
.LBB309:
.LBB305:
.LBB306:
	.loc 2 59 0
	mov	r0, r3, asr #31
.LVL104:
	.loc 2 60 0
	eor	r1, r0, r3
	rsb	r1, r0, r1
.LBE306:
.LBE305:
.LBB307:
.LBB303:
	rsb	r2, r2, ip
.LVL105:
.LBE303:
.LBE307:
	.loc 2 84 0
	cmp	r2, r1, asr #14
	ble	.L93
	.loc 2 85 0
	mov	r1, r3, asr #31
	mov	r1, r1, asl #16
	orr	r1, r1, r3, lsr #16
	mov	r0, r3, asl #16
.LVL106:
	mov	r2, r6
	mov	r3, r6, asr #31
.LVL107:
	bl	__aeabi_ldivmod
.LVL108:
.L72:
.LBE309:
.LBE312:
	.loc 1 1418 0
	ldr	r8, .L94
	ldr	r4, [r8, #32]
.LVL109:
	cmp	r4, r0
	.loc 1 1419 0
	movlt	r4, r0
	strlt	r0, [r8, #32]
.LVL110:
.L70:
	.loc 1 1422 0
	ldr	r3, [r9, #16]
	ldr	r2, [r7, #16]
	cmp	r2, r3
	ldreq	r3, [r8, #36]
	beq	.L74
	.loc 1 1424 0
	ldr	r2, .L94+8
.LBB313:
.LBB314:
.LBB315:
.LBB316:
	.loc 2 59 0
	mov	r3, r6, asr #31
.LBE316:
.LBE315:
.LBE314:
.LBE313:
	.loc 1 1424 0
	ldr	r0, [r2]
.LBB326:
.LBB323:
.LBB319:
.LBB317:
	.loc 2 60 0
	eor	r2, r3, r6
.LBE317:
.LBE319:
.LBE323:
.LBE326:
	.loc 1 1424 0
	rsb	r0, r0, r5
.LVL111:
.LBB327:
.LBB324:
.LBB320:
.LBB321:
	.loc 2 59 0
	mov	ip, r0, asr #31
.LVL112:
	.loc 2 60 0
	eor	r1, ip, r0
	rsb	r1, ip, r1
.LBE321:
.LBE320:
.LBB322:
.LBB318:
	rsb	r3, r3, r2
.LVL113:
.LBE318:
.LBE322:
	.loc 2 84 0
	cmp	r3, r1, asr #14
	bgt	.L75
	eor	r0, r0, r6
.LVL114:
	mov	r0, r0, asr #31
	eor	r0, r0, #-2147483648
	mvn	r0, r0
.LVL115:
.L76:
.LBE324:
.LBE327:
	.loc 1 1425 0
	ldr	r3, [r8, #36]
	ldr	r2, .L94
	cmp	r3, r0
	.loc 1 1426 0
	movgt	r3, r0
	strgt	r0, [r2, #36]
.LVL116:
.L74:
	.loc 1 1429 0
	cmp	r4, r3
	movge	r4, #0
	movlt	r4, #1
	.loc 1 1475 0
	mov	r0, r4
	add	sp, sp, #12
	.cfi_remember_state
	.cfi_def_cfa_offset 36
	@ sp needed
	ldmfd	sp!, {r4, r5, r6, r7, r8, r9, r10, fp, pc}
.LVL117:
.L91:
	.cfi_restore_state
.LBB328:
.LBB286:
	.loc 2 84 0
	eor	r6, r9, r0
	mov	r6, r6, asr #31
	eor	r6, r6, #-2147483648
	mvn	r6, r6
	b	.L79
.LVL118:
.L80:
.LBE286:
.LBE328:
.LBB329:
.LBB291:
	.loc 2 85 0
	mov	r3, r0, asr #31
	mov	r1, r3, asl #16
	orr	r1, r1, r0, lsr #16
	mov	r2, r9
.LVL119:
	mov	r0, r0, asl #16
.LVL120:
	mov	r3, r9, asr #31
	str	ip, [sp, #4]
	bl	__aeabi_ldivmod
.LVL121:
	ldr	ip, [sp, #4]
	b	.L81
.LVL122:
.L93:
.LBE291:
.LBE329:
.LBB330:
.LBB310:
	.loc 2 84 0
	eor	r3, r3, r6
.LVL123:
	mov	r3, r3, asr #31
	eor	r0, r3, #-2147483648
.LVL124:
	mvn	r0, r0
	b	.L72
.LVL125:
.L75:
.LBE310:
.LBE330:
.LBB331:
.LBB325:
	.loc 2 85 0
	mov	r3, r0, asr #31
	mov	r1, r3, asl #16
	orr	r1, r1, r0, lsr #16
	mov	r2, r6
	mov	r3, r6, asr #31
	mov	r0, r0, asl #16
.LVL126:
	bl	__aeabi_ldivmod
.LVL127:
	b	.L76
.LVL128:
.L92:
	ldr	r8, .L94
	ldr	r4, [r8, #32]
.LVL129:
	b	.L70
.L95:
	.align	2
.L94:
	.word	.LANCHOR0
	.word	attackrange
	.word	shootz
	.word	linetarget
	.word	openbottom
	.word	opentop
.LBE325:
.LBE331:
	.cfi_endproc
.LFE21:
	.size	PTR_AimTraverse, .-PTR_AimTraverse
	.align	2
	.global	PTR_NoWayTraverse
	.type	PTR_NoWayTraverse, %function
PTR_NoWayTraverse:
.LFB26:
	.loc 1 1713 0
	.cfi_startproc
	@ args = 0, pretend = 0, frame = 0
	@ frame_needed = 0, uses_anonymous_args = 0
.LVL130:
	stmfd	sp!, {r3, lr}
	.cfi_def_cfa_offset 8
	.cfi_offset 3, -8
	.cfi_offset 14, -4
	.loc 1 1714 0
	ldr	r0, [r0, #8]
.LVL131:
	.loc 1 1716 0
	ldrsh	r3, [r0, #22]
	cmp	r3, #0
	bne	.L100
	.loc 1 1717 0 discriminator 2
	ldrh	r3, [r0, #20]
	.loc 1 1716 0 discriminator 2
	tst	r3, #1
	beq	.L98
.LVL132:
.L99:
	.loc 1 1716 0 is_stmt 0
	mov	r0, #0
	ldmfd	sp!, {r3, pc}
.LVL133:
.L98:
	.loc 1 1718 0 is_stmt 1
	bl	P_LineOpening
.LVL134:
	.loc 1 1719 0
	ldr	r3, .L102
	.loc 1 1720 0
	ldr	r3, [r3]
	cmp	r3, #0
	ble	.L99
	.loc 1 1720 0 is_stmt 0 discriminator 2
	ldr	r2, .L102+4
	ldr	r3, .L102+8
	ldr	r2, [r2]
	.loc 1 1719 0 is_stmt 1 discriminator 2
	ldr	r1, [r3]
	.loc 1 1720 0 discriminator 2
	ldr	r3, [r2, #32]
	add	r0, r3, #1572864
	.loc 1 1719 0 discriminator 2
	cmp	r0, r1
	blt	.L99
	.loc 1 1721 0 discriminator 3
	ldr	r1, .L102+12
	ldr	r0, [r2, #84]
	.loc 1 1720 0 discriminator 3
	ldr	r2, [r1]
	.loc 1 1721 0 discriminator 3
	add	r3, r3, r0
	.loc 1 1720 0 discriminator 3
	cmp	r3, r2
	movgt	r0, #0
	movle	r0, #1
	ldmfd	sp!, {r3, pc}
.LVL135:
.L100:
	.loc 1 1716 0
	mov	r0, #1
.LVL136:
	.loc 1 1724 0
	ldmfd	sp!, {r3, pc}
.L103:
	.align	2
.L102:
	.word	openrange
	.word	usething
	.word	openbottom
	.word	opentop
	.cfi_endproc
.LFE26:
	.size	PTR_NoWayTraverse, .-PTR_NoWayTraverse
	.align	2
	.type	PIT_CheckThing, %function
PIT_CheckThing:
.LFB11:
	.loc 1 479 0
	.cfi_startproc
	@ args = 0, pretend = 0, frame = 0
	@ frame_needed = 0, uses_anonymous_args = 0
.LVL137:
	stmfd	sp!, {r4, r5, r6, r7, r8, r9, r10, lr}
	.cfi_def_cfa_offset 32
	.cfi_offset 4, -32
	.cfi_offset 5, -28
	.cfi_offset 6, -24
	.cfi_offset 7, -20
	.cfi_offset 8, -16
	.cfi_offset 9, -12
	.cfi_offset 10, -8
	.cfi_offset 14, -4
	.loc 1 484 0
	ldrd	r6, [r0, #120]
	and	r2, r6, #7
	and	r3, r7, #1
	orrs	r3, r2, r3
	beq	.L132
	.loc 1 487 0
	ldr	r5, .L170
	.loc 1 489 0
	ldr	r3, [r0, #24]
	ldr	r2, [r5, #4]
	.loc 1 487 0
	ldr	ip, [r5]
	.loc 1 489 0
	rsb	r3, r2, r3
.LBB332:
.LBB333:
	.loc 2 59 0
	mov	r1, r3, asr #31
.LBE333:
.LBE332:
	.loc 1 487 0
	ldr	lr, [ip, #80]
	ldr	r2, [r0, #80]
.LBB335:
.LBB334:
	.loc 2 60 0
	eor	r3, r3, r1
	rsb	r3, r1, r3
.LBE334:
.LBE335:
	.loc 1 487 0
	add	r2, r2, lr
.LVL138:
	.loc 1 489 0
	cmp	r2, r3
	ble	.L132
	.loc 1 489 0 is_stmt 0 discriminator 1
	ldr	r1, [r5, #8]
.LVL139:
	ldr	r3, [r0, #28]
	rsb	r3, r1, r3
.LVL140:
.LBB336:
.LBB337:
	.loc 2 59 0 is_stmt 1 discriminator 1
	mov	r1, r3, asr #31
.LVL141:
	.loc 2 60 0 discriminator 1
	eor	r3, r3, r1
.LVL142:
	rsb	r3, r1, r3
.LBE337:
.LBE336:
	.loc 1 499 0 discriminator 1
	cmp	r0, ip
	cmpne	r2, r3
	ble	.L132
	.loc 1 510 0
	mov	r2, #0
.LVL143:
	and	r3, r7, #1
	orrs	r3, r2, r3
	mov	r4, r0
	.loc 1 511 0
	ldrd	r2, [ip, #120]
	.loc 1 510 0
	beq	.L107
	.loc 1 511 0 discriminator 1
	mov	r1, #0
.LVL144:
	and	r0, r2, #2
.LVL145:
	.loc 1 510 0 discriminator 1
	orrs	r1, r0, r1
	beq	.L107
	.loc 1 512 0
	ldr	lr, [r4, #132]
.LVL146:
	.loc 1 511 0
	cmp	lr, #0
	ble	.L107
	.loc 1 513 0
	ldr	r1, [r4, #128]
	.loc 1 512 0
	tst	r1, #2
	bne	.L108
	.loc 1 514 0
	ldr	r1, [r4, #108]
	ldr	r1, [r1, #12]
	cmp	r1, #0
	beq	.L107
.L108:
	.loc 1 515 0 discriminator 1
	ldrb	r0, [r4, #104]	@ zero_extendqisi2
	ldrb	r8, [ip, #104]	@ zero_extendqisi2
	clz	r1, r0
	mov	r1, r1, lsr #5
	cmp	r0, r8
	orrne	r1, r1, #1
	cmp	r1, #0
	beq	.L107
	.loc 1 517 0
	ldr	r10, [r4, #32]
	ldr	r1, [r4, #84]
	ldr	r9, [ip, #32]
	add	r1, r10, r1
	.loc 1 516 0
	cmp	r1, r9
	blt	.L107
	.loc 1 518 0
	ldr	r1, [ip, #84]
	add	r9, r9, r1
	.loc 1 517 0
	cmp	r10, r9
	bgt	.L107
	.loc 1 518 0
	eor	r1, r8, #18
	eor	r9, r0, #22
	orrs	r1, r1, r9
	beq	.L107
	.loc 1 520 0
	eor	r8, r8, #22
	eor	r0, r0, #18
	orrs	r1, r8, r0
	beq	.L107
	.loc 1 524 0
	mov	r1, #0
	mov	r0, r4
	mov	r3, lr
	mov	r2, r1
	bl	P_DamageMobj
.LVL147:
	.loc 1 525 0
	mov	r0, #1
	ldmfd	sp!, {r4, r5, r6, r7, r8, r9, r10, pc}
.LVL148:
.L107:
	.loc 1 530 0
	mov	r1, #0
	and	r0, r2, #16777216
	orrs	r1, r0, r1
	bne	.L166
	.loc 1 550 0
	mov	r9, #0
	and	r8, r2, #65536
	orrs	r1, r8, r9
	bne	.L110
	.loc 1 550 0 is_stmt 0 discriminator 1
	mov	r0, #0
	and	r1, r3, #2
	orrs	r1, r0, r1
	beq	.L111
	.loc 1 551 0 is_stmt 1 discriminator 2
	mov	r1, #0
	and	r0, r2, #2
	.loc 1 550 0 discriminator 2
	orrs	r1, r0, r1
	bne	.L111
.L110:
	.loc 1 555 0
	ldr	lr, [r4, #32]
	ldr	r1, [r4, #84]
	ldr	r0, [ip, #32]
	add	r1, lr, r1
	cmp	r0, r1
	bgt	.L132
	.loc 1 558 0
	ldr	r1, [ip, #84]
	add	r0, r0, r1
	cmp	lr, r0
	ble	.L167
.LVL149:
.L132:
	.loc 1 485 0
	mov	r0, #1
	ldmfd	sp!, {r4, r5, r6, r7, r8, r9, r10, pc}
.LVL150:
.L111:
	.loc 1 605 0
	mov	r1, #0
	and	r0, r6, #1
	orrs	r1, r0, r1
	bne	.L168
	.loc 1 619 0
	mov	r1, #0
	and	r0, r6, #2
	.loc 1 620 0
	orrs	r1, r0, r1
	beq	.L132
	.loc 1 620 0 is_stmt 0 discriminator 2
	ldr	r1, .L170+4
	ldrb	r1, [r1]	@ zero_extendqisi2
	cmp	r1, #6
	bls	.L130
	.loc 1 621 0 is_stmt 1
	mov	r7, #0
	and	r6, r6, #4096
	orrs	r1, r6, r7
	bne	.L132
	.loc 1 621 0 is_stmt 0 discriminator 1
	movs	r3, r3, lsr #1
	mov	r2, r2, rrx
	eor	r2, r2, #1
	and	r0, r2, #1
	ldmfd	sp!, {r4, r5, r6, r7, r8, r9, r10, pc}
.L166:
.LBB338:
	.loc 1 535 0 is_stmt 1
	mov	r0, #0
	bl	P_Random
.LVL151:
	mov	r2, r0, asr #31
	mov	r2, r2, lsr #29
	add	r0, r0, r2
	and	r0, r0, #7
	rsb	r2, r2, r0
	.loc 1 537 0
	mov	r0, r4
	.loc 1 540 0
	mov	r4, #0
.LVL152:
	.loc 1 535 0
	ldr	r1, [r5]
	ldr	r3, [r1, #108]
	ldr	r3, [r3, #76]
	.loc 1 537 0
	mla	r3, r2, r3, r3
	mov	r2, r1
	bl	P_DamageMobj
.LVL153:
	.loc 1 539 0
	ldr	r0, [r5]
	.loc 1 542 0
	ldr	r1, [r0, #108]
	.loc 1 539 0
	ldrd	r2, [r0, #120]
	bic	r2, r2, #16777216
	.loc 1 542 0
	ldrh	r1, [r1, #4]
	.loc 1 539 0
	strd	r2, [r0, #120]
	.loc 1 540 0
	str	r4, [r0, #96]
	str	r4, [r0, #92]
	str	r4, [r0, #88]
	.loc 1 542 0
	bl	P_SetMobjState
.LVL154:
	.loc 1 544 0
	mov	r0, r4
	ldmfd	sp!, {r4, r5, r6, r7, r8, r9, r10, pc}
.LVL155:
.L167:
.LBE338:
	.loc 1 561 0
	ldr	r1, [ip, #144]
	cmp	r1, #0
	beq	.L112
	.loc 1 561 0 is_stmt 0 discriminator 1
	ldrb	r0, [r1, #104]	@ zero_extendqisi2
	ldrb	lr, [r4, #104]	@ zero_extendqisi2
	cmp	r0, lr
	beq	.L113
	.loc 1 561 0 discriminator 2
	cmp	r0, #17
	beq	.L169
	.loc 1 563 0 is_stmt 1
	cmp	r0, #15
	cmpeq	lr, #17
	beq	.L113
.L112:
	.loc 1 576 0
	orrs	r1, r8, r9
	bne	.L116
	.loc 1 577 0
	mov	r7, #0
	and	r6, r6, #2
	orrs	r1, r6, r7
	beq	.L132
	.loc 1 582 0
	mov	r1, #0
	and	r0, r2, #512
	.loc 1 581 0
	ldr	r3, [ip, #92]
	.loc 1 580 0
	ldr	r2, [ip, #88]
	.loc 1 581 0
	rsb	r3, r3, #0
	.loc 1 580 0
	rsb	r2, r2, #0
	.loc 1 582 0
	orrs	r1, r0, r1
	.loc 1 580 0
	str	r2, [ip, #88]
	.loc 1 581 0
	str	r3, [ip, #92]
	.loc 1 582 0
	bne	.L130
	.loc 1 584 0
	mov	r2, r2, asr #2
	.loc 1 585 0
	mov	r3, r3, asr #2
	.loc 1 584 0
	str	r2, [ip, #88]
	.loc 1 585 0
	str	r3, [ip, #92]
	.loc 1 587 0
	mov	r0, #0
	ldmfd	sp!, {r4, r5, r6, r7, r8, r9, r10, pc}
.L168:
.LBB339:
	.loc 1 608 0
	mov	r3, #0
	and	r2, r2, #2048
	orrs	r3, r2, r3
	.loc 1 607 0
	and	r6, r6, #2
	mov	r7, #0
.LVL156:
	.loc 1 608 0
	beq	.L120
	.loc 1 609 0
	mov	r0, r4
	mov	r1, ip
	bl	P_TouchSpecialThing
.LVL157:
.L120:
	.loc 1 610 0
	orrs	r3, r6, r7
	moveq	r0, #1
	movne	r0, #0
	ldmfd	sp!, {r4, r5, r6, r7, r8, r9, r10, pc}
.LVL158:
.L116:
.LBE339:
	.loc 1 591 0
	mov	r3, #0
	and	r2, r6, #4
	orrs	r3, r2, r3
	bne	.L118
	.loc 1 592 0
	movs	r3, r7, lsr #1
	mov	r2, r6, rrx
	eor	r2, r2, #1
	and	r0, r2, #1
	ldmfd	sp!, {r4, r5, r6, r7, r8, r9, r10, pc}
.L113:
	.loc 1 565 0
	cmp	r4, r1
	beq	.L132
	.loc 1 569 0
	cmp	lr, #0
	beq	.L112
.L121:
	.loc 1 569 0 is_stmt 0 discriminator 1
	ldr	r1, .L170+8
	ldr	r1, [r1]
	cmp	r1, #0
	bne	.L112
.L130:
	.loc 1 620 0 is_stmt 1
	mov	r0, #0
	ldmfd	sp!, {r4, r5, r6, r7, r8, r9, r10, pc}
.L169:
	.loc 1 562 0
	cmp	lr, #15
	bne	.L112
	.loc 1 565 0
	cmp	r4, r1
	bne	.L121
	b	.L132
.L118:
	.loc 1 596 0
	mov	r0, #1
	bl	P_Random
.LVL159:
	ldr	r1, [r5]
.LVL160:
	mov	r2, r0, asr #31
	mov	ip, r2, lsr #29
	ldr	r3, [r1, #108]
	add	r2, r0, ip
	ldr	r3, [r3, #76]
	and	r2, r2, #7
	rsb	r2, ip, r2
	.loc 1 597 0
	mov	r0, r4
.LVL161:
	mla	r3, r2, r3, r3
	ldr	r2, [r1, #144]
	bl	P_DamageMobj
.LVL162:
	.loc 1 600 0
	mov	r0, #0
	ldmfd	sp!, {r4, r5, r6, r7, r8, r9, r10, pc}
.L171:
	.align	2
.L170:
	.word	.LANCHOR0
	.word	compatibility_level
	.word	monsters_infight
	.cfi_endproc
.LFE11:
	.size	PIT_CheckThing, .-PIT_CheckThing
	.align	2
	.global	PTR_SlideTraverse
	.type	PTR_SlideTraverse, %function
PTR_SlideTraverse:
.LFB19:
	.loc 1 1195 0
	.cfi_startproc
	@ args = 0, pretend = 0, frame = 0
	@ frame_needed = 0, uses_anonymous_args = 0
.LVL163:
	.loc 1 1198 0
	ldr	r3, [r0, #4]
	.loc 1 1195 0
	stmfd	sp!, {r4, r5, r6, lr}
	.cfi_def_cfa_offset 16
	.cfi_offset 4, -16
	.cfi_offset 5, -12
	.cfi_offset 6, -8
	.cfi_offset 14, -4
	.loc 1 1198 0
	cmp	r3, #0
	.loc 1 1195 0
	mov	r4, r0
	.loc 1 1198 0
	beq	.L180
.LVL164:
.L173:
	.loc 1 1201 0
	ldr	r5, [r4, #8]
.LVL165:
	.loc 1 1205 0
	ldr	r6, .L182
	.loc 1 1203 0
	ldrh	r3, [r5, #20]
	tst	r3, #4
	bne	.L174
	.loc 1 1205 0
	ldr	r3, [r6, #60]
	mov	r2, r5
	ldr	r0, [r3, #24]
	ldr	r1, [r3, #28]
	bl	P_PointOnLineSide
.LVL166:
	cmp	r0, #0
	bne	.L175
.L178:
.LDL1:
	.loc 1 1233 0
	ldr	r3, [r4]
	ldr	r1, [r6, #64]
	ldr	r2, .L182
	cmp	r3, r1
	.loc 1 1239 0
	mov	r0, #0
	.loc 1 1233 0
	bge	.L181
	.loc 1 1235 0
	str	r3, [r2, #64]
	.loc 1 1236 0
	str	r5, [r2, #68]
	.loc 1 1240 0
	ldmfd	sp!, {r4, r5, r6, pc}
.L174:
	.loc 1 1213 0
	mov	r0, r5
	bl	P_LineOpening
.LVL167:
	.loc 1 1215 0
	ldr	r2, [r6, #60]
	ldr	r1, .L182+4
	ldr	r3, [r2, #84]
	ldr	r1, [r1]
	cmp	r3, r1
	bgt	.L178
	.loc 1 1218 0
	ldr	r0, .L182+8
	ldr	r1, [r2, #32]
	ldr	r2, [r0]
	rsb	r2, r1, r2
	cmp	r3, r2
	bgt	.L178
	.loc 1 1221 0
	ldr	r3, .L182+12
	ldr	r3, [r3]
	rsb	r1, r1, r3
	cmp	r1, #1572864
	bgt	.L178
.L175:
	.loc 1 1206 0
	mov	r0, #1
	ldmfd	sp!, {r4, r5, r6, pc}
.L181:
	ldmfd	sp!, {r4, r5, r6, pc}
.LVL168:
.L180:
	.loc 1 1199 0
	ldr	r0, .L182+16
.LVL169:
	bl	I_Error
.LVL170:
	b	.L173
.L183:
	.align	2
.L182:
	.word	.LANCHOR0
	.word	openrange
	.word	opentop
	.word	openbottom
	.word	.LC0
	.cfi_endproc
.LFE19:
	.size	PTR_SlideTraverse, .-PTR_SlideTraverse
	.align	2
	.global	PTR_ShootTraverse
	.type	PTR_ShootTraverse, %function
PTR_ShootTraverse:
.LFB22:
	.loc 1 1482 0
	.cfi_startproc
	@ args = 0, pretend = 0, frame = 24
	@ frame_needed = 0, uses_anonymous_args = 0
.LVL171:
	stmfd	sp!, {r4, r5, r6, r7, r8, r9, r10, fp, lr}
	.cfi_def_cfa_offset 36
	.cfi_offset 4, -36
	.cfi_offset 5, -32
	.cfi_offset 6, -28
	.cfi_offset 7, -24
	.cfi_offset 8, -20
	.cfi_offset 9, -16
	.cfi_offset 10, -12
	.cfi_offset 11, -8
	.cfi_offset 14, -4
	.loc 1 1495 0
	ldr	r4, [r0, #4]
	.loc 1 1482 0
	sub	sp, sp, #28
	.cfi_def_cfa_offset 64
	.loc 1 1495 0
	cmp	r4, #0
	.loc 1 1482 0
	mov	r6, r0
	.loc 1 1495 0
	beq	.L185
.LBB340:
	.loc 1 1497 0
	ldr	r5, [r0, #8]
.LVL172:
	.loc 1 1499 0
	ldrsh	r3, [r5, #22]
	cmp	r3, #0
	bne	.L224
	.loc 1 1502 0
	ldrh	r3, [r5, #20]
	tst	r3, #4
	bne	.L187
.LVL173:
.L227:
	ldr	r3, .L228
	ldr	fp, [r6]
	ldr	r4, [r3]
	ldr	r2, .L228+4
	mov	r6, r4
.LVL174:
	ldr	r3, .L228+8
	ldr	r10, [r2, #56]
	ldr	r9, [r3]
	ldr	r8, [r5, #52]
	mov	r7, r4, asr #31
.L188:
.LVL175:
.LBB341:
.LBB342:
.LBB343:
.LBB344:
	.loc 2 59 0
	mov	r2, r4, asr #31
.LVL176:
	.loc 2 60 0
	eor	r3, r2, r4
	rsb	r3, r2, r3
.LBE344:
.LBE343:
	.loc 2 84 0
	cmp	r3, #16
	bgt	.L197
	eor	r0, r2, #-2147483648
	mvn	r0, r0
.LVL177:
.L198:
.LBE342:
.LBE341:
	.loc 1 1519 0
	rsb	fp, r0, fp
.LVL178:
.LBB346:
.LBB347:
	.loc 2 72 0
	mul	r0, fp, r7
.LBE347:
.LBE346:
.LBB349:
.LBB350:
	mov	r1, fp, asr #31
.LBE350:
.LBE349:
.LBB354:
.LBB348:
	umull	r2, r3, fp, r6
	mla	r6, r6, r1, r0
	mov	r2, r2, lsr #16
	add	r3, r6, r3
	orr	r2, r2, r3, asl #16
.LBE348:
.LBE354:
.LBB355:
.LBB356:
	smull	r0, r1, r10, r2
.LBE356:
.LBE355:
	.loc 1 1524 0
	ldr	r3, .L228+12
	ldrsh	lr, [r8, #186]
	ldr	ip, [r3]
.LBB359:
.LBB357:
	.loc 2 72 0
	mov	r2, r0, lsr #16
.LBE357:
.LBE359:
	.loc 1 1520 0
	ldr	r3, .L228+16
.LBB360:
.LBB358:
	.loc 2 72 0
	orr	r2, r2, r1, asl #16
.LBE358:
.LBE360:
	.loc 1 1524 0
	cmp	lr, ip
	.loc 1 1522 0
	add	r2, r9, r2
	.loc 1 1520 0
	ldr	ip, [r3]
	.loc 1 1521 0
	ldmib	r3, {r1, r6}
	ldr	r4, [r3, #12]
.LVL179:
	.loc 1 1524 0
	bne	.L199
	.loc 1 1528 0
	ldr	r3, [r8, #16]
	cmp	r2, r3
	bgt	.L223
	.loc 1 1533 0
	ldr	r3, [r5, #56]
	cmp	r3, #0
	beq	.L199
	.loc 1 1533 0 is_stmt 0 discriminator 1
	ldrsh	r0, [r3, #186]
	cmp	lr, r0
	bne	.L199
	.loc 1 1538 0 is_stmt 1
	ldr	r0, .L228+20
	ldrb	r0, [r0]	@ zero_extendqisi2
	cmp	r0, #6
	bls	.L223
	.loc 1 1538 0 is_stmt 0 discriminator 1
	ldr	r3, [r3, #16]
	cmp	r2, r3
	ble	.L199
.LVL180:
.L223:
	.loc 1 1548 0 is_stmt 1
	mov	r4, #0
.L193:
.LBE340:
	.loc 1 1594 0
	mov	r0, r4
	add	sp, sp, #28
	.cfi_remember_state
	.cfi_def_cfa_offset 36
	@ sp needed
	ldmfd	sp!, {r4, r5, r6, r7, r8, r9, r10, fp, pc}
.LVL181:
.L185:
	.cfi_restore_state
	.loc 1 1554 0
	ldr	ip, .L228+4
	.loc 1 1553 0
	ldr	r5, [r0, #8]
.LVL182:
	.loc 1 1554 0
	ldr	r3, [ip, #40]
	cmp	r5, r3
	beq	.L196
	.loc 1 1557 0
	ldrd	r2, [r5, #120]
	strd	r2, [sp]
	mov	r3, #0
	and	r2, r2, #4
	orrs	r3, r2, r3
	beq	.L196
	.loc 1 1562 0
	ldr	r3, .L228
	ldr	fp, [r0]
	ldr	r9, [r3]
.LVL183:
	.loc 1 1563 0
	ldr	r1, .L228+8
.LBB409:
.LBB410:
	.loc 2 72 0
	smull	r2, r3, r9, fp
.LBE410:
.LBE409:
	.loc 1 1563 0
	ldr	r6, [r5, #32]
	ldr	r0, [r5, #84]
.LVL184:
	ldr	r1, [r1]
	add	r0, r6, r0
	rsb	r0, r1, r0
.LBB415:
.LBB411:
	.loc 2 72 0
	mov	r7, r2, lsr #16
.LBE411:
.LBE415:
.LBB416:
.LBB417:
.LBB418:
.LBB419:
	.loc 2 59 0
	mov	r2, r0, asr #31
.LBE419:
.LBE418:
.LBE417:
.LBE416:
.LBB428:
.LBB412:
	.loc 2 72 0
	orr	r7, r7, r3, asl #16
.LVL185:
.LBE412:
.LBE428:
.LBB429:
.LBB424:
.LBB421:
.LBB420:
	.loc 2 60 0
	eor	r3, r2, r0
	rsb	r3, r2, r3
.LBE420:
.LBE421:
.LBE424:
.LBE429:
.LBB430:
.LBB413:
	.loc 2 72 0
	mov	r2, r9
.LVL186:
.LBE413:
.LBE430:
	.loc 1 1563 0
	str	r1, [sp, #16]
.LBB431:
.LBB425:
.LBB422:
.LBB423:
	.loc 2 59 0
	mov	r1, r7, asr #31
.LVL187:
	.loc 2 60 0
	eor	r10, r1, r7
	rsb	r10, r1, r10
.LBE423:
.LBE422:
	.loc 2 84 0
	cmp	r10, r3, asr #14
.LBE425:
.LBE431:
.LBB432:
.LBB414:
	.loc 2 72 0
	mov	r3, r9, asr #31
	strd	r2, [sp, #8]
.LBE414:
.LBE432:
.LBB433:
.LBB426:
	.loc 2 84 0
	ble	.L225
	.loc 2 85 0
	mov	r3, r0, asr #31
.LVL188:
	mov	r1, r3, asl #16
.LVL189:
	orr	r1, r1, r0, lsr #16
	mov	r2, r7
	mov	r0, r0, asl #16
.LVL190:
	mov	r3, r7, asr #31
.LVL191:
	str	ip, [sp, #20]
	bl	__aeabi_ldivmod
.LVL192:
	ldr	ip, [sp, #20]
.L203:
.LBE426:
.LBE433:
	.loc 1 1565 0
	ldr	r8, [ip, #56]
	cmp	r8, r0
	bgt	.L196
	.loc 1 1568 0
	ldr	r3, [sp, #16]
	rsb	r0, r3, r6
.LVL193:
.LBB434:
.LBB435:
.LBB436:
.LBB437:
	.loc 2 59 0
	mov	r2, r0, asr #31
.LVL194:
	.loc 2 60 0
	eor	r3, r2, r0
	rsb	r3, r2, r3
.LBE437:
.LBE436:
	.loc 2 84 0
	cmp	r10, r3, asr #14
	bgt	.L204
	eor	r0, r0, r7
.LVL195:
	mov	r0, r0, asr #31
	eor	r0, r0, #-2147483648
	mvn	r0, r0
.LVL196:
.L205:
.LBE435:
.LBE434:
	.loc 1 1570 0
	cmp	r8, r0
	blt	.L196
.LVL197:
.LBB439:
.LBB440:
.LBB441:
.LBB442:
	.loc 2 59 0
	mov	r2, r9, asr #31
.LVL198:
	.loc 2 60 0
	eor	r3, r2, r9
	rsb	r3, r2, r3
.LBE442:
.LBE441:
	.loc 2 84 0
	cmp	r3, #40
	bgt	.L206
	eor	r0, r2, #-2147483648
	mvn	r0, r0
.LVL199:
.L207:
.LBE440:
.LBE439:
	.loc 1 1584 0
	ldrd	r6, [sp]
.LVL200:
	mov	r7, #0
.LVL201:
	.loc 1 1576 0
	rsb	r10, r0, fp
.LVL202:
.LBB444:
.LBB445:
	.loc 2 72 0
	smull	r0, r1, r9, r10
.LBE445:
.LBE444:
	.loc 1 1578 0
	ldr	lr, .L228+16
.LBB448:
.LBB446:
	.loc 2 72 0
	mov	r3, r0, lsr #16
.LBE446:
.LBE448:
	.loc 1 1578 0
	ldr	r2, [lr, #8]
.LVL203:
.LBB449:
.LBB447:
	.loc 2 72 0
	orr	r3, r3, r1, asl #16
.LBE447:
.LBE449:
	.loc 1 1579 0
	ldr	r0, [lr, #12]
.LBB450:
.LBB451:
	.loc 2 72 0
	smull	r8, r9, r8, r3
.LBE451:
.LBE450:
.LBB454:
.LBB455:
	smull	r2, r3, r2, r10
.LVL204:
.LBE455:
.LBE454:
.LBB458:
.LBB459:
	smull	r10, fp, r10, r0
.LVL205:
.LBE459:
.LBE458:
	.loc 1 1584 0
	and	r6, r6, #524288
	orrs	r1, r6, r7
.LBB462:
.LBB456:
	.loc 2 72 0
	mov	r6, r2, lsr #16
.LBE456:
.LBE462:
	.loc 1 1579 0
	ldmia	lr, {r0, r1}
.LBB463:
.LBB457:
	.loc 2 72 0
	orr	r6, r6, r3, asl #16
.LBE457:
.LBE463:
.LBB464:
.LBB452:
	mov	r8, r8, lsr #16
.LBE452:
.LBE464:
.LBB465:
.LBB460:
	mov	lr, r10, lsr #16
.LVL206:
.LBE460:
.LBE465:
	.loc 1 1580 0
	ldr	r3, [sp, #16]
.LBB466:
.LBB453:
	.loc 2 72 0
	orr	r8, r8, r9, asl #16
.LBE453:
.LBE466:
.LBB467:
.LBB461:
	orr	lr, lr, fp, asl #16
.LBE461:
.LBE467:
	.loc 1 1580 0
	add	r2, r3, r8
	.loc 1 1578 0
	add	r0, r0, r6
.LVL207:
	.loc 1 1579 0
	add	r1, r1, lr
.LVL208:
	str	ip, [sp]
	.loc 1 1584 0
	beq	.L208
	.loc 1 1585 0
	bl	P_SpawnPuff
.LVL209:
	ldr	r6, .L228+24
	ldr	ip, [sp]
.L209:
	.loc 1 1589 0
	ldr	r3, [r6]
	cmp	r3, #0
	beq	.L223
	.loc 1 1590 0
	ldr	r1, [ip, #40]
	mov	r0, r5
	mov	r2, r1
	bl	P_DamageMobj
.LVL210:
	b	.L193
.LVL211:
.L187:
.LBB468:
	.loc 1 1504 0
	mov	r0, r5
	bl	P_LineOpening
.LVL212:
	.loc 1 1505 0
	ldr	r3, .L228
	ldr	fp, [r6]
.LVL213:
	ldr	r4, [r3]
	.loc 1 1509 0
	ldr	r1, [r5, #56]
.LBB361:
.LBB362:
	.loc 2 72 0
	smull	r2, r3, r4, fp
.LBE362:
.LBE361:
	.loc 1 1509 0
	ldr	r8, [r5, #52]
	str	r1, [sp]
	ldr	r0, [r8, #12]
	ldr	r1, [r1, #12]
.LBB365:
.LBB363:
	.loc 2 72 0
	mov	ip, r2, lsr #16
.LBE363:
.LBE365:
	.loc 1 1509 0
	cmp	r0, r1
.LBB366:
.LBB364:
	.loc 2 72 0
	orr	ip, ip, r3, asl #16
	mov	r6, r4
.LVL214:
	mov	r7, r4, asr #31
.LBE364:
.LBE366:
	.loc 1 1509 0
	beq	.L189
	.loc 1 1510 0 discriminator 1
	ldr	r2, .L228+8
	ldr	r3, .L228+28
.LVL215:
	ldr	r9, [r2]
	ldr	r0, [r3]
.LBB367:
.LBB368:
.LBB369:
.LBB370:
	.loc 2 59 0 discriminator 1
	mov	r3, ip, asr #31
.LBE370:
.LBE369:
.LBE368:
.LBE367:
	.loc 1 1510 0 discriminator 1
	rsb	r0, r9, r0
.LVL216:
.LBB381:
.LBB379:
.LBB373:
.LBB374:
	.loc 2 59 0 discriminator 1
	mov	lr, r0, asr #31
.LVL217:
	.loc 2 60 0 discriminator 1
	eor	r2, lr, r0
.LBE374:
.LBE373:
.LBB376:
.LBB371:
	eor	r1, r3, ip
.LBE371:
.LBE376:
.LBB377:
.LBB375:
	rsb	r2, lr, r2
.LBE375:
.LBE377:
.LBB378:
.LBB372:
	rsb	r3, r3, r1
.LBE372:
.LBE378:
	.loc 2 84 0 discriminator 1
	cmp	r3, r2, asr #14
	bgt	.L190
	.loc 2 84 0 is_stmt 0
	eor	r0, r0, ip
.LVL218:
	mov	r0, r0, asr #31
	eor	r0, r0, #-2147483648
	mvn	r0, r0
.LVL219:
.L191:
.LBE379:
.LBE381:
	.loc 1 1510 0 is_stmt 1
	ldr	r3, .L228+4
	ldr	r10, [r3, #56]
	.loc 1 1509 0
	cmp	r10, r0
	blt	.L188
.LVL220:
.L189:
	.loc 1 1510 0
	ldr	r3, [sp]
	ldr	r2, [r8, #16]
	ldr	r3, [r3, #16]
	cmp	r2, r3
	beq	.L196
	.loc 1 1512 0
	ldr	r2, .L228+8
	ldr	r3, .L228+32
	ldr	r9, [r2]
	ldr	r0, [r3]
.LBB382:
.LBB383:
.LBB384:
.LBB385:
	.loc 2 59 0
	mov	r3, ip, asr #31
.LBE385:
.LBE384:
.LBE383:
.LBE382:
	.loc 1 1512 0
	rsb	r0, r9, r0
.LVL221:
.LBB396:
.LBB394:
.LBB388:
.LBB389:
	.loc 2 59 0
	mov	lr, r0, asr #31
.LVL222:
	.loc 2 60 0
	eor	r1, lr, r0
.LBE389:
.LBE388:
.LBB391:
.LBB386:
	eor	r2, r3, ip
.LBE386:
.LBE391:
.LBB392:
.LBB390:
	rsb	r1, lr, r1
.LBE390:
.LBE392:
.LBB393:
.LBB387:
	rsb	r3, r3, r2
.LBE387:
.LBE393:
	.loc 2 84 0
	cmp	r3, r1, asr #14
	ble	.L226
	.loc 2 85 0
	mov	r3, r0, asr #31
	mov	r1, r3, asl #16
	orr	r1, r1, r0, lsr #16
	mov	r2, ip
	mov	r0, r0, asl #16
.LVL223:
	mov	r3, ip, asr #31
	bl	__aeabi_ldivmod
.LVL224:
.L195:
.LBE394:
.LBE396:
	.loc 1 1512 0
	ldr	r3, .L228+4
	ldr	r10, [r3, #56]
	.loc 1 1511 0
	cmp	r10, r0
	bgt	.L188
.LVL225:
.L196:
	.loc 1 1513 0
	mov	r4, #1
.LBE468:
	.loc 1 1594 0
	mov	r0, r4
	add	sp, sp, #28
	.cfi_remember_state
	.cfi_def_cfa_offset 36
	@ sp needed
	ldmfd	sp!, {r4, r5, r6, r7, r8, r9, r10, fp, pc}
.LVL226:
.L199:
	.cfi_restore_state
.LBB469:
.LBB397:
.LBB351:
	.loc 2 72 0
	smull	r6, r7, r6, fp
.LBE351:
.LBE397:
.LBB398:
.LBB399:
	smull	r4, r5, fp, r4
.LVL227:
.LBE399:
.LBE398:
.LBB402:
.LBB352:
	mov	r0, r6, lsr #16
.LBE352:
.LBE402:
.LBB403:
.LBB400:
	mov	r3, r4, lsr #16
.LBE400:
.LBE403:
.LBB404:
.LBB353:
	orr	r0, r0, r7, asl #16
.LBE353:
.LBE404:
.LBB405:
.LBB401:
	orr	r3, r3, r5, asl #16
.LBE401:
.LBE405:
	.loc 1 1544 0
	add	r0, ip, r0
	add	r1, r1, r3
.LVL228:
	bl	P_SpawnPuff
.LVL229:
	b	.L223
.LVL230:
.L197:
.LBB406:
.LBB345:
	.loc 2 85 0
	mov	r2, r6
.LVL231:
	mov	r3, r7
	mov	r0, #0
	mov	r1, #4
	bl	__aeabi_ldivmod
.LVL232:
	b	.L198
.LVL233:
.L224:
.LBE345:
.LBE406:
	.loc 1 1500 0
	ldr	r3, .L228+4
	mov	r1, r5
	ldr	r0, [r3, #40]
.LVL234:
	bl	P_ShootSpecialLine
.LVL235:
	.loc 1 1502 0
	ldrh	r3, [r5, #20]
	tst	r3, #4
	beq	.L227
	b	.L187
.LVL236:
.L225:
.LBE469:
.LBB470:
.LBB427:
	.loc 2 84 0
	eor	r0, r0, r7
.LVL237:
	mov	r0, r0, asr #31
	eor	r0, r0, #-2147483648
	mvn	r0, r0
	b	.L203
.LVL238:
.L204:
.LBE427:
.LBE470:
.LBB471:
.LBB438:
	.loc 2 85 0
	mov	r3, r0, asr #31
	mov	r1, r3, asl #16
	orr	r1, r1, r0, lsr #16
	mov	r2, r7
.LVL239:
	mov	r0, r0, asl #16
.LVL240:
	mov	r3, r7, asr #31
	str	ip, [sp, #20]
	bl	__aeabi_ldivmod
.LVL241:
	ldr	ip, [sp, #20]
	b	.L205
.LVL242:
.L190:
.LBE438:
.LBE471:
.LBB472:
.LBB407:
.LBB380:
	mov	r3, r0, asr #31
	mov	r1, r3, asl #16
	orr	r1, r1, r0, lsr #16
	mov	r2, ip
	mov	r3, ip, asr #31
	mov	r0, r0, asl #16
.LVL243:
	str	ip, [sp, #16]
	bl	__aeabi_ldivmod
.LVL244:
	ldr	ip, [sp, #16]
	b	.L191
.LVL245:
.L206:
.LBE380:
.LBE407:
.LBE472:
.LBB473:
.LBB443:
	ldrd	r2, [sp, #8]
.LVL246:
	mov	r0, #0
	mov	r1, #10
	str	ip, [sp, #20]
	bl	__aeabi_ldivmod
.LVL247:
	ldr	ip, [sp, #20]
	b	.L207
.LVL248:
.L208:
.LBE443:
.LBE473:
	.loc 1 1587 0
	ldr	r6, .L228+24
	ldr	r3, [r6]
	bl	P_SpawnBlood
.LVL249:
	ldr	ip, [sp]
	b	.L209
.LVL250:
.L226:
.LBB474:
.LBB408:
.LBB395:
	.loc 2 84 0
	eor	r0, r0, ip
.LVL251:
	mov	r0, r0, asr #31
	eor	r0, r0, #-2147483648
	mvn	r0, r0
	b	.L195
.L229:
	.align	2
.L228:
	.word	attackrange
	.word	.LANCHOR0
	.word	shootz
	.word	skyflatnum
	.word	trace
	.word	compatibility_level
	.word	la_damage
	.word	openbottom
	.word	opentop
.LBE395:
.LBE408:
.LBE474:
	.cfi_endproc
.LFE22:
	.size	PTR_ShootTraverse, .-PTR_ShootTraverse
	.align	2
	.type	PIT_CheckLine, %function
PIT_CheckLine:
.LFB10:
	.loc 1 392 0
	.cfi_startproc
	@ args = 0, pretend = 0, frame = 0
	@ frame_needed = 0, uses_anonymous_args = 0
.LVL252:
	stmfd	sp!, {r4, r5, r6, r7, r8, r9, r10, lr}
	.cfi_def_cfa_offset 32
	.cfi_offset 4, -32
	.cfi_offset 5, -28
	.cfi_offset 6, -24
	.cfi_offset 7, -20
	.cfi_offset 8, -16
	.cfi_offset 9, -12
	.cfi_offset 10, -8
	.cfi_offset 14, -4
	.loc 1 393 0
	ldr	r5, .L271
	ldr	r3, [r0, #40]
	ldr	r2, [r5, #12]
	cmp	r2, r3
	ble	.L257
	.loc 1 394 0
	ldr	r2, [r5, #8]
	ldr	r3, [r0, #44]
	cmp	r2, r3
	bge	.L257
	.loc 1 395 0
	ldr	r2, [r5]
	ldr	r3, [r0, #36]
	cmp	r2, r3
	ble	.L257
	.loc 1 396 0
	ldr	r2, [r5, #4]
	ldr	r3, [r0, #32]
	cmp	r2, r3
	bge	.L257
	mov	r4, r0
	.loc 1 399 0
	mov	r0, r5
.LVL253:
	mov	r1, r4
	bl	P_BoxOnLineSide
.LVL254:
	cmn	r0, #1
	bne	.L257
.LVL255:
.LBB483:
.LBB484:
	.loc 1 413 0
	ldr	r3, [r4, #56]
	cmp	r3, #0
	beq	.L269
	.loc 1 421 0
	ldr	r6, .L271+4
	ldr	r1, [r6]
	ldrd	r2, [r1, #120]
	and	r8, r2, #65536
	and	r9, r3, #2
	orrs	r0, r8, r9
	bne	.L237
	.loc 1 423 0
	ldrh	r0, [r4, #20]
	tst	r0, #1
	beq	.L238
	.loc 1 424 0
	ldr	r3, [r6, #72]
	cmp	r3, #0
	beq	.L254
	mov	r0, r4
	bl	untouched
.LVL256:
	cmp	r0, #0
	beq	.L257
.L254:
	.loc 1 429 0
	mov	r0, #0
	ldmfd	sp!, {r4, r5, r6, r7, r8, r9, r10, pc}
.L269:
	.loc 1 416 0
	ldr	r5, .L271+4
	.loc 1 415 0
	ldr	r2, .L271+8
	.loc 1 416 0
	ldr	r3, [r5, #72]
	.loc 1 415 0
	str	r4, [r2]
	.loc 1 416 0
	cmp	r3, #0
	beq	.L254
	mov	r0, r4
	bl	untouched
.LVL257:
	cmp	r0, #0
	bne	.L254
	.loc 1 417 0
	ldr	r3, [r5]
	ldr	r1, [r5, #4]
	ldr	lr, [r3, #24]
	ldr	ip, [r3, #28]
	ldr	r3, [r5, #8]
	ldr	r0, [r4, #16]
	ldr	r2, [r4, #12]
	rsb	r1, lr, r1
.LVL258:
	rsb	r3, ip, r3
.LVL259:
.LBB485:
.LBB486:
	.loc 2 72 0
	smull	r0, r1, r1, r0
.LVL260:
.LBE486:
.LBE485:
.LBB489:
.LBB490:
	smull	r2, r3, r3, r2
.LVL261:
.LBE490:
.LBE489:
.LBB493:
.LBB487:
	mov	r0, r0, lsr #16
.LBE487:
.LBE493:
.LBB494:
.LBB491:
	mov	r2, r2, lsr #16
.LBE491:
.LBE494:
.LBB495:
.LBB488:
	orr	r0, r0, r1, asl #16
.LBE488:
.LBE495:
.LBB496:
.LBB492:
	orr	r2, r2, r3, asl #16
.LBE492:
.LBE496:
	.loc 1 416 0
	cmp	r0, r2
	ble	.L254
.LVL262:
.L257:
	.loc 1 471 0
	mov	r0, #1
.LBE484:
.LBE483:
	.loc 1 472 0
	ldmfd	sp!, {r4, r5, r6, r7, r8, r9, r10, pc}
.LVL263:
.L238:
.LBB510:
.LBB509:
	.loc 1 427 0
	mov	r2, #0
	and	r3, r3, #4
	orrs	r3, r2, r3
	bne	.L237
	ldr	r3, [r1, #156]
	cmp	r3, #0
	bne	.L237
	.loc 1 428 0
	tst	r0, #2
	bne	.L254
.L237:
	.loc 1 435 0
	mov	r0, r4
	bl	P_LineOpening
.LVL264:
	.loc 1 439 0
	ldr	r7, .L271+12
	ldr	r3, .L271+16
	ldr	r2, [r7]
	ldr	r3, [r3]
	.loc 1 446 0
	ldr	r8, .L271+20
	.loc 1 439 0
	cmp	r3, r2
	.loc 1 443 0
	ldrlt	r2, .L271+8
	.loc 1 441 0
	strlt	r3, [r7]
	.loc 1 446 0
	ldr	r3, .L271+24
	.loc 1 442 0
	ldrlt	r1, .L271+28
	.loc 1 443 0
	strlt	r4, [r2]
	.loc 1 446 0
	ldr	r3, [r3]
	ldr	r2, [r8]
	.loc 1 442 0
	strlt	r4, [r1]
	.loc 1 446 0
	cmp	r3, r2
	.loc 1 450 0
	ldrgt	r2, .L271+8
	.loc 1 449 0
	ldrgt	r1, .L271+32
	.loc 1 450 0
	strgt	r4, [r2]
	.loc 1 448 0
	strgt	r3, [r8]
	.loc 1 453 0
	ldr	r2, .L271+36
	ldr	r3, .L271+40
	.loc 1 449 0
	strgt	r4, [r1]
	.loc 1 453 0
	ldr	r2, [r2]
	ldr	r1, [r3]
	cmp	r2, r1
	.loc 1 454 0
	strlt	r2, [r3]
	.loc 1 458 0
	ldrsh	r3, [r4, #22]
	cmp	r3, #0
	beq	.L257
	.loc 1 461 0
	ldr	r9, .L271+44
	ldr	r3, [r6, #76]
	ldr	r1, [r9]
	cmp	r1, r3
	bge	.L242
	ldr	r3, .L271+48
	ldr	r3, [r3]
.L243:
	.loc 1 465 0
	add	r2, r1, #1
	.loc 1 467 0
	cmp	r2, #7
	.loc 1 465 0
	str	r2, [r9]
	str	r4, [r3, r1, asl #2]
	.loc 1 467 0
	ble	.L257
	ldr	r3, .L271+52
	ldrb	r3, [r3]	@ zero_extendqisi2
	cmp	r3, #6
	bhi	.L257
.LVL265:
.LBB497:
.LBB498:
	.loc 1 2283 0
	ldr	ip, .L271+56
	.loc 1 2285 0
	sub	r0, r3, #5
	.loc 1 2283 0
	ldr	r3, [ip]
	ldr	ip, .L271+60
	rsb	r3, r3, r4
	mov	r3, r3, asr #1
	.loc 1 2285 0
	cmp	r0, #1
	.loc 1 2283 0
	add	ip, r3, ip
.LVL266:
	.loc 1 2285 0
	bls	.L270
	.loc 1 2313 0
	sub	r3, r1, #7
	cmp	r3, #6
	ldrls	pc, [pc, r3, asl #2]
	b	.L249
.L250:
	.word	.L257
	.word	.L251
	.word	.L251
	.word	.L251
	.word	.L251
	.word	.L252
	.word	.L253
.L253:
	.loc 1 2326 0
	str	ip, [r6, #84]
.LBE498:
.LBE497:
	.loc 1 471 0
	mov	r0, #1
	ldmfd	sp!, {r4, r5, r6, r7, r8, r9, r10, pc}
.L252:
.LBB504:
.LBB499:
	.loc 1 2323 0
	str	ip, [r6, #80]
.LBE499:
.LBE504:
	.loc 1 471 0
	mov	r0, #1
	ldmfd	sp!, {r4, r5, r6, r7, r8, r9, r10, pc}
.L251:
.LBB505:
.LBB500:
	.loc 1 2320 0
	sub	r1, r1, #8
	str	ip, [r5, r1, asl #2]
.LBE500:
.LBE505:
	.loc 1 471 0
	mov	r0, #1
	ldmfd	sp!, {r4, r5, r6, r7, r8, r9, r10, pc}
.LVL267:
.L242:
	.loc 1 462 0
	cmp	r3, #0
	moveq	ip, #8
	.loc 1 463 0
	ldr	r10, .L271+48
	.loc 1 462 0
	movne	ip, r3, asl #1
	movne	r1, r3, asl #3
	moveq	r1, #32
	.loc 1 463 0
	mov	r3, #0
	ldr	r0, [r10]
	mov	r2, #1
	.loc 1 462 0
	str	ip, [r6, #76]
	.loc 1 463 0
	bl	Z_Realloc
.LVL268:
	ldr	r1, [r9]
	mov	r3, r0
	str	r0, [r10]
	b	.L243
.LVL269:
.L270:
.LBB506:
.LBB501:
	.loc 1 2294 0
	cmp	r2, #9
	beq	.L247
	cmp	r2, #10
	beq	.L248
	cmp	r2, #8
	beq	.L257
.L249:
	.loc 1 2329 0
	ldr	r1, .L271+64
	mov	r0, #8
	bl	lprintf
.LVL270:
.LBE501:
.LBE506:
	.loc 1 471 0
	mov	r0, #1
	ldmfd	sp!, {r4, r5, r6, r7, r8, r9, r10, pc}
.LVL271:
.L248:
.LBB507:
.LBB502:
	.loc 1 2301 0
	str	ip, [r7]
.LBE502:
.LBE507:
	.loc 1 471 0
	mov	r0, #1
	ldmfd	sp!, {r4, r5, r6, r7, r8, r9, r10, pc}
.L247:
.LBB508:
.LBB503:
	.loc 1 2298 0
	str	ip, [r8]
.LBE503:
.LBE508:
	.loc 1 471 0
	mov	r0, #1
	ldmfd	sp!, {r4, r5, r6, r7, r8, r9, r10, pc}
.L272:
	.align	2
.L271:
	.word	tmbbox
	.word	.LANCHOR0
	.word	blockline
	.word	tmceilingz
	.word	opentop
	.word	tmfloorz
	.word	openbottom
	.word	ceilingline
	.word	floorline
	.word	lowfloor
	.word	tmdropoffz
	.word	numspechit
	.word	spechit
	.word	compatibility_level
	.word	lines
	.word	12623000
	.word	.LC1
.LBE509:
.LBE510:
	.cfi_endproc
.LFE10:
	.size	PIT_CheckLine, .-PIT_CheckLine
	.align	2
	.global	PTR_UseTraverse
	.type	PTR_UseTraverse, %function
PTR_UseTraverse:
.LFB25:
	.loc 1 1668 0
	.cfi_startproc
	@ args = 0, pretend = 0, frame = 0
	@ frame_needed = 0, uses_anonymous_args = 0
.LVL272:
	stmfd	sp!, {r4, r5, r6, lr}
	.cfi_def_cfa_offset 16
	.cfi_offset 4, -16
	.cfi_offset 5, -12
	.cfi_offset 6, -8
	.cfi_offset 14, -4
	.loc 1 1671 0
	ldr	r5, [r0, #8]
	.loc 1 1668 0
	mov	r6, r0
	.loc 1 1671 0
	ldrsh	r4, [r5, #22]
	cmp	r4, #0
	beq	.L280
.LVL273:
	.loc 1 1688 0
	ldr	r3, .L282
	mov	r2, r5
	ldr	r4, [r3]
	ldr	r1, [r4, #28]
	ldr	r0, [r4, #24]
.LVL274:
	bl	P_PointOnLineSide
.LVL275:
	sub	r2, r0, #1
	clz	r2, r2
	.loc 1 1693 0
	mov	r1, r5
	.loc 1 1688 0
	mov	r2, r2, lsr #5
	.loc 1 1693 0
	mov	r0, r4
.LVL276:
	bl	P_UseSpecialLine
.LVL277:
	.loc 1 1698 0
	ldr	r3, .L282+4
	.loc 1 1699 0
	ldrb	r3, [r3]	@ zero_extendqisi2
	cmp	r3, #6
	bls	.L278
	.loc 1 1698 0 discriminator 1
	ldr	r3, [r6, #8]
	ldrh	r0, [r3, #20]
	and	r0, r0, #512
	.loc 1 1699 0 discriminator 1
	uxth	r0, r0
	cmp	r0, #0
	beq	.L281
.L277:
	.loc 1 1684 0
	mov	r0, #1
	ldmfd	sp!, {r4, r5, r6, pc}
.L278:
	.loc 1 1699 0
	mov	r0, #0
	.loc 1 1700 0
	ldmfd	sp!, {r4, r5, r6, pc}
.LVL278:
.L280:
	.loc 1 1673 0
	mov	r0, r5
.LVL279:
	bl	P_LineOpening
.LVL280:
	.loc 1 1674 0
	ldr	r3, .L282+8
	ldr	r3, [r3]
	cmp	r3, #0
	bgt	.L277
.LVL281:
.LBB513:
.LBB514:
	.loc 1 1676 0
	ldr	r3, .L282
	mov	r1, #81
	ldr	r0, [r3]
	bl	S_StartSound
.LVL282:
	mov	r0, r4
	ldmfd	sp!, {r4, r5, r6, pc}
.LVL283:
.L281:
.LBE514:
.LBE513:
	ldmfd	sp!, {r4, r5, r6, pc}
.L283:
	.align	2
.L282:
	.word	usething
	.word	compatibility_level
	.word	openrange
	.cfi_endproc
.LFE25:
	.size	PTR_UseTraverse, .-PTR_UseTraverse
	.align	2
	.global	PIT_RadiusAttack
	.type	PIT_RadiusAttack, %function
PIT_RadiusAttack:
.LFB28:
	.loc 1 1774 0
	.cfi_startproc
	@ args = 0, pretend = 0, frame = 0
	@ frame_needed = 0, uses_anonymous_args = 0
.LVL284:
	.loc 1 1783 0
	ldrd	r2, [r0, #120]
	and	r2, r2, #4
	and	r3, r3, #2
	orrs	r3, r2, r3
	.loc 1 1774 0
	stmfd	sp!, {r4, r5, r6, lr}
	.cfi_def_cfa_offset 16
	.cfi_offset 4, -16
	.cfi_offset 5, -12
	.cfi_offset 6, -8
	.cfi_offset 14, -4
	.loc 1 1783 0
	beq	.L286
.LVL285:
.LBB521:
.LBB522:
	.loc 1 1792 0
	ldr	ip, .L299
	ldr	r1, [ip, #88]
	ldrd	r2, [r1, #120]
	mov	r2, #0
	and	r3, r3, #2
	orrs	r3, r2, r3
	.loc 1 1793 0
	ldrb	r3, [r0, #104]	@ zero_extendqisi2
	.loc 1 1792 0
	bne	.L297
	.loc 1 1794 0
	sub	r3, r3, #19
	tst	r3, #253
	moveq	r3, #1
	movne	r3, #0
.L289:
	.loc 1 1792 0
	cmp	r3, #0
	bne	.L286
.L294:
	.loc 1 1797 0
	ldr	r4, [r1, #24]
	.loc 1 1798 0
	ldr	lr, [r1, #28]
	.loc 1 1797 0
	ldr	r3, [r0, #24]
	.loc 1 1798 0
	ldr	r2, [r0, #28]
	.loc 1 1797 0
	rsb	r3, r4, r3
.LVL286:
	.loc 1 1798 0
	rsb	r2, lr, r2
.LBB523:
.LBB524:
	.loc 2 59 0
	mov	r4, r3, asr #31
.LVL287:
.LBE524:
.LBE523:
.LBB527:
.LBB528:
	mov	lr, r2, asr #31
.LVL288:
.LBE528:
.LBE527:
.LBB531:
.LBB525:
	.loc 2 60 0
	eor	r3, r3, r4
.LVL289:
.LBE525:
.LBE531:
.LBB532:
.LBB529:
	eor	r2, r2, lr
.LVL290:
.LBE529:
.LBE532:
	.loc 1 1801 0
	ldr	r5, [r0, #80]
.LBB533:
.LBB526:
	.loc 2 60 0
	rsb	r3, r4, r3
.LBE526:
.LBE533:
.LBB534:
.LBB530:
	rsb	r2, lr, r2
.LBE530:
.LBE534:
	.loc 1 1801 0
	cmp	r2, r3
	rsbge	r5, r5, r2
	rsblt	r5, r5, r3
	.loc 1 1806 0
	ldr	r3, [ip, #96]
	.loc 1 1801 0
	mov	r5, r5, asr #16
.LVL291:
	bic	r5, r5, r5, asr #31
.LVL292:
	.loc 1 1806 0
	cmp	r3, r5
	ldr	r6, .L299
	bgt	.L298
.LVL293:
.L286:
.LBE522:
.LBE521:
	.loc 1 1816 0
	mov	r0, #1
	ldmfd	sp!, {r4, r5, r6, pc}
.LVL294:
.L297:
.LBB536:
.LBB535:
	.loc 1 1793 0
	cmp	r3, #21
	bne	.L294
	ldr	r3, [ip, #92]
	ldrb	r3, [r3, #104]	@ zero_extendqisi2
	sub	r3, r3, #21
	clz	r3, r3
	mov	r3, r3, lsr #5
	b	.L289
.LVL295:
.L298:
	mov	r4, r0
.LVL296:
	.loc 1 1809 0
	bl	P_CheckSight
.LVL297:
	cmp	r0, #0
	beq	.L286
	.loc 1 1812 0
	ldr	r3, [r6, #96]
	mov	r0, r4
	rsb	r3, r5, r3
	ldr	r1, [r6, #88]
	ldr	r2, [r6, #92]
	bl	P_DamageMobj
.LVL298:
	b	.L286
.L300:
	.align	2
.L299:
	.word	.LANCHOR0
.LBE535:
.LBE536:
	.cfi_endproc
.LFE28:
	.size	PIT_RadiusAttack, .-PIT_RadiusAttack
	.align	2
	.global	P_GetFriction
	.type	P_GetFriction, %function
P_GetFriction:
.LFB5:
	.loc 1 141 0
	.cfi_startproc
	@ args = 0, pretend = 0, frame = 0
	@ frame_needed = 0, uses_anonymous_args = 0
.LVL299:
	.loc 1 156 0
	ldrd	r2, [r0, #120]
	mov	r3, #0
	and	r2, r2, #4608
	orrs	r3, r2, r3
	.loc 1 141 0
	stmfd	sp!, {r4, r5, r6, r7, r8, r9, lr}
	.cfi_def_cfa_offset 28
	.cfi_offset 4, -28
	.cfi_offset 5, -24
	.cfi_offset 6, -20
	.cfi_offset 7, -16
	.cfi_offset 8, -12
	.cfi_offset 9, -8
	.cfi_offset 14, -4
	.loc 1 156 0
	beq	.L329
.L310:
	.loc 1 143 0
	mov	lr, #2048
	.loc 1 142 0
	mov	r2, #59392
.LVL300:
.L302:
	.loc 1 168 0
	cmp	r1, #0
	.loc 1 169 0
	strne	lr, [r1]
	.loc 1 172 0
	mov	r0, r2
.LVL301:
	ldmfd	sp!, {r4, r5, r6, r7, r8, r9, pc}
.LVL302:
.L329:
	.loc 1 157 0
	ldr	r3, .L331
	ldrb	r5, [r3]	@ zero_extendqisi2
	cmp	r5, #10
	bls	.L330
.L303:
	.loc 1 157 0 is_stmt 0 discriminator 4
	ldr	r3, .L331+4
	ldr	r3, [r3]
	cmp	r3, #0
	beq	.L310
	.loc 1 159 0 is_stmt 1
	ldr	r3, [r0, #188]
.LVL303:
	.loc 1 164 0
	mov	lr, #2048
	.loc 1 159 0
	cmp	r3, #0
	.loc 1 164 0
	mov	r2, #59392
	.loc 1 159 0
	beq	.L302
	.loc 1 164 0
	ldr	ip, .L331+8
	mov	r8, #196
	ldr	r7, [ip]
	b	.L306
.LVL304:
.L304:
	.loc 1 159 0 discriminator 2
	ldr	r3, [r3, #12]
.LVL305:
	cmp	r3, #0
	beq	.L302
.LVL306:
.L306:
	.loc 1 160 0
	ldr	ip, [r3]
.LVL307:
	ldrh	r4, [ip, #190]
	tst	r4, #256
	beq	.L304
	.loc 1 161 0 discriminator 1
	sub	r4, r2, #59392
	clz	r4, r4
	ldr	r6, [ip, #96]
	mov	r4, r4, lsr #5
	cmp	r2, r6
	orrgt	r4, r4, #1
	cmp	r4, #0
	beq	.L304
.LVL308:
	.loc 1 162 0 discriminator 1
	ldr	r4, [r0, #32]
	.loc 1 161 0 discriminator 1
	ldr	r9, [ip, #12]
	cmp	r4, r9
	ble	.L305
	.loc 1 163 0
	ldr	r9, [ip, #128]
	.loc 1 162 0
	cmn	r9, #1
	beq	.L304
	.loc 1 164 0
	mla	r9, r8, r9, r7
	.loc 1 163 0
	ldr	r9, [r9, #12]
	.loc 1 164 0
	cmp	r4, r9
	movgt	r4, #0
	movle	r4, #1
	cmp	r5, #10
	movls	r4, #0
	cmp	r4, #0
	beq	.L304
.L305:
	.loc 1 161 0
	mov	r2, r6
	.loc 1 166 0
	ldr	lr, [ip, #100]
.LVL309:
	b	.L304
.LVL310:
.L330:
	.loc 1 157 0 discriminator 2
	ldr	r3, [r0, #156]
	cmp	r3, #0
	cmpne	r5, #7
	bls	.L310
	b	.L303
.L332:
	.align	2
.L331:
	.word	compatibility_level
	.word	variable_friction
	.word	sectors
	.cfi_endproc
.LFE5:
	.size	P_GetFriction, .-P_GetFriction
	.align	2
	.global	P_GetMoveFactor
	.type	P_GetMoveFactor, %function
P_GetMoveFactor:
.LFB6:
	.loc 1 182 0
	.cfi_startproc
	@ args = 0, pretend = 0, frame = 8
	@ frame_needed = 0, uses_anonymous_args = 0
.LVL311:
	stmfd	sp!, {r4, r5, r6, lr}
	.cfi_def_cfa_offset 16
	.cfi_offset 4, -16
	.cfi_offset 5, -12
	.cfi_offset 6, -8
	.cfi_offset 14, -4
	.loc 1 186 0
	ldr	r3, .L356
	.loc 1 182 0
	sub	sp, sp, #8
	.cfi_def_cfa_offset 24
	.loc 1 186 0
	ldrb	r3, [r3]	@ zero_extendqisi2
	.loc 1 182 0
	mov	r4, r0
	.loc 1 186 0
	cmp	r3, #10
	bhi	.L334
.LBB537:
	.loc 1 192 0
	cmp	r3, #7
	.loc 1 190 0
	mov	r3, #2048
	.loc 1 192 0
	bls	.L350
	.loc 1 192 0 is_stmt 0 discriminator 1
	ldr	r2, .L356+4
	ldr	r2, [r2]
	cmp	r2, #0
	beq	.L350
	.loc 1 193 0 is_stmt 1 discriminator 2
	ldrd	r0, [r0, #120]
.LVL312:
	mov	r1, #0
.LVL313:
	and	r0, r0, #4608
	.loc 1 192 0 discriminator 2
	orrs	r2, r0, r1
	bne	.L350
	.loc 1 195 0
	ldr	r2, [r4, #180]
.LVL314:
	.loc 1 196 0
	cmp	r2, #59392
	beq	.L350
	.loc 1 198 0
	ble	.L336
	.loc 1 200 0
	ldr	r0, [r4, #184]
.LVL315:
	.loc 1 201 0
	str	r3, [r4, #184]
	b	.L340
.LVL316:
.L350:
	mov	r0, r3
.L340:
.LBE537:
	.loc 1 250 0
	add	sp, sp, #8
	.cfi_remember_state
	.cfi_def_cfa_offset 16
	@ sp needed
	ldmfd	sp!, {r4, r5, r6, pc}
.LVL317:
.L334:
	.cfi_restore_state
	mov	r5, r1
	.loc 1 231 0
	add	r1, sp, #4
.LVL318:
	bl	P_GetFriction
.LVL319:
	cmp	r0, #59392
	mov	r6, r0
.LVL320:
	bge	.L345
.LBB538:
	.loc 1 236 0
	ldr	r0, [r4, #88]
.LVL321:
	ldr	r1, [r4, #92]
	bl	P_AproxDistance
.LVL322:
	.loc 1 238 0
	ldr	r3, .L356+8
	cmp	r0, r3
	ble	.L343
	.loc 1 239 0
	ldr	r3, [sp, #4]
	mov	r0, r3, asl #3
.LVL323:
	b	.L342
.LVL324:
.L345:
	ldr	r0, [sp, #4]
.L342:
.LBE538:
	.loc 1 246 0
	cmp	r5, #0
	.loc 1 247 0
	strne	r6, [r5]
	.loc 1 250 0
	add	sp, sp, #8
	.cfi_remember_state
	.cfi_def_cfa_offset 16
	@ sp needed
	ldmfd	sp!, {r4, r5, r6, pc}
.LVL325:
.L343:
	.cfi_restore_state
.LBB539:
	.loc 1 240 0
	ldr	r3, .L356+12
	cmp	r0, r3
	bgt	.L355
	.loc 1 242 0
	ldr	r3, .L356+16
	cmp	r0, r3
	ble	.L345
	.loc 1 243 0
	ldr	r3, [sp, #4]
	mov	r0, r3, asl #1
.LVL326:
	b	.L342
.LVL327:
.L336:
.LBE539:
.LBB540:
	.loc 1 209 0
	ldr	r0, [r4, #88]
	ldr	r1, [r4, #92]
	bl	P_AproxDistance
.LVL328:
	mov	r3, r0
.LVL329:
	.loc 1 211 0
	ldr	r2, .L356+8
	.loc 1 210 0
	ldr	r0, [r4, #184]
.LVL330:
	.loc 1 211 0
	cmp	r3, r2
	.loc 1 212 0
	movgt	r0, r0, asl #3
	.loc 1 211 0
	bgt	.L338
	.loc 1 214 0
	ldr	r2, .L356+12
	cmp	r3, r2
	.loc 1 215 0
	movgt	r0, r0, asl #2
	.loc 1 214 0
	bgt	.L338
	.loc 1 217 0
	ldr	r2, .L356+16
	cmp	r3, r2
	.loc 1 218 0
	movgt	r0, r0, asl #1
.LVL331:
.L338:
	.loc 1 220 0
	mov	r3, #2048
.LVL332:
	str	r3, [r4, #184]
	b	.L340
.LVL333:
.L355:
.LBE540:
.LBB541:
	.loc 1 241 0
	ldr	r3, [sp, #4]
	mov	r0, r3, asl #2
.LVL334:
	b	.L342
.L357:
	.align	2
.L356:
	.word	compatibility_level
	.word	variable_friction
	.word	60000
	.word	30000
	.word	15000
.LBE541:
	.cfi_endproc
.LFE6:
	.size	P_GetMoveFactor, .-P_GetMoveFactor
	.align	2
	.global	P_TeleportMove
	.type	P_TeleportMove, %function
P_TeleportMove:
.LFB7:
	.loc 1 257 0
	.cfi_startproc
	@ args = 0, pretend = 0, frame = 0
	@ frame_needed = 0, uses_anonymous_args = 0
.LVL335:
	stmfd	sp!, {r3, r4, r5, r6, r7, r8, r9, r10, fp, lr}
	.cfi_def_cfa_offset 40
	.cfi_offset 3, -40
	.cfi_offset 4, -36
	.cfi_offset 5, -32
	.cfi_offset 6, -28
	.cfi_offset 7, -24
	.cfi_offset 8, -20
	.cfi_offset 9, -16
	.cfi_offset 10, -12
	.cfi_offset 11, -8
	.cfi_offset 14, -4
	.loc 1 257 0
	mov	r10, r0
	.loc 1 268 0
	ldr	r0, [r0, #156]
.LVL336:
	.loc 1 257 0
	mov	r9, r1
	.loc 1 268 0
	cmp	r0, #0
	.loc 1 257 0
	mov	r8, r2
	.loc 1 268 0
	movne	ip, #1
	beq	.L378
.LVL337:
.L359:
	.loc 1 278 0 discriminator 10
	ldr	r3, [r10, #80]
	ldr	r5, .L379
	.loc 1 268 0 discriminator 10
	ldr	r2, .L379+4
	.loc 1 280 0 discriminator 10
	add	lr, r9, r3
	.loc 1 278 0 discriminator 10
	add	r6, r3, r8
	.loc 1 279 0 discriminator 10
	rsb	r4, r3, r8
	.loc 1 283 0 discriminator 10
	mov	r1, r8
.LVL338:
	.loc 1 281 0 discriminator 10
	rsb	r3, r3, r9
	.loc 1 283 0 discriminator 10
	mov	r0, r9
	.loc 1 279 0 discriminator 10
	str	r4, [r5, #4]
	.loc 1 280 0 discriminator 10
	str	lr, [r5, #12]
	.loc 1 281 0 discriminator 10
	str	r3, [r5, #8]
	.loc 1 268 0 discriminator 10
	str	ip, [r2, #12]
	.loc 1 278 0 discriminator 10
	str	r6, [r5]
	.loc 1 273 0 discriminator 10
	str	r10, [r2]
	.loc 1 275 0 discriminator 10
	str	r9, [r2, #4]
	.loc 1 276 0 discriminator 10
	str	r8, [r2, #8]
	.loc 1 283 0 discriminator 10
	bl	R_PointInSubsector
.LVL339:
	.loc 1 284 0 discriminator 10
	mov	r2, #0
	.loc 1 299 0 discriminator 10
	ldr	r3, .L379+8
	.loc 1 291 0 discriminator 10
	ldr	ip, [r0]
	.loc 1 299 0 discriminator 10
	ldr	r7, [r3]
	ldr	r4, [r5, #8]
	.loc 1 300 0 discriminator 10
	ldr	r3, [r5, #12]
	.loc 1 301 0 discriminator 10
	ldr	lr, .L379+12
	.loc 1 291 0 discriminator 10
	ldr	r0, [ip, #12]
.LVL340:
	.loc 1 299 0 discriminator 10
	rsb	r4, r7, r4
	.loc 1 292 0 discriminator 10
	ldr	ip, [ip, #16]
	.loc 1 300 0 discriminator 10
	rsb	r7, r7, r3
	.loc 1 301 0 discriminator 10
	ldr	r3, [lr]
	.loc 1 292 0 discriminator 10
	ldr	lr, .L379+16
	.loc 1 294 0 discriminator 10
	ldr	r1, .L379+20
	.loc 1 292 0 discriminator 10
	str	ip, [lr]
	.loc 1 291 0 discriminator 10
	ldr	ip, .L379+24
	.loc 1 302 0 discriminator 10
	ldmia	r5, {r5, r6}
	.loc 1 301 0 discriminator 10
	rsb	r6, r3, r6
	.loc 1 302 0 discriminator 10
	rsb	r5, r3, r5
	.loc 1 294 0 discriminator 10
	ldr	r3, [r1]
	.loc 1 291 0 discriminator 10
	str	r0, [ip]
	ldr	ip, .L379+28
	.loc 1 294 0 discriminator 10
	add	r3, r3, #1
	.loc 1 299 0 discriminator 10
	sub	r4, r4, #2097152
	.loc 1 300 0 discriminator 10
	add	r7, r7, #2097152
	.loc 1 299 0 discriminator 10
	mov	r4, r4, asr #23
.LVL341:
	.loc 1 300 0 discriminator 10
	mov	r7, r7, asr #23
.LVL342:
	.loc 1 291 0 discriminator 10
	str	r0, [ip]
	.loc 1 294 0 discriminator 10
	str	r3, [r1]
	.loc 1 284 0 discriminator 10
	ldr	r0, .L379+32
	.loc 1 295 0 discriminator 10
	ldr	r3, .L379+36
	.loc 1 301 0 discriminator 10
	sub	r6, r6, #2097152
	.loc 1 302 0 discriminator 10
	add	r5, r5, #2097152
	.loc 1 304 0 discriminator 10
	cmp	r4, r7
	.loc 1 301 0 discriminator 10
	mov	r6, r6, asr #23
.LVL343:
	.loc 1 302 0 discriminator 10
	mov	r5, r5, asr #23
.LVL344:
	.loc 1 284 0 discriminator 10
	str	r2, [r0]
	.loc 1 295 0 discriminator 10
	str	r2, [r3]
	.loc 1 304 0 discriminator 10
	bgt	.L362
.LVL345:
.L365:
	.loc 1 305 0 discriminator 1
	cmp	r6, r5
	movle	fp, r6
	bgt	.L367
.LVL346:
.L364:
	.loc 1 306 0
	mov	r1, fp
	mov	r0, r4
	ldr	r2, .L379+40
	bl	P_BlockThingsIterator
.LVL347:
	cmp	r0, #0
	.loc 1 305 0
	add	fp, fp, #1
.LVL348:
	.loc 1 306 0
	ldmeqfd	sp!, {r3, r4, r5, r6, r7, r8, r9, r10, fp, pc}
	.loc 1 305 0 discriminator 2
	cmp	r5, fp
	bge	.L364
.LVL349:
.L367:
	.loc 1 304 0
	add	r4, r4, #1
.LVL350:
	cmp	r7, r4
	bge	.L365
.L362:
	.loc 1 312 0
	mov	r0, r10
	bl	P_UnsetThingPosition
.LVL351:
	.loc 1 314 0
	ldr	r3, .L379+28
	.loc 1 321 0
	mov	r0, r10
	.loc 1 314 0
	ldr	r1, [r3]
	.loc 1 315 0
	ldr	r3, .L379+16
	.loc 1 314 0
	str	r1, [r10, #68]
	.loc 1 315 0
	ldr	r2, [r3]
	.loc 1 316 0
	ldr	r3, .L379+24
	.loc 1 315 0
	str	r2, [r10, #72]
	.loc 1 316 0
	ldr	r3, [r3]
	.loc 1 318 0
	str	r9, [r10, #24]
	.loc 1 316 0
	str	r3, [r10, #76]
	.loc 1 319 0
	str	r8, [r10, #28]
	.loc 1 321 0
	bl	P_SetThingPosition
.LVL352:
	.loc 1 325 0
	ldr	r3, [r10, #68]
	.loc 1 327 0
	mov	r0, #1
	.loc 1 323 0
	str	r9, [r10, #192]
	.loc 1 324 0
	str	r8, [r10, #196]
	.loc 1 325 0
	str	r3, [r10, #200]
	.loc 1 328 0
	ldmfd	sp!, {r3, r4, r5, r6, r7, r8, r9, r10, fp, pc}
.LVL353:
.L378:
	.loc 1 269 0 discriminator 2
	ldr	r2, .L379+44
.LVL354:
	.loc 1 268 0 discriminator 2
	ldr	r2, [r2]
	cmp	r2, #0
	bne	.L360
	.loc 1 268 0 is_stmt 0 discriminator 3
	adds	ip, r3, #0
	movne	ip, #1
	b	.L359
.L360:
	.loc 1 268 0 discriminator 4
	ldr	r3, .L379+48
.LVL355:
	ldr	ip, [r3]
	sub	ip, ip, #30
	clz	ip, ip
	mov	ip, ip, lsr #5
	b	.L359
.L380:
	.align	2
.L379:
	.word	tmbbox
	.word	.LANCHOR0
	.word	bmaporgx
	.word	bmaporgy
	.word	tmceilingz
	.word	validcount
	.word	tmdropoffz
	.word	tmfloorz
	.word	ceilingline
	.word	numspechit
	.word	PIT_StompThing
	.word	comp
	.word	gamemap
	.cfi_endproc
.LFE7:
	.size	P_TeleportMove, .-P_TeleportMove
	.align	2
	.global	Check_Sides
	.type	Check_Sides, %function
Check_Sides:
.LFB12:
	.loc 1 640 0 is_stmt 1
	.cfi_startproc
	@ args = 0, pretend = 0, frame = 0
	@ frame_needed = 0, uses_anonymous_args = 0
.LVL356:
	stmfd	sp!, {r3, r4, r5, r6, r7, r8, r9, r10, fp, lr}
	.cfi_def_cfa_offset 40
	.cfi_offset 3, -40
	.cfi_offset 4, -36
	.cfi_offset 5, -32
	.cfi_offset 6, -28
	.cfi_offset 7, -24
	.cfi_offset 8, -20
	.cfi_offset 9, -16
	.cfi_offset 10, -12
	.cfi_offset 11, -8
	.cfi_offset 14, -4
	.loc 1 643 0
	ldr	r3, [r0, #24]
	.loc 1 644 0
	ldr	r8, [r0, #28]
	.loc 1 650 0
	cmp	r1, r3
	movge	fp, r3
	.loc 1 651 0
	movlt	r10, r3
	.loc 1 650 0
	movlt	fp, r1
	.loc 1 651 0
	movge	r10, r1
	.loc 1 652 0
	cmp	r2, r8
	movlt	r9, r8
	movge	r9, r2
	.loc 1 653 0
	movlt	r4, r2
	movge	r4, r8
	.loc 1 657 0
	ldr	ip, .L394
	.loc 1 659 0
	ldr	r0, .L394+4
.LVL357:
	.loc 1 657 0
	ldr	r7, [ip]
	.loc 1 664 0
	ldr	lr, .L394+8
	.loc 1 659 0
	ldr	r5, [r0]
	.loc 1 643 0
	ldr	r0, .L394+12
	.loc 1 657 0
	rsb	r6, r7, fp
	.loc 1 664 0
	ldr	ip, [lr]
	.loc 1 658 0
	rsb	r7, r7, r10
	.loc 1 657 0
	mov	r6, r6, asr #23
.LVL358:
	.loc 1 658 0
	mov	r7, r7, asr #23
.LVL359:
	.loc 1 643 0
	str	r3, [r0, #16]
	.loc 1 650 0
	ldr	r3, .L394+16
	.loc 1 664 0
	add	ip, ip, #1
	.loc 1 644 0
	str	r8, [r0, #20]
	.loc 1 665 0
	cmp	r6, r7
	.loc 1 659 0
	rsb	r8, r5, r4
	.loc 1 660 0
	rsb	r5, r5, r9
	.loc 1 645 0
	str	r1, [r0, #24]
	.loc 1 646 0
	str	r2, [r0, #28]
	.loc 1 650 0
	str	fp, [r3, #8]
	.loc 1 651 0
	str	r10, [r3, #12]
	.loc 1 652 0
	str	r9, [r3]
	.loc 1 653 0
	str	r4, [r3, #4]
	.loc 1 659 0
	mov	r8, r8, asr #23
.LVL360:
	.loc 1 660 0
	mov	r5, r5, asr #23
.LVL361:
	.loc 1 664 0
	str	ip, [lr]
.LVL362:
	.loc 1 665 0
	bgt	.L383
.LVL363:
.L386:
	.loc 1 666 0 discriminator 1
	cmp	r8, r5
	movle	r4, r8
	ble	.L385
	b	.L388
.LVL364:
.L393:
	.loc 1 666 0 is_stmt 0 discriminator 2
	cmp	r5, r4
	blt	.L388
.LVL365:
.L385:
	.loc 1 667 0 is_stmt 1
	mov	r1, r4
	mov	r0, r6
	ldr	r2, .L394+20
	bl	P_BlockLinesIterator
.LVL366:
	cmp	r0, #0
	.loc 1 666 0
	add	r4, r4, #1
.LVL367:
	.loc 1 667 0
	bne	.L393
	.loc 1 668 0
	mov	r0, #1
	.loc 1 670 0
	ldmfd	sp!, {r3, r4, r5, r6, r7, r8, r9, r10, fp, pc}
.LVL368:
.L388:
	.loc 1 665 0
	add	r6, r6, #1
.LVL369:
	cmp	r7, r6
	bge	.L386
.L383:
	.loc 1 669 0
	mov	r0, #0
	ldmfd	sp!, {r3, r4, r5, r6, r7, r8, r9, r10, fp, pc}
.L395:
	.align	2
.L394:
	.word	bmaporgx
	.word	bmaporgy
	.word	validcount
	.word	.LANCHOR0
	.word	tmbbox
	.word	PIT_CrossLine
	.cfi_endproc
.LFE12:
	.size	Check_Sides, .-Check_Sides
	.align	2
	.global	P_CheckPosition
	.type	P_CheckPosition, %function
P_CheckPosition:
.LFB13:
	.loc 1 702 0
	.cfi_startproc
	@ args = 0, pretend = 0, frame = 0
	@ frame_needed = 0, uses_anonymous_args = 0
.LVL370:
	stmfd	sp!, {r3, r4, r5, r6, r7, r8, r9, r10, fp, lr}
	.cfi_def_cfa_offset 40
	.cfi_offset 3, -40
	.cfi_offset 4, -36
	.cfi_offset 5, -32
	.cfi_offset 6, -28
	.cfi_offset 7, -24
	.cfi_offset 8, -20
	.cfi_offset 9, -16
	.cfi_offset 10, -12
	.cfi_offset 11, -8
	.cfi_offset 14, -4
	.loc 1 702 0
	mov	ip, r1
	mov	r4, r0
	.loc 1 716 0
	ldr	r3, [r0, #80]
	ldr	r7, .L425
	.loc 1 711 0
	ldr	r5, .L425+4
	.loc 1 718 0
	add	lr, r1, r3
	.loc 1 716 0
	add	r8, r3, r2
	.loc 1 717 0
	rsb	r6, r3, r2
	.loc 1 721 0
	mov	r0, r1
.LVL371:
	.loc 1 719 0
	rsb	r3, r3, r1
	.loc 1 721 0
	mov	r1, r2
.LVL372:
	.loc 1 718 0
	str	lr, [r7, #12]
	.loc 1 719 0
	str	r3, [r7, #8]
	.loc 1 711 0
	stmia	r5, {r4, ip}
	.loc 1 714 0
	str	r2, [r5, #8]
	.loc 1 716 0
	str	r8, [r7]
	.loc 1 717 0
	str	r6, [r7, #4]
	.loc 1 721 0
	bl	R_PointInSubsector
.LVL373:
	.loc 1 722 0
	mov	r3, #0
	.loc 1 725 0
	ldr	r2, [r4, #156]
	.loc 1 722 0
	ldr	lr, .L425+8
	ldr	ip, .L425+12
	ldr	r1, .L425+16
	.loc 1 726 0
	cmp	r2, r3
	.loc 1 722 0
	str	r3, [lr]
	str	r3, [ip]
	str	r3, [r1]
	.loc 1 726 0
	moveq	r3, r2
	beq	.L397
	.loc 1 725 0 discriminator 1
	ldr	r2, [r2]
	cmp	r2, r4
	beq	.L423
.L397:
	.loc 1 739 0
	ldr	r2, [r5]
	.loc 1 737 0
	mov	lr, #0
	.loc 1 739 0
	ldrd	r8, [r2, #120]
	mov	r9, #0
	.loc 1 736 0
	ldr	ip, .L425+20
	.loc 1 734 0
	ldr	r0, [r0]
.LVL374:
	.loc 1 736 0
	ldr	r2, [ip]
	.loc 1 734 0
	ldr	r1, [r0, #12]
	.loc 1 735 0
	ldr	r6, [r0, #16]
	.loc 1 739 0
	and	r8, r8, #4096
	.loc 1 734 0
	ldr	fp, .L425+24
	ldr	r10, .L425+28
	.loc 1 735 0
	ldr	r4, .L425+32
.LVL375:
	.loc 1 737 0
	ldr	r0, .L425+36
	.loc 1 736 0
	add	r2, r2, #1
	.loc 1 739 0
	orrs	r8, r8, r9
	.loc 1 725 0
	str	r3, [r5, #72]
	.loc 1 736 0
	str	r2, [ip]
	.loc 1 734 0
	str	r1, [fp]
	str	r1, [r10]
	.loc 1 735 0
	str	r6, [r4]
	.loc 1 737 0
	str	lr, [r0]
	.loc 1 739 0
	bne	.L398
	.loc 1 748 0
	ldr	fp, .L425+40
	ldr	r6, [r7, #8]
	ldr	r3, [fp]
	.loc 1 749 0
	ldr	r0, [r7, #12]
	.loc 1 750 0
	ldr	r10, .L425+44
	.loc 1 748 0
	rsb	r2, r3, r6
	.loc 1 749 0
	rsb	r0, r3, r0
	.loc 1 750 0
	ldr	ip, [r10]
	ldr	r1, [r7, #4]
	.loc 1 751 0
	ldr	r3, [r7]
	.loc 1 748 0
	sub	r5, r2, #2097152
	.loc 1 749 0
	add	r9, r0, #2097152
	.loc 1 748 0
	mov	r5, r5, asr #23
.LVL376:
	.loc 1 749 0
	mov	r9, r9, asr #23
.LVL377:
	.loc 1 750 0
	rsb	r1, ip, r1
	.loc 1 751 0
	rsb	r3, ip, r3
	.loc 1 750 0
	sub	r8, r1, #2097152
	.loc 1 751 0
	add	r6, r3, #2097152
	.loc 1 754 0
	cmp	r5, r9
	.loc 1 750 0
	mov	r8, r8, asr #23
.LVL378:
	.loc 1 751 0
	mov	r6, r6, asr #23
.LVL379:
	.loc 1 754 0
	bgt	.L400
.LVL380:
.L404:
	.loc 1 755 0 discriminator 1
	cmp	r8, r6
	movle	r4, r8
	ble	.L403
	b	.L406
.LVL381:
.L401:
	.loc 1 755 0 is_stmt 0 discriminator 2
	cmp	r6, r4
	blt	.L406
.LVL382:
.L403:
	.loc 1 756 0 is_stmt 1
	mov	r1, r4
	mov	r0, r5
	ldr	r2, .L425+48
	bl	P_BlockThingsIterator
.LVL383:
	cmp	r0, #0
	.loc 1 755 0
	add	r4, r4, #1
.LVL384:
	.loc 1 756 0
	bne	.L401
.LVL385:
.L408:
	.loc 1 757 0
	mov	r0, #0
	ldmfd	sp!, {r3, r4, r5, r6, r7, r8, r9, r10, fp, pc}
.LVL386:
.L406:
	.loc 1 754 0
	add	r5, r5, #1
.LVL387:
	cmp	r9, r5
	bge	.L404
	ldr	r0, [fp]
	ldr	ip, [r10]
	ldr	r3, [r7]
	ldmib	r7, {r1, r2, lr}
	rsb	r3, ip, r3
	rsb	r2, r0, r2
	rsb	r1, ip, r1
	rsb	r0, r0, lr
.L400:
	.loc 1 761 0
	mov	r6, r2, asr #23
.LVL388:
	.loc 1 762 0
	mov	r8, r0, asr #23
.LVL389:
	.loc 1 766 0
	cmp	r6, r8
	.loc 1 763 0
	mov	r7, r1, asr #23
.LVL390:
	.loc 1 764 0
	mov	r5, r3, asr #23
.LVL391:
	.loc 1 766 0
	bgt	.L398
.LVL392:
.L410:
	.loc 1 767 0 discriminator 1
	cmp	r7, r5
	movle	r4, r7
	ble	.L409
	b	.L412
.LVL393:
.L424:
	.loc 1 767 0 is_stmt 0 discriminator 2
	cmp	r5, r4
	blt	.L412
.LVL394:
.L409:
	.loc 1 768 0 is_stmt 1
	mov	r1, r4
	mov	r0, r6
	ldr	r2, .L425+52
	bl	P_BlockLinesIterator
.LVL395:
	cmp	r0, #0
	.loc 1 767 0
	add	r4, r4, #1
.LVL396:
	.loc 1 768 0
	bne	.L424
	b	.L408
.LVL397:
.L412:
	.loc 1 766 0
	add	r6, r6, #1
.LVL398:
	cmp	r8, r6
	bge	.L410
.LVL399:
.L398:
	.loc 1 740 0
	mov	r0, #1
	.loc 1 772 0
	ldmfd	sp!, {r3, r4, r5, r6, r7, r8, r9, r10, fp, pc}
.LVL400:
.L423:
	.loc 1 727 0 discriminator 4
	ldr	r3, .L425+56
	.loc 1 726 0 discriminator 4
	ldrb	r3, [r3]	@ zero_extendqisi2
	cmp	r3, #10
	movls	r3, #0
	movhi	r3, #1
	b	.L397
.L426:
	.align	2
.L425:
	.word	tmbbox
	.word	.LANCHOR0
	.word	ceilingline
	.word	blockline
	.word	floorline
	.word	validcount
	.word	tmdropoffz
	.word	tmfloorz
	.word	tmceilingz
	.word	numspechit
	.word	bmaporgx
	.word	bmaporgy
	.word	PIT_CheckThing
	.word	PIT_CheckLine
	.word	compatibility_level
	.cfi_endproc
.LFE13:
	.size	P_CheckPosition, .-P_CheckPosition
	.align	2
	.global	P_TryMove
	.type	P_TryMove, %function
P_TryMove:
.LFB14:
	.loc 1 782 0
	.cfi_startproc
	@ args = 0, pretend = 0, frame = 16
	@ frame_needed = 0, uses_anonymous_args = 0
.LVL401:
	.loc 1 786 0
	mov	ip, #0
	.loc 1 782 0
	stmfd	sp!, {r4, r5, r6, r7, r8, r9, r10, fp, lr}
	.cfi_def_cfa_offset 36
	.cfi_offset 4, -36
	.cfi_offset 5, -32
	.cfi_offset 6, -28
	.cfi_offset 7, -24
	.cfi_offset 8, -20
	.cfi_offset 9, -16
	.cfi_offset 10, -12
	.cfi_offset 11, -8
	.cfi_offset 14, -4
	.loc 1 786 0
	ldr	r5, .L485
	ldr	r6, .L485+4
	.loc 1 782 0
	sub	sp, sp, #20
	.cfi_def_cfa_offset 56
	.loc 1 782 0
	mov	fp, r3
	.loc 1 786 0
	str	ip, [r5]
	str	ip, [r6]
	.loc 1 782 0
	mov	r4, r0
	mov	r9, r1
	mov	r10, r2
	.loc 1 788 0
	bl	P_CheckPosition
.LVL402:
	cmp	r0, #0
	beq	.L456
.LVL403:
.LBB549:
.LBB550:
	.loc 1 791 0
	ldrd	r2, [r4, #120]
	strd	r2, [sp]
	mov	r3, #0
	and	r2, r2, #4096
	orrs	r3, r2, r3
	bne	.L483
	.loc 1 796 0
	ldr	r8, .L485+8
	ldr	r7, .L485+12
	ldr	r0, [r8]
	ldr	r3, [r7]
	ldr	ip, [r4, #84]
	str	r3, [sp, #12]
	rsb	r3, r3, r0
	cmp	r3, ip
	blt	.L436
	.loc 1 798 0
	ldrd	r2, [sp]
	mov	r3, #0
	mov	lr, #1
	and	r2, r2, #32768
	orrs	r3, r2, r3
	str	lr, [r5]
	bne	.L435
	.loc 1 799 0
	ldr	r3, [r4, #32]
	rsb	r0, r3, r0
	.loc 1 798 0
	cmp	ip, r0
	bgt	.L436
	.loc 1 802 0
	ldr	r2, [sp, #12]
	rsb	r3, r3, r2
	.loc 1 801 0
	cmp	r3, #1572864
	ble	.L435
.L436:
	.loc 1 803 0
	ldr	r3, .L485+16
	ldr	r0, [r3, #72]
	.loc 1 805 0
	cmp	r0, #0
	beq	.L429
	.loc 1 804 0
	ldr	r3, .L485+20
	ldr	r0, [r3]
	cmp	r0, #0
	beq	.L437
	bl	untouched
.LVL404:
	cmp	r0, #0
	bne	.L456
.L437:
	.loc 1 805 0
	ldr	r3, .L485+24
	ldr	r0, [r3]
	cmp	r0, #0
	beq	.L432
	bl	untouched
.LVL405:
	cmp	r0, #0
	beq	.L432
.LVL406:
.L456:
	mov	r0, #0
.L429:
.LBE550:
.LBE549:
	.loc 1 879 0
	add	sp, sp, #20
	.cfi_remember_state
	.cfi_def_cfa_offset 36
	@ sp needed
	ldmfd	sp!, {r4, r5, r6, r7, r8, r9, r10, fp, pc}
.LVL407:
.L483:
	.cfi_restore_state
	ldr	r7, .L485+12
	ldr	r8, .L485+8
.L452:
.LBB566:
.LBB564:
	.loc 1 854 0
	mov	r0, r4
	bl	P_UnsetThingPosition
.LVL408:
	.loc 1 860 0
	ldr	r3, .L485+28
	.loc 1 859 0
	ldr	r2, [r8]
	.loc 1 858 0
	ldr	r1, [r7]
	.loc 1 860 0
	ldr	r3, [r3]
	.loc 1 859 0
	str	r2, [r4, #72]
	.loc 1 860 0
	str	r3, [r4, #76]
	.loc 1 856 0
	ldr	r7, [r4, #24]
.LVL409:
	.loc 1 857 0
	ldr	r8, [r4, #28]
.LVL410:
	.loc 1 858 0
	str	r1, [r4, #68]
	.loc 1 861 0
	str	r9, [r4, #24]
	.loc 1 862 0
	str	r10, [r4, #28]
	.loc 1 864 0
	mov	r0, r4
	bl	P_SetThingPosition
.LVL411:
	.loc 1 868 0
	ldrd	r2, [r4, #120]
	mov	r3, #0
	and	r2, r2, #36864
	orrs	r3, r2, r3
	bne	.L432
	ldr	r9, .L485+32
.LVL412:
	.loc 1 870 0
	ldr	fp, .L485+36
.LVL413:
	ldr	r5, [r9]
.LVL414:
.L453:
	.loc 1 869 0
	cmp	r5, #0
	sub	r5, r5, #1
	str	r5, [r9]
	beq	.L432
.L455:
	.loc 1 870 0
	ldr	r3, [fp]
	ldr	r6, [r3, r5, asl #2]
	ldrsh	r3, [r6, #22]
	cmp	r3, #0
	beq	.L453
.LBB551:
	.loc 1 873 0
	mov	r1, r8
	mov	r2, r6
	mov	r0, r7
	bl	P_PointOnLineSide
.LVL415:
	.loc 1 874 0
	ldr	r1, [r4, #28]
	.loc 1 873 0
	mov	r10, r0
.LVL416:
	.loc 1 874 0
	mov	r2, r6
	ldr	r0, [r4, #24]
.LVL417:
	bl	P_PointOnLineSide
.LVL418:
	.loc 1 873 0
	cmp	r10, r0
	beq	.L453
	.loc 1 875 0
	mov	r0, r6
	mov	r1, r10
	mov	r2, r4
	bl	P_CrossSpecialLine
.LVL419:
	ldr	r3, .L485+32
	ldr	r5, [r3]
.LBE551:
	.loc 1 869 0
	cmp	r5, #0
	sub	r5, r5, #1
	str	r5, [r9]
	bne	.L455
.LVL420:
.L432:
	.loc 1 805 0
	mov	r0, #1
.LBE564:
.LBE566:
	.loc 1 879 0
	add	sp, sp, #20
	.cfi_remember_state
	.cfi_def_cfa_offset 36
	@ sp needed
	ldmfd	sp!, {r4, r5, r6, r7, r8, r9, r10, fp, pc}
.LVL421:
.L435:
	.cfi_restore_state
.LBB567:
.LBB565:
	.loc 1 814 0
	ldrd	r2, [sp]
	mov	r3, #0
	and	r2, r2, #17408
	orrs	r3, r2, r3
	bne	.L439
	.loc 1 815 0
	ldr	r3, .L485+40
	ldr	r0, [r3, #4]
	cmp	r0, #0
	beq	.L440
	.loc 1 817 0
	ldr	r3, .L485+44
	ldrb	r3, [r3]	@ zero_extendqisi2
	cmp	fp, #0
	cmpne	r3, #7
	bls	.L441
	.loc 1 819 0
	sub	r3, r3, #11
	cmp	r3, #2
	bhi	.L439
.L441:
	.loc 1 820 0
	ldr	r3, .L485+28
	ldr	r2, [sp, #12]
	ldr	r3, [r3]
	rsb	r3, r3, r2
	cmp	r3, #1572864
	bgt	.L456
.L439:
	.loc 1 840 0
	ldrd	r2, [sp]
	mov	r2, #0
	and	r3, r3, #2
	orrs	r3, r2, r3
	beq	.L450
	.loc 1 841 0
	ldrd	r0, [sp]
	mov	r3, #0
	ldr	r2, .L485+48
	and	r1, r1, r3
	and	r0, r0, r2
	mov	r2, r0
	mov	r3, r1
	.loc 1 840 0
	orrs	r3, r2, r3
	bne	.L450
	.loc 1 841 0
	ldr	r3, [r4, #132]
	cmp	r3, #0
	ble	.L451
	.loc 1 842 0
	ldr	r3, [r4, #108]
	ldr	r3, [r3, #12]
	cmp	r3, #0
	bne	.L450
.L451:
	ldr	r3, [r4, #32]
	ldr	r2, [sp, #12]
	rsb	r3, r3, r2
	cmp	r3, #1048576
	bgt	.L456
.L450:
	.loc 1 846 0
	ldr	r3, [r4, #128]
	tst	r3, #1
	beq	.L452
	.loc 1 847 0
	ldr	r2, [r4, #88]
.LVL422:
	ldr	r0, [r4, #92]
.LVL423:
.LBB552:
.LBB553:
	.loc 2 72 0
	smull	r2, r3, r2, r2
.LVL424:
.LBE553:
.LBE552:
.LBB556:
.LBB557:
	smull	r0, r1, r0, r0
.LVL425:
.LBE557:
.LBE556:
.LBB560:
.LBB554:
	mov	r2, r2, lsr #16
.LBE554:
.LBE560:
.LBB561:
.LBB558:
	strd	r0, [sp]
.LBE558:
.LBE561:
.LBB562:
.LBB555:
	orr	r2, r2, r3, asl #16
.LBE555:
.LBE562:
.LBB563:
.LBB559:
	ldr	r3, [sp, #4]
	mov	r0, r0, lsr #16
	orr	r0, r0, r3, asl #16
.LBE559:
.LBE563:
	.loc 1 846 0
	ldr	ip, [r4, #32]
	ldr	r3, [sp, #12]
	.loc 1 847 0
	add	r2, r2, r0
	.loc 1 846 0
	rsb	r1, ip, r3
	cmp	r1, r2
	ble	.L452
	b	.L456
.LVL426:
.L440:
	.loc 1 824 0
	cmp	fp, #0
	beq	.L443
	cmp	fp, #2
	beq	.L484
.L444:
	.loc 1 835 0
	ldrd	r2, [sp]
	mov	r3, #0
	and	r2, r2, #512
	orrs	r3, r2, r3
	bne	.L449
	.loc 1 836 0
	ldr	r0, [r4, #32]
	ldr	r3, [sp, #12]
	rsb	r0, r3, r0
	.loc 1 835 0
	cmp	r0, #1572864
	movle	r0, #0
	movgt	r0, #1
.L449:
	str	r0, [r6]
	b	.L439
.L484:
	.loc 1 825 0
	ldr	r3, .L485+28
	ldr	r2, [sp, #12]
	ldr	r3, [r3]
	rsb	r2, r3, r2
	.loc 1 824 0
	cmp	r2, #8388608
	bgt	.L443
	.loc 1 826 0
	ldr	r2, [r4, #144]
	.loc 1 825 0
	cmp	r2, #0
	beq	.L443
	.loc 1 826 0
	ldr	r2, [r2, #32]
	cmp	r3, r2
	bge	.L444
.L443:
	.loc 1 828 0
	ldr	r3, .L485+52
	ldr	r3, [r3]
	cmp	r3, #0
	beq	.L445
	ldr	r3, .L485+44
	ldrb	r3, [r3]	@ zero_extendqisi2
	cmp	r3, #10
	bls	.L445
	.loc 1 830 0
	ldr	r3, [r4, #68]
	ldr	r2, [sp, #12]
	rsb	r3, r2, r3
	cmp	r3, #1572864
	bgt	.L456
	.loc 1 831 0
	ldr	r2, .L485+28
	ldr	r3, [r4, #76]
	ldr	r2, [r2]
	rsb	r3, r2, r3
	cmp	r3, #1572864
	movle	r3, #0
	movgt	r3, #1
.L447:
	.loc 1 828 0
	cmp	r3, #0
	beq	.L439
	b	.L456
.L445:
	.loc 1 829 0
	ldr	r3, .L485+28
	ldr	r2, [sp, #12]
	ldr	r3, [r3]
	rsb	r3, r3, r2
	.loc 1 828 0
	cmp	r3, #1572864
	movle	r3, #0
	movgt	r3, #1
	b	.L447
.L486:
	.align	2
.L485:
	.word	floatok
	.word	felldown
	.word	tmceilingz
	.word	tmfloorz
	.word	.LANCHOR0
	.word	ceilingline
	.word	floorline
	.word	tmdropoffz
	.word	numspechit
	.word	spechit
	.word	comp
	.word	compatibility_level
	.word	66048
	.word	monkeys
.LBE565:
.LBE567:
	.cfi_endproc
.LFE14:
	.size	P_TryMove, .-P_TryMove
	.align	2
	.global	P_ApplyTorque
	.type	P_ApplyTorque, %function
P_ApplyTorque:
.LFB16:
	.loc 1 971 0
	.cfi_startproc
	@ args = 0, pretend = 0, frame = 0
	@ frame_needed = 0, uses_anonymous_args = 0
.LVL427:
	stmfd	sp!, {r4, r5, r6, r7, r8, r9, r10, lr}
	.cfi_def_cfa_offset 32
	.cfi_offset 4, -32
	.cfi_offset 5, -28
	.cfi_offset 6, -24
	.cfi_offset 7, -20
	.cfi_offset 8, -16
	.cfi_offset 9, -12
	.cfi_offset 10, -8
	.cfi_offset 14, -4
	.loc 1 971 0
	mov	r8, r0
	.loc 1 973 0
	ldr	r1, .L502
	ldr	r3, [r0, #80]
	ldr	r2, [r0, #24]
	ldr	r1, [r1]
	.loc 1 977 0
	ldr	r0, .L502+4
.LVL428:
	.loc 1 983 0
	ldr	ip, .L502+8
	.loc 1 973 0
	rsb	r4, r3, r2
	.loc 1 977 0
	ldr	r10, [r8, #28]
	.loc 1 975 0
	add	r2, r2, r3
	.loc 1 982 0
	ldr	r9, .L502+12
	.loc 1 977 0
	ldr	r6, [r0]
	.loc 1 973 0
	rsb	r5, r1, r4
	.loc 1 983 0
	ldr	r0, [ip]
	.loc 1 975 0
	rsb	r1, r1, r2
	.loc 1 977 0
	rsb	lr, r3, r10
	.loc 1 974 0
	mov	r7, r1, asr #23
	.loc 1 979 0
	add	r3, r3, r10
	.loc 1 972 0
	ldr	r1, .L502+16
	mov	r5, r5, asr #23
.LVL429:
	.loc 1 982 0
	str	r8, [r9]
	.loc 1 980 0
	ldr	r9, [r8, #128]
	.loc 1 977 0
	rsb	r10, r6, lr
	.loc 1 985 0
	cmp	r5, r7
	.loc 1 979 0
	rsb	r6, r6, r3
	.loc 1 983 0
	add	r0, r0, #1
	.loc 1 978 0
	stmia	r1, {r3, lr}
	.loc 1 972 0
	str	r4, [r1, #8]
	.loc 1 974 0
	str	r2, [r1, #12]
	.loc 1 976 0
	mov	r10, r10, asr #23
.LVL430:
	.loc 1 978 0
	mov	r6, r6, asr #23
.LVL431:
	.loc 1 983 0
	str	r0, [ip]
	.loc 1 985 0
	movgt	r3, r9
	bgt	.L489
.LVL432:
.L491:
	.loc 1 986 0 discriminator 1
	cmp	r10, r6
	movle	r4, r10
	bgt	.L493
.LVL433:
.L490:
	.loc 1 987 0 discriminator 3
	mov	r1, r4
	mov	r0, r5
	ldr	r2, .L502+20
	.loc 1 986 0 discriminator 3
	add	r4, r4, #1
.LVL434:
	.loc 1 987 0 discriminator 3
	bl	P_BlockLinesIterator
.LVL435:
	.loc 1 986 0 discriminator 3
	cmp	r6, r4
	bge	.L490
.LVL436:
.L493:
	.loc 1 985 0
	add	r5, r5, #1
.LVL437:
	cmp	r7, r5
	bge	.L491
	ldr	r3, [r8, #128]
.L489:
	.loc 1 990 0
	ldr	r1, [r8, #92]
	ldr	r2, [r8, #88]
	orrs	r2, r1, r2
	.loc 1 991 0
	orrne	r3, r3, #1
	.loc 1 993 0
	biceq	r3, r3, #1
	str	r3, [r8, #128]
	.loc 1 1003 0
	orr	r3, r3, r9
	ands	r3, r3, #1
	beq	.L501
	.loc 1 1006 0
	ldrh	r3, [r8, #154]
	sxth	r2, r3
	cmp	r2, #21
	ldmgtfd	sp!, {r4, r5, r6, r7, r8, r9, r10, pc}
	.loc 1 1007 0
	add	r3, r3, #1
.L501:
	strh	r3, [r8, #154]	@ movhi
	ldmfd	sp!, {r4, r5, r6, r7, r8, r9, r10, pc}
.L503:
	.align	2
.L502:
	.word	bmaporgx
	.word	bmaporgy
	.word	validcount
	.word	.LANCHOR0
	.word	tmbbox
	.word	PIT_ApplyTorque
	.cfi_endproc
.LFE16:
	.size	P_ApplyTorque, .-P_ApplyTorque
	.align	2
	.global	P_ThingHeightClip
	.type	P_ThingHeightClip, %function
P_ThingHeightClip:
.LFB17:
	.loc 1 1022 0
	.cfi_startproc
	@ args = 0, pretend = 0, frame = 0
	@ frame_needed = 0, uses_anonymous_args = 0
.LVL438:
	stmfd	sp!, {r4, r5, r6, lr}
	.cfi_def_cfa_offset 16
	.cfi_offset 4, -16
	.cfi_offset 5, -12
	.cfi_offset 6, -8
	.cfi_offset 14, -4
	.loc 1 1022 0
	mov	r4, r0
	.loc 1 1025 0
	add	r1, r0, #24
	ldmia	r1, {r1, r2, r6}
	ldr	r5, [r0, #68]
.LVL439:
	.loc 1 1027 0
	bl	P_CheckPosition
.LVL440:
	.loc 1 1035 0
	ldr	r1, .L511
	.loc 1 1033 0
	ldr	r2, .L511+4
	.loc 1 1034 0
	ldr	r3, .L511+8
	.loc 1 1035 0
	ldr	r1, [r1]
	.loc 1 1033 0
	ldr	r2, [r2]
	.loc 1 1034 0
	ldr	r3, [r3]
	.loc 1 1037 0
	cmp	r6, r5
	.loc 1 1035 0
	str	r1, [r4, #76]
	.loc 1 1033 0
	str	r2, [r4, #68]
	.loc 1 1034 0
	str	r3, [r4, #72]
	.loc 1 1037 0
	beq	.L510
	.loc 1 1053 0
	ldr	r0, [r4, #84]
	ldr	r1, [r4, #32]
	add	r1, r0, r1
	cmp	r3, r1
	.loc 1 1054 0
	rsblt	r1, r0, r3
	strlt	r1, [r4, #32]
.L507:
	.loc 1 1057 0
	rsb	r3, r2, r3
	.loc 1 1058 0
	cmp	r3, r0
	movlt	r0, #0
	movge	r0, #1
	ldmfd	sp!, {r4, r5, r6, pc}
.L510:
	.loc 1 1045 0
	ldr	r1, [r4, #128]
	.loc 1 1042 0
	str	r2, [r4, #32]
	.loc 1 1045 0
	tst	r1, #1
	beq	.L508
	.loc 1 1045 0 is_stmt 0 discriminator 1
	ldrsh	r1, [r4, #154]
	cmp	r1, #21
	.loc 1 1046 0 is_stmt 1
	movgt	r1, #0
	ldrgt	r0, [r4, #84]
	strgth	r1, [r4, #154]	@ movhi
	bgt	.L507
.L508:
	ldr	r0, [r4, #84]
	b	.L507
.L512:
	.align	2
.L511:
	.word	tmdropoffz
	.word	tmfloorz
	.word	tmceilingz
	.cfi_endproc
.LFE17:
	.size	P_ThingHeightClip, .-P_ThingHeightClip
	.align	2
	.global	PIT_ChangeSector
	.type	PIT_ChangeSector, %function
PIT_ChangeSector:
.LFB30:
	.loc 1 1872 0
	.cfi_startproc
	@ args = 0, pretend = 0, frame = 0
	@ frame_needed = 0, uses_anonymous_args = 0
.LVL441:
	stmfd	sp!, {r3, r4, r5, lr}
	.cfi_def_cfa_offset 16
	.cfi_offset 3, -16
	.cfi_offset 4, -12
	.cfi_offset 5, -8
	.cfi_offset 14, -4
	.loc 1 1872 0
	mov	r4, r0
	.loc 1 1875 0
	bl	P_ThingHeightClip
.LVL442:
	subs	r5, r0, #0
	bne	.L515
.LVL443:
.LBB571:
.LBB572:
	.loc 1 1880 0
	ldr	ip, [r4, #132]
	cmp	ip, #0
	ble	.L534
	.loc 1 1892 0
	ldrd	r2, [r4, #120]
	mov	r1, #0
	and	r0, r2, #131072
	orrs	r1, r0, r1
	bne	.L535
	.loc 1 1901 0
	mov	r0, #0
	and	r1, r3, #1
	orrs	r1, r0, r1
	beq	.L518
	.loc 1 1902 0
	ldr	r1, [r4, #128]
	.loc 1 1901 0
	tst	r1, #2
	bne	.L519
	.loc 1 1902 0
	ldr	r1, [r4, #108]
	ldr	r1, [r1, #12]
	cmp	r1, #0
	bne	.L519
.L518:
	.loc 1 1908 0
	mov	r3, #0
	and	r2, r2, #4
	orrs	r3, r2, r3
	beq	.L515
	.loc 1 1914 0
	mov	r1, #1
	ldr	r3, .L536
	.loc 1 1916 0
	ldr	r2, [r3, #84]
	.loc 1 1914 0
	str	r1, [r3, #80]
	.loc 1 1916 0
	cmp	r2, #0
	beq	.L515
	ldr	r3, .L536+4
	ldr	r1, [r3]
	ands	r1, r1, #3
	bne	.L515
.LBB573:
	.loc 1 1918 0
	mov	r0, r4
	mov	r2, r1
	mov	r3, #10
	bl	P_DamageMobj
.LVL444:
	.loc 1 1923 0
	ldr	r3, [r4, #84]
	.loc 1 1921 0
	ldr	r2, [r4, #32]
	.loc 1 1923 0
	add	r3, r3, r3, lsr #31
	.loc 1 1921 0
	add	r2, r2, r3, asr #1
	ldr	r1, [r4, #28]
	mov	r3, #38
	ldr	r0, [r4, #24]
	bl	P_SpawnMobj
.LVL445:
	mov	r5, r0
.LVL446:
	.loc 1 1926 0
	mov	r0, #2
.LVL447:
	bl	P_Random
.LVL448:
	mov	r4, r0
.LVL449:
	.loc 1 1927 0
	mov	r0, #2
.LVL450:
	bl	P_Random
.LVL451:
	rsb	r0, r0, r4
	mov	r4, r0, asl #12
.LVL452:
	str	r4, [r5, #88]
	.loc 1 1928 0
	mov	r0, #2
	bl	P_Random
.LVL453:
	mov	r4, r0
.LVL454:
	.loc 1 1929 0
	mov	r0, #2
.LVL455:
	bl	P_Random
.LVL456:
	rsb	r0, r0, r4
	mov	r4, r0, asl #12
.LVL457:
	str	r4, [r5, #92]
.LVL458:
.L515:
.LBE573:
.LBE572:
.LBE571:
	.loc 1 1934 0
	mov	r0, #1
	ldmfd	sp!, {r3, r4, r5, pc}
.LVL459:
.L535:
.LBB576:
.LBB574:
	.loc 1 1894 0
	mov	r0, r4
	bl	P_RemoveMobj
.LVL460:
.LBE574:
.LBE576:
	.loc 1 1934 0
	mov	r0, #1
	ldmfd	sp!, {r3, r4, r5, pc}
.L519:
.LBB577:
.LBB575:
	.loc 1 1904 0
	mov	r1, #0
	mov	r0, r4
	mov	r3, ip
	mov	r2, r1
	bl	P_DamageMobj
.LVL461:
	b	.L515
.L534:
	.loc 1 1882 0
	mov	r0, r4
	ldr	r1, .L536+8
	bl	P_SetMobjState
.LVL462:
	.loc 1 1884 0
	ldrd	r2, [r4, #120]
	bic	r2, r2, #2
	.loc 1 1885 0
	str	r5, [r4, #84]
	.loc 1 1886 0
	str	r5, [r4, #80]
	.loc 1 1884 0
	strd	r2, [r4, #120]
	b	.L515
.L537:
	.align	2
.L536:
	.word	.LANCHOR0
	.word	leveltime
	.word	895
.LBE575:
.LBE577:
	.cfi_endproc
.LFE30:
	.size	PIT_ChangeSector, .-PIT_ChangeSector
	.align	2
	.global	P_HitSlideLine
	.type	P_HitSlideLine, %function
P_HitSlideLine:
.LFB18:
	.loc 1 1082 0
	.cfi_startproc
	@ args = 0, pretend = 0, frame = 0
	@ frame_needed = 0, uses_anonymous_args = 0
.LVL463:
	stmfd	sp!, {r3, r4, r5, r6, r7, r8, r9, lr}
	.cfi_def_cfa_offset 32
	.cfi_offset 3, -32
	.cfi_offset 4, -28
	.cfi_offset 5, -24
	.cfi_offset 6, -20
	.cfi_offset 7, -16
	.cfi_offset 8, -12
	.cfi_offset 9, -8
	.cfi_offset 14, -4
	.loc 1 1102 0
	ldr	r6, .L584
	.loc 1 1082 0
	mov	r5, r0
	.loc 1 1102 0
	ldrb	r3, [r6]	@ zero_extendqisi2
	cmp	r3, #10
	bls	.L539
	.loc 1 1105 0
	ldr	r4, .L584+4
	ldr	r0, [r4, #100]
.LVL464:
	ldr	r1, [r4, #104]
	bl	P_AproxDistance
.LVL465:
	.loc 1 1107 0
	cmp	r0, #262144
	ble	.L540
	.loc 1 1105 0
	ldr	r3, .L584+8
	ldr	r3, [r3]
	cmp	r3, #0
	beq	.L540
	.loc 1 1107 0
	ldr	r0, [r4, #60]
	.loc 1 1106 0
	ldr	r2, [r0, #32]
	ldr	r3, [r0, #68]
	cmp	r2, r3
	ble	.L580
.L540:
.LVL466:
	.loc 1 1120 0
	ldrb	r3, [r5, #48]	@ zero_extendqisi2
	cmp	r3, #0
	beq	.L542
.L583:
	.loc 1 1133 0
	cmp	r3, #1
	movne	r8, #0
	beq	.L544
.LVL467:
.L553:
	.loc 1 1149 0
	ldr	r3, [r4, #60]
	mov	r2, r5
	ldr	r1, [r3, #28]
	ldr	r0, [r3, #24]
	bl	P_PointOnLineSide
.LVL468:
	mov	r9, r0
.LVL469:
	.loc 1 1151 0
	mov	r0, #0
.LVL470:
	ldr	r2, [r5, #12]
	ldr	r3, [r5, #16]
	mov	r1, r0
	bl	R_PointToAngle2
.LVL471:
	.loc 1 1152 0
	cmp	r9, #1
	.loc 1 1151 0
	mov	r7, r0
.LVL472:
	.loc 1 1153 0
	addeq	r7, r0, #-2147483648
.LVL473:
	.loc 1 1154 0
	mov	r0, #0
	ldr	r2, [r4, #100]
	mov	r1, r0
	ldr	r3, [r4, #104]
	bl	R_PointToAngle2
.LVL474:
	.loc 1 1160 0
	ldrb	r3, [r6]	@ zero_extendqisi2
	.loc 1 1164 0
	ldr	r1, [r4, #104]
	.loc 1 1160 0
	cmp	r3, #6
	.loc 1 1161 0
	addhi	r0, r0, #10
.LVL475:
	.loc 1 1163 0
	rsb	r5, r7, r0
.LVL476:
	.loc 1 1164 0
	ldr	r0, [r4, #100]
.LVL477:
	bl	P_AproxDistance
.LVL478:
	.loc 1 1165 0
	sub	r3, r5, #536870913
	cmn	r3, #-1073741822
	movhi	r3, #0
	movls	r3, #1
	tst	r8, r3
	.loc 1 1164 0
	ldr	r6, .L584+4
	.loc 1 1165 0
	bne	.L581
	.loc 1 1176 0
	cmp	r5, #-2147483648
	.loc 1 1177 0
	addhi	r5, r5, #-2147483648
.LVL479:
	.loc 1 1183 0
	ldr	r2, .L584+12
	.loc 1 1182 0
	mov	r5, r5, lsr #19
.LVL480:
	.loc 1 1183 0
	add	r5, r5, #2048
	ldr	r3, [r2, r5, asl #2]
	.loc 1 1181 0
	mov	r5, r7, lsr #19
.LVL481:
.LBB578:
.LBB579:
	.loc 2 72 0
	smull	r0, r1, r0, r3
.LVL482:
.LBE579:
.LBE578:
	.loc 1 1184 0
	add	ip, r5, #2048
.LBB582:
.LBB580:
	.loc 2 72 0
	mov	r3, r0, lsr #16
.LVL483:
.LBE580:
.LBE582:
	.loc 1 1184 0
	ldr	r0, [r2, ip, asl #2]
	.loc 1 1185 0
	ldr	r2, [r2, r5, asl #2]
.LBB583:
.LBB581:
	.loc 2 72 0
	orr	r3, r3, r1, asl #16
.LVL484:
.LBE581:
.LBE583:
.LBB584:
.LBB585:
	smull	r0, r1, r3, r0
.LVL485:
.LBE585:
.LBE584:
.LBB589:
.LBB590:
	smull	r2, r3, r3, r2
.LVL486:
.LBE590:
.LBE589:
.LBB594:
.LBB586:
	mov	r0, r0, lsr #16
.LBE586:
.LBE594:
.LBB595:
.LBB591:
	mov	r2, r2, lsr #16
.LBE591:
.LBE595:
.LBB596:
.LBB587:
	orr	r0, r0, r1, asl #16
.LBE587:
.LBE596:
.LBB597:
.LBB592:
	orr	r2, r2, r3, asl #16
.LBE592:
.LBE597:
.LBB598:
.LBB588:
	str	r0, [r4, #100]
.LBE588:
.LBE598:
.LBB599:
.LBB593:
	str	r2, [r4, #104]
	ldmfd	sp!, {r3, r4, r5, r6, r7, r8, r9, pc}
.LVL487:
.L542:
.LBE593:
.LBE599:
	.loc 1 1129 0
	mov	r3, #0
	str	r3, [r4, #104]
	ldmfd	sp!, {r3, r4, r5, r6, r7, r8, r9, pc}
.LVL488:
.L539:
.LBB600:
	.loc 1 1116 0
	cmp	r3, #7
	bls	.L582
	.loc 1 1113 0
	ldr	r3, .L584+8
	.loc 1 1115 0
	ldr	r4, .L584+4
	.loc 1 1113 0
	ldr	r3, [r3]
	cmp	r3, #0
	beq	.L540
	.loc 1 1115 0
	ldr	r3, [r4, #60]
	.loc 1 1114 0
	ldr	r2, [r3, #156]
	cmp	r2, #0
	beq	.L540
	.loc 1 1115 0
	ldr	r2, .L584+16
	ldr	r2, [r2]
	cmp	r2, #0
	beq	.L540
	.loc 1 1116 0 discriminator 3
	ldr	r3, [r3, #180]
	cmp	r3, #59392
	bgt	.L541
	b	.L540
.L582:
.LBE600:
	.loc 1 1120 0
	ldrb	r3, [r5, #48]	@ zero_extendqisi2
	ldr	r4, .L584+4
.LVL489:
	cmp	r3, #0
	beq	.L542
	b	.L583
.LVL490:
.L544:
	.loc 1 1142 0
	mov	r3, #0
	str	r3, [r4, #100]
	ldmfd	sp!, {r3, r4, r5, r6, r7, r8, r9, pc}
.L580:
	.loc 1 1108 0 discriminator 3
	mov	r1, #0
	bl	P_GetFriction
.LVL491:
	.loc 1 1107 0 discriminator 3
	cmp	r0, #59392
	ble	.L540
.L541:
.LVL492:
	.loc 1 1120 0
	ldrb	r3, [r5, #48]	@ zero_extendqisi2
	cmp	r3, #0
	beq	.L549
	.loc 1 1133 0
	cmp	r3, #1
	movne	r8, #1
	bne	.L553
	.loc 1 1135 0 discriminator 1
	ldr	r3, [r4, #100]
.LVL493:
	ldr	r2, [r4, #104]
.LBB601:
.LBB602:
	.loc 2 59 0 discriminator 1
	mov	lr, r3, asr #31
.LVL494:
.LBE602:
.LBE601:
.LBB605:
.LBB606:
	mov	ip, r2, asr #31
.LVL495:
	.loc 2 60 0 discriminator 1
	eor	r1, ip, r2
.LBE606:
.LBE605:
.LBB608:
.LBB603:
	eor	r0, lr, r3
.LBE603:
.LBE608:
.LBB609:
.LBB607:
	rsb	r1, ip, r1
.LBE607:
.LBE609:
.LBB610:
.LBB604:
	rsb	r0, lr, r0
.LBE604:
.LBE610:
	.loc 1 1135 0 discriminator 1
	cmp	r0, r1
	ldr	ip, .L584+4
.LVL496:
	ble	.L544
	.loc 1 1137 0
	add	r3, r3, r3, lsr #31
.LVL497:
	mov	r3, r3, asr #1
	rsb	r3, r3, #0
	.loc 1 1138 0
	add	r2, r2, r2, lsr #31
.LVL498:
	mov	r2, r2, asr #1
	.loc 1 1137 0
	str	r3, [ip, #100]
	.loc 1 1139 0
	ldr	r0, [ip, #60]
	mov	r1, #34
	.loc 1 1187 0
	ldmfd	sp!, {r3, r4, r5, r6, r7, r8, r9, lr}
	.cfi_remember_state
	.cfi_restore 14
	.cfi_restore 9
	.cfi_restore 8
	.cfi_restore 7
	.cfi_restore 6
	.cfi_restore 5
	.cfi_restore 4
	.cfi_restore 3
	.cfi_def_cfa_offset 0
.LVL499:
	.loc 1 1138 0
	str	r2, [ip, #104]
	.loc 1 1139 0
	b	S_StartSound
.LVL500:
.L549:
	.cfi_restore_state
	.loc 1 1122 0 discriminator 1
	ldr	r3, [r4, #104]
.LVL501:
	ldr	r2, [r4, #100]
.LBB611:
.LBB612:
	.loc 2 59 0 discriminator 1
	mov	lr, r3, asr #31
.LVL502:
.LBE612:
.LBE611:
.LBB615:
.LBB616:
	mov	ip, r2, asr #31
.LVL503:
	.loc 2 60 0 discriminator 1
	eor	r1, ip, r2
.LBE616:
.LBE615:
.LBB618:
.LBB613:
	eor	r0, lr, r3
.LBE613:
.LBE618:
.LBB619:
.LBB617:
	rsb	r1, ip, r1
.LBE617:
.LBE619:
.LBB620:
.LBB614:
	rsb	r0, lr, r0
.LBE614:
.LBE620:
	.loc 1 1122 0 discriminator 1
	cmp	r0, r1
	ldr	ip, .L584+4
.LVL504:
	ble	.L542
	.loc 1 1125 0
	add	r3, r3, r3, lsr #31
.LVL505:
	mov	r3, r3, asr #1
	rsb	r3, r3, #0
	.loc 1 1124 0
	add	r2, r2, r2, lsr #31
.LVL506:
	mov	r2, r2, asr #1
	.loc 1 1125 0
	str	r3, [ip, #104]
	.loc 1 1126 0
	ldr	r0, [ip, #60]
	mov	r1, #34
	.loc 1 1187 0
	ldmfd	sp!, {r3, r4, r5, r6, r7, r8, r9, lr}
	.cfi_remember_state
	.cfi_restore 14
	.cfi_restore 9
	.cfi_restore 8
	.cfi_restore 7
	.cfi_restore 6
	.cfi_restore 5
	.cfi_restore 4
	.cfi_restore 3
	.cfi_def_cfa_offset 0
.LVL507:
	.loc 1 1124 0
	str	r2, [ip, #100]
	.loc 1 1126 0
	b	S_StartSound
.LVL508:
.L581:
	.cfi_restore_state
	.loc 1 1168 0
	add	r2, r0, r0, lsr #31
	.loc 1 1169 0
	mov	r1, #34
	ldr	r0, [r6, #60]
.LVL509:
	.loc 1 1167 0
	rsb	r5, r5, r7
.LVL510:
	.loc 1 1168 0
	mov	r4, r2, asr #1
.LVL511:
	.loc 1 1170 0
	mov	r5, r5, lsr #19
.LVL512:
	.loc 1 1169 0
	bl	S_StartSound
.LVL513:
	.loc 1 1171 0
	ldr	r3, .L584+12
	add	r2, r5, #2048
	ldr	r0, [r3, r2, asl #2]
.LVL514:
	.loc 1 1172 0
	ldr	r2, [r3, r5, asl #2]
.LVL515:
.LBB621:
.LBB622:
	.loc 2 72 0
	smull	r0, r1, r4, r0
.LVL516:
.LBE622:
.LBE621:
.LBB626:
.LBB627:
	smull	r2, r3, r4, r2
.LVL517:
.LBE627:
.LBE626:
.LBB631:
.LBB623:
	mov	r0, r0, lsr #16
.LBE623:
.LBE631:
.LBB632:
.LBB628:
	mov	r2, r2, lsr #16
.LBE628:
.LBE632:
.LBB633:
.LBB624:
	orr	r0, r0, r1, asl #16
.LBE624:
.LBE633:
.LBB634:
.LBB629:
	orr	r2, r2, r3, asl #16
.LBE629:
.LBE634:
.LBB635:
.LBB625:
	str	r0, [r6, #100]
.LBE625:
.LBE635:
.LBB636:
.LBB630:
	str	r2, [r6, #104]
.LBE630:
.LBE636:
	.loc 1 1172 0
	ldmfd	sp!, {r3, r4, r5, r6, r7, r8, r9, pc}
.L585:
	.align	2
.L584:
	.word	compatibility_level
	.word	.LANCHOR0
	.word	variable_friction
	.word	finesine
	.word	onground
	.cfi_endproc
.LFE18:
	.size	P_HitSlideLine, .-P_HitSlideLine
	.align	2
	.global	P_SlideMove
	.type	P_SlideMove, %function
P_SlideMove:
.LFB20:
	.loc 1 1255 0
	.cfi_startproc
	@ args = 0, pretend = 0, frame = 8
	@ frame_needed = 0, uses_anonymous_args = 0
.LVL518:
	.loc 1 1258 0
	mov	r3, #2
	.loc 1 1255 0
	stmfd	sp!, {r4, r5, r6, r7, r8, r9, r10, fp, lr}
	.cfi_def_cfa_offset 36
	.cfi_offset 4, -36
	.cfi_offset 5, -32
	.cfi_offset 6, -28
	.cfi_offset 7, -24
	.cfi_offset 8, -20
	.cfi_offset 9, -16
	.cfi_offset 10, -12
	.cfi_offset 11, -8
	.cfi_offset 14, -4
	mov	r4, r0
.LBB637:
	.loc 1 1281 0
	mov	r7, #1
.LBE637:
	.loc 1 1258 0
	ldr	r5, .L615
	.loc 1 1255 0
	sub	sp, sp, #20
	.cfi_def_cfa_offset 56
	ldr	r6, .L615+4
.LBB703:
	.loc 1 1279 0
	ldr	r10, .L615+8
.LBE703:
	.loc 1 1258 0
	str	r3, [sp, #12]
	str	r0, [r5, #60]
.LVL519:
.L587:
.LBB704:
	.loc 1 1269 0
	ldr	r2, [r4, #88]
	.loc 1 1270 0
	ldr	r1, [r4, #80]
	ldr	r9, [r4, #24]
	.loc 1 1274 0
	ldr	r3, [r4, #92]
	.loc 1 1275 0
	ldr	r8, [r4, #28]
	.loc 1 1269 0
	cmp	r2, #0
	.loc 1 1270 0
	addgt	fp, r9, r1
.LVL520:
	.loc 1 1272 0
	rsble	fp, r1, r9
.LVL521:
	.loc 1 1270 0
	rsbgt	r9, r1, r9
.LVL522:
	.loc 1 1272 0
	addle	r9, r9, r1
.LVL523:
	.loc 1 1274 0
	cmp	r3, #0
	.loc 1 1275 0
	addgt	ip, r8, r1
.LVL524:
	.loc 1 1277 0
	rsble	ip, r1, r8
.LVL525:
	.loc 1 1275 0
	rsbgt	r8, r1, r8
.LVL526:
	.loc 1 1277 0
	addle	r8, r8, r1
.LVL527:
	.loc 1 1281 0
	add	r3, ip, r3
	mov	r1, ip
	add	r2, fp, r2
	str	r7, [sp]
	str	r6, [sp, #4]
	mov	r0, fp
	str	ip, [sp, #8]
	.loc 1 1279 0
	str	r10, [r5, #64]
	.loc 1 1281 0
	bl	P_PathTraverse
.LVL528:
	.loc 1 1283 0
	ldr	r2, [r4, #88]
	ldr	r3, [r4, #92]
	ldr	ip, [sp, #8]
	add	r2, r9, r2
	add	r3, ip, r3
	mov	r1, ip
	str	r7, [sp]
	str	r6, [sp, #4]
	mov	r0, r9
	bl	P_PathTraverse
.LVL529:
	.loc 1 1285 0
	ldr	r2, [r4, #88]
	ldr	r3, [r4, #92]
	add	r2, fp, r2
	str	r7, [sp]
	str	r6, [sp, #4]
	mov	r0, fp
	add	r3, r8, r3
	mov	r1, r8
	bl	P_PathTraverse
.LVL530:
	.loc 1 1290 0
	ldr	r2, [r5, #64]
	cmp	r2, r10
	beq	.L594
	.loc 1 1317 0
	sub	r2, r2, #2048
	ldr	r3, .L615
	cmp	r2, #0
	str	r2, [r3, #64]
	ble	.L597
.LBB638:
	.loc 1 1319 0
	ldr	r8, [r4, #88]
.LVL531:
	.loc 1 1320 0
	ldr	r0, [r4, #92]
.LVL532:
.LBB639:
.LBB640:
	.loc 2 72 0
	smull	r8, r9, r8, r2
.LVL533:
.LBE640:
.LBE639:
.LBB643:
.LBB644:
	smull	r0, r1, r2, r0
.LVL534:
.LBE644:
.LBE643:
	.loc 1 1324 0
	ldr	lr, [r4, #24]
.LBB647:
.LBB645:
	.loc 2 72 0
	mov	r3, r0, lsr #16
.LBE645:
.LBE647:
	.loc 1 1324 0
	ldr	r2, [r4, #28]
.LVL535:
.LBB648:
.LBB641:
	.loc 2 72 0
	mov	ip, r8, lsr #16
.LBE641:
.LBE648:
.LBB649:
.LBB646:
	orr	r3, r3, r1, asl #16
.LBE646:
.LBE649:
.LBB650:
.LBB642:
	orr	ip, ip, r9, asl #16
.LBE642:
.LBE650:
	.loc 1 1324 0
	add	r2, r2, r3
	add	r1, lr, ip
	mov	r0, r4
	mov	r3, #1
	bl	P_TryMove
.LVL536:
	cmp	r0, #0
	beq	.L594
	ldr	r3, .L615
	ldr	r2, [r3, #64]
.L597:
.LBE638:
	.loc 1 1331 0
	rsb	r2, r2, #63488
	.loc 1 1333 0
	cmp	r2, #65536
	.loc 1 1331 0
	str	r2, [r5, #64]
	.loc 1 1333 0
	ble	.L598
	.loc 1 1334 0
	mov	r2, #65536
	ldr	r3, .L615
	str	r2, [r3, #64]
	mov	r2, #65536
	mov	r3, #0
.L599:
.LVL537:
.LBB651:
.LBB652:
	.loc 2 72 0
	ldr	ip, [r4, #92]
.LBE652:
.LBE651:
.LBB660:
.LBB661:
	ldr	fp, [r4, #88]
.LVL538:
.LBE661:
.LBE660:
.LBB669:
.LBB653:
	mul	r8, ip, r3
.LBE653:
.LBE669:
.LBB670:
.LBB662:
	mul	lr, fp, r3
	mov	r1, fp, asr #31
.LBE662:
.LBE670:
.LBB671:
.LBB654:
	mov	r9, ip, asr #31
.LVL539:
.LBE654:
.LBE671:
.LBB672:
.LBB663:
	mla	lr, r2, r1, lr
.LBE663:
.LBE672:
.LBB673:
.LBB655:
	mla	r8, r2, r9, r8
.LBE655:
.LBE673:
.LBB674:
.LBB664:
	umull	r0, r1, fp, r2
.LBE664:
.LBE674:
.LBB675:
.LBB656:
	umull	r2, r3, ip, r2
.LBE656:
.LBE675:
.LBB676:
.LBB665:
	add	r1, lr, r1
.LBE665:
.LBE676:
.LBB677:
.LBB657:
	add	r3, r8, r3
.LBE657:
.LBE677:
.LBB678:
.LBB666:
	mov	ip, r0, lsr #16
.LBE666:
.LBE678:
.LBB679:
.LBB658:
	mov	r2, r2, lsr #16
	orr	r2, r2, r3, asl #16
.LBE658:
.LBE679:
.LBB680:
.LBB667:
	orr	ip, ip, r1, asl #16
.LBE667:
.LBE680:
	.loc 1 1342 0
	ldr	r0, [r5, #68]
.LBB681:
.LBB659:
	.loc 2 72 0
	str	r2, [r5, #104]
.LBE659:
.LBE681:
.LBB682:
.LBB668:
	str	ip, [r5, #100]
.LVL540:
.LBE668:
.LBE682:
	.loc 1 1342 0
	bl	P_HitSlideLine
.LVL541:
	.loc 1 1349 0
	ldr	r2, [r4, #156]
	.loc 1 1344 0
	ldr	r1, [r5, #100]
	.loc 1 1345 0
	ldr	r3, [r5, #104]
	.loc 1 1349 0
	cmp	r2, #0
	.loc 1 1344 0
	str	r1, [r4, #88]
	.loc 1 1345 0
	str	r3, [r4, #92]
	.loc 1 1349 0
	beq	.L601
	.loc 1 1349 0 is_stmt 0 discriminator 1
	ldr	r0, [r2]
	cmp	r0, r4
	beq	.L613
.L601:
.LBE704:
	.loc 1 1357 0 is_stmt 1
	ldr	r0, [r4, #24]
	ldr	r2, [r4, #28]
	add	r1, r1, r0
	add	r2, r3, r2
	mov	r0, r4
	mov	r3, #1
	bl	P_TryMove
.LVL542:
	cmp	r0, #0
	bne	.L586
.LVL543:
.LBB705:
	.loc 1 1264 0
	ldr	r3, [sp, #12]
	cmp	r3, #1
	bne	.L605
.LVL544:
.L594:
.LDL2:
	.loc 1 1307 0
	ldr	r3, [r4, #92]
	ldr	r2, [r4, #28]
	mov	r0, r4
	add	r2, r2, r3
	ldr	r1, [r4, #24]
	mov	r3, #1
	bl	P_TryMove
.LVL545:
	cmp	r0, #0
	beq	.L614
.L586:
.LBE705:
	.loc 1 1358 0
	add	sp, sp, #20
	.cfi_remember_state
	.cfi_def_cfa_offset 36
	@ sp needed
	ldmfd	sp!, {r4, r5, r6, r7, r8, r9, r10, fp, pc}
.LVL546:
.L598:
	.cfi_restore_state
.LBB706:
	.loc 1 1336 0
	cmp	r2, #0
	ble	.L586
	mov	r3, r2, asr #31
	b	.L599
.LVL547:
.L605:
	mov	r3, #1
.LVL548:
	str	r3, [sp, #12]
.LVL549:
	b	.L587
.LVL550:
.L614:
	.loc 1 1308 0
	ldr	r3, [r4, #88]
	ldr	r1, [r4, #24]
	mov	r0, r4
	add	r1, r1, r3
	ldr	r2, [r4, #28]
	mov	r3, #1
	bl	P_TryMove
.LVL551:
	cmp	r0, #0
	bne	.L586
	.loc 1 1309 0
	ldr	r3, .L615+12
	ldrb	r3, [r3]	@ zero_extendqisi2
	cmp	r3, #8
	.loc 1 1310 0
	streq	r0, [r4, #92]
	streq	r0, [r4, #88]
.LBE706:
	.loc 1 1358 0
	add	sp, sp, #20
	.cfi_remember_state
	.cfi_def_cfa_offset 36
	@ sp needed
	ldmfd	sp!, {r4, r5, r6, r7, r8, r9, r10, fp, pc}
.LVL552:
.L613:
	.cfi_restore_state
.LBB707:
	.loc 1 1351 0
	ldr	r0, [r2, #32]
.LVL553:
.LBB683:
.LBB684:
	.loc 2 59 0
	mov	ip, r1, asr #31
.LBE684:
.LBE683:
.LBB687:
.LBB688:
	mov	lr, r0, asr #31
.LVL554:
	.loc 2 60 0
	eor	r0, r0, lr
.LVL555:
.LBE688:
.LBE687:
.LBB690:
.LBB685:
	eor	r8, ip, r1
.LBE685:
.LBE690:
.LBB691:
.LBB689:
	rsb	r0, lr, r0
.LBE689:
.LBE691:
.LBB692:
.LBB686:
	rsb	ip, ip, r8
.LBE686:
.LBE692:
	.loc 1 1351 0
	cmp	r0, ip
	.loc 1 1353 0
	ldr	r0, [r2, #36]
.LVL556:
.LBB693:
.LBB694:
	.loc 2 59 0
	mov	ip, r3, asr #31
.LBE694:
.LBE693:
.LBB697:
.LBB698:
	mov	lr, r0, asr #31
.LVL557:
	.loc 2 60 0
	eor	r0, r0, lr
.LVL558:
.LBE698:
.LBE697:
.LBB700:
.LBB695:
	eor	r8, ip, r3
.LBE695:
.LBE700:
.LBB701:
.LBB699:
	rsb	r0, lr, r0
.LBE699:
.LBE701:
.LBB702:
.LBB696:
	rsb	ip, ip, r8
.LBE696:
.LBE702:
	.loc 1 1352 0
	strgt	r1, [r2, #32]
.LVL559:
	.loc 1 1353 0
	cmp	r0, ip
	.loc 1 1354 0
	strgt	r3, [r2, #36]
.LVL560:
	b	.L601
.L616:
	.align	2
.L615:
	.word	.LANCHOR0
	.word	PTR_SlideTraverse
	.word	65537
	.word	compatibility_level
.LBE707:
	.cfi_endproc
.LFE20:
	.size	P_SlideMove, .-P_SlideMove
	.align	2
	.global	P_AimLineAttack
	.type	P_AimLineAttack, %function
P_AimLineAttack:
.LFB23:
	.loc 1 1601 0
	.cfi_startproc
	@ args = 8, pretend = 0, frame = 0
	@ frame_needed = 0, uses_anonymous_args = 0
.LVL561:
	mov	ip, r0
	stmfd	sp!, {r4, r5, r6, r7, r8, r9, r10, fp, lr}
	.cfi_def_cfa_offset 36
	.cfi_offset 4, -36
	.cfi_offset 5, -32
	.cfi_offset 6, -28
	.cfi_offset 7, -24
	.cfi_offset 8, -20
	.cfi_offset 9, -16
	.cfi_offset 10, -12
	.cfi_offset 11, -8
	.cfi_offset 14, -4
	.loc 1 1623 0
	mov	r3, #3
	.loc 1 1601 0
	mov	r5, r2
	.loc 1 1618 0
	mov	r6, #0
	.loc 1 1614 0
	mov	r7, #40960
	.loc 1 1610 0
	ldr	r4, [ip, #84]
	ldr	lr, [ip, #32]
	.loc 1 1605 0
	mov	r1, r1, lsr #19
.LVL562:
	.loc 1 1608 0
	ldr	r0, .L621
.LVL563:
	add	r2, r1, #2048
.LVL564:
	.loc 1 1609 0
	ldr	r9, [r0, r1, asl #2]
	.loc 1 1601 0
	sub	sp, sp, #12
	.cfi_def_cfa_offset 48
	.loc 1 1608 0
	ldr	r2, [r0, r2, asl #2]
	.loc 1 1609 0
	ldr	r1, [ip, #28]
.LVL565:
	.loc 1 1608 0
	ldr	r0, [ip, #24]
	.loc 1 1617 0
	ldr	r8, .L621+4
	.loc 1 1610 0
	add	lr, lr, r4, asr #1
	.loc 1 1623 0
	ldr	r4, .L621+8
	str	r3, [sp]
	.loc 1 1608 0
	mov	r3, r5, asr #16
.LVL566:
	.loc 1 1623 0
	str	r4, [sp, #4]
	mla	r2, r2, r3, r0
.LVL567:
	.loc 1 1601 0
	ldrd	r10, [sp, #48]
	.loc 1 1606 0
	ldr	r4, .L621+12
	.loc 1 1623 0
	mla	r3, r9, r3, r1
.LVL568:
	.loc 1 1617 0
	str	r5, [r8]
	.loc 1 1610 0
	ldr	r9, .L621+16
	.loc 1 1618 0
	ldr	r5, .L621+20
.LVL569:
	.loc 1 1615 0
	ldr	r8, .L621+24
	.loc 1 1610 0
	add	lr, lr, #524288
	str	lr, [r9]
	.loc 1 1606 0
	str	ip, [r4, #40]
	.loc 1 1614 0
	str	r7, [r4, #36]
	.loc 1 1615 0
	str	r8, [r4, #32]
	.loc 1 1621 0
	strd	r10, [r4, #48]
	.loc 1 1618 0
	str	r6, [r5]
	.loc 1 1623 0
	bl	P_PathTraverse
.LVL570:
	.loc 1 1625 0
	ldr	r0, [r5]
	cmp	r0, r6
	.loc 1 1626 0
	ldrne	r0, [r4, #56]
	.loc 1 1629 0
	add	sp, sp, #12
	.cfi_def_cfa_offset 36
	@ sp needed
	ldmfd	sp!, {r4, r5, r6, r7, r8, r9, r10, fp, pc}
.L622:
	.align	2
.L621:
	.word	finesine
	.word	attackrange
	.word	PTR_AimTraverse
	.word	.LANCHOR0
	.word	shootz
	.word	linetarget
	.word	-40960
	.cfi_endproc
.LFE23:
	.size	P_AimLineAttack, .-P_AimLineAttack
	.align	2
	.global	P_LineAttack
	.type	P_LineAttack, %function
P_LineAttack:
.LFB24:
	.loc 1 1644 0
	.cfi_startproc
	@ args = 4, pretend = 0, frame = 0
	@ frame_needed = 0, uses_anonymous_args = 0
.LVL571:
	mov	ip, r0
	stmfd	sp!, {r4, r5, r6, r7, r8, r9, r10, fp, lr}
	.cfi_def_cfa_offset 36
	.cfi_offset 4, -36
	.cfi_offset 5, -32
	.cfi_offset 6, -28
	.cfi_offset 7, -24
	.cfi_offset 8, -20
	.cfi_offset 9, -16
	.cfi_offset 10, -12
	.cfi_offset 11, -8
	.cfi_offset 14, -4
	mov	r5, r2
	.loc 1 1657 0
	mov	r10, #3
	.loc 1 1648 0
	mov	r1, r1, lsr #19
.LVL572:
	.loc 1 1651 0
	ldr	r0, .L625
.LVL573:
	.loc 1 1653 0
	ldr	r6, [ip, #84]
	ldr	lr, [ip, #32]
	.loc 1 1651 0
	add	r2, r1, #2048
.LVL574:
	.loc 1 1652 0
	ldr	fp, [r0, r1, asl #2]
	.loc 1 1651 0
	ldr	r2, [r0, r2, asl #2]
	.loc 1 1652 0
	ldr	r1, [ip, #28]
.LVL575:
	.loc 1 1651 0
	ldr	r0, [ip, #24]
	.loc 1 1649 0
	ldr	r4, .L625+4
	.loc 1 1644 0
	sub	sp, sp, #12
	.cfi_def_cfa_offset 48
	.loc 1 1653 0
	add	lr, lr, r6, asr #1
	.loc 1 1651 0
	mov	r6, r5, asr #16
.LVL576:
	.loc 1 1657 0
	mla	r2, r2, r6, r0
.LVL577:
	.loc 1 1655 0
	str	r3, [r4, #56]
	.loc 1 1649 0
	str	ip, [r4, #40]
	.loc 1 1657 0
	mla	r3, fp, r6, r1
.LVL578:
	.loc 1 1650 0
	ldr	ip, [sp, #48]
.LVL579:
	.loc 1 1657 0
	ldr	r9, .L625+8
	.loc 1 1650 0
	ldr	r6, .L625+12
	.loc 1 1654 0
	ldr	r8, .L625+16
	.loc 1 1653 0
	ldr	r7, .L625+20
	add	lr, lr, #524288
	.loc 1 1657 0
	str	r10, [sp]
	str	r9, [sp, #4]
	.loc 1 1650 0
	str	ip, [r6]
	.loc 1 1654 0
	str	r5, [r8]
	.loc 1 1653 0
	str	lr, [r7]
	.loc 1 1657 0
	bl	P_PathTraverse
.LVL580:
	.loc 1 1658 0
	add	sp, sp, #12
	.cfi_def_cfa_offset 36
	@ sp needed
	ldmfd	sp!, {r4, r5, r6, r7, r8, r9, r10, fp, pc}
.LVL581:
.L626:
	.align	2
.L625:
	.word	finesine
	.word	.LANCHOR0
	.word	PTR_ShootTraverse
	.word	la_damage
	.word	attackrange
	.word	shootz
	.cfi_endproc
.LFE24:
	.size	P_LineAttack, .-P_LineAttack
	.align	2
	.global	P_UseLines
	.type	P_UseLines, %function
P_UseLines:
.LFB27:
	.loc 1 1731 0
	.cfi_startproc
	@ args = 0, pretend = 0, frame = 0
	@ frame_needed = 0, uses_anonymous_args = 0
.LVL582:
	stmfd	sp!, {r4, r5, r6, r7, r8, r9, lr}
	.cfi_def_cfa_offset 28
	.cfi_offset 4, -28
	.cfi_offset 5, -24
	.cfi_offset 6, -20
	.cfi_offset 7, -16
	.cfi_offset 8, -12
	.cfi_offset 9, -8
	.cfi_offset 14, -4
	.loc 1 1753 0
	mov	r6, #1
	.loc 1 1738 0
	ldr	ip, [r0]
	.loc 1 1744 0
	ldr	r1, .L633
	.loc 1 1740 0
	ldr	r3, [ip, #44]
	.loc 1 1742 0
	ldr	r5, [ip, #24]
	.loc 1 1740 0
	mov	r3, r3, lsr #19
.LVL583:
	.loc 1 1744 0
	add	r2, r3, #2048
	ldr	r7, [r1, r2, asl #2]
	.loc 1 1745 0
	ldr	r4, [r1, r3, asl #2]
	.loc 1 1743 0
	ldr	r8, [ip, #28]
.LVL584:
	.loc 1 1753 0
	ldr	lr, .L633+4
	.loc 1 1731 0
	sub	sp, sp, #12
	.cfi_def_cfa_offset 40
	.loc 1 1744 0
	add	r7, r5, r7, asl #6
.LVL585:
	.loc 1 1745 0
	add	r4, r8, r4, asl #6
.LVL586:
	.loc 1 1738 0
	ldr	r9, .L633+8
	.loc 1 1753 0
	mov	r2, r7
	mov	r3, r4
.LVL587:
	mov	r0, r5
.LVL588:
	mov	r1, r8
	stmia	sp, {r6, lr}
.LVL589:
	.loc 1 1738 0
	str	ip, [r9]
	.loc 1 1753 0
	bl	P_PathTraverse
.LVL590:
	cmp	r0, #0
	beq	.L627
	.loc 1 1754 0
	ldr	r3, .L633+12
	ldr	r3, [r3, #84]
	cmp	r3, #0
	beq	.L632
.L627:
	.loc 1 1756 0
	add	sp, sp, #12
	.cfi_remember_state
	.cfi_def_cfa_offset 28
	@ sp needed
	ldmfd	sp!, {r4, r5, r6, r7, r8, r9, pc}
.LVL591:
.L632:
	.cfi_restore_state
	.loc 1 1754 0 discriminator 1
	ldr	ip, .L633+16
	str	r6, [sp]
	mov	r0, r5
	mov	r1, r8
	mov	r2, r7
	mov	r3, r4
	str	ip, [sp, #4]
	bl	P_PathTraverse
.LVL592:
	cmp	r0, #0
	bne	.L627
	.loc 1 1755 0
	mov	r1, #81
	ldr	r0, [r9]
	.loc 1 1756 0
	add	sp, sp, #12
	.cfi_def_cfa_offset 28
	@ sp needed
	ldmfd	sp!, {r4, r5, r6, r7, r8, r9, lr}
	.cfi_restore 14
	.cfi_restore 9
	.cfi_restore 8
	.cfi_restore 7
	.cfi_restore 6
	.cfi_restore 5
	.cfi_restore 4
	.cfi_def_cfa_offset 0
.LVL593:
	.loc 1 1755 0
	b	S_StartSound
.LVL594:
.L634:
	.align	2
.L633:
	.word	finesine
	.word	PTR_UseTraverse
	.word	usething
	.word	comp
	.word	PTR_NoWayTraverse
	.cfi_endproc
.LFE27:
	.size	P_UseLines, .-P_UseLines
	.align	2
	.global	P_RadiusAttack
	.type	P_RadiusAttack, %function
P_RadiusAttack:
.LFB29:
	.loc 1 1824 0
	.cfi_startproc
	@ args = 0, pretend = 0, frame = 0
	@ frame_needed = 0, uses_anonymous_args = 0
.LVL595:
	.loc 1 1836 0
	ldr	r3, .L646
	ldr	ip, [r0, #28]
	.loc 1 1824 0
	stmfd	sp!, {r4, r5, r6, r7, r8, lr}
	.cfi_def_cfa_offset 24
	.cfi_offset 4, -24
	.cfi_offset 5, -20
	.cfi_offset 6, -16
	.cfi_offset 7, -12
	.cfi_offset 8, -8
	.cfi_offset 14, -4
	.loc 1 1835 0
	mov	lr, r2, asl #16
.LVL596:
	.loc 1 1836 0
	ldr	r5, [r3]
	.loc 1 1838 0
	ldr	r4, .L646+4
	.loc 1 1836 0
	add	r8, ip, lr
	.loc 1 1838 0
	ldr	r3, [r0, #24]
	.loc 1 1837 0
	rsb	ip, lr, ip
	.loc 1 1836 0
	rsb	r8, r5, r8
	.loc 1 1838 0
	ldr	r7, [r4]
	.loc 1 1837 0
	rsb	r5, r5, ip
	.loc 1 1838 0
	add	r6, r3, lr
	.loc 1 1840 0
	ldr	ip, .L646+8
	.loc 1 1836 0
	mov	r8, r8, asr #23
.LVL597:
	.loc 1 1837 0
	mov	r5, r5, asr #23
.LVL598:
	.loc 1 1839 0
	rsb	r3, lr, r3
	.loc 1 1838 0
	rsb	r6, r7, r6
	.loc 1 1844 0
	cmp	r8, r5
	.loc 1 1839 0
	rsb	r7, r7, r3
	.loc 1 1842 0
	str	r2, [ip, #96]
	.loc 1 1840 0
	str	r0, [ip, #88]
	.loc 1 1841 0
	str	r1, [ip, #92]
	.loc 1 1838 0
	mov	r6, r6, asr #23
.LVL599:
	.loc 1 1839 0
	mov	r7, r7, asr #23
.LVL600:
	.loc 1 1844 0
	blt	.L645
.LVL601:
.L639:
	.loc 1 1845 0 discriminator 1
	cmp	r6, r7
	movge	r4, r7
	blt	.L641
.LVL602:
.L638:
	.loc 1 1846 0 discriminator 3
	mov	r0, r4
	mov	r1, r5
	.loc 1 1845 0 discriminator 3
	add	r4, r4, #1
.LVL603:
	.loc 1 1846 0 discriminator 3
	ldr	r2, .L646+12
	bl	P_BlockThingsIterator
.LVL604:
	.loc 1 1845 0 discriminator 3
	cmp	r6, r4
	bge	.L638
.LVL605:
.L641:
	.loc 1 1844 0
	add	r5, r5, #1
.LVL606:
	cmp	r8, r5
	bge	.L639
	ldmfd	sp!, {r4, r5, r6, r7, r8, pc}
.LVL607:
.L645:
	ldmfd	sp!, {r4, r5, r6, r7, r8, pc}
.L647:
	.align	2
.L646:
	.word	bmaporgy
	.word	bmaporgx
	.word	.LANCHOR0
	.word	PIT_RadiusAttack
	.cfi_endproc
.LFE29:
	.size	P_RadiusAttack, .-P_RadiusAttack
	.align	2
	.global	P_ChangeSector
	.type	P_ChangeSector, %function
P_ChangeSector:
.LFB31:
	.loc 1 1941 0
	.cfi_startproc
	@ args = 0, pretend = 0, frame = 0
	@ frame_needed = 0, uses_anonymous_args = 0
.LVL608:
	stmfd	sp!, {r3, r4, r5, r6, r7, lr}
	.cfi_def_cfa_offset 24
	.cfi_offset 3, -24
	.cfi_offset 4, -20
	.cfi_offset 5, -16
	.cfi_offset 6, -12
	.cfi_offset 7, -8
	.cfi_offset 14, -4
	.loc 1 1945 0
	mov	r3, #0
	.loc 1 1954 0
	ldr	r5, [r0, #44]
.LVL609:
	ldr	r2, [r0, #48]
	.loc 1 1945 0
	ldr	r7, .L661
	.loc 1 1954 0
	cmp	r5, r2
	.loc 1 1945 0
	str	r3, [r7, #80]
	.loc 1 1946 0
	str	r1, [r7, #84]
	.loc 1 1954 0
	bgt	.L655
	mov	r6, r0
	ldr	r3, [r0, #36]
.LVL610:
.L651:
	.loc 1 1955 0
	ldr	r4, [r6, #40]
.LVL611:
	cmp	r4, r3
	bgt	.L654
.L653:
	.loc 1 1956 0 discriminator 3
	mov	r1, r4
	mov	r0, r5
	ldr	r2, .L661+4
	bl	P_BlockThingsIterator
.LVL612:
	.loc 1 1955 0 discriminator 3
	ldr	r3, [r6, #36]
	add	r4, r4, #1
.LVL613:
	cmp	r3, r4
	bge	.L653
	ldr	r2, [r6, #48]
.L654:
	.loc 1 1954 0
	add	r5, r5, #1
.LVL614:
	cmp	r2, r5
	bge	.L651
	ldr	r0, [r7, #80]
	ldmfd	sp!, {r3, r4, r5, r6, r7, pc}
.LVL615:
.L655:
	mov	r0, r3
.LVL616:
	.loc 1 1959 0
	ldmfd	sp!, {r3, r4, r5, r6, r7, pc}
.L662:
	.align	2
.L661:
	.word	.LANCHOR0
	.word	PIT_ChangeSector
	.cfi_endproc
.LFE31:
	.size	P_ChangeSector, .-P_ChangeSector
	.align	2
	.global	P_CheckSector
	.type	P_CheckSector, %function
P_CheckSector:
.LFB32:
	.loc 1 1969 0
	.cfi_startproc
	@ args = 0, pretend = 0, frame = 0
	@ frame_needed = 0, uses_anonymous_args = 0
.LVL617:
	.loc 1 1972 0
	ldr	r3, .L686
	ldr	r2, [r3, #40]
	cmp	r2, #0
	bne	.L685
	.loc 1 1988 0
	ldr	ip, [r0, #144]
.LVL618:
	.loc 1 1969 0
	stmfd	sp!, {r4, r5, r6, lr}
	.cfi_def_cfa_offset 16
	.cfi_offset 4, -16
	.cfi_offset 5, -12
	.cfi_offset 6, -8
	.cfi_offset 14, -4
	.loc 1 1975 0
	ldr	r5, .L686+4
	.loc 1 1988 0
	cmp	ip, #0
	mov	r3, r1
	mov	r4, r0
	.loc 1 1975 0
	str	r2, [r5, #80]
	.loc 1 1976 0
	str	r1, [r5, #84]
	.loc 1 1988 0
	movne	r3, ip
	beq	.L668
.LVL619:
.L667:
	.loc 1 1989 0 discriminator 3
	str	r2, [r3, #24]
	.loc 1 1988 0 discriminator 3
	ldr	r3, [r3, #20]
.LVL620:
	cmp	r3, #0
	bne	.L667
.LVL621:
.L668:
	.loc 1 1995 0
	mov	r6, #1
.LVL622:
.L666:
	.loc 1 1992 0
	cmp	ip, #0
	beq	.L669
	.loc 1 1993 0
	ldr	r3, [ip, #24]
	cmp	r3, #0
	mov	r3, ip
	bne	.L672
	b	.L670
.LVL623:
.L674:
	ldr	r2, [r3, #24]
	cmp	r2, #0
	beq	.L670
.L672:
	.loc 1 1992 0 discriminator 2
	ldr	r3, [r3, #20]
.LVL624:
	cmp	r3, #0
	bne	.L674
.LVL625:
.L669:
	.loc 1 2002 0
	ldr	r0, [r5, #80]
	.loc 1 2003 0
	ldmfd	sp!, {r4, r5, r6, pc}
.LVL626:
.L670:
	.loc 1 1996 0
	ldr	r0, [r3, #4]
	.loc 1 1995 0
	str	r6, [r3, #24]
	.loc 1 1996 0
	ldrd	r2, [r0, #120]
	mov	r3, #0
.LVL627:
	and	r2, r2, #16
	orrs	r3, r2, r3
	bne	.L666
	.loc 1 1997 0
	bl	PIT_ChangeSector
.LVL628:
	ldr	ip, [r4, #144]
	b	.L666
.LVL629:
.L685:
	.cfi_def_cfa_offset 0
	.cfi_restore 4
	.cfi_restore 5
	.cfi_restore 6
	.cfi_restore 14
	.loc 1 1973 0
	b	P_ChangeSector
.LVL630:
.L687:
	.align	2
.L686:
	.word	comp
	.word	.LANCHOR0
	.cfi_endproc
.LFE32:
	.size	P_CheckSector, .-P_CheckSector
	.align	2
	.global	P_AddSecnode
	.type	P_AddSecnode, %function
P_AddSecnode:
.LFB36:
	.loc 1 2033 0
	.cfi_startproc
	@ args = 0, pretend = 0, frame = 0
	@ frame_needed = 0, uses_anonymous_args = 0
.LVL631:
	stmfd	sp!, {r3, r4, r5, r6, r7, lr}
	.cfi_def_cfa_offset 24
	.cfi_offset 3, -24
	.cfi_offset 4, -20
	.cfi_offset 5, -16
	.cfi_offset 6, -12
	.cfi_offset 7, -8
	.cfi_offset 14, -4
	.loc 1 2037 0
	subs	r6, r2, #0
	.loc 1 2033 0
	mov	r5, r0
.LVL632:
	mov	r7, r1
	.loc 1 2037 0
	beq	.L689
	.loc 1 2039 0
	ldr	r3, [r6]
	mov	r4, r6
	cmp	r3, r0
	bne	.L692
	b	.L690
.LVL633:
.L694:
	ldr	r3, [r4]
	cmp	r3, r5
	beq	.L690
.LVL634:
.L692:
	.loc 1 2044 0
	ldr	r4, [r4, #12]
.LVL635:
	.loc 1 2037 0
	cmp	r4, #0
	bne	.L694
.LVL636:
.LBB712:
.LBB713:
.LBB714:
.LBB715:
	.loc 1 2015 0
	ldr	r0, .L707
.LVL637:
	bl	Z_BMalloc
.LVL638:
.LBE715:
.LBE714:
	.loc 1 2053 0
	str	r4, [r0, #24]
	.loc 1 2056 0
	stmia	r0, {r5, r7}
	.loc 1 2057 0
	str	r4, [r0, #8]
	.loc 1 2058 0
	str	r6, [r0, #12]
	.loc 1 2060 0
	str	r0, [r6, #8]
.LVL639:
.L697:
	.loc 1 2064 0
	mov	r2, #0
	.loc 1 2065 0
	ldr	r3, [r5, #144]
	.loc 1 2064 0
	str	r2, [r0, #16]
	.loc 1 2066 0
	cmp	r3, r2
	.loc 1 2065 0
	str	r3, [r0, #20]
	.loc 1 2067 0
	strne	r0, [r3, #16]
	.loc 1 2068 0
	str	r0, [r5, #144]
	ldmfd	sp!, {r3, r4, r5, r6, r7, pc}
.LVL640:
.L690:
.LBE713:
.LBE712:
	.loc 1 2041 0
	str	r7, [r4, #4]
	.loc 1 2042 0
	mov	r0, r6
.LVL641:
	ldmfd	sp!, {r3, r4, r5, r6, r7, pc}
.LVL642:
.L689:
.LBB719:
.LBB718:
.LBB717:
.LBB716:
	.loc 1 2015 0
	ldr	r0, .L707
.LVL643:
	bl	Z_BMalloc
.LVL644:
.LBE716:
.LBE717:
	.loc 1 2053 0
	str	r6, [r0, #24]
	.loc 1 2056 0
	stmia	r0, {r5, r7}
	.loc 1 2057 0
	str	r6, [r0, #8]
	.loc 1 2058 0
	str	r6, [r0, #12]
	b	.L697
.L708:
	.align	2
.L707:
	.word	.LANCHOR1
.LBE718:
.LBE719:
	.cfi_endproc
.LFE36:
	.size	P_AddSecnode, .-P_AddSecnode
	.align	2
	.global	PIT_GetSectors
	.type	PIT_GetSectors, %function
PIT_GetSectors:
.LFB39:
	.loc 1 2136 0
	.cfi_startproc
	@ args = 0, pretend = 0, frame = 0
	@ frame_needed = 0, uses_anonymous_args = 0
.LVL645:
	stmfd	sp!, {r3, r4, r5, lr}
	.cfi_def_cfa_offset 16
	.cfi_offset 3, -16
	.cfi_offset 4, -12
	.cfi_offset 5, -8
	.cfi_offset 14, -4
	.loc 1 2137 0
	ldr	r3, .L718
	ldr	r2, [r0, #40]
	ldr	r1, [r3, #12]
	cmp	r1, r2
	ble	.L711
	.loc 1 2137 0 is_stmt 0 discriminator 1
	ldr	r1, [r3, #8]
	ldr	r2, [r0, #44]
	cmp	r1, r2
	bge	.L711
	.loc 1 2138 0 is_stmt 1
	ldr	r1, [r3]
	ldr	r2, [r0, #36]
	cmp	r1, r2
	ble	.L711
	.loc 1 2139 0
	ldr	r1, [r3, #4]
	ldr	r2, [r0, #32]
	cmp	r1, r2
	bge	.L711
	mov	r4, r0
	.loc 1 2143 0
	mov	r0, r3
.LVL646:
	mov	r1, r4
	bl	P_BoxOnLineSide
.LVL647:
	cmn	r0, #1
	beq	.L717
.LVL648:
.L711:
	.loc 1 2168 0
	mov	r0, #1
	ldmfd	sp!, {r3, r4, r5, pc}
.LVL649:
.L717:
.LBB722:
.LBB723:
	.loc 1 2153 0
	ldr	r5, .L718+4
	ldr	r0, [r4, #52]
	ldr	r2, [r5, #108]
	ldr	r1, [r5]
	bl	P_AddSecnode
.LVL650:
	mov	r2, r0
	.loc 1 2164 0
	ldr	r0, [r4, #56]
	.loc 1 2153 0
	str	r2, [r5, #108]
	.loc 1 2164 0
	cmp	r0, #0
	beq	.L711
	ldr	r1, [r4, #52]
	cmp	r0, r1
	beq	.L711
	.loc 1 2165 0
	ldr	r1, [r5]
	bl	P_AddSecnode
.LVL651:
	str	r0, [r5, #108]
	b	.L711
.L719:
	.align	2
.L718:
	.word	tmbbox
	.word	.LANCHOR0
.LBE723:
.LBE722:
	.cfi_endproc
.LFE39:
	.size	PIT_GetSectors, .-PIT_GetSectors
	.align	2
	.global	P_DelSecnode
	.type	P_DelSecnode, %function
P_DelSecnode:
.LFB37:
	.loc 1 2078 0
	.cfi_startproc
	@ args = 0, pretend = 0, frame = 0
	@ frame_needed = 0, uses_anonymous_args = 0
.LVL652:
	.loc 1 2084 0
	cmp	r0, #0
	bxeq	lr
	.loc 1 2090 0
	ldr	r3, [r0, #8]
.LVL653:
	.loc 1 2078 0
	stmfd	sp!, {r4, lr}
	.cfi_def_cfa_offset 8
	.cfi_offset 4, -8
	.cfi_offset 14, -4
	.loc 1 2091 0
	ldr	r4, [r0, #12]
.LVL654:
	.loc 1 2100 0
	ldr	r2, [r0, #16]
.LVL655:
	.loc 1 2092 0
	cmp	r3, #0
	.loc 1 2093 0
	strne	r4, [r3, #12]
	.loc 1 2094 0
	cmp	r4, #0
	.loc 1 2095 0
	strne	r3, [r4, #8]
	.loc 1 2102 0
	cmp	r2, #0
	.loc 1 2101 0
	ldr	r3, [r0, #20]
.LVL656:
	.loc 1 2105 0
	ldreq	r1, [r0]
	.loc 1 2103 0
	strne	r3, [r2, #20]
	.loc 1 2105 0
	streq	r3, [r1, #144]
	.loc 1 2106 0
	cmp	r3, #0
	mov	r1, r0
.LVL657:
	.loc 1 2107 0
	strne	r2, [r3, #16]
.LBB724:
.LBB725:
	.loc 1 2022 0
	ldr	r0, .L739
.LVL658:
	bl	Z_BFree
.LVL659:
.LBE725:
.LBE724:
	.loc 1 2091 0
	mov	r0, r4
	.loc 1 2115 0
	ldmfd	sp!, {r4, pc}
.L740:
	.align	2
.L739:
	.word	.LANCHOR1
	.cfi_endproc
.LFE37:
	.size	P_DelSecnode, .-P_DelSecnode
	.align	2
	.global	P_DelSeclist
	.type	P_DelSeclist, %function
P_DelSeclist:
.LFB38:
	.loc 1 2121 0
	.cfi_startproc
	@ args = 0, pretend = 0, frame = 0
	@ frame_needed = 0, uses_anonymous_args = 0
.LVL660:
	.loc 1 2122 0
	cmp	r0, #0
	bxeq	lr
	.loc 1 2121 0
	stmfd	sp!, {r3, lr}
	.cfi_def_cfa_offset 8
	.cfi_offset 3, -8
	.cfi_offset 14, -4
.L743:
	.loc 1 2123 0
	bl	P_DelSecnode
.LVL661:
	.loc 1 2122 0
	cmp	r0, #0
	bne	.L743
	ldmfd	sp!, {r3, pc}
	.cfi_endproc
.LFE38:
	.size	P_DelSeclist, .-P_DelSeclist
	.align	2
	.global	P_CreateSecNodeList
	.type	P_CreateSecNodeList, %function
P_CreateSecNodeList:
.LFB40:
	.loc 1 2177 0
	.cfi_startproc
	@ args = 0, pretend = 0, frame = 16
	@ frame_needed = 0, uses_anonymous_args = 0
.LVL662:
	stmfd	sp!, {r4, r5, r6, r7, r8, r9, r10, fp, lr}
	.cfi_def_cfa_offset 36
	.cfi_offset 4, -36
	.cfi_offset 5, -32
	.cfi_offset 6, -28
	.cfi_offset 7, -24
	.cfi_offset 8, -20
	.cfi_offset 9, -16
	.cfi_offset 10, -12
	.cfi_offset 11, -8
	.cfi_offset 14, -4
	.loc 1 2185 0
	ldr	r8, .L776
	.loc 1 2177 0
	mov	r10, r0
	.loc 1 2185 0
	ldr	r0, [r8]
.LVL663:
	.loc 1 2177 0
	sub	sp, sp, #20
	.cfi_def_cfa_offset 56
	.loc 1 2185 0
	str	r0, [sp, #12]
.LVL664:
	.loc 1 2186 0
	ldr	r0, [r8, #4]
.LVL665:
	.loc 1 2193 0
	ldr	r3, [r8, #108]
	.loc 1 2186 0
	str	r0, [sp, #4]
.LVL666:
	ldr	r0, [r8, #8]
.LVL667:
	.loc 1 2194 0
	cmp	r3, #0
	.loc 1 2186 0
	str	r0, [sp, #8]
.LVL668:
	.loc 1 2196 0
	movne	ip, #0
	.loc 1 2194 0
	movne	r0, r3
.LVL669:
	beq	.L753
.LVL670:
.L752:
	.loc 1 2196 0
	str	ip, [r0, #4]
	.loc 1 2197 0
	ldr	r0, [r0, #12]
.LVL671:
	.loc 1 2194 0
	cmp	r0, #0
	bne	.L752
.LVL672:
.L753:
	.loc 1 2212 0
	ldr	r0, .L776+4
	.loc 1 2205 0
	ldr	ip, [r10, #80]
	.loc 1 2212 0
	ldr	r7, [r0]
	.loc 1 2210 0
	ldr	lr, .L776+8
	.loc 1 2214 0
	ldr	r0, .L776+12
	.loc 1 2208 0
	rsb	r5, ip, r1
	.loc 1 2207 0
	add	r6, r1, ip
	.loc 1 2205 0
	ldr	r9, .L776+16
	.loc 1 2212 0
	rsb	r4, r7, r5
	.loc 1 2214 0
	ldr	r0, [r0]
	.loc 1 2213 0
	rsb	r7, r7, r6
	.loc 1 2202 0
	str	r1, [r8, #4]
	.loc 1 2210 0
	ldr	r1, [lr]
.LVL673:
	.loc 1 2212 0
	mov	r4, r4, asr #23
.LVL674:
	.loc 1 2213 0
	mov	r7, r7, asr #23
.LVL675:
	.loc 1 2203 0
	str	r2, [r8, #8]
	.loc 1 2208 0
	str	r5, [r9, #8]
	.loc 1 2205 0
	add	r5, ip, r2
	.loc 1 2206 0
	rsb	r2, ip, r2
.LVL676:
	.loc 1 2217 0
	cmp	r4, r7
	.loc 1 2210 0
	add	r1, r1, #1
	.loc 1 2205 0
	str	r5, [r9]
	.loc 1 2215 0
	rsb	r5, r0, r5
	.loc 1 2214 0
	rsb	r0, r0, r2
	.loc 1 2207 0
	str	r6, [r9, #12]
	.loc 1 2206 0
	str	r2, [r9, #4]
	.loc 1 2200 0
	str	r10, [r8]
	.loc 1 2214 0
	mov	r6, r0, asr #23
.LVL677:
	.loc 1 2215 0
	mov	r5, r5, asr #23
.LVL678:
	.loc 1 2210 0
	str	r1, [lr]
	.loc 1 2193 0
	movgt	r2, r3
	.loc 1 2217 0
	bgt	.L751
.LVL679:
.L755:
	.loc 1 2218 0 discriminator 1
	cmp	r6, r5
	movle	fp, r6
	bgt	.L757
.LVL680:
.L754:
	.loc 1 2219 0 discriminator 3
	mov	r1, fp
	mov	r0, r4
	ldr	r2, .L776+20
	.loc 1 2218 0 discriminator 3
	add	fp, fp, #1
.LVL681:
	.loc 1 2219 0 discriminator 3
	bl	P_BlockLinesIterator
.LVL682:
	.loc 1 2218 0 discriminator 3
	cmp	r5, fp
	bge	.L754
.LVL683:
.L757:
	.loc 1 2217 0
	add	r4, r4, #1
.LVL684:
	cmp	r7, r4
	bge	.L755
	ldr	r2, [r8, #108]
.L751:
	.loc 1 2223 0
	ldr	r3, [r10, #64]
	mov	r1, r10
	ldr	r0, [r3]
	bl	P_AddSecnode
.LVL685:
	.loc 1 2229 0
	cmp	r0, #0
	.loc 1 2223 0
	mov	r3, r0
	str	r0, [r8, #108]
.LVL686:
	.loc 1 2233 0
	ldrne	r4, .L776
.LVL687:
	.loc 1 2229 0
	bne	.L764
	b	.L765
.LVL688:
.L763:
	cmp	r3, #0
	beq	.L765
.L764:
	.loc 1 2231 0
	ldr	r2, [r3, #4]
	cmp	r2, #0
	.loc 1 2238 0
	ldrne	r3, [r3, #12]
.LVL689:
	.loc 1 2231 0
	bne	.L763
	.loc 1 2233 0
	ldr	r2, [r8, #108]
	.loc 1 2235 0
	mov	r0, r3
	.loc 1 2233 0
	cmp	r3, r2
	.loc 1 2234 0
	ldreq	r3, [r3, #12]
	streq	r3, [r4, #108]
	.loc 1 2235 0
	bl	P_DelSecnode
.LVL690:
	mov	r3, r0
.LVL691:
	.loc 1 2229 0
	cmp	r3, #0
	bne	.L764
.LVL692:
.L765:
	.loc 1 2249 0
	ldr	r3, .L776+24
.LVL693:
	ldrb	r3, [r3]	@ zero_extendqisi2
	sub	r2, r3, #7
	cmp	r2, #6
	bls	.L748
	.loc 1 2251 0
	ldr	r1, [sp, #12]
	.loc 1 2254 0
	cmp	r3, #6
	.loc 1 2251 0
	str	r1, [r8]
	ldr	r3, .L776
	.loc 1 2254 0
	bhi	.L748
	.loc 1 2256 0
	ldr	ip, [sp, #4]
	ldr	r2, [sp, #8]
	.loc 1 2257 0
	cmp	r1, #0
	.loc 1 2256 0
	str	ip, [r3, #4]
	str	r2, [r3, #8]
	.loc 1 2257 0
	beq	.L748
	.loc 1 2258 0
	ldr	r3, [r1, #80]
	add	r0, r2, r3
	.loc 1 2259 0
	rsb	r2, r3, r2
	stmia	r9, {r0, r2}
	.loc 1 2260 0
	add	r1, ip, r3
	.loc 1 2261 0
	rsb	r3, r3, ip
	.loc 1 2260 0
	str	r1, [r9, #12]
	.loc 1 2261 0
	str	r3, [r9, #8]
.L748:
	.loc 1 2264 0
	add	sp, sp, #20
	.cfi_def_cfa_offset 36
	@ sp needed
	ldmfd	sp!, {r4, r5, r6, r7, r8, r9, r10, fp, pc}
.LVL694:
.L777:
	.align	2
.L776:
	.word	.LANCHOR0
	.word	bmaporgx
	.word	validcount
	.word	bmaporgy
	.word	tmbbox
	.word	PIT_GetSectors
	.word	compatibility_level
	.cfi_endproc
.LFE40:
	.size	P_CreateSecNodeList, .-P_CreateSecNodeList
	.align	2
	.global	P_MapStart
	.type	P_MapStart, %function
P_MapStart:
.LFB41:
	.loc 1 2268 0
	.cfi_startproc
	@ args = 0, pretend = 0, frame = 0
	@ frame_needed = 0, uses_anonymous_args = 0
	@ link register save eliminated.
	.loc 1 2269 0
	ldr	r3, .L780
	ldr	r3, [r3]
	cmp	r3, #0
	bxeq	lr
	.loc 1 2269 0 is_stmt 0 discriminator 1
	ldr	r0, .L780+4
	b	I_Error
.LVL695:
.L781:
	.align	2
.L780:
	.word	.LANCHOR0
	.word	.LC2
	.cfi_endproc
.LFE41:
	.size	P_MapStart, .-P_MapStart
	.align	2
	.global	P_MapEnd
	.type	P_MapEnd, %function
P_MapEnd:
.LFB42:
	.loc 1 2271 0 is_stmt 1
	.cfi_startproc
	@ args = 0, pretend = 0, frame = 0
	@ frame_needed = 0, uses_anonymous_args = 0
	@ link register save eliminated.
	.loc 1 2272 0
	mov	r2, #0
	ldr	r3, .L783
	str	r2, [r3]
	bx	lr
.L784:
	.align	2
.L783:
	.word	.LANCHOR0
	.cfi_endproc
.LFE42:
	.size	P_MapEnd, .-P_MapEnd
	.global	secnodezone
	.comm	usething,4,4
	.comm	attackrange,4,4
	.comm	la_damage,4,4
	.comm	shootz,4,4
	.comm	linetarget,4,4
	.global	sector_list
	.comm	numspechit,4,4
	.comm	spechit,4,4
	.comm	floorline,4,4
	.comm	blockline,4,4
	.comm	ceilingline,4,4
	.comm	tmdropoffz,4,4
	.comm	tmceilingz,4,4
	.comm	tmfloorz,4,4
	.comm	tmbbox,16,4
	.comm	felldown,4,4
	.comm	floatok,4,4
	.data
	.align	2
	.set	.LANCHOR1,. + 0
	.type	secnodezone, %object
	.size	secnodezone, 20
secnodezone:
	.word	0
	.word	28
	.word	32
	.word	4
	.word	.LC3
	.section	.rodata.str1.4,"aMS",%progbits,1
	.align	2
.LC0:
	.ascii	"PTR_SlideTraverse: not a line?\000"
	.space	1
.LC1:
	.ascii	"SpechitOverrun: Warning: unable to emulate an overr"
	.ascii	"un where numspechit=%i\012\000"
	.space	1
.LC2:
	.ascii	"P_MapStart: tmthing set!\000"
	.space	3
.LC3:
	.ascii	"SecNodes\000"
	.bss
	.align	3
	.set	.LANCHOR0,. + 0
	.type	tmthing, %object
	.size	tmthing, 4
tmthing:
	.space	4
	.type	tmx, %object
	.size	tmx, 4
tmx:
	.space	4
	.type	tmy, %object
	.size	tmy, 4
tmy:
	.space	4
	.type	telefrag, %object
	.size	telefrag, 4
telefrag:
	.space	4
	.type	pe_x, %object
	.size	pe_x, 4
pe_x:
	.space	4
	.type	pe_y, %object
	.size	pe_y, 4
pe_y:
	.space	4
	.type	ls_x, %object
	.size	ls_x, 4
ls_x:
	.space	4
	.type	ls_y, %object
	.size	ls_y, 4
ls_y:
	.space	4
	.type	bottomslope, %object
	.size	bottomslope, 4
bottomslope:
	.space	4
	.type	topslope, %object
	.size	topslope, 4
topslope:
	.space	4
	.type	shootthing, %object
	.size	shootthing, 4
shootthing:
	.space	4
	.space	4
	.type	aim_flags_mask, %object
	.size	aim_flags_mask, 8
aim_flags_mask:
	.space	8
	.type	aimslope, %object
	.size	aimslope, 4
aimslope:
	.space	4
	.type	slidemo, %object
	.size	slidemo, 4
slidemo:
	.space	4
	.type	bestslidefrac, %object
	.size	bestslidefrac, 4
bestslidefrac:
	.space	4
	.type	bestslideline, %object
	.size	bestslideline, 4
bestslideline:
	.space	4
	.type	tmunstuck, %object
	.size	tmunstuck, 4
tmunstuck:
	.space	4
	.type	spechit_max, %object
	.size	spechit_max, 4
spechit_max:
	.space	4
	.type	nofit, %object
	.size	nofit, 4
nofit:
	.space	4
	.type	crushchange, %object
	.size	crushchange, 4
crushchange:
	.space	4
	.type	bombspot, %object
	.size	bombspot, 4
bombspot:
	.space	4
	.type	bombsource, %object
	.size	bombsource, 4
bombsource:
	.space	4
	.type	bombdamage, %object
	.size	bombdamage, 4
bombdamage:
	.space	4
	.type	tmxmove, %object
	.size	tmxmove, 4
tmxmove:
	.space	4
	.type	tmymove, %object
	.size	tmymove, 4
tmymove:
	.space	4
	.type	sector_list, %object
	.size	sector_list, 4
sector_list:
	.space	4
	.text
.Letext0:
	.file 3 "c:/devl/prboom3ds/src/z_zone.h"
	.file 4 "c:/devl/prboom3ds/src/doomdef.h"
	.file 5 "c:\\devkitpro\\devkitarm\\lib\\gcc\\arm-none-eabi\\4.9.2\\include\\stddef.h"
	.file 6 "c:/devl/prboom3ds/src/doomtype.h"
	.file 7 "c:/devl/prboom3ds/src/tables.h"
	.file 8 "c:/devl/prboom3ds/src/d_think.h"
	.file 9 "c:/devl/prboom3ds/src/info.h"
	.file 10 "c:/devl/prboom3ds/src/p_pspr.h"
	.file 11 "c:/devl/prboom3ds/src/doomdata.h"
	.file 12 "c:/devl/prboom3ds/src/p_mobj.h"
	.file 13 "c:/devl/prboom3ds/src/r_defs.h"
	.file 14 "c:/devl/prboom3ds/src/d_player.h"
	.file 15 "c:/devl/prboom3ds/src/d_ticcmd.h"
	.file 16 "c:/devl/prboom3ds/src/doomstat.h"
	.file 17 "c:/devl/prboom3ds/src/p_maputl.h"
	.file 18 "c:/devl/prboom3ds/src/sounds.h"
	.file 19 "c:/devl/prboom3ds/src/m_random.h"
	.file 20 "c:/devl/prboom3ds/src/m_bbox.h"
	.file 21 "c:/devl/prboom3ds/src/lprintf.h"
	.file 22 "c:/devl/prboom3ds/src/z_bmalloc.h"
	.file 23 "c:/devl/prboom3ds/src/r_state.h"
	.file 24 "c:/devl/prboom3ds/src/r_main.h"
	.file 25 "c:/devl/prboom3ds/src/p_setup.h"
	.file 26 "c:/devl/prboom3ds/src/p_inter.h"
	.file 27 "c:/devl/prboom3ds/src/p_spec.h"
	.file 28 "c:/devl/prboom3ds/src/s_sound.h"
	.file 29 "c:/devl/prboom3ds/src/p_map.h"