	.arch armv6k
	.fpu softvfp
	.eabi_attribute 23, 1
	.eabi_attribute 24, 1
	.eabi_attribute 25, 1
	.eabi_attribute 26, 1
	.eabi_attribute 30, 2
	.eabi_attribute 34, 1
	.eabi_attribute 18, 4
	.file	"p_spec.c"
	.text
.Ltext0:
	.cfi_sections	.debug_frame
	.align	2
	.global	T_Scroll
	.type	T_Scroll, %function
T_Scroll:
.LFB36:
	.file 1 "c:/devl/prboom3ds/src/p_spec.c"
	.loc 1 2608 0
	.cfi_startproc
	@ args = 0, pretend = 0, frame = 0
	@ frame_needed = 0, uses_anonymous_args = 0
.LVL0:
	.loc 1 2611 0
	ldr	r1, [r0, #36]
	.loc 1 2608 0
	stmfd	sp!, {r4, r5, r6, r7, r8, lr}
	.cfi_def_cfa_offset 24
	.cfi_offset 4, -24
	.cfi_offset 5, -20
	.cfi_offset 6, -16
	.cfi_offset 7, -12
	.cfi_offset 8, -8
	.cfi_offset 14, -4
	.loc 1 2611 0
	cmn	r1, #1
	.loc 1 2609 0
	ldr	r3, [r0, #24]
.LVL1:
	ldr	r2, [r0, #28]
.LVL2:
	.loc 1 2611 0
	beq	.L2
.LBB120:
	.loc 1 2613 0
	mov	lr, #196
	ldr	ip, .L33
	.loc 1 2615 0
	ldr	r4, [r0, #40]
	.loc 1 2613 0
	ldr	ip, [ip]
	mla	r1, lr, r1, ip
	ldr	ip, [r1, #12]
	ldr	r1, [r1, #16]
	add	r1, ip, r1
.LVL3:
	.loc 1 2615 0
	rsb	r4, r4, r1
.LVL4:
.LBB121:
.LBB122:
	.file 2 "c:/devl/prboom3ds/src/m_fixed.h"
	.loc 2 72 0
	smull	r6, r7, r3, r4
.LBE122:
.LBE121:
.LBB125:
.LBB126:
	smull	r4, r5, r4, r2
.LVL5:
.LBE126:
.LBE125:
.LBB129:
.LBB123:
	mov	r3, r6, lsr #16
.LVL6:
.LBE123:
.LBE129:
.LBB130:
.LBB127:
	mov	r2, r4, lsr #16
.LVL7:
.LBE127:
.LBE130:
	.loc 1 2616 0
	str	r1, [r0, #40]
.LVL8:
.LBB131:
.LBB124:
	.loc 2 72 0
	orr	r3, r3, r7, asl #16
.LVL9:
.LBE124:
.LBE131:
.LBB132:
.LBB128:
	orr	r2, r2, r5, asl #16
.LVL10:
.L2:
.LBE128:
.LBE132:
.LBE120:
	.loc 1 2622 0
	ldr	r1, [r0, #52]
	cmp	r1, #0
	beq	.L3
	.loc 1 2624 0
	ldr	ip, [r0, #44]
	.loc 1 2625 0
	ldr	r1, [r0, #48]
	.loc 1 2624 0
	add	r3, r3, ip
.LVL11:
	.loc 1 2625 0
	add	r2, r2, r1
.LVL12:
	.loc 1 2624 0
	str	r3, [r0, #44]
	.loc 1 2625 0
	str	r2, [r0, #48]
.L3:
	.loc 1 2628 0
	orrs	r1, r2, r3
	ldmeqfd	sp!, {r4, r5, r6, r7, r8, pc}
	.loc 1 2631 0
	ldrb	r1, [r0, #56]	@ zero_extendqisi2
	cmp	r1, #3
	ldrls	pc, [pc, r1, asl #2]
	b	.L1
.L7:
	.word	.L6
	.word	.L8
	.word	.L9
	.word	.L10
.LVL13:
.L1:
	ldmfd	sp!, {r4, r5, r6, r7, r8, pc}
.LVL14:
.L10:
.LBB133:
	.loc 1 2664 0
	mov	lr, #196
	ldr	ip, .L33
	ldr	r1, [r0, #32]
	ldr	ip, [ip]
	mla	r1, lr, r1, ip
.LVL15:
	.loc 1 2666 0
	ldr	r0, [r1, #128]
.LVL16:
	.loc 1 2665 0
	ldr	r8, [r1, #12]
.LVL17:
	.loc 1 2668 0
	cmn	r0, #1
	moveq	lr, #-2147483648
	beq	.L11
	.loc 1 2667 0
	mla	r0, lr, r0, ip
	ldr	lr, [r0, #12]
	.loc 1 2668 0
	cmp	r8, lr
	movge	lr, #-2147483648
.L11:
.LVL18:
	.loc 1 2670 0
	ldr	r1, [r1, #144]
.LVL19:
	cmp	r1, #0
	bne	.L17
	ldmfd	sp!, {r4, r5, r6, r7, r8, pc}
.LVL20:
.L32:
	.loc 1 2672 0
	cmp	r8, ip
	blt	.L15
.L16:
	.loc 1 2677 0
	ldr	r4, [r0, #88]
	.loc 1 2678 0
	ldr	ip, [r0, #92]
	.loc 1 2677 0
	add	r4, r4, r3
	.loc 1 2678 0
	add	ip, ip, r2
	.loc 1 2677 0
	str	r4, [r0, #88]
	.loc 1 2678 0
	str	ip, [r0, #92]
.L13:
	.loc 1 2670 0 discriminator 2
	ldr	r1, [r1, #20]
.LVL21:
	cmp	r1, #0
	beq	.L1
.LVL22:
.L17:
	.loc 1 2671 0
	mov	r7, #0
	ldr	r0, [r1, #4]
.LVL23:
	ldrd	r4, [r0, #120]
	and	r6, r4, #4096
	orrs	ip, r6, r7
	bne	.L13
	.loc 1 2672 0 discriminator 1
	mov	r5, #0
	and	r4, r4, #512
	.loc 1 2671 0 discriminator 1
	orrs	ip, r4, r5
	.loc 1 2672 0 discriminator 1
	ldr	ip, [r0, #32]
	.loc 1 2671 0 discriminator 1
	beq	.L32
.L15:
	.loc 1 2672 0 discriminator 1
	cmp	lr, ip
	ble	.L13
	b	.L16
.LVL24:
.L8:
	.loc 1 2646 0
	mov	ip, #196
	ldr	r1, .L33
	ldr	r0, [r0, #32]
.LVL25:
	ldr	r1, [r1]
	mla	r1, ip, r0, r1
.LVL26:
	.loc 1 2647 0
	ldr	ip, [r1, #160]
	.loc 1 2648 0
	ldr	r0, [r1, #164]
	.loc 1 2647 0
	add	r3, ip, r3
.LVL27:
	.loc 1 2648 0
	add	r2, r0, r2
.LVL28:
	.loc 1 2647 0
	str	r3, [r1, #160]
	.loc 1 2648 0
	str	r2, [r1, #164]
	.loc 1 2649 0
	ldmfd	sp!, {r4, r5, r6, r7, r8, pc}
.LVL29:
.L6:
	.loc 1 2640 0
	ldr	r1, [r0, #32]
	ldr	r0, .L33+4
.LVL30:
	add	r1, r1, r1, asl #4
	ldr	ip, [r0]
	mov	r1, r1, asl #2
	add	r4, ip, r1
.LVL31:
	.loc 1 2641 0
	ldr	lr, [ip, r1]
	.loc 1 2642 0
	ldr	r0, [r4, #4]
	.loc 1 2641 0
	add	r3, lr, r3
.LVL32:
	.loc 1 2642 0
	add	r2, r0, r2
.LVL33:
	.loc 1 2641 0
	str	r3, [ip, r1]
	.loc 1 2642 0
	str	r2, [r4, #4]
	.loc 1 2643 0
	ldmfd	sp!, {r4, r5, r6, r7, r8, pc}
.LVL34:
.L9:
	.loc 1 2652 0
	mov	ip, #196
	ldr	r1, .L33
	ldr	r0, [r0, #32]
.LVL35:
	ldr	r1, [r1]
	mla	r1, ip, r0, r1
.LVL36:
	.loc 1 2653 0
	ldr	ip, [r1, #168]
	.loc 1 2654 0
	ldr	r0, [r1, #172]
	.loc 1 2653 0
	add	r3, ip, r3
.LVL37:
	.loc 1 2654 0
	add	r2, r0, r2
.LVL38:
	.loc 1 2653 0
	str	r3, [r1, #168]
	.loc 1 2654 0
	str	r2, [r1, #172]
	.loc 1 2655 0
	ldmfd	sp!, {r4, r5, r6, r7, r8, pc}
.L34:
	.align	2
.L33:
	.word	sectors
	.word	sides
.LBE133:
	.cfi_endproc
.LFE36:
	.size	T_Scroll, .-T_Scroll
	.align	2
	.type	Add_Scroller, %function
Add_Scroller:
.LFB37:
	.loc 1 2707 0
	.cfi_startproc
	@ args = 8, pretend = 0, frame = 0
	@ frame_needed = 0, uses_anonymous_args = 0
.LVL39:
	stmfd	sp!, {r3, r4, r5, r6, r7, r8, r9, lr}
	.cfi_def_cfa_offset 32
	.cfi_offset 3, -32
	.cfi_offset 4, -28
	.cfi_offset 5, -24
	.cfi_offset 6, -20
	.cfi_offset 7, -16
	.cfi_offset 8, -12
	.cfi_offset 9, -8
	.cfi_offset 14, -4
	.loc 1 2707 0
	mov	r4, r3
	mov	r9, r0
	mov	r8, r1
	mov	r7, r2
	.loc 1 2708 0
	mov	r0, #60
.LVL40:
	mov	r1, #5
.LVL41:
	mov	r2, #0
.LVL42:
	.loc 1 2707 0
	ldr	r6, [sp, #36]
	ldr	r5, [sp, #32]
	.loc 1 2708 0
	bl	Z_Malloc
.LVL43:
	.loc 1 2714 0
	mov	r3, #0
	.loc 1 2709 0
	ldr	ip, .L41
	.loc 1 2715 0
	cmn	r4, #1
	.loc 1 2710 0
	strb	r9, [r0, #56]
	.loc 1 2711 0
	str	r8, [r0, #24]
	.loc 1 2712 0
	str	r7, [r0, #28]
	.loc 1 2713 0
	str	r6, [r0, #52]
	.loc 1 2715 0
	str	r4, [r0, #36]
	.loc 1 2709 0
	str	ip, [r0, #8]
	.loc 1 2714 0
	str	r3, [r0, #48]
	str	r3, [r0, #44]
	.loc 1 2715 0
	beq	.L36
	.loc 1 2717 0
	mov	r2, #196
	ldr	r3, .L41+4
	ldr	r3, [r3]
	mla	r4, r2, r4, r3
.LVL44:
	ldr	r3, [r4, #12]
	ldr	r2, [r4, #16]
	add	r3, r3, r2
	.loc 1 2716 0
	str	r3, [r0, #40]
.L36:
	.loc 1 2718 0
	str	r5, [r0, #32]
	.loc 1 2720 0
	ldmfd	sp!, {r3, r4, r5, r6, r7, r8, r9, lr}
	.cfi_restore 14
	.cfi_restore 9
	.cfi_restore 8
	.cfi_restore 7
	.cfi_restore 6
	.cfi_restore 5
	.cfi_restore 4
	.cfi_restore 3
	.cfi_def_cfa_offset 0
.LVL45:
	.loc 1 2719 0
	b	P_AddThinker
.LVL46:
.L42:
	.align	2
.L41:
	.word	T_Scroll
	.word	sectors
	.cfi_endproc
.LFE37:
	.size	Add_Scroller, .-Add_Scroller
	.align	2
	.type	Add_Pusher, %function
Add_Pusher:
.LFB43:
	.loc 1 3084 0
	.cfi_startproc
	@ args = 4, pretend = 0, frame = 0
	@ frame_needed = 0, uses_anonymous_args = 0
.LVL47:
	stmfd	sp!, {r3, r4, r5, r6, r7, r8, r9, lr}
	.cfi_def_cfa_offset 32
	.cfi_offset 3, -32
	.cfi_offset 4, -28
	.cfi_offset 5, -24
	.cfi_offset 6, -20
	.cfi_offset 7, -16
	.cfi_offset 8, -12
	.cfi_offset 9, -8
	.cfi_offset 14, -4
	.loc 1 3084 0
	mov	r9, r0
	mov	r6, r1
	mov	r5, r2
	.loc 1 3085 0
	mov	r1, #5
.LVL48:
	mov	r2, #0
.LVL49:
	mov	r0, #60
.LVL50:
	.loc 1 3084 0
	mov	r7, r3
	ldr	r8, [sp, #32]
	.loc 1 3085 0
	bl	Z_Malloc
.LVL51:
	mov	r4, r0
.LVL52:
	.loc 1 3087 0
	ldr	r3, .L49
	.loc 1 3090 0
	mov	r0, r6, asr #16
.LVL53:
	.loc 1 3091 0
	mov	r1, r5, asr #16
	.loc 1 3089 0
	strb	r9, [r4, #24]
	.loc 1 3090 0
	str	r0, [r4, #32]
	.loc 1 3091 0
	str	r1, [r4, #36]
	.loc 1 3088 0
	str	r7, [r4, #28]
	.loc 1 3087 0
	str	r3, [r4, #8]
	.loc 1 3092 0
	bl	P_AproxDistance
.LVL54:
	.loc 1 3093 0
	cmp	r7, #0
	.loc 1 3092 0
	str	r0, [r4, #40]
	.loc 1 3093 0
	beq	.L44
	.loc 1 3096 0
	ldr	r2, [r7, #24]
	.loc 1 3097 0
	ldr	r3, [r7, #28]
	.loc 1 3095 0
	mov	r0, r0, asl #17
	str	r0, [r4, #44]
	.loc 1 3096 0
	str	r2, [r4, #48]
	.loc 1 3097 0
	str	r3, [r4, #52]
.L44:
	.loc 1 3099 0
	str	r8, [r4, #56]
	.loc 1 3100 0
	mov	r0, r4
	.loc 1 3101 0
	ldmfd	sp!, {r3, r4, r5, r6, r7, r8, r9, lr}
	.cfi_restore 14
	.cfi_restore 9
	.cfi_restore 8
	.cfi_restore 7
	.cfi_restore 6
	.cfi_restore 5
	.cfi_restore 4
	.cfi_restore 3
	.cfi_def_cfa_offset 0
.LVL55:
	.loc 1 3100 0
	b	P_AddThinker
.LVL56:
.L50:
	.align	2
.L49:
	.word	T_Pusher
	.cfi_endproc
.LFE43:
	.size	Add_Pusher, .-Add_Pusher
	.global	__aeabi_uldivmod
	.align	2
	.type	PIT_PushThing, %function
PIT_PushThing:
.LFB44:
	.loc 1 3115 0
	.cfi_startproc
	@ args = 0, pretend = 0, frame = 8
	@ frame_needed = 0, uses_anonymous_args = 0
.LVL57:
	stmfd	sp!, {r4, r5, r6, r7, r8, r9, r10, fp, lr}
	.cfi_def_cfa_offset 36
	.cfi_offset 4, -36
	.cfi_offset 5, -32
	.cfi_offset 6, -28
	.cfi_offset 7, -24
	.cfi_offset 8, -20
	.cfi_offset 9, -16
	.cfi_offset 10, -12
	.cfi_offset 11, -8
	.cfi_offset 14, -4
	.loc 1 3117 0
	ldr	r3, .L75
	.loc 1 3115 0
	sub	sp, sp, #12
	.cfi_def_cfa_offset 48
	.loc 1 3117 0
	ldrb	r3, [r3]	@ zero_extendqisi2
	cmp	r3, #10
	bhi	.L52
	.loc 1 3118 0
	ldr	r2, [r0, #156]
	cmp	r2, #0
	beq	.L59
	.loc 1 3118 0 is_stmt 0 discriminator 1
	ldrd	r4, [r0, #120]
	mov	r5, #0
	and	r4, r4, #4608
	orrs	r2, r4, r5
	moveq	r6, #1
	movne	r6, #0
.L54:
	.loc 1 3117 0 is_stmt 1 discriminator 1
	cmp	r6, #0
	str	r3, [sp, #4]
	beq	.L59
.LBB134:
	.loc 1 3124 0
	ldr	r8, .L75+4
	.loc 1 3128 0
	ldr	r5, [r0, #24]
	.loc 1 3124 0
	ldr	r7, [r8]
	.loc 1 3128 0
	ldr	r6, [r0, #28]
	.loc 1 3124 0
	ldr	r10, [r7, #48]
.LVL58:
	.loc 1 3125 0
	ldr	r9, [r7, #52]
.LVL59:
	.loc 1 3128 0
	rsb	r5, r10, r5
	rsb	r6, r9, r6
	mov	r4, r0
	mov	r1, r6
	mov	r0, r5
.LVL60:
	bl	P_AproxDistance
.LVL61:
	.loc 1 3127 0
	ldr	ip, [r7, #40]
	sub	r0, ip, r0, asr #17
	mov	fp, r0, asl #8
.LVL62:
	.loc 1 3139 0
	cmp	fp, #0
	ble	.L59
	.loc 1 3139 0 is_stmt 0 discriminator 1
	ldr	r3, [sp, #4]
	cmp	r3, #10
	bls	.L61
.LBB135:
	.loc 1 3142 0 is_stmt 1
	mov	r6, r6, asr #16
	.loc 1 3143 0
	mul	r6, r6, r6
	.loc 1 3141 0
	mov	r5, r5, asr #16
.LVL63:
	.loc 1 3143 0
	mla	r5, r5, r5, r6
.LVL64:
	mov	r3, ip, asr #31
	mov	r1, r3, asl #23
	add	r2, r5, #1
	mov	r3, r2, asr #31
	orr	r1, r1, ip, lsr #9
	mov	r0, ip, asl #23
	bl	__aeabi_uldivmod
.LVL65:
.LBE135:
	.loc 1 3149 0
	subs	fp, r0, #0
	ble	.L59
.LVL66:
.L61:
	.loc 1 3149 0 is_stmt 0 discriminator 1
	ldr	r1, [r7, #28]
	mov	r0, r4
	bl	P_CheckSight
.LVL67:
	cmp	r0, #0
	bne	.L74
.LVL68:
.L59:
.LBE134:
	.loc 1 3160 0 is_stmt 1
	mov	r0, #1
	add	sp, sp, #12
	.cfi_remember_state
	.cfi_def_cfa_offset 36
	@ sp needed
	ldmfd	sp!, {r4, r5, r6, r7, r8, r9, r10, fp, pc}
.LVL69:
.L52:
	.cfi_restore_state
	.loc 1 3119 0
	ldr	r2, [r0, #132]
	cmp	r2, #0
	ble	.L55
	.loc 1 3119 0 is_stmt 0 discriminator 1
	ldr	r2, [r0, #108]
	ldr	r2, [r2, #12]
	cmp	r2, #0
	beq	.L55
	ldrd	r4, [r0, #120]
	.loc 1 3119 0
	mov	r6, r4, lsr #12
	orr	r6, r6, r5, asl #20
	eor	r6, r6, #1
	and	r6, r6, #1
	b	.L54
.L55:
	.loc 1 3119 0 discriminator 4
	mov	r7, #0
	ldrd	r4, [r0, #120]
	and	r6, r4, #4
	orrs	r2, r6, r7
	beq	.L59
	.loc 1 3119 0
	mov	r6, r4, lsr #12
	orr	r6, r6, r5, asl #20
	eor	r6, r6, #1
	and	r6, r6, #1
	b	.L54
.LVL70:
.L74:
.LBB142:
	.loc 1 3151 0 is_stmt 1
	mov	r2, r10
	mov	r3, r9
	ldr	r1, [r4, #28]
	ldr	r0, [r4, #24]
	bl	R_PointToAngle2
.LVL71:
	.loc 1 3152 0
	ldr	r3, [r8]
	.loc 1 3155 0
	ldr	ip, .L75+8
	.loc 1 3152 0
	ldr	r3, [r3, #28]
	.loc 1 3155 0
	ldr	r1, [r4, #88]
	.loc 1 3152 0
	ldrb	r3, [r3, #104]	@ zero_extendqisi2
	cmp	r3, #137
	.loc 1 3153 0
	addeq	r0, r0, #-2147483648
.LVL72:
	.loc 1 3154 0
	mov	r0, r0, lsr #19
.LVL73:
	.loc 1 3155 0
	add	r3, r0, #2048
	ldr	r2, [ip, r3, asl #2]
.LVL74:
.LBB136:
.LBB137:
	.loc 2 72 0
	smull	r2, r3, fp, r2
.LVL75:
	mov	r2, r2, lsr #16
	orr	r2, r2, r3, asl #16
.LBE137:
.LBE136:
	.loc 1 3155 0
	add	r3, r1, r2
.LVL76:
	str	r3, [r4, #88]
.LVL77:
	.loc 1 3156 0
	ldr	r0, [ip, r0, asl #2]
.LVL78:
	ldr	r3, [r4, #92]
.LBB138:
.LBB139:
	.loc 2 72 0
	smull	r0, r1, fp, r0
.LVL79:
	mov	r2, r0, lsr #16
.LBE139:
.LBE138:
.LBE142:
	.loc 1 3160 0
	mov	r0, #1
.LBB143:
.LBB141:
.LBB140:
	.loc 2 72 0
	orr	r2, r2, r1, asl #16
.LBE140:
.LBE141:
	.loc 1 3156 0
	add	r3, r3, r2
	str	r3, [r4, #92]
.LBE143:
	.loc 1 3160 0
	add	sp, sp, #12
	.cfi_def_cfa_offset 36
	@ sp needed
	ldmfd	sp!, {r4, r5, r6, r7, r8, r9, r10, fp, pc}
.LVL80:
.L76:
	.align	2
.L75:
	.word	compatibility_level
	.word	tmpusher
	.word	finesine
	.cfi_endproc
.LFE44:
	.size	PIT_PushThing, .-PIT_PushThing
	.align	2
	.global	T_Friction
	.type	T_Friction, %function
T_Friction:
.LFB41:
	.loc 1 2870 0
	.cfi_startproc
	@ args = 0, pretend = 0, frame = 0
	@ frame_needed = 0, uses_anonymous_args = 0
.LVL81:
	.loc 1 2875 0
	ldr	r3, .L99
	ldrb	r3, [r3]	@ zero_extendqisi2
	cmp	r3, #7
	bxls	lr
	.loc 1 2875 0 is_stmt 0 discriminator 1
	ldr	r3, .L99+4
	ldr	r3, [r3]
	cmp	r3, #0
	bxeq	lr
.LVL82:
.LBB146:
.LBB147:
	.loc 1 2878 0 is_stmt 1
	mov	ip, #196
	ldr	r3, .L99+8
	ldr	r2, [r0, #32]
	ldr	r3, [r3]
	mla	ip, ip, r2, r3
.LVL83:
	.loc 1 2883 0
	ldrh	r3, [ip, #190]
	tst	r3, #256
	bxeq	lr
	.loc 1 2896 0
	ldr	r3, [ip, #144]
.LVL84:
	.loc 1 2897 0
	cmp	r3, #0
	bxeq	lr
.LBE147:
.LBE146:
	.loc 1 2870 0
	stmfd	sp!, {r4, r5, lr}
	.cfi_def_cfa_offset 12
	.cfi_offset 4, -12
	.cfi_offset 5, -8
	.cfi_offset 14, -4
.L83:
.LBB149:
.LBB148:
	.loc 1 2899 0
	ldr	r2, [r3, #4]
.LVL85:
	.loc 1 2900 0
	ldr	r1, [r2, #156]
	cmp	r1, #0
	beq	.L80
	.loc 1 2901 0
	ldrd	r4, [r2, #120]
	mov	r5, #0
	and	r4, r4, #4608
	.loc 1 2900 0
	orrs	r1, r4, r5
	bne	.L80
	.loc 1 2901 0
	ldr	lr, [r2, #32]
	ldr	r1, [ip, #12]
	cmp	lr, r1
	bgt	.L80
	.loc 1 2904 0
	ldr	r1, [r2, #180]
	ldr	lr, [r0, #24]
	cmp	r1, #59392
	beq	.L82
	cmp	r1, lr
	ble	.L80
.L82:
	.loc 1 2908 0
	ldr	r1, [r0, #28]
	.loc 1 2907 0
	str	lr, [r2, #180]
	.loc 1 2908 0
	str	r1, [r2, #184]
.L80:
	.loc 1 2911 0
	ldr	r3, [r3, #20]
.LVL86:
	.loc 1 2897 0
	cmp	r3, #0
	bne	.L83
	ldmfd	sp!, {r4, r5, pc}
.L100:
	.align	2
.L99:
	.word	compatibility_level
	.word	variable_friction
	.word	sectors
.LBE148:
.LBE149:
	.cfi_endproc
.LFE41:
	.size	T_Friction, .-T_Friction
	.align	2
	.global	T_Pusher
	.type	T_Pusher, %function
T_Pusher:
.LFB45:
	.loc 1 3169 0
	.cfi_startproc
	@ args = 0, pretend = 0, frame = 0
	@ frame_needed = 0, uses_anonymous_args = 0
.LVL87:
	.loc 1 3178 0
	ldr	r3, .L144
	ldrb	r3, [r3]	@ zero_extendqisi2
	cmp	r3, #6
	bxls	lr
	.loc 1 3178 0 is_stmt 0 discriminator 1
	ldr	r3, .L144+4
	ldr	r3, [r3]
	cmp	r3, #0
	bxeq	lr
.LVL88:
.LBB152:
.LBB153:
	.loc 1 3181 0 is_stmt 1
	mov	r3, #196
	ldr	r2, .L144+8
	ldr	ip, [r0, #56]
	ldr	r2, [r2]
	mla	ip, r3, ip, r2
.LVL89:
	.loc 1 3186 0
	ldrh	r1, [ip, #190]
	tst	r1, #512
	bxeq	lr
.LBE153:
.LBE152:
	.loc 1 3169 0
	stmfd	sp!, {r4, r5, r6, r7, r8, lr}
	.cfi_def_cfa_offset 24
	.cfi_offset 4, -24
	.cfi_offset 5, -20
	.cfi_offset 6, -16
	.cfi_offset 7, -12
	.cfi_offset 8, -8
	.cfi_offset 14, -4
.LBB155:
.LBB154:
	.loc 1 3203 0
	ldrb	lr, [r0, #24]	@ zero_extendqisi2
	cmp	lr, #0
	beq	.L139
	.loc 1 3228 0
	ldr	r6, [ip, #128]
	cmn	r6, #1
	.loc 1 3229 0
	mlane	r3, r3, r6, r2
	.loc 1 3230 0
	ldr	r2, [ip, #144]
	.loc 1 3229 0
	ldrne	r7, [r3, #12]
.LVL90:
	.loc 1 3176 0
	moveq	r7, #0
.LVL91:
	.loc 1 3231 0
	cmp	r2, #0
	bne	.L118
	ldmfd	sp!, {r4, r5, r6, r7, r8, pc}
.LVL92:
.L112:
	.loc 1 3267 0
	cmn	r6, #1
	beq	.L140
	.loc 1 3276 0
	ldr	r1, [r3, #32]
	cmp	r7, r1
	bge	.L116
.L121:
	.loc 1 3268 0
	mov	r5, #0
	mov	r8, r5
.L115:
	.loc 1 3284 0
	ldr	r4, [r3, #88]
	.loc 1 3285 0
	ldr	r1, [r3, #92]
	.loc 1 3284 0
	add	r4, r4, r8
	.loc 1 3285 0
	add	r1, r1, r5
	.loc 1 3284 0
	str	r4, [r3, #88]
	.loc 1 3285 0
	str	r1, [r3, #92]
.L111:
	.loc 1 3231 0
	ldr	r2, [r2, #20]
.LVL93:
	cmp	r2, #0
	beq	.L141
.LVL94:
.L118:
	.loc 1 3233 0
	ldr	r3, [r2, #4]
.LVL95:
	.loc 1 3234 0
	ldr	r1, [r3, #156]
	cmp	r1, #0
	beq	.L111
	ldrd	r4, [r3, #120]
	mov	r5, #0
	and	r4, r4, #4608
	orrs	r4, r4, r5
	bne	.L111
	.loc 1 3236 0
	cmp	lr, #2
	bne	.L112
	.loc 1 3238 0
	cmn	r6, #1
	.loc 1 3239 0
	ldr	r4, [r3, #32]
	.loc 1 3238 0
	beq	.L142
	.loc 1 3251 0
	cmp	r4, r7
	bgt	.L116
	.loc 1 3256 0
	ldr	r1, [r1, #16]
	cmp	r7, r1
	bgt	.L121
.L114:
.LVL96:
	.loc 1 3246 0
	ldr	r4, [r0, #32]
	.loc 1 3247 0
	ldr	r1, [r0, #36]
	.loc 1 3246 0
	mov	r4, r4, asr #1
.LVL97:
	.loc 1 3247 0
	mov	r1, r1, asr #1
.LVL98:
	mov	r8, r4, asl #9
	mov	r5, r1, asl #9
	b	.L115
.LVL99:
.L139:
	.loc 1 3216 0
	ldr	r3, .L144+12
	.loc 1 3210 0
	ldr	r2, [r0, #44]
.LVL100:
	.loc 1 3213 0
	ldr	r1, [r0, #48]
	.loc 1 3216 0
	ldr	r3, [r3]
	.loc 1 3218 0
	ldr	lr, .L144+16
	.loc 1 3214 0
	rsb	ip, r2, r1
.LVL101:
	.loc 1 3211 0
	ldr	r4, [r0, #52]
	.loc 1 3213 0
	add	r1, r2, r1
	.loc 1 3216 0
	rsb	r5, r3, ip
	.loc 1 3217 0
	rsb	r8, r3, r1
	.loc 1 3218 0
	ldr	r3, [lr]
	.loc 1 3216 0
	sub	r5, r5, #2097152
	.loc 1 3211 0
	add	lr, r2, r4
	.loc 1 3217 0
	add	r8, r8, #2097152
	.loc 1 3212 0
	rsb	r2, r2, r4
.LVL102:
	.loc 1 3218 0
	rsb	r7, r3, r2
	.loc 1 3211 0
	ldr	r4, .L144+20
	.loc 1 3219 0
	rsb	r6, r3, lr
	.loc 1 3216 0
	mov	r5, r5, asr #23
.LVL103:
	.loc 1 3217 0
	mov	r8, r8, asr #23
.LVL104:
	.loc 1 3209 0
	ldr	r3, .L144+24
	.loc 1 3218 0
	sub	r7, r7, #2097152
	.loc 1 3219 0
	add	r6, r6, #2097152
	.loc 1 3220 0
	cmp	r5, r8
	.loc 1 3213 0
	str	r1, [r4, #12]
	.loc 1 3214 0
	str	ip, [r4, #8]
	.loc 1 3211 0
	str	lr, [r4]
	.loc 1 3212 0
	str	r2, [r4, #4]
	.loc 1 3218 0
	mov	r7, r7, asr #23
.LVL105:
	.loc 1 3219 0
	mov	r6, r6, asr #23
.LVL106:
	.loc 1 3209 0
	str	r0, [r3]
	.loc 1 3220 0
	bgt	.L143
.LVL107:
.L107:
	.loc 1 3221 0
	cmp	r7, r6
	movle	r4, r7
	bgt	.L109
.LVL108:
.L106:
	.loc 1 3222 0
	mov	r1, r4
	mov	r0, r5
	ldr	r2, .L144+28
	.loc 1 3221 0
	add	r4, r4, #1
.LVL109:
	.loc 1 3222 0
	bl	P_BlockThingsIterator
.LVL110:
	.loc 1 3221 0
	cmp	r6, r4
	bge	.L106
.LVL111:
.L109:
	.loc 1 3220 0
	add	r5, r5, #1
.LVL112:
	cmp	r8, r5
	bge	.L107
	ldmfd	sp!, {r4, r5, r6, r7, r8, pc}
.LVL113:
.L142:
	.loc 1 3239 0
	ldr	r1, [r3, #68]
	cmp	r4, r1
	ble	.L114
.L116:
.LVL114:
	ldr	r4, [r0, #32]
	ldr	r1, [r0, #36]
	mov	r8, r4, asl #9
	mov	r5, r1, asl #9
	b	.L115
.LVL115:
.L141:
	ldmfd	sp!, {r4, r5, r6, r7, r8, pc}
.L140:
	.loc 1 3268 0
	ldr	r4, [r3, #32]
	ldr	r1, [ip, #12]
	cmp	r4, r1
	bgt	.L121
	b	.L116
.LVL116:
.L143:
	ldmfd	sp!, {r4, r5, r6, r7, r8, pc}
.L145:
	.align	2
.L144:
	.word	compatibility_level
	.word	allow_pushers
	.word	sectors
	.word	bmaporgx
	.word	bmaporgy
	.word	tmbbox
	.word	tmpusher
	.word	PIT_PushThing
.LBE154:
.LBE155:
	.cfi_endproc
.LFE45:
	.size	T_Pusher, .-T_Pusher
	.align	2
	.global	P_InitPicAnims
	.type	P_InitPicAnims, %function
P_InitPicAnims:
.LFB5:
	.loc 1 140 0
	.cfi_startproc
	@ args = 0, pretend = 0, frame = 0
	@ frame_needed = 0, uses_anonymous_args = 0
	stmfd	sp!, {r3, r4, r5, r6, r7, r8, r9, r10, fp, lr}
	.cfi_def_cfa_offset 40
	.cfi_offset 3, -40
	.cfi_offset 4, -36
	.cfi_offset 5, -32
	.cfi_offset 6, -28
	.cfi_offset 7, -24
	.cfi_offset 8, -20
	.cfi_offset 9, -16
	.cfi_offset 10, -12
	.cfi_offset 11, -8
	.cfi_offset 14, -4
	.loc 1 143 0
	ldr	r0, .L168
	bl	W_GetNumForName
.LVL117:
	mov	r7, r0
.LVL118:
	.loc 1 147 0
	bl	W_CacheLumpNum
.LVL119:
	mov	r6, r0
.LVL120:
	.loc 1 149 0
	ldr	r5, .L168+4
	.loc 1 150 0
	ldrsb	r3, [r0]
	.loc 1 149 0
	ldr	r0, [r5]
.LVL121:
	.loc 1 150 0
	cmn	r3, #1
	addne	r4, r6, #10
	.loc 1 149 0
	str	r0, [r5, #4]
.LVL122:
	.loc 1 150 0
	movne	r2, r0
	addne	r6, r6, #1
.LVL123:
	bne	.L157
	b	.L156
.LVL124:
.L167:
	.loc 1 164 0
	bl	R_CheckTextureNumForName
.LVL125:
	cmn	r0, #1
	beq	.L152
	.loc 1 167 0
	mov	r0, r6
	bl	R_TextureNumForName
.LVL126:
	mov	fp, r0
	ldr	r10, [r5, #4]
	.loc 1 168 0
	mov	r0, r4
	.loc 1 167 0
	str	fp, [r10, #4]
	.loc 1 168 0
	bl	R_TextureNumForName
.LVL127:
	str	r0, [r10, #8]
.L153:
	.loc 1 180 0
	rsb	r0, r0, fp
	add	r0, r0, #1
	.loc 1 179 0
	ldrsb	r3, [r4, #-10]
	.loc 1 182 0
	cmp	r0, #1
	.loc 1 180 0
	str	r0, [r10, #12]
	.loc 1 179 0
	str	r3, [r10]
	.loc 1 182 0
	ble	.L166
.L155:
	.loc 1 187 0
	ldrb	r1, [r8, #20]	@ zero_extendqisi2
	ldrb	r2, [r8, #19]	@ zero_extendqisi2
	ldrb	r3, [r8, #21]	@ zero_extendqisi2
	orr	r2, r2, r1, asl #8
	ldrb	r1, [r8, #22]	@ zero_extendqisi2
	orr	r3, r2, r3, asl #16
	orr	r3, r3, r1, asl #24
	.loc 1 188 0
	add	r2, r10, #20
	.loc 1 187 0
	str	r3, [r10, #16]
	.loc 1 188 0
	str	r2, [r5, #4]
.L152:
	.loc 1 150 0 discriminator 2
	ldrsb	r3, [r9, #13]
	add	r4, r4, #23
	cmn	r3, #1
	add	r6, r6, #23
	beq	.L156
	ldmia	r5, {r0, r2}
.L157:
	.loc 1 153 0
	ldr	r1, [r5, #8]
	sub	r8, r4, #10
	add	r3, r1, r1, asl #2
	add	r3, r0, r3, asl #2
	cmp	r2, r3
	bcc	.L148
.LBB156:
	.loc 1 155 0
	cmp	r1, #0
	movne	r9, r1, asl #1
	addne	r1, r9, r1, asl #3
	.loc 1 156 0
	mov	r3, #0
	movne	r1, r1, asl #2
	moveq	r1, #640
	mov	r2, #1
	.loc 1 155 0
	moveq	r9, #32
.LVL128:
	.loc 1 156 0
	bl	Z_Realloc
.LVL129:
	.loc 1 157 0
	ldr	r3, [r5, #8]
	.loc 1 156 0
	str	r0, [r5]
	.loc 1 157 0
	add	r3, r3, r3, asl #2
	add	r0, r0, r3, asl #2
	.loc 1 158 0
	stmib	r5, {r0, r9}
.LVL130:
.L148:
.LBE156:
	.loc 1 161 0
	ldrsb	r3, [r4, #-10]
	mov	r9, r4
	cmp	r3, #0
	.loc 1 164 0
	mov	r0, r4
	.loc 1 161 0
	bne	.L167
.LVL131:
.LBB157:
.LBB158:
	.file 3 "c:/devl/prboom3ds/src/w_wad.h"
	.loc 3 132 0
	mov	r1, #2
	mvn	r2, #0
	bl	W_FindNumFromName
.LVL132:
.LBE158:
.LBE157:
	.loc 1 172 0
	cmn	r0, #1
	beq	.L152
	.loc 1 175 0
	mov	r0, r6
	ldr	r10, [r5, #4]
	bl	R_FlatNumForName
.LVL133:
	str	r0, [r10, #4]
	.loc 1 176 0
	mov	r0, r4
	ldr	fp, [r5, #4]
	bl	R_FlatNumForName
.LVL134:
	ldr	r10, [r5, #4]
	str	r0, [fp, #8]
	ldr	r0, [r10, #8]
	ldr	fp, [r10, #4]
	b	.L153
.LVL135:
.L156:
	.loc 1 190 0
	mov	r0, r7
	.loc 1 191 0
	ldmfd	sp!, {r3, r4, r5, r6, r7, r8, r9, r10, fp, lr}
	.cfi_remember_state
	.cfi_restore 14
	.cfi_restore 11
	.cfi_restore 10
	.cfi_restore 9
	.cfi_restore 8
	.cfi_restore 7
	.cfi_restore 6
	.cfi_restore 5
	.cfi_restore 4
	.cfi_restore 3
	.cfi_def_cfa_offset 0
.LVL136:
	.loc 1 190 0
	b	W_UnlockLumpNum
.LVL137:
.L166:
	.cfi_restore_state
	.loc 1 183 0
	ldr	r0, .L168+8
	mov	r1, r4
	mov	r2, r6
	bl	I_Error
.LVL138:
	ldr	r10, [r5, #4]
	b	.L155
.L169:
	.align	2
.L168:
	.word	.LC0
	.word	.LANCHOR0
	.word	.LC1
	.cfi_endproc
.LFE5:
	.size	P_InitPicAnims, .-P_InitPicAnims
	.align	2
	.global	getSide
	.type	getSide, %function
getSide:
.LFB6:
	.loc 1 212 0
	.cfi_startproc
	@ args = 0, pretend = 0, frame = 0
	@ frame_needed = 0, uses_anonymous_args = 0
.LVL139:
	.loc 1 213 0
	mov	r3, #196
	.loc 1 212 0
	str	lr, [sp, #-4]!
	.cfi_def_cfa_offset 4
	.cfi_offset 14, -4
	.loc 1 213 0
	ldr	lr, .L172
	ldr	ip, .L172+4
	ldr	lr, [lr]
	ldr	ip, [ip]
	mla	r0, r3, r0, lr
.LVL140:
	ldr	r3, [r0, #152]
	ldr	r3, [r3, r1, asl #2]
	add	r2, r3, r2, asl #1
.LVL141:
	ldrh	r3, [r2, #26]
	add	r0, r3, r3, asl #4
	.loc 1 214 0
	add	r0, ip, r0, asl #2
	ldr	pc, [sp], #4
.L173:
	.align	2
.L172:
	.word	sectors
	.word	sides
	.cfi_endproc
.LFE6:
	.size	getSide, .-getSide
	.align	2
	.global	getSector
	.type	getSector, %function
getSector:
.LFB7:
	.loc 1 230 0
	.cfi_startproc
	@ args = 0, pretend = 0, frame = 0
	@ frame_needed = 0, uses_anonymous_args = 0
.LVL142:
	.loc 1 231 0
	mov	r3, #196
	.loc 1 230 0
	str	lr, [sp, #-4]!
	.cfi_def_cfa_offset 4
	.cfi_offset 14, -4
	.loc 1 231 0
	ldr	lr, .L176
	ldr	ip, .L176+4
	ldr	lr, [lr]
	ldr	ip, [ip]
	mla	r0, r3, r0, lr
.LVL143:
	ldr	r3, [r0, #152]
	ldr	r3, [r3, r1, asl #2]
	add	r2, r3, r2, asl #1
.LVL144:
	ldrh	r3, [r2, #26]
	add	r3, r3, r3, asl #4
	add	r3, ip, r3, asl #2
	.loc 1 232 0
	ldr	r0, [r3, #16]
	ldr	pc, [sp], #4
.L177:
	.align	2
.L176:
	.word	sectors
	.word	sides
	.cfi_endproc
.LFE7:
	.size	getSector, .-getSector
	.align	2
	.global	twoSided
	.type	twoSided, %function
twoSided:
.LFB8:
	.loc 1 247 0
	.cfi_startproc
	@ args = 0, pretend = 0, frame = 0
	@ frame_needed = 0, uses_anonymous_args = 0
	@ link register save eliminated.
.LVL145:
	.loc 1 251 0
	ldr	r3, .L182
	.loc 1 253 0
	ldr	r3, [r3, #28]
	cmp	r3, #0
	bne	.L181
	.loc 1 254 0 discriminator 2
	mov	ip, #196
	ldr	r3, .L182+4
	ldr	r2, .L182+8
	ldr	r3, [r3]
	mla	r3, ip, r0, r3
	ldr	r3, [r3, #152]
	ldr	r3, [r3, r1, asl #2]
	ldrh	r3, [r3, #28]
	subs	r0, r3, r2
.LVL146:
	movne	r0, #1
	.loc 1 255 0 discriminator 2
	bx	lr
.LVL147:
.L181:
.LBB161:
.LBB162:
	.loc 1 252 0
	mov	r2, #196
	ldr	r3, .L182+4
	ldr	r3, [r3]
	mla	r0, r2, r0, r3
.LVL148:
	ldr	r3, [r0, #152]
	ldr	r3, [r3, r1, asl #2]
	.loc 1 253 0
	ldrh	r0, [r3, #20]
	and	r0, r0, #4
	uxth	r0, r0
	bx	lr
.L183:
	.align	2
.L182:
	.word	comp
	.word	sectors
	.word	65535
.LBE162:
.LBE161:
	.cfi_endproc
.LFE8:
	.size	twoSided, .-twoSided
	.align	2
	.global	getNextSector
	.type	getNextSector, %function
getNextSector:
.LFB9:
	.loc 1 268 0
	.cfi_startproc
	@ args = 0, pretend = 0, frame = 0
	@ frame_needed = 0, uses_anonymous_args = 0
	@ link register save eliminated.
.LVL149:
	.loc 1 273 0
	ldr	r3, .L194
	ldr	r3, [r3, #28]
	cmp	r3, #0
	beq	.L185
	.loc 1 275 0
	ldrh	r3, [r0, #20]
	and	r3, r3, #4
	uxth	r3, r3
	cmp	r3, #0
	beq	.L192
	.loc 1 279 0
	ldr	r3, [r0, #52]
	cmp	r3, r1
	ldreq	r3, [r0, #56]
.L192:
	.loc 1 286 0
	mov	r0, r3
.LVL150:
	bx	lr
.LVL151:
.L185:
	.loc 1 279 0
	ldr	r3, [r0, #52]
	cmp	r3, r1
	bne	.L192
	.loc 1 280 0 discriminator 1
	ldr	r2, [r0, #56]
	cmp	r3, r2
	movne	r3, r2
	moveq	r3, #0
	.loc 1 286 0 discriminator 1
	mov	r0, r3
.LVL152:
	bx	lr
.L195:
	.align	2
.L194:
	.word	comp
	.cfi_endproc
.LFE9:
	.size	getNextSector, .-getNextSector
	.align	2
	.global	P_FindLowestFloorSurrounding
	.type	P_FindLowestFloorSurrounding, %function
P_FindLowestFloorSurrounding:
.LFB10:
	.loc 1 296 0
	.cfi_startproc
	@ args = 0, pretend = 0, frame = 0
	@ frame_needed = 0, uses_anonymous_args = 0
.LVL153:
	stmfd	sp!, {r4, lr}
	.cfi_def_cfa_offset 8
	.cfi_offset 4, -8
	.cfi_offset 14, -4
	.loc 1 302 0
	ldr	lr, [r0, #148]
	.loc 1 300 0
	ldr	r1, [r0, #12]
.LVL154:
	.loc 1 302 0
	cmp	lr, #0
	ble	.L207
	ldr	r3, .L218
	ldr	r2, [r0, #152]
	ldr	r4, [r3, #28]
	add	lr, r2, lr, asl #2
	b	.L201
.LVL155:
.L217:
.LBB163:
.LBB164:
	.loc 1 275 0
	ldrh	r3, [ip, #20]
	tst	r3, #4
	beq	.L199
	.loc 1 279 0
	ldr	r3, [ip, #52]
	cmp	r0, r3
	ldreq	r3, [ip, #56]
.L203:
.LBE164:
.LBE163:
	.loc 1 307 0
	cmp	r3, #0
	beq	.L199
	.loc 1 310 0
	ldr	r3, [r3, #12]
	cmp	r1, r3
	movge	r1, r3
.LVL156:
.L199:
	.loc 1 302 0 discriminator 2
	cmp	r2, lr
	beq	.L207
.LVL157:
.L201:
.LBB167:
.LBB165:
	.loc 1 273 0
	cmp	r4, #0
.LBE165:
.LBE167:
	.loc 1 304 0
	ldr	ip, [r2], #4
.LVL158:
.LBB168:
.LBB166:
	.loc 1 273 0
	bne	.L217
.LVL159:
	.loc 1 279 0
	ldr	r3, [ip, #52]
	cmp	r0, r3
	bne	.L203
	.loc 1 280 0
	ldr	r3, [ip, #56]
	cmp	r0, r3
	bne	.L203
	b	.L199
.LVL160:
.L207:
.LBE166:
.LBE168:
	.loc 1 314 0
	mov	r0, r1
.LVL161:
	ldmfd	sp!, {r4, pc}
.L219:
	.align	2
.L218:
	.word	comp
	.cfi_endproc
.LFE10:
	.size	P_FindLowestFloorSurrounding, .-P_FindLowestFloorSurrounding
	.align	2
	.global	P_FindHighestFloorSurrounding
	.type	P_FindHighestFloorSurrounding, %function
P_FindHighestFloorSurrounding:
.LFB11:
	.loc 1 327 0
	.cfi_startproc
	@ args = 0, pretend = 0, frame = 0
	@ frame_needed = 0, uses_anonymous_args = 0
.LVL162:
	.loc 1 335 0
	ldr	r3, .L244
	.loc 1 327 0
	stmfd	sp!, {r4, lr}
	.cfi_def_cfa_offset 8
	.cfi_offset 4, -8
	.cfi_offset 14, -4
	.loc 1 335 0
	ldr	r4, [r3, #28]
	.loc 1 338 0
	ldr	lr, [r0, #148]
	.loc 1 336 0
	cmp	r4, #0
	ldr	r1, .L244+4
	moveq	r1, #-2097152000
.LVL163:
	.loc 1 338 0
	cmp	lr, #0
	ble	.L233
	ldr	r2, [r0, #152]
	add	lr, r2, lr, asl #2
	b	.L226
.LVL164:
.L243:
.LBB169:
.LBB170:
	.loc 1 275 0
	ldrh	r3, [ip, #20]
	tst	r3, #4
	beq	.L224
	.loc 1 279 0
	ldr	r3, [ip, #52]
	cmp	r0, r3
	ldreq	r3, [ip, #56]
.L228:
.LBE170:
.LBE169:
	.loc 1 343 0
	cmp	r3, #0
	beq	.L224
	.loc 1 346 0
	ldr	r3, [r3, #12]
	cmp	r1, r3
	movlt	r1, r3
.LVL165:
.L224:
	.loc 1 338 0 discriminator 2
	cmp	r2, lr
	beq	.L233
.LVL166:
.L226:
.LBB173:
.LBB171:
	.loc 1 273 0
	cmp	r4, #0
.LBE171:
.LBE173:
	.loc 1 340 0
	ldr	ip, [r2], #4
.LVL167:
.LBB174:
.LBB172:
	.loc 1 273 0
	bne	.L243
.LVL168:
	.loc 1 279 0
	ldr	r3, [ip, #52]
	cmp	r0, r3
	bne	.L228
	.loc 1 280 0
	ldr	r3, [ip, #56]
	cmp	r0, r3
	bne	.L228
	b	.L224
.LVL169:
.L233:
.LBE172:
.LBE174:
	.loc 1 350 0
	mov	r0, r1
.LVL170:
	ldmfd	sp!, {r4, pc}
.L245:
	.align	2
.L244:
	.word	comp
	.word	-32768000
	.cfi_endproc
.LFE11:
	.size	P_FindHighestFloorSurrounding, .-P_FindHighestFloorSurrounding
	.align	2
	.global	P_FindNextHighestFloor
	.type	P_FindNextHighestFloor, %function
P_FindNextHighestFloor:
.LFB12:
	.loc 1 364 0
	.cfi_startproc
	@ args = 0, pretend = 0, frame = 0
	@ frame_needed = 0, uses_anonymous_args = 0
.LVL171:
	stmfd	sp!, {r4, r5, r6, lr}
	.cfi_def_cfa_offset 16
	.cfi_offset 4, -16
	.cfi_offset 5, -12
	.cfi_offset 6, -8
	.cfi_offset 14, -4
	.loc 1 368 0
	ldr	r4, [r0, #148]
	cmp	r4, #0
	ble	.L247
	ldr	r2, .L288
	ldr	r6, [r0, #152]
	mov	r3, #0
	ldr	r5, [r2, #28]
	sub	lr, r6, #4
	b	.L258
.LVL172:
.L286:
.LBB175:
.LBB176:
	.loc 1 275 0
	ldrh	r2, [ip, #20]
	tst	r2, #4
	beq	.L249
	.loc 1 279 0
	ldr	r2, [ip, #52]
	cmp	r0, r2
	ldreq	r2, [ip, #56]
.L260:
.LBE176:
.LBE175:
	.loc 1 369 0
	cmp	r2, #0
	beq	.L249
	.loc 1 370 0 discriminator 1
	ldr	r2, [r2, #12]
	.loc 1 369 0 discriminator 1
	cmp	r2, r1
	bgt	.L285
.L249:
	.loc 1 368 0 discriminator 2
	add	r3, r3, #1
.LVL173:
	cmp	r3, r4
	beq	.L247
.LVL174:
.L258:
.LBB179:
.LBB177:
	.loc 1 273 0
	cmp	r5, #0
.LBE177:
.LBE179:
	.loc 1 369 0
	ldr	ip, [lr, #4]!
.LVL175:
.LBB180:
.LBB178:
	.loc 1 273 0
	bne	.L286
.LVL176:
	.loc 1 279 0
	ldr	r2, [ip, #52]
	cmp	r0, r2
	bne	.L260
	.loc 1 280 0
	ldr	r2, [ip, #56]
	cmp	r0, r2
	bne	.L260
.LBE178:
.LBE180:
	.loc 1 368 0
	add	r3, r3, #1
.LVL177:
	cmp	r3, r4
	bne	.L258
.LVL178:
.L247:
	.loc 1 384 0
	ldr	r3, .L288+4
	ldrb	r3, [r3]	@ zero_extendqisi2
	cmp	r3, #0
	movne	r0, r1
.LVL179:
	moveq	r0, #0
	ldmfd	sp!, {r4, r5, r6, pc}
.LVL180:
.L285:
	add	r6, r6, r3, asl #2
.LVL181:
.L251:
.LBB181:
	.loc 1 373 0
	add	r3, r3, #1
.LVL182:
	cmp	r3, r4
	bge	.L287
.L256:
.LBB182:
.LBB183:
	.loc 1 273 0
	cmp	r5, #0
.LBE183:
.LBE182:
	.loc 1 374 0
	ldr	lr, [r6, #4]!
.LVL183:
.LBB186:
.LBB184:
	.loc 1 273 0
	beq	.L252
	.loc 1 275 0
	ldrh	ip, [lr, #20]
	tst	ip, #4
	beq	.L251
	.loc 1 279 0
	ldr	ip, [lr, #52]
	cmp	r0, ip
	ldreq	ip, [lr, #56]
.L254:
.LBE184:
.LBE186:
	.loc 1 374 0
	cmp	ip, #0
	beq	.L251
	.loc 1 375 0 discriminator 1
	ldr	ip, [ip, #12]
	.loc 1 373 0 discriminator 1
	add	r3, r3, #1
.LVL184:
	.loc 1 375 0 discriminator 1
	cmp	r2, ip
	movle	lr, #0
.LVL185:
	movgt	lr, #1
	cmp	r1, ip
	movge	lr, #0
	cmp	lr, #0
	movne	r2, ip
.LVL186:
	.loc 1 373 0 discriminator 1
	cmp	r3, r4
	blt	.L256
.LVL187:
.L287:
	mov	r0, r2
.LVL188:
	ldmfd	sp!, {r4, r5, r6, pc}
.LVL189:
.L252:
.LBB187:
.LBB185:
	.loc 1 279 0
	ldr	ip, [lr, #52]
	cmp	r0, ip
	bne	.L254
	.loc 1 280 0
	ldr	ip, [lr, #56]
	cmp	r0, ip
	bne	.L254
	b	.L251
.L289:
	.align	2
.L288:
	.word	comp
	.word	compatibility_level
.LBE185:
.LBE187:
.LBE181:
	.cfi_endproc
.LFE12:
	.size	P_FindNextHighestFloor, .-P_FindNextHighestFloor
	.align	2
	.global	P_FindNextLowestFloor
	.type	P_FindNextLowestFloor, %function
P_FindNextLowestFloor:
.LFB13:
	.loc 1 399 0
	.cfi_startproc
	@ args = 0, pretend = 0, frame = 0
	@ frame_needed = 0, uses_anonymous_args = 0
.LVL190:
	stmfd	sp!, {r4, r5, r6, lr}
	.cfi_def_cfa_offset 16
	.cfi_offset 4, -16
	.cfi_offset 5, -12
	.cfi_offset 6, -8
	.cfi_offset 14, -4
	.loc 1 403 0
	ldr	r4, [r0, #148]
	cmp	r4, #0
	ble	.L306
	ldr	r2, .L331
	ldr	r6, [r0, #152]
	mov	r3, #0
	ldr	r5, [r2, #28]
	sub	lr, r6, #4
	b	.L301
.LVL191:
.L329:
.LBB188:
.LBB189:
	.loc 1 275 0
	ldrh	r2, [ip, #20]
	tst	r2, #4
	beq	.L293
	.loc 1 279 0
	ldr	r2, [ip, #52]
	cmp	r0, r2
	ldreq	r2, [ip, #56]
.L303:
.LBE189:
.LBE188:
	.loc 1 404 0
	cmp	r2, #0
	beq	.L293
	.loc 1 405 0 discriminator 1
	ldr	r2, [r2, #12]
	.loc 1 404 0 discriminator 1
	cmp	r2, r1
	blt	.L328
.L293:
	.loc 1 403 0 discriminator 2
	add	r3, r3, #1
.LVL192:
	cmp	r3, r4
	beq	.L306
.LVL193:
.L301:
.LBB192:
.LBB190:
	.loc 1 273 0
	cmp	r5, #0
.LBE190:
.LBE192:
	.loc 1 404 0
	ldr	ip, [lr, #4]!
.LVL194:
.LBB193:
.LBB191:
	.loc 1 273 0
	bne	.L329
.LVL195:
	.loc 1 279 0
	ldr	r2, [ip, #52]
	cmp	r0, r2
	bne	.L303
	.loc 1 280 0
	ldr	r2, [ip, #56]
	cmp	r0, r2
	bne	.L303
.LBE191:
.LBE193:
	.loc 1 403 0
	add	r3, r3, #1
.LVL196:
	cmp	r3, r4
	bne	.L301
.LVL197:
.L306:
	mov	r0, r1
.LVL198:
	ldmfd	sp!, {r4, r5, r6, pc}
.LVL199:
.L328:
	add	r6, r6, r3, asl #2
.LVL200:
.L295:
.LBB194:
	.loc 1 408 0
	add	r3, r3, #1
.LVL201:
	cmp	r3, r4
	bge	.L330
.L300:
.LBB195:
.LBB196:
	.loc 1 273 0
	cmp	r5, #0
.LBE196:
.LBE195:
	.loc 1 409 0
	ldr	lr, [r6, #4]!
.LVL202:
.LBB199:
.LBB197:
	.loc 1 273 0
	beq	.L296
	.loc 1 275 0
	ldrh	ip, [lr, #20]
	tst	ip, #4
	beq	.L295
	.loc 1 279 0
	ldr	ip, [lr, #52]
	cmp	r0, ip
	ldreq	ip, [lr, #56]
.L298:
.LBE197:
.LBE199:
	.loc 1 409 0
	cmp	ip, #0
	beq	.L295
	.loc 1 410 0 discriminator 1
	ldr	ip, [ip, #12]
	.loc 1 408 0 discriminator 1
	add	r3, r3, #1
.LVL203:
	.loc 1 410 0 discriminator 1
	cmp	r2, ip
	movge	lr, #0
.LVL204:
	movlt	lr, #1
	cmp	r1, ip
	movle	lr, #0
	cmp	lr, #0
	movne	r2, ip
.LVL205:
	.loc 1 408 0 discriminator 1
	cmp	r3, r4
	blt	.L300
.LVL206:
.L330:
	mov	r0, r2
.LVL207:
	ldmfd	sp!, {r4, r5, r6, pc}
.LVL208:
.L296:
.LBB200:
.LBB198:
	.loc 1 279 0
	ldr	ip, [lr, #52]
	cmp	r0, ip
	bne	.L298
	.loc 1 280 0
	ldr	ip, [lr, #56]
	cmp	r0, ip
	bne	.L298
	b	.L295
.L332:
	.align	2
.L331:
	.word	comp
.LBE198:
.LBE200:
.LBE194:
	.cfi_endproc
.LFE13:
	.size	P_FindNextLowestFloor, .-P_FindNextLowestFloor
	.align	2
	.global	P_FindNextLowestCeiling
	.type	P_FindNextLowestCeiling, %function
P_FindNextLowestCeiling:
.LFB14:
	.loc 1 430 0
	.cfi_startproc
	@ args = 0, pretend = 0, frame = 0
	@ frame_needed = 0, uses_anonymous_args = 0
.LVL209:
	stmfd	sp!, {r4, r5, r6, lr}
	.cfi_def_cfa_offset 16
	.cfi_offset 4, -16
	.cfi_offset 5, -12
	.cfi_offset 6, -8
	.cfi_offset 14, -4
	.loc 1 434 0
	ldr	r4, [r0, #148]
	cmp	r4, #0
	ble	.L349
	ldr	r2, .L374
	ldr	r6, [r0, #152]
	mov	r3, #0
	ldr	r5, [r2, #28]
	sub	lr, r6, #4
	b	.L344
.LVL210:
.L372:
.LBB201:
.LBB202:
	.loc 1 275 0
	ldrh	r2, [ip, #20]
	tst	r2, #4
	beq	.L336
	.loc 1 279 0
	ldr	r2, [ip, #52]
	cmp	r0, r2
	ldreq	r2, [ip, #56]
.L346:
.LBE202:
.LBE201:
	.loc 1 435 0
	cmp	r2, #0
	beq	.L336
	.loc 1 436 0 discriminator 1
	ldr	r2, [r2, #16]
	.loc 1 435 0 discriminator 1
	cmp	r2, r1
	blt	.L371
.L336:
	.loc 1 434 0 discriminator 2
	add	r3, r3, #1
.LVL211:
	cmp	r3, r4
	beq	.L349
.LVL212:
.L344:
.LBB205:
.LBB203:
	.loc 1 273 0
	cmp	r5, #0
.LBE203:
.LBE205:
	.loc 1 435 0
	ldr	ip, [lr, #4]!
.LVL213:
.LBB206:
.LBB204:
	.loc 1 273 0
	bne	.L372
.LVL214:
	.loc 1 279 0
	ldr	r2, [ip, #52]
	cmp	r0, r2
	bne	.L346
	.loc 1 280 0
	ldr	r2, [ip, #56]
	cmp	r0, r2
	bne	.L346
.LBE204:
.LBE206:
	.loc 1 434 0
	add	r3, r3, #1
.LVL215:
	cmp	r3, r4
	bne	.L344
.LVL216:
.L349:
	mov	r0, r1
.LVL217:
	ldmfd	sp!, {r4, r5, r6, pc}
.LVL218:
.L371:
	add	r6, r6, r3, asl #2
.LVL219:
.L338:
.LBB207:
	.loc 1 439 0
	add	r3, r3, #1
.LVL220:
	cmp	r3, r4
	bge	.L373
.L343:
.LBB208:
.LBB209:
	.loc 1 273 0
	cmp	r5, #0
.LBE209:
.LBE208:
	.loc 1 440 0
	ldr	lr, [r6, #4]!
.LVL221:
.LBB212:
.LBB210:
	.loc 1 273 0
	beq	.L339
	.loc 1 275 0
	ldrh	ip, [lr, #20]
	tst	ip, #4
	beq	.L338
	.loc 1 279 0
	ldr	ip, [lr, #52]
	cmp	r0, ip
	ldreq	ip, [lr, #56]
.L341:
.LBE210:
.LBE212:
	.loc 1 440 0
	cmp	ip, #0
	beq	.L338
	.loc 1 441 0 discriminator 1
	ldr	ip, [ip, #16]
	.loc 1 439 0 discriminator 1
	add	r3, r3, #1
.LVL222:
	.loc 1 441 0 discriminator 1
	cmp	r2, ip
	movge	lr, #0
.LVL223:
	movlt	lr, #1
	cmp	r1, ip
	movle	lr, #0
	cmp	lr, #0
	movne	r2, ip
.LVL224:
	.loc 1 439 0 discriminator 1
	cmp	r3, r4
	blt	.L343
.LVL225:
.L373:
	mov	r0, r2
.LVL226:
	ldmfd	sp!, {r4, r5, r6, pc}
.LVL227:
.L339:
.LBB213:
.LBB211:
	.loc 1 279 0
	ldr	ip, [lr, #52]
	cmp	r0, ip
	bne	.L341
	.loc 1 280 0
	ldr	ip, [lr, #56]
	cmp	r0, ip
	bne	.L341
	b	.L338
.L375:
	.align	2
.L374:
	.word	comp
.LBE211:
.LBE213:
.LBE207:
	.cfi_endproc
.LFE14:
	.size	P_FindNextLowestCeiling, .-P_FindNextLowestCeiling
	.align	2
	.global	P_FindNextHighestCeiling
	.type	P_FindNextHighestCeiling, %function
P_FindNextHighestCeiling:
.LFB15:
	.loc 1 461 0
	.cfi_startproc
	@ args = 0, pretend = 0, frame = 0
	@ frame_needed = 0, uses_anonymous_args = 0
.LVL228:
	stmfd	sp!, {r4, r5, r6, lr}
	.cfi_def_cfa_offset 16
	.cfi_offset 4, -16
	.cfi_offset 5, -12
	.cfi_offset 6, -8
	.cfi_offset 14, -4
	.loc 1 465 0
	ldr	r4, [r0, #148]
	cmp	r4, #0
	ble	.L392
	ldr	r2, .L417
	ldr	r6, [r0, #152]
	mov	r3, #0
	ldr	r5, [r2, #28]
	sub	lr, r6, #4
	b	.L387
.LVL229:
.L415:
.LBB214:
.LBB215:
	.loc 1 275 0
	ldrh	r2, [ip, #20]
	tst	r2, #4
	beq	.L379
	.loc 1 279 0
	ldr	r2, [ip, #52]
	cmp	r0, r2
	ldreq	r2, [ip, #56]
.L389:
.LBE215:
.LBE214:
	.loc 1 466 0
	cmp	r2, #0
	beq	.L379
	.loc 1 467 0 discriminator 1
	ldr	r2, [r2, #16]
	.loc 1 466 0 discriminator 1
	cmp	r2, r1
	bgt	.L414
.L379:
	.loc 1 465 0 discriminator 2
	add	r3, r3, #1
.LVL230:
	cmp	r3, r4
	beq	.L392
.LVL231:
.L387:
.LBB218:
.LBB216:
	.loc 1 273 0
	cmp	r5, #0
.LBE216:
.LBE218:
	.loc 1 466 0
	ldr	ip, [lr, #4]!
.LVL232:
.LBB219:
.LBB217:
	.loc 1 273 0
	bne	.L415
.LVL233:
	.loc 1 279 0
	ldr	r2, [ip, #52]
	cmp	r0, r2
	bne	.L389
	.loc 1 280 0
	ldr	r2, [ip, #56]
	cmp	r0, r2
	bne	.L389
.LBE217:
.LBE219:
	.loc 1 465 0
	add	r3, r3, #1
.LVL234:
	cmp	r3, r4
	bne	.L387
.LVL235:
.L392:
	mov	r0, r1
.LVL236:
	ldmfd	sp!, {r4, r5, r6, pc}
.LVL237:
.L414:
	add	r6, r6, r3, asl #2
.LVL238:
.L381:
.LBB220:
	.loc 1 470 0
	add	r3, r3, #1
.LVL239:
	cmp	r3, r4
	bge	.L416
.L386:
.LBB221:
.LBB222:
	.loc 1 273 0
	cmp	r5, #0
.LBE222:
.LBE221:
	.loc 1 471 0
	ldr	lr, [r6, #4]!
.LVL240:
.LBB225:
.LBB223:
	.loc 1 273 0
	beq	.L382
	.loc 1 275 0
	ldrh	ip, [lr, #20]
	tst	ip, #4
	beq	.L381
	.loc 1 279 0
	ldr	ip, [lr, #52]
	cmp	r0, ip
	ldreq	ip, [lr, #56]
.L384:
.LBE223:
.LBE225:
	.loc 1 471 0
	cmp	ip, #0
	beq	.L381
	.loc 1 472 0 discriminator 1
	ldr	ip, [ip, #16]
	.loc 1 470 0 discriminator 1
	add	r3, r3, #1
.LVL241:
	.loc 1 472 0 discriminator 1
	cmp	r2, ip
	movle	lr, #0
.LVL242:
	movgt	lr, #1
	cmp	r1, ip
	movge	lr, #0
	cmp	lr, #0
	movne	r2, ip
.LVL243:
	.loc 1 470 0 discriminator 1
	cmp	r3, r4
	blt	.L386
.LVL244:
.L416:
	mov	r0, r2
.LVL245:
	ldmfd	sp!, {r4, r5, r6, pc}
.LVL246:
.L382:
.LBB226:
.LBB224:
	.loc 1 279 0
	ldr	ip, [lr, #52]
	cmp	r0, ip
	bne	.L384
	.loc 1 280 0
	ldr	ip, [lr, #56]
	cmp	r0, ip
	bne	.L384
	b	.L381
.L418:
	.align	2
.L417:
	.word	comp
.LBE224:
.LBE226:
.LBE220:
	.cfi_endproc
.LFE15:
	.size	P_FindNextHighestCeiling, .-P_FindNextHighestCeiling
	.align	2
	.global	P_FindLowestCeilingSurrounding
	.type	P_FindLowestCeilingSurrounding, %function
P_FindLowestCeilingSurrounding:
.LFB16:
	.loc 1 491 0
	.cfi_startproc
	@ args = 0, pretend = 0, frame = 0
	@ frame_needed = 0, uses_anonymous_args = 0
.LVL247:
	.loc 1 498 0
	ldr	r3, .L443
	.loc 1 491 0
	stmfd	sp!, {r4, lr}
	.cfi_def_cfa_offset 8
	.cfi_offset 4, -8
	.cfi_offset 14, -4
	.loc 1 498 0
	ldr	r4, [r3, #28]
	.loc 1 500 0
	ldr	lr, [r0, #148]
	.loc 1 498 0
	cmp	r4, #0
	mvnne	r1, #-2147483648
	moveq	r1, #2097152000
.LVL248:
	.loc 1 500 0
	cmp	lr, #0
	ble	.L432
	ldr	r2, [r0, #152]
	add	lr, r2, lr, asl #2
	b	.L425
.LVL249:
.L442:
.LBB227:
.LBB228:
	.loc 1 275 0
	ldrh	r3, [ip, #20]
	tst	r3, #4
	beq	.L423
	.loc 1 279 0
	ldr	r3, [ip, #52]
	cmp	r0, r3
	ldreq	r3, [ip, #56]
.L427:
.LBE228:
.LBE227:
	.loc 1 505 0
	cmp	r3, #0
	beq	.L423
	.loc 1 508 0
	ldr	r3, [r3, #16]
	cmp	r1, r3
	movge	r1, r3
.LVL250:
.L423:
	.loc 1 500 0 discriminator 2
	cmp	r2, lr
	beq	.L432
.LVL251:
.L425:
.LBB231:
.LBB229:
	.loc 1 273 0
	cmp	r4, #0
.LBE229:
.LBE231:
	.loc 1 502 0
	ldr	ip, [r2], #4
.LVL252:
.LBB232:
.LBB230:
	.loc 1 273 0
	bne	.L442
.LVL253:
	.loc 1 279 0
	ldr	r3, [ip, #52]
	cmp	r0, r3
	bne	.L427
	.loc 1 280 0
	ldr	r3, [ip, #56]
	cmp	r0, r3
	bne	.L427
	b	.L423
.LVL254:
.L432:
.LBE230:
.LBE232:
	.loc 1 512 0
	mov	r0, r1
.LVL255:
	ldmfd	sp!, {r4, pc}
.L444:
	.align	2
.L443:
	.word	comp
	.cfi_endproc
.LFE16:
	.size	P_FindLowestCeilingSurrounding, .-P_FindLowestCeilingSurrounding
	.align	2
	.global	P_FindHighestCeilingSurrounding
	.type	P_FindHighestCeilingSurrounding, %function
P_FindHighestCeilingSurrounding:
.LFB17:
	.loc 1 525 0
	.cfi_startproc
	@ args = 0, pretend = 0, frame = 0
	@ frame_needed = 0, uses_anonymous_args = 0
.LVL256:
	.loc 1 534 0
	ldr	r3, .L469
	.loc 1 525 0
	stmfd	sp!, {r4, lr}
	.cfi_def_cfa_offset 8
	.cfi_offset 4, -8
	.cfi_offset 14, -4
	.loc 1 534 0
	ldr	r4, [r3, #28]
	.loc 1 536 0
	ldr	lr, [r0, #148]
	.loc 1 534 0
	cmp	r4, #0
	moveq	r1, #-2097152000
	movne	r1, #0
.LVL257:
	.loc 1 536 0
	cmp	lr, #0
	ble	.L458
	ldr	r2, [r0, #152]
	add	lr, r2, lr, asl #2
	b	.L451
.LVL258:
.L468:
.LBB233:
.LBB234:
	.loc 1 275 0
	ldrh	r3, [ip, #20]
	tst	r3, #4
	beq	.L449
	.loc 1 279 0
	ldr	r3, [ip, #52]
	cmp	r0, r3
	ldreq	r3, [ip, #56]
.L453:
.LBE234:
.LBE233:
	.loc 1 541 0
	cmp	r3, #0
	beq	.L449
	.loc 1 544 0
	ldr	r3, [r3, #16]
	cmp	r1, r3
	movlt	r1, r3
.LVL259:
.L449:
	.loc 1 536 0 discriminator 2
	cmp	r2, lr
	beq	.L458
.LVL260:
.L451:
.LBB237:
.LBB235:
	.loc 1 273 0
	cmp	r4, #0
.LBE235:
.LBE237:
	.loc 1 538 0
	ldr	ip, [r2], #4
.LVL261:
.LBB238:
.LBB236:
	.loc 1 273 0
	bne	.L468
.LVL262:
	.loc 1 279 0
	ldr	r3, [ip, #52]
	cmp	r0, r3
	bne	.L453
	.loc 1 280 0
	ldr	r3, [ip, #56]
	cmp	r0, r3
	bne	.L453
	b	.L449
.LVL263:
.L458:
.LBE236:
.LBE238:
	.loc 1 548 0
	mov	r0, r1
.LVL264:
	ldmfd	sp!, {r4, pc}
.L470:
	.align	2
.L469:
	.word	comp
	.cfi_endproc
.LFE17:
	.size	P_FindHighestCeilingSurrounding, .-P_FindHighestCeilingSurrounding
	.align	2
	.global	P_FindShortestTextureAround
	.type	P_FindShortestTextureAround, %function
P_FindShortestTextureAround:
.LFB18:
	.loc 1 563 0
	.cfi_startproc
	@ args = 0, pretend = 0, frame = 0
	@ frame_needed = 0, uses_anonymous_args = 0
.LVL265:
	stmfd	sp!, {r4, r5, r6, r7, r8, r9, r10, lr}
	.cfi_def_cfa_offset 32
	.cfi_offset 4, -32
	.cfi_offset 5, -28
	.cfi_offset 6, -24
	.cfi_offset 7, -20
	.cfi_offset 8, -16
	.cfi_offset 9, -12
	.cfi_offset 10, -8
	.cfi_offset 14, -4
	.loc 1 567 0
	mov	r8, #196
	ldr	r2, .L483
	.loc 1 569 0
	ldr	r3, .L483+4
	.loc 1 567 0
	ldr	r2, [r2]
	.loc 1 569 0
	ldr	r3, [r3, #28]
	.loc 1 567 0
	mla	r8, r8, r0, r2
.LVL266:
	.loc 1 572 0
	ldr	r6, [r8, #148]
	.loc 1 570 0
	cmp	r3, #0
	mvnne	r10, #-2147483648
	moveq	r10, #2097152000
.LVL267:
	.loc 1 572 0
	cmp	r6, #0
	ble	.L473
	mov	r5, r0
	.loc 1 578 0
	mov	r4, #0
.LBB239:
.LBB240:
	.loc 1 213 0
	ldr	r2, .L483+8
.LBE240:
.LBE239:
	.loc 1 578 0
	ldr	r3, .L483+12
.LBB243:
.LBB241:
	.loc 1 213 0
	ldr	r7, [r2]
.LBE241:
.LBE243:
	.loc 1 578 0
	ldr	r9, [r3]
.LVL268:
.L476:
	.loc 1 574 0
	mov	r0, r5
	mov	r1, r4
	bl	twoSided
.LVL269:
	cmp	r0, #0
	beq	.L474
.LBB244:
.LBB242:
	.loc 1 213 0
	ldr	r3, [r8, #152]
	ldr	r2, [r3, r4, asl #2]
	ldrh	r3, [r2, #26]
.LBE242:
.LBE244:
	.loc 1 577 0
	add	r3, r3, r3, asl #4
	add	r3, r7, r3, asl #2
	ldrsh	r3, [r3, #10]
	cmp	r3, #0
	ble	.L475
	.loc 1 578 0
	ldr	r3, [r9, r3, asl #2]
	cmp	r10, r3
	movge	r10, r3
.LVL270:
.L475:
.LBB245:
.LBB246:
	.loc 1 213 0
	ldrh	r3, [r2, #28]
.LBE246:
.LBE245:
	.loc 1 581 0
	add	r3, r3, r3, asl #4
	add	r3, r7, r3, asl #2
	ldrsh	r3, [r3, #10]
	cmp	r3, #0
	ble	.L474
	.loc 1 582 0
	ldr	r3, [r9, r3, asl #2]
	cmp	r10, r3
	movge	r10, r3
.LVL271:
.L474:
	.loc 1 572 0 discriminator 2
	add	r4, r4, #1
.LVL272:
	cmp	r4, r6
	bne	.L476
.LVL273:
.L473:
	.loc 1 587 0
	mov	r0, r10
	ldmfd	sp!, {r4, r5, r6, r7, r8, r9, r10, pc}
.L484:
	.align	2
.L483:
	.word	sectors
	.word	comp
	.word	sides
	.word	textureheight
	.cfi_endproc
.LFE18:
	.size	P_FindShortestTextureAround, .-P_FindShortestTextureAround
	.align	2
	.global	P_FindShortestUpperAround
	.type	P_FindShortestUpperAround, %function
P_FindShortestUpperAround:
.LFB19:
	.loc 1 602 0
	.cfi_startproc
	@ args = 0, pretend = 0, frame = 0
	@ frame_needed = 0, uses_anonymous_args = 0
.LVL274:
	stmfd	sp!, {r4, r5, r6, r7, r8, r9, r10, lr}
	.cfi_def_cfa_offset 32
	.cfi_offset 4, -32
	.cfi_offset 5, -28
	.cfi_offset 6, -24
	.cfi_offset 7, -20
	.cfi_offset 8, -16
	.cfi_offset 9, -12
	.cfi_offset 10, -8
	.cfi_offset 14, -4
	.loc 1 606 0
	mov	r8, #196
	ldr	r2, .L497
	.loc 1 608 0
	ldr	r3, .L497+4
	.loc 1 606 0
	ldr	r2, [r2]
	.loc 1 608 0
	ldr	r3, [r3, #28]
	.loc 1 606 0
	mla	r8, r8, r0, r2
.LVL275:
	.loc 1 611 0
	ldr	r6, [r8, #148]
	.loc 1 609 0
	cmp	r3, #0
	mvnne	r10, #-2147483648
	moveq	r10, #2097152000
.LVL276:
	.loc 1 611 0
	cmp	r6, #0
	ble	.L487
	mov	r5, r0
	.loc 1 617 0
	mov	r4, #0
.LBB247:
.LBB248:
	.loc 1 213 0
	ldr	r2, .L497+8
.LBE248:
.LBE247:
	.loc 1 617 0
	ldr	r3, .L497+12
.LBB251:
.LBB249:
	.loc 1 213 0
	ldr	r7, [r2]
.LBE249:
.LBE251:
	.loc 1 617 0
	ldr	r9, [r3]
.LVL277:
.L490:
	.loc 1 613 0
	mov	r0, r5
	mov	r1, r4
	bl	twoSided
.LVL278:
	cmp	r0, #0
	beq	.L488
.LBB252:
.LBB250:
	.loc 1 213 0
	ldr	r3, [r8, #152]
	ldr	r2, [r3, r4, asl #2]
	ldrh	r3, [r2, #26]
.LBE250:
.LBE252:
	.loc 1 616 0
	add	r3, r3, r3, asl #4
	add	r3, r7, r3, asl #2
	ldrsh	r3, [r3, #8]
	cmp	r3, #0
	ble	.L489
	.loc 1 617 0
	ldr	r3, [r9, r3, asl #2]
	cmp	r10, r3
	movge	r10, r3
.LVL279:
.L489:
.LBB253:
.LBB254:
	.loc 1 213 0
	ldrh	r3, [r2, #28]
.LBE254:
.LBE253:
	.loc 1 620 0
	add	r3, r3, r3, asl #4
	add	r3, r7, r3, asl #2
	ldrsh	r3, [r3, #8]
	cmp	r3, #0
	ble	.L488
	.loc 1 621 0
	ldr	r3, [r9, r3, asl #2]
	cmp	r10, r3
	movge	r10, r3
.LVL280:
.L488:
	.loc 1 611 0 discriminator 2
	add	r4, r4, #1
.LVL281:
	cmp	r4, r6
	bne	.L490
.LVL282:
.L487:
	.loc 1 626 0
	mov	r0, r10
	ldmfd	sp!, {r4, r5, r6, r7, r8, r9, r10, pc}
.L498:
	.align	2
.L497:
	.word	sectors
	.word	comp
	.word	sides
	.word	textureheight
	.cfi_endproc
.LFE19:
	.size	P_FindShortestUpperAround, .-P_FindShortestUpperAround
	.align	2
	.global	P_FindModelFloorSector
	.type	P_FindModelFloorSector, %function
P_FindModelFloorSector:
.LFB20:
	.loc 1 644 0
	.cfi_startproc
	@ args = 0, pretend = 0, frame = 8
	@ frame_needed = 0, uses_anonymous_args = 0
.LVL283:
	stmfd	sp!, {r4, r5, r6, r7, r8, r9, r10, fp, lr}
	.cfi_def_cfa_offset 36
	.cfi_offset 4, -36
	.cfi_offset 5, -32
	.cfi_offset 6, -28
	.cfi_offset 7, -24
	.cfi_offset 8, -20
	.cfi_offset 9, -16
	.cfi_offset 10, -12
	.cfi_offset 11, -8
	.cfi_offset 14, -4
	mov	r5, r1
	.loc 1 649 0
	mov	r7, #196
	ldr	r3, .L512
	ldr	r1, .L512+4
.LVL284:
	ldr	r9, [r3]
.LBB255:
.LBB256:
	.loc 1 213 0
	ldr	r3, .L512+8
.LBE256:
.LBE255:
	.loc 1 649 0
	mla	r7, r7, r5, r9
.LVL285:
	.loc 1 644 0
	sub	sp, sp, #12
	.cfi_def_cfa_offset 48
	.loc 1 644 0
	str	r0, [sp, #4]
	.loc 1 652 0
	ldr	r4, [r7, #148]
.LVL286:
	.loc 1 653 0
	mov	r10, r7
	ldrb	r6, [r1]	@ zero_extendqisi2
.LBB260:
.LBB257:
	.loc 1 213 0
	ldr	r8, [r3]
.LBE257:
.LBE260:
	.loc 1 653 0
	mov	fp, #0
	b	.L500
.LVL287:
.L505:
	.loc 1 656 0
	mov	r0, r5
	mov	r1, fp
	bl	twoSided
.LVL288:
	cmp	r0, #0
	beq	.L501
.LVL289:
.LBB261:
.LBB258:
	.loc 1 213 0
	ldr	r2, [r7, #152]
.LBE258:
.LBE261:
	.loc 1 658 0
	ldr	r3, .L512+12
.LBB262:
.LBB259:
	.loc 1 213 0
	ldr	r1, [r2, fp, asl #2]
	ldrh	r2, [r1, #26]
.LBE259:
.LBE262:
	.loc 1 658 0
	add	r2, r2, r2, asl #4
	add	r2, r8, r2, asl #2
	ldr	r10, [r2, #16]
.LVL290:
	rsb	r0, r9, r10
	mov	r0, r0, asr #2
	mul	r0, r3, r0
	cmp	r0, r5
.LBB263:
.LBB264:
	.loc 1 231 0
	ldreqh	r2, [r1, #28]
.LBE264:
.LBE263:
	.loc 1 663 0
	ldr	r3, [sp, #4]
.LBB266:
.LBB265:
	.loc 1 231 0
	addeq	r2, r2, r2, asl #4
	addeq	r2, r8, r2, asl #2
	ldreq	r10, [r2, #16]
.LVL291:
.LBE265:
.LBE266:
	.loc 1 663 0
	ldr	r1, [r10, #12]
	cmp	r1, r3
	beq	.L506
.LVL292:
.L501:
	.loc 1 654 0 discriminator 1
	add	fp, fp, #1
.LVL293:
.L500:
	cmp	r6, #6
	.loc 1 652 0 discriminator 1
	movhi	r1, r4
	.loc 1 654 0 discriminator 1
	bhi	.L504
	ldr	r1, [r10, #148]
	cmp	r4, r1
	movlt	r1, r4
.L504:
	.loc 1 653 0
	cmp	fp, r1
	blt	.L505
	.loc 1 667 0
	mov	r0, #0
	.loc 1 668 0
	add	sp, sp, #12
	.cfi_remember_state
	.cfi_def_cfa_offset 36
	@ sp needed
	ldmfd	sp!, {r4, r5, r6, r7, r8, r9, r10, fp, pc}
.LVL294:
.L506:
	.cfi_restore_state
	mov	r0, r10
	add	sp, sp, #12
	.cfi_def_cfa_offset 36
	@ sp needed
	ldmfd	sp!, {r4, r5, r6, r7, r8, r9, r10, fp, pc}
.LVL295:
.L513:
	.align	2
.L512:
	.word	sectors
	.word	compatibility_level
	.word	sides
	.word	438261969
	.cfi_endproc
.LFE20:
	.size	P_FindModelFloorSector, .-P_FindModelFloorSector
	.align	2
	.global	P_FindModelCeilingSector
	.type	P_FindModelCeilingSector, %function
P_FindModelCeilingSector:
.LFB21:
	.loc 1 687 0
	.cfi_startproc
	@ args = 0, pretend = 0, frame = 8
	@ frame_needed = 0, uses_anonymous_args = 0
.LVL296:
	stmfd	sp!, {r4, r5, r6, r7, r8, r9, r10, fp, lr}
	.cfi_def_cfa_offset 36
	.cfi_offset 4, -36
	.cfi_offset 5, -32
	.cfi_offset 6, -28
	.cfi_offset 7, -24
	.cfi_offset 8, -20
	.cfi_offset 9, -16
	.cfi_offset 10, -12
	.cfi_offset 11, -8
	.cfi_offset 14, -4
	mov	r5, r1
	.loc 1 692 0
	mov	r7, #196
	ldr	r3, .L527
	ldr	r1, .L527+4
.LVL297:
	ldr	r9, [r3]
.LBB267:
.LBB268:
	.loc 1 213 0
	ldr	r3, .L527+8
.LBE268:
.LBE267:
	.loc 1 692 0
	mla	r7, r7, r5, r9
.LVL298:
	.loc 1 687 0
	sub	sp, sp, #12
	.cfi_def_cfa_offset 48
	.loc 1 687 0
	str	r0, [sp, #4]
	.loc 1 695 0
	ldr	r4, [r7, #148]
.LVL299:
	.loc 1 696 0
	mov	r10, r7
	ldrb	r6, [r1]	@ zero_extendqisi2
.LBB272:
.LBB269:
	.loc 1 213 0
	ldr	r8, [r3]
.LBE269:
.LBE272:
	.loc 1 696 0
	mov	fp, #0
	b	.L515
.LVL300:
.L520:
	.loc 1 699 0
	mov	r0, r5
	mov	r1, fp
	bl	twoSided
.LVL301:
	cmp	r0, #0
	beq	.L516
.LVL302:
.LBB273:
.LBB270:
	.loc 1 213 0
	ldr	r2, [r7, #152]
.LBE270:
.LBE273:
	.loc 1 701 0
	ldr	r3, .L527+12
.LBB274:
.LBB271:
	.loc 1 213 0
	ldr	r1, [r2, fp, asl #2]
	ldrh	r2, [r1, #26]
.LBE271:
.LBE274:
	.loc 1 701 0
	add	r2, r2, r2, asl #4
	add	r2, r8, r2, asl #2
	ldr	r10, [r2, #16]
.LVL303:
	rsb	r0, r9, r10
	mov	r0, r0, asr #2
	mul	r0, r3, r0
	cmp	r0, r5
.LBB275:
.LBB276:
	.loc 1 231 0
	ldreqh	r2, [r1, #28]
.LBE276:
.LBE275:
	.loc 1 706 0
	ldr	r3, [sp, #4]
.LBB278:
.LBB277:
	.loc 1 231 0
	addeq	r2, r2, r2, asl #4
	addeq	r2, r8, r2, asl #2
	ldreq	r10, [r2, #16]
.LVL304:
.LBE277:
.LBE278:
	.loc 1 706 0
	ldr	r1, [r10, #16]
	cmp	r1, r3
	beq	.L521
.LVL305:
.L516:
	.loc 1 697 0 discriminator 1
	add	fp, fp, #1
.LVL306:
.L515:
	cmp	r6, #6
	.loc 1 695 0 discriminator 1
	movhi	r1, r4
	.loc 1 697 0 discriminator 1
	bhi	.L519
	ldr	r1, [r10, #148]
	cmp	r4, r1
	movlt	r1, r4
.L519:
	.loc 1 696 0
	cmp	fp, r1
	blt	.L520
	.loc 1 710 0
	mov	r0, #0
	.loc 1 711 0
	add	sp, sp, #12
	.cfi_remember_state
	.cfi_def_cfa_offset 36
	@ sp needed
	ldmfd	sp!, {r4, r5, r6, r7, r8, r9, r10, fp, pc}
.LVL307:
.L521:
	.cfi_restore_state
	mov	r0, r10
	add	sp, sp, #12
	.cfi_def_cfa_offset 36
	@ sp needed
	ldmfd	sp!, {r4, r5, r6, r7, r8, r9, r10, fp, pc}
.LVL308:
.L528:
	.align	2
.L527:
	.word	sectors
	.word	compatibility_level
	.word	sides
	.word	438261969
	.cfi_endproc
.LFE21:
	.size	P_FindModelCeilingSector, .-P_FindModelCeilingSector
	.global	__aeabi_uidivmod
	.align	2
	.global	P_FindSectorFromLineTag
	.type	P_FindSectorFromLineTag, %function
P_FindSectorFromLineTag:
.LFB22:
	.loc 1 721 0
	.cfi_startproc
	@ args = 0, pretend = 0, frame = 0
	@ frame_needed = 0, uses_anonymous_args = 0
.LVL309:
	.loc 1 722 0
	cmp	r1, #0
	.loc 1 721 0
	stmfd	sp!, {r4, lr}
	.cfi_def_cfa_offset 8
	.cfi_offset 4, -8
	.cfi_offset 14, -4
	.loc 1 721 0
	mov	r4, r0
	.loc 1 722 0
	blt	.L530
	.loc 1 722 0 is_stmt 0 discriminator 1
	mov	r0, #196
.LVL310:
	ldr	r2, .L538
	ldr	r3, [r2]
	mla	r1, r0, r1, r3
.LVL311:
	ldr	r3, [r1, #20]
.L533:
.LVL312:
	.loc 1 724 0 is_stmt 1
	cmp	r3, #0
	blt	.L531
	mov	r1, #196
	ldr	ip, [r2]
	ldrsh	lr, [r4, #24]
	mla	r2, r1, r3, ip
	ldrsh	r0, [r2, #194]
	cmp	r0, lr
	movne	r0, r1
	bne	.L534
	b	.L531
.L537:
	.loc 1 724 0 is_stmt 0 discriminator 1
	mla	r2, r0, r3, ip
	ldrsh	r1, [r2, #194]
	cmp	r1, lr
	beq	.L531
.L534:
.LVL313:
	.loc 1 725 0 is_stmt 1
	ldr	r3, [r2, #20]
	.loc 1 724 0
	cmp	r3, #0
	bge	.L537
.LVL314:
.L531:
	.loc 1 727 0
	mov	r0, r3
	ldmfd	sp!, {r4, pc}
.LVL315:
.L530:
	.loc 1 723 0 discriminator 2
	ldr	r3, .L538+4
	ldrsh	r0, [r0, #24]
.LVL316:
	ldr	r1, [r3]
.LVL317:
	bl	__aeabi_uidivmod
.LVL318:
	.loc 1 722 0 discriminator 2
	mov	r3, #196
	ldr	r2, .L538
	ldr	r0, [r2]
	mla	r1, r3, r1, r0
	ldr	r3, [r1, #24]
	b	.L533
.L539:
	.align	2
.L538:
	.word	sectors
	.word	numsectors
	.cfi_endproc
.LFE22:
	.size	P_FindSectorFromLineTag, .-P_FindSectorFromLineTag
	.align	2
	.global	P_FindLineFromLineTag
	.type	P_FindLineFromLineTag, %function
P_FindLineFromLineTag:
.LFB23:
	.loc 1 732 0
	.cfi_startproc
	@ args = 0, pretend = 0, frame = 0
	@ frame_needed = 0, uses_anonymous_args = 0
.LVL319:
	.loc 1 733 0
	cmp	r1, #0
	.loc 1 732 0
	stmfd	sp!, {r4, lr}
	.cfi_def_cfa_offset 8
	.cfi_offset 4, -8
	.cfi_offset 14, -4
	.loc 1 732 0
	mov	r4, r0
	.loc 1 733 0
	blt	.L541
	.loc 1 733 0 is_stmt 0 discriminator 1
	ldr	r3, .L549
	rsb	r1, r1, r1, asl #5
.LVL320:
	ldr	r2, [r3]
	add	r1, r2, r1, asl #2
	ldr	r2, [r1, #76]
.LVL321:
.L544:
	.loc 1 735 0 is_stmt 1
	cmp	r2, #0
	blt	.L542
	ldr	ip, [r3]
	rsb	r3, r2, r2, asl #5
	add	r3, ip, r3, asl #2
	ldrsh	r0, [r4, #24]
	ldrsh	r1, [r3, #24]
	cmp	r1, r0
	bne	.L545
	b	.L542
.L548:
	.loc 1 735 0 is_stmt 0 discriminator 1
	ldrsh	r1, [r3, #24]
	cmp	r1, r0
	beq	.L542
.L545:
.LVL322:
	.loc 1 736 0 is_stmt 1
	ldr	r2, [r3, #76]
	.loc 1 735 0
	rsb	r3, r2, r2, asl #5
.LVL323:
	cmp	r2, #0
	add	r3, ip, r3, asl #2
	bge	.L548
.L542:
	.loc 1 738 0
	mov	r0, r2
	ldmfd	sp!, {r4, pc}
.LVL324:
.L541:
	.loc 1 734 0 discriminator 2
	ldr	r3, .L549+4
	ldrsh	r0, [r0, #24]
.LVL325:
	ldr	r1, [r3]
.LVL326:
	bl	__aeabi_uidivmod
.LVL327:
	.loc 1 733 0 discriminator 2
	ldr	r3, .L549
	rsb	r1, r1, r1, asl #5
	ldr	r2, [r3]
	add	r1, r2, r1, asl #2
	ldr	r2, [r1, #72]
	b	.L544
.L550:
	.align	2
.L549:
	.word	lines
	.word	numlines
	.cfi_endproc
.LFE23:
	.size	P_FindLineFromLineTag, .-P_FindLineFromLineTag
	.align	2
	.global	P_FindMinSurroundingLight
	.type	P_FindMinSurroundingLight, %function
P_FindMinSurroundingLight:
.LFB25:
	.loc 1 776 0
	.cfi_startproc
	@ args = 0, pretend = 0, frame = 0
	@ frame_needed = 0, uses_anonymous_args = 0
.LVL328:
	stmfd	sp!, {r4, lr}
	.cfi_def_cfa_offset 8
	.cfi_offset 4, -8
	.cfi_offset 14, -4
	.loc 1 783 0
	ldr	lr, [r0, #148]
.LVL329:
	cmp	lr, #0
	ble	.L562
	ldr	r3, .L573
	ldr	r2, [r0, #152]
	ldr	r4, [r3, #28]
	add	lr, r2, lr, asl #2
	b	.L556
.LVL330:
.L572:
.LBB279:
.LBB280:
	.loc 1 275 0
	ldrh	r3, [ip, #20]
	tst	r3, #4
	beq	.L554
	.loc 1 279 0
	ldr	r3, [ip, #52]
	cmp	r0, r3
	ldreq	r3, [ip, #56]
.L558:
.LBE280:
.LBE279:
	.loc 1 788 0
	cmp	r3, #0
	beq	.L554
	.loc 1 791 0
	ldrsh	r3, [r3, #188]
	cmp	r1, r3
	movge	r1, r3
.LVL331:
.L554:
	.loc 1 783 0 discriminator 2
	cmp	r2, lr
	beq	.L562
.LVL332:
.L556:
.LBB283:
.LBB281:
	.loc 1 273 0
	cmp	r4, #0
.LBE281:
.LBE283:
	.loc 1 785 0
	ldr	ip, [r2], #4
.LVL333:
.LBB284:
.LBB282:
	.loc 1 273 0
	bne	.L572
.LVL334:
	.loc 1 279 0
	ldr	r3, [ip, #52]
	cmp	r0, r3
	bne	.L558
	.loc 1 280 0
	ldr	r3, [ip, #56]
	cmp	r0, r3
	bne	.L558
	b	.L554
.LVL335:
.L562:
.LBE282:
.LBE284:
	.loc 1 795 0
	mov	r0, r1
.LVL336:
	ldmfd	sp!, {r4, pc}
.L574:
	.align	2
.L573:
	.word	comp
	.cfi_endproc
.LFE25:
	.size	P_FindMinSurroundingLight, .-P_FindMinSurroundingLight
	.align	2
	.global	P_CanUnlockGenDoor
	.type	P_CanUnlockGenDoor, %function
P_CanUnlockGenDoor:
.LFB26:
	.loc 1 813 0
	.cfi_startproc
	@ args = 0, pretend = 0, frame = 0
	@ frame_needed = 0, uses_anonymous_args = 0
.LVL337:
	.loc 1 815 0
	ldrh	r3, [r0, #22]
	.loc 1 813 0
	stmfd	sp!, {r4, lr}
	.cfi_def_cfa_offset 8
	.cfi_offset 4, -8
	.cfi_offset 14, -4
	.loc 1 818 0
	and	r4, r3, #448
	mov	r4, r4, asr #6
	.loc 1 815 0
	and	r3, r3, #512
	.loc 1 818 0
	sub	r2, r4, #1
	.loc 1 813 0
	mov	ip, r1
	.loc 1 815 0
	mov	r3, r3, lsr #9
.LVL338:
	.loc 1 818 0
	cmp	r2, #6
	ldrls	pc, [pc, r2, asl #2]
	b	.L576
.L578:
	.word	.L577
	.word	.L579
	.word	.L580
	.word	.L581
	.word	.L582
	.word	.L583
	.word	.L584
.L583:
	.loc 1 899 0
	ldr	r4, [r1, #92]
	.loc 1 898 0
	cmp	r4, #0
	bne	.L621
	.loc 1 899 0
	cmp	r3, #0
	bne	.L647
	.loc 1 903 0 discriminator 2
	ldr	r3, .L651
.LVL339:
	ldr	r3, [r3]
	b	.L597
.LVL340:
.L576:
	.loc 1 822 0
	ldr	r3, [r1, #84]
.LVL341:
	cmp	r3, #0
	bne	.L621
	.loc 1 823 0
	ldr	r3, [r1, #96]
	cmp	r3, #0
	bne	.L621
	.loc 1 824 0
	ldr	r3, [r1, #76]
	cmp	r3, #0
	bne	.L621
	.loc 1 825 0
	ldr	r3, [r1, #88]
	cmp	r3, #0
	bne	.L621
	.loc 1 826 0
	ldr	r3, [r1, #80]
	cmp	r3, #0
	bne	.L621
	.loc 1 828 0
	ldr	r4, [r1, #92]
	.loc 1 827 0
	cmp	r4, #0
	bne	.L621
	.loc 1 831 0
	ldr	r3, .L651+4
	.loc 1 832 0
	ldr	r0, [r1]
.LVL342:
	.loc 1 831 0
	ldr	r3, [r3]
	.loc 1 832 0
	mov	r1, #34
.LVL343:
	.loc 1 831 0
	str	r3, [ip, #220]
	.loc 1 832 0
	bl	S_StartSound
.LVL344:
	.loc 1 833 0
	b	.L585
.LVL345:
.L577:
	.loc 1 839 0
	ldr	r2, [r1, #84]
	.loc 1 838 0
	cmp	r2, #0
	bne	.L585
	.loc 1 839 0
	cmp	r3, #0
	beq	.L586
	.loc 1 840 0
	ldr	r3, [r1, #96]
.LVL346:
	cmp	r3, #0
	bne	.L585
	.loc 1 843 0 discriminator 1
	ldr	r3, .L651+8
	ldr	r3, [r3]
.L587:
	.loc 1 843 0 is_stmt 0 discriminator 4
	str	r3, [ip, #220]
	.loc 1 844 0 is_stmt 1 discriminator 4
	ldr	r0, [ip]
.LVL347:
	mov	r1, #34
.LVL348:
	bl	S_StartSound
.LVL349:
	.loc 1 845 0 discriminator 4
	mov	r4, #0
	b	.L585
.LVL350:
.L579:
	.loc 1 851 0
	ldr	r4, [r1, #76]
	.loc 1 850 0
	cmp	r4, #0
	bne	.L621
	.loc 1 851 0
	cmp	r3, #0
	bne	.L648
	.loc 1 855 0 discriminator 2
	ldr	r3, .L651+12
.LVL351:
	ldr	r3, [r3]
	b	.L597
.LVL352:
.L581:
	.loc 1 875 0
	ldr	r4, [r1, #96]
	.loc 1 874 0
	cmp	r4, #0
	bne	.L621
	.loc 1 875 0
	cmp	r3, #0
	beq	.L592
	.loc 1 876 0
	ldr	r3, [r1, #84]
.LVL353:
	cmp	r3, #0
	bne	.L621
	.loc 1 879 0 discriminator 1
	ldr	r3, .L651+8
	ldr	r3, [r3]
	b	.L597
.LVL354:
.L582:
	.loc 1 887 0
	ldr	r4, [r1, #88]
	.loc 1 886 0
	cmp	r4, #0
	bne	.L621
	.loc 1 887 0
	cmp	r3, #0
	beq	.L594
	.loc 1 888 0
	ldr	r3, [r1, #76]
.LVL355:
	cmp	r3, #0
	bne	.L621
.L645:
	.loc 1 891 0 discriminator 1
	ldr	r3, .L651+16
	ldr	r3, [r3]
	b	.L597
.LVL356:
.L580:
	.loc 1 863 0
	ldr	r4, [r1, #80]
	.loc 1 862 0
	cmp	r4, #0
	bne	.L621
	.loc 1 863 0
	cmp	r3, #0
	beq	.L590
	.loc 1 864 0
	ldr	r3, [r1, #92]
.LVL357:
	cmp	r3, #0
	bne	.L621
.L646:
	.loc 1 903 0 discriminator 1
	ldr	r3, .L651+20
	ldr	r3, [r3]
.L597:
	.loc 1 904 0 discriminator 4
	ldr	r0, [ip]
.LVL358:
	.loc 1 903 0 discriminator 4
	str	r3, [ip, #220]
	.loc 1 904 0 discriminator 4
	mov	r1, #34
.LVL359:
	bl	S_StartSound
.LVL360:
	.loc 1 946 0 discriminator 4
	mov	r0, r4
	ldmfd	sp!, {r4, pc}
.LVL361:
.L649:
	.loc 1 911 0
	cmp	r3, #0
	beq	.L599
	.loc 1 913 0
	ldr	r3, [r1, #96]
	cmp	r3, #0
	beq	.L599
	.loc 1 914 0
	ldr	r3, [r1, #76]
	cmp	r3, #0
	beq	.L599
	.loc 1 915 0
	ldr	r3, [r1, #88]
	cmp	r3, #0
	beq	.L599
	.loc 1 916 0
	ldr	r3, [r1, #80]
	cmp	r3, #0
	beq	.L599
	.loc 1 917 0
	ldr	r3, [r1, #92]
	cmp	r3, #0
	beq	.L599
.L621:
	.loc 1 945 0
	mov	r4, #1
.LVL362:
.L585:
	.loc 1 946 0
	mov	r0, r4
	ldmfd	sp!, {r4, pc}
.LVL363:
.L584:
	.loc 1 910 0
	cmp	r3, #0
	.loc 1 911 0
	ldr	r3, [r1, #84]
.LVL364:
	.loc 1 910 0
	beq	.L649
	.loc 1 928 0
	cmp	r3, #0
	beq	.L650
.L600:
	.loc 1 931 0
	ldr	r3, [ip, #76]
	cmp	r3, #0
	bne	.L602
	.loc 1 932 0
	ldr	r3, [ip, #88]
	cmp	r3, #0
	beq	.L601
.L602:
	.loc 1 933 0
	ldr	r3, [ip, #80]
	cmp	r3, #0
	bne	.L621
	.loc 1 934 0
	ldr	r3, [ip, #92]
	cmp	r3, #0
	bne	.L621
.L601:
	.loc 1 939 0
	ldr	r3, .L651+24
	b	.L644
.L599:
	.loc 1 922 0
	ldr	r3, .L651+28
.L644:
	.loc 1 939 0
	ldr	r3, [r3]
	.loc 1 940 0
	ldr	r0, [ip]
.LVL365:
	mov	r1, #34
.LVL366:
	.loc 1 939 0
	str	r3, [ip, #220]
	.loc 1 940 0
	bl	S_StartSound
.LVL367:
	.loc 1 941 0
	mov	r4, #0
	b	.L585
.LVL368:
.L647:
	.loc 1 900 0
	ldr	r3, [r1, #80]
.LVL369:
	cmp	r3, #0
	beq	.L646
	b	.L621
.LVL370:
.L648:
	.loc 1 852 0
	ldr	r3, [r1, #88]
.LVL371:
	cmp	r3, #0
	beq	.L645
	b	.L621
.LVL372:
.L592:
	.loc 1 879 0 discriminator 2
	ldr	r3, .L651+32
.LVL373:
	ldr	r3, [r3]
	b	.L597
.LVL374:
.L590:
	.loc 1 867 0 discriminator 2
	ldr	r3, .L651+36
.LVL375:
	ldr	r3, [r3]
	b	.L597
.LVL376:
.L594:
	.loc 1 891 0 discriminator 2
	ldr	r3, .L651+40
.LVL377:
	ldr	r3, [r3]
	b	.L597
.LVL378:
.L586:
	.loc 1 843 0 discriminator 2
	ldr	r3, .L651+44
.LVL379:
	ldr	r3, [r3]
	b	.L587
.L650:
	.loc 1 930 0
	ldr	r3, [r1, #96]
	cmp	r3, #0
	beq	.L601
	b	.L600
.L652:
	.align	2
.L651:
	.word	s_PD_YELLOWS
	.word	s_PD_ANY
	.word	s_PD_REDK
	.word	s_PD_BLUEC
	.word	s_PD_BLUEK
	.word	s_PD_YELLOWK
	.word	s_PD_ALL3
	.word	s_PD_ALL6
	.word	s_PD_REDS
	.word	s_PD_YELLOWC
	.word	s_PD_BLUES
	.word	s_PD_REDC
	.cfi_endproc
.LFE26:
	.size	P_CanUnlockGenDoor, .-P_CanUnlockGenDoor
	.align	2
	.global	P_SectorActive
	.type	P_SectorActive, %function
P_SectorActive:
.LFB27:
	.loc 1 961 0
	.cfi_startproc
	@ args = 0, pretend = 0, frame = 0
	@ frame_needed = 0, uses_anonymous_args = 0
	@ link register save eliminated.
.LVL380:
	.loc 1 962 0
	ldr	r3, .L664
	ldrb	r3, [r3]	@ zero_extendqisi2
	cmp	r3, #6
	bhi	.L654
	.loc 1 963 0
	ldr	r3, [r1, #104]
	cmp	r3, #0
	beq	.L663
.L662:
	.loc 1 974 0
	mov	r0, #1
.LVL381:
	.loc 1 975 0
	bx	lr
.LVL382:
.L654:
	.loc 1 965 0
	cmp	r0, #1
	beq	.L656
	bcc	.L657
	cmp	r0, #2
	bne	.L662
.L658:
	.loc 1 972 0
	ldr	r0, [r1, #112]
.LVL383:
	adds	r0, r0, #0
	movne	r0, #1
	bx	lr
.LVL384:
.L656:
	.loc 1 970 0
	ldr	r0, [r1, #108]
.LVL385:
	adds	r0, r0, #0
	movne	r0, #1
	bx	lr
.LVL386:
.L663:
	.loc 1 963 0 discriminator 2
	ldr	r3, [r1, #108]
	cmp	r3, #0
	bne	.L662
	b	.L658
.L657:
	.loc 1 968 0
	ldr	r0, [r1, #104]
.LVL387:
	adds	r0, r0, #0
	movne	r0, #1
	bx	lr
.L665:
	.align	2
.L664:
	.word	compatibility_level
	.cfi_endproc
.LFE27:
	.size	P_SectorActive, .-P_SectorActive
	.align	2
	.global	P_CheckTag
	.type	P_CheckTag, %function
P_CheckTag:
.LFB28:
	.loc 1 991 0
	.cfi_startproc
	@ args = 0, pretend = 0, frame = 0
	@ frame_needed = 0, uses_anonymous_args = 0
	@ link register save eliminated.
.LVL388:
	.loc 1 994 0
	ldr	r3, .L673
	ldr	r3, [r3, #72]
	cmp	r3, #0
	bne	.L672
	.loc 1 994 0 is_stmt 0 discriminator 1
	ldrsh	r2, [r0, #24]
	cmp	r2, #0
	bne	.L672
.LVL389:
.LBB287:
.LBB288:
	.loc 1 997 0 is_stmt 1
	ldrsh	r2, [r0, #22]
	sub	r2, r2, #1
	cmp	r2, #209
	ldrls	pc, [pc, r2, asl #2]
	b	.L667
.L669:
	.word	.L672
	.word	.L667
	.word	.L667
	.word	.L667
	.word	.L667
	.word	.L667
	.word	.L667
	.word	.L667
	.word	.L667
	.word	.L667
	.word	.L672
	.word	.L672
	.word	.L672
	.word	.L667
	.word	.L667
	.word	.L667
	.word	.L672
	.word	.L667
	.word	.L667
	.word	.L667
	.word	.L667
	.word	.L667
	.word	.L667
	.word	.L667
	.word	.L667
	.word	.L672
	.word	.L672
	.word	.L672
	.word	.L667
	.word	.L667
	.word	.L672
	.word	.L672
	.word	.L672
	.word	.L672
	.word	.L672
	.word	.L667
	.word	.L667
	.word	.L667
	.word	.L672
	.word	.L667
	.word	.L667
	.word	.L667
	.word	.L667
	.word	.L667
	.word	.L667
	.word	.L667
	.word	.L667
	.word	.L672
	.word	.L667
	.word	.L667
	.word	.L672
	.word	.L672
	.word	.L667
	.word	.L667
	.word	.L667
	.word	.L667
	.word	.L667
	.word	.L667
	.word	.L667
	.word	.L667
	.word	.L667
	.word	.L667
	.word	.L667
	.word	.L667
	.word	.L667
	.word	.L667
	.word	.L667
	.word	.L667
	.word	.L667
	.word	.L667
	.word	.L667
	.word	.L667
	.word	.L667
	.word	.L667
	.word	.L667
	.word	.L667
	.word	.L667
	.word	.L667
	.word	.L672
	.word	.L672
	.word	.L672
	.word	.L667
	.word	.L667
	.word	.L667
	.word	.L672
	.word	.L667
	.word	.L667
	.word	.L667
	.word	.L667
	.word	.L667
	.word	.L667
	.word	.L667
	.word	.L667
	.word	.L667
	.word	.L667
	.word	.L667
	.word	.L672
	.word	.L667
	.word	.L667
	.word	.L667
	.word	.L667
	.word	.L667
	.word	.L667
	.word	.L672
	.word	.L667
	.word	.L667
	.word	.L667
	.word	.L667
	.word	.L667
	.word	.L667
	.word	.L667
	.word	.L667
	.word	.L667
	.word	.L667
	.word	.L667
	.word	.L667
	.word	.L672
	.word	.L672
	.word	.L667
	.word	.L667
	.word	.L667
	.word	.L667
	.word	.L667
	.word	.L672
	.word	.L672
	.word	.L672
	.word	.L667
	.word	.L667
	.word	.L667
	.word	.L667
	.word	.L667
	.word	.L667
	.word	.L667
	.word	.L667
	.word	.L667
	.word	.L667
	.word	.L667
	.word	.L672
	.word	.L672
	.word	.L667
	.word	.L667
	.word	.L667
	.word	.L667
	.word	.L667
	.word	.L667
	.word	.L667
	.word	.L667
	.word	.L667
	.word	.L667
	.word	.L667
	.word	.L667
	.word	.L667
	.word	.L667
	.word	.L667
	.word	.L667
	.word	.L672
	.word	.L672
	.word	.L667
	.word	.L667
	.word	.L667
	.word	.L667
	.word	.L667
	.word	.L667
	.word	.L667
	.word	.L667
	.word	.L667
	.word	.L667
	.word	.L667
	.word	.L672
	.word	.L672
	.word	.L672
	.word	.L672
	.word	.L672
	.word	.L672
	.word	.L667
	.word	.L667
	.word	.L667
	.word	.L667
	.word	.L667
	.word	.L667
	.word	.L667
	.word	.L667
	.word	.L667
	.word	.L667
	.word	.L667
	.word	.L667
	.word	.L667
	.word	.L667
	.word	.L667
	.word	.L667
	.word	.L667
	.word	.L672
	.word	.L672
	.word	.L672
	.word	.L672
	.word	.L667
	.word	.L672
	.word	.L672
	.word	.L667
	.word	.L667
	.word	.L667
	.word	.L667
	.word	.L667
	.word	.L667
	.word	.L667
	.word	.L667
	.word	.L672
	.word	.L672
	.word	.L672
	.word	.L672
.LVL390:
.L672:
	.loc 1 1051 0
	mov	r3, #1
.L667:
.LBE288:
.LBE287:
	.loc 1 1057 0
	mov	r0, r3
.LVL391:
	bx	lr
.L674:
	.align	2
.L673:
	.word	comp
	.cfi_endproc
.LFE28:
	.size	P_CheckTag, .-P_CheckTag
	.align	2
	.global	P_IsSecret
	.type	P_IsSecret, %function
P_IsSecret:
.LFB29:
	.loc 1 1070 0
	.cfi_startproc
	@ args = 0, pretend = 0, frame = 0
	@ frame_needed = 0, uses_anonymous_args = 0
	@ link register save eliminated.
.LVL392:
	.loc 1 1071 0
	ldrh	r0, [r0, #190]
.LVL393:
	cmp	r0, #9
	movne	r0, r0, lsr #7
	andne	r0, r0, #1
	moveq	r0, #1
	.loc 1 1072 0
	bx	lr
	.cfi_endproc
.LFE29:
	.size	P_IsSecret, .-P_IsSecret
	.align	2
	.global	P_WasSecret
	.type	P_WasSecret, %function
P_WasSecret:
.LFB30:
	.loc 1 1085 0
	.cfi_startproc
	@ args = 0, pretend = 0, frame = 0
	@ frame_needed = 0, uses_anonymous_args = 0
	@ link register save eliminated.
.LVL394:
	.loc 1 1086 0
	ldrh	r0, [r0, #192]
.LVL395:
	cmp	r0, #9
	movne	r0, r0, lsr #7
	andne	r0, r0, #1
	moveq	r0, #1
	.loc 1 1087 0
	bx	lr
	.cfi_endproc
.LFE30:
	.size	P_WasSecret, .-P_WasSecret
	.align	2
	.global	P_CrossSpecialLine
	.type	P_CrossSpecialLine, %function
P_CrossSpecialLine:
.LFB31:
	.loc 1 1112 0
	.cfi_startproc
	@ args = 0, pretend = 0, frame = 0
	@ frame_needed = 0, uses_anonymous_args = 0
.LVL396:
	stmfd	sp!, {r4, r5, r6, r7, r8, lr}
	.cfi_def_cfa_offset 24
	.cfi_offset 4, -24
	.cfi_offset 5, -20
	.cfi_offset 6, -16
	.cfi_offset 7, -12
	.cfi_offset 8, -8
	.cfi_offset 14, -4
	.loc 1 1116 0
	ldr	r5, [r2, #156]
	.loc 1 1112 0
	mov	r6, r2
	.loc 1 1116 0
	cmp	r5, #0
	.loc 1 1112 0
	mov	r4, r0
	mov	r8, r1
	.loc 1 1116 0
	beq	.L905
	.loc 1 1135 0
	ldr	r7, .L916
	ldrb	r3, [r7]	@ zero_extendqisi2
	cmp	r3, #6
	bls	.L700
.LVL397:
.LBB289:
	.loc 1 1142 0
	ldrh	r0, [r0, #22]
.LVL398:
	sxth	r3, r0
	cmp	r3, #0
	blt	.L700
.LVL399:
.L834:
	.loc 1 1146 0
	cmp	r3, #24576
	uxth	r0, r0
	blt	.L685
	.loc 1 1148 0
	cmp	r5, #0
	beq	.L906
.L686:
	.loc 1 1151 0
	ldrsh	r3, [r4, #24]
	cmp	r3, #0
	ldmeqfd	sp!, {r4, r5, r6, r7, r8, pc}
	.loc 1 1153 0
	ldr	r3, .L916+4
.L688:
.LVL400:
	.loc 1 1210 0
	ands	r0, r0, #7
	beq	.L698
	cmp	r0, #1
	ldmnefd	sp!, {r4, r5, r6, r7, r8, pc}
	.loc 1 1217 0
	mov	r0, r4
.LBE289:
	.loc 1 1991 0
	ldmfd	sp!, {r4, r5, r6, r7, r8, lr}
	.cfi_remember_state
	.cfi_restore 14
	.cfi_restore 8
	.cfi_restore 7
	.cfi_restore 6
	.cfi_restore 5
	.cfi_restore 4
	.cfi_def_cfa_offset 0
.LVL401:
.LBB290:
	.loc 1 1217 0
	bx	r3
.LVL402:
.L696:
	.cfi_restore_state
.LBE290:
	.loc 1 1224 0
	cmp	r5, #0
	beq	.L830
.LVL403:
.L700:
	.loc 1 1256 0
	mov	r0, r4
	bl	P_CheckTag
.LVL404:
	cmp	r0, #0
	ldmeqfd	sp!, {r4, r5, r6, r7, r8, pc}
	.loc 1 1262 0
	ldrsh	r2, [r4, #22]
	sub	r3, r2, #2
	cmp	r3, #139
	ldrls	pc, [pc, r3, asl #2]
	b	.L704
.L706:
	.word	.L705
	.word	.L707
	.word	.L708
	.word	.L709
	.word	.L710
	.word	.L704
	.word	.L711
	.word	.L704
	.word	.L712
	.word	.L704
	.word	.L713
	.word	.L714
	.word	.L704
	.word	.L704
	.word	.L715
	.word	.L716
	.word	.L704
	.word	.L717
	.word	.L704
	.word	.L704
	.word	.L718
	.word	.L704
	.word	.L704
	.word	.L719
	.word	.L704
	.word	.L704
	.word	.L704
	.word	.L704
	.word	.L720
	.word	.L704
	.word	.L704
	.word	.L704
	.word	.L704
	.word	.L721
	.word	.L722
	.word	.L723
	.word	.L724
	.word	.L725
	.word	.L726
	.word	.L704
	.word	.L704
	.word	.L704
	.word	.L727
	.word	.L704
	.word	.L704
	.word	.L704
	.word	.L704
	.word	.L704
	.word	.L704
	.word	.L704
	.word	.L728
	.word	.L729
	.word	.L730
	.word	.L704
	.word	.L731
	.word	.L732
	.word	.L733
	.word	.L734
	.word	.L704
	.word	.L704
	.word	.L704
	.word	.L704
	.word	.L704
	.word	.L704
	.word	.L704
	.word	.L704
	.word	.L704
	.word	.L704
	.word	.L704
	.word	.L704
	.word	.L735
	.word	.L736
	.word	.L737
	.word	.L738
	.word	.L739
	.word	.L740
	.word	.L704
	.word	.L741
	.word	.L742
	.word	.L743
	.word	.L744
	.word	.L745
	.word	.L746
	.word	.L704
	.word	.L747
	.word	.L748
	.word	.L749
	.word	.L750
	.word	.L751
	.word	.L752
	.word	.L753
	.word	.L754
	.word	.L755
	.word	.L756
	.word	.L757
	.word	.L758
	.word	.L759
	.word	.L704
	.word	.L760
	.word	.L704
	.word	.L704
	.word	.L704
	.word	.L761
	.word	.L762
	.word	.L763
	.word	.L764
	.word	.L765
	.word	.L766
	.word	.L767
	.word	.L704
	.word	.L704
	.word	.L704
	.word	.L704
	.word	.L704
	.word	.L704
	.word	.L704
	.word	.L704
	.word	.L768
	.word	.L769
	.word	.L770
	.word	.L704
	.word	.L704
	.word	.L771
	.word	.L772
	.word	.L773
	.word	.L704
	.word	.L774
	.word	.L775
	.word	.L776
	.word	.L704
	.word	.L704
	.word	.L704
	.word	.L704
	.word	.L704
	.word	.L704
	.word	.L704
	.word	.L704
	.word	.L704
	.word	.L704
	.word	.L777
.LVL405:
.L685:
.LBB291:
	.loc 1 1155 0
	cmp	r3, #16384
	blt	.L689
	.loc 1 1157 0
	cmp	r5, #0
	beq	.L907
.L690:
	.loc 1 1160 0
	ldrsh	r3, [r4, #24]
	cmp	r3, #0
	ldmeqfd	sp!, {r4, r5, r6, r7, r8, pc}
	.loc 1 1162 0
	ldr	r3, .L916+8
	b	.L688
.LVL406:
.L905:
	ldrb	r3, [r2, #104]	@ zero_extendqisi2
	sub	r3, r3, #16
	uxtb	r3, r3
	cmp	r3, #19
	bhi	.L683
	mov	r1, #1
.LVL407:
	ldr	r2, .L916+12
.LVL408:
	mov	r3, r1, asl r3
	and	r2, r2, r3
	cmp	r2, #0
	bne	.L908
.L683:
.LBE291:
	.loc 1 1135 0
	ldr	r7, .L916
	ldrb	r3, [r7]	@ zero_extendqisi2
	cmp	r3, #6
	bhi	.L831
	ldrsh	r3, [r4, #22]
.LVL409:
.L830:
	.loc 1 1227 0
	cmp	r3, #126
	bgt	.L701
	cmp	r3, #125
	bge	.L700
	cmp	r3, #39
	beq	.L700
	bgt	.L702
	cmp	r3, #4
	beq	.L700
	cmp	r3, #10
	ldmnefd	sp!, {r4, r5, r6, r7, r8, pc}
	b	.L700
.LVL410:
.L698:
.LBB292:
	.loc 1 1213 0
	mov	r0, r4
	blx	r3
.LVL411:
	cmp	r0, #0
	ldmeqfd	sp!, {r4, r5, r6, r7, r8, pc}
.L779:
	.loc 1 1214 0
	mov	r3, #0
	strh	r3, [r4, #22]	@ movhi
	ldmfd	sp!, {r4, r5, r6, r7, r8, pc}
.LVL412:
.L689:
	.loc 1 1164 0
	cmp	r0, #15360
	bcs	.L909
	.loc 1 1177 0
	cmp	r0, #14336
	bcc	.L693
	.loc 1 1179 0
	cmp	r5, #0
	ldmeqfd	sp!, {r4, r5, r6, r7, r8, pc}
	.loc 1 1181 0
	and	r0, r0, #7
	cmp	r0, #1
	ldmhifd	sp!, {r4, r5, r6, r7, r8, pc}
	.loc 1 1183 0
	mov	r1, r5
	mov	r0, r4
	bl	P_CanUnlockGenDoor
.LVL413:
	cmp	r0, #0
	ldmeqfd	sp!, {r4, r5, r6, r7, r8, pc}
	ldrh	r0, [r4, #22]
	.loc 1 1188 0
	ldr	r3, .L916+16
	b	.L688
.LVL414:
.L831:
	.loc 1 1142 0
	ldrh	r0, [r4, #22]
.LVL415:
	sxth	r3, r0
	cmp	r3, #0
	bge	.L834
	b	.L830
.L909:
	.loc 1 1166 0
	cmp	r5, #0
	beq	.L910
.L692:
	.loc 1 1173 0
	ldrsh	r3, [r4, #24]
	cmp	r3, #0
	ldmeqfd	sp!, {r4, r5, r6, r7, r8, pc}
	.loc 1 1175 0
	ldr	r3, .L916+20
	b	.L688
.LVL416:
.L701:
.LBE292:
	.loc 1 1227 0
	cmp	r3, #244
	bgt	.L703
	cmp	r3, #243
	bge	.L700
	sub	r3, r3, #207
	cmp	r3, #1
	ldmhifd	sp!, {r4, r5, r6, r7, r8, pc}
	b	.L700
.LVL417:
.L908:
	ldmfd	sp!, {r4, r5, r6, r7, r8, pc}
.LVL418:
.L705:
	.loc 1 1268 0
	mov	r0, r4
	mov	r1, #3
	bl	EV_DoDoor
.LVL419:
	cmp	r0, #0
	bne	.L779
	.loc 1 1268 0 is_stmt 0 discriminator 1
	ldrb	r3, [r7]	@ zero_extendqisi2
	cmp	r3, #6
	ldmhifd	sp!, {r4, r5, r6, r7, r8, pc}
	b	.L779
.L707:
	.loc 1 1274 0 is_stmt 1
	mov	r0, r4
	mov	r1, #2
	bl	EV_DoDoor
.LVL420:
	cmp	r0, #0
	bne	.L779
	.loc 1 1274 0 is_stmt 0 discriminator 1
	ldrb	r3, [r7]	@ zero_extendqisi2
	cmp	r3, #6
	ldmhifd	sp!, {r4, r5, r6, r7, r8, pc}
	b	.L779
.L708:
	.loc 1 1280 0 is_stmt 1
	mov	r0, r4
	mov	r1, #0
	bl	EV_DoDoor
.LVL421:
	cmp	r0, #0
	bne	.L779
	.loc 1 1280 0 is_stmt 0 discriminator 1
	ldrb	r3, [r7]	@ zero_extendqisi2
	cmp	r3, #6
	ldmhifd	sp!, {r4, r5, r6, r7, r8, pc}
	b	.L779
.L709:
	.loc 1 1286 0 is_stmt 1
	mov	r0, r4
	mov	r1, #3
	bl	EV_DoFloor
.LVL422:
	cmp	r0, #0
	bne	.L779
	.loc 1 1286 0 is_stmt 0 discriminator 1
	ldrb	r3, [r7]	@ zero_extendqisi2
	cmp	r3, #6
	ldmhifd	sp!, {r4, r5, r6, r7, r8, pc}
	b	.L779
.L710:
	.loc 1 1292 0 is_stmt 1
	mov	r0, r4
	mov	r1, #6
	bl	EV_DoCeiling
.LVL423:
	cmp	r0, #0
	bne	.L779
	.loc 1 1292 0 is_stmt 0 discriminator 1
	ldrb	r3, [r7]	@ zero_extendqisi2
	cmp	r3, #6
	ldmhifd	sp!, {r4, r5, r6, r7, r8, pc}
	b	.L779
.L711:
	.loc 1 1298 0 is_stmt 1
	mov	r0, r4
	mov	r1, #0
	bl	EV_BuildStairs
.LVL424:
	cmp	r0, #0
	bne	.L779
	.loc 1 1298 0 is_stmt 0 discriminator 1
	ldrb	r3, [r7]	@ zero_extendqisi2
	cmp	r3, #6
	ldmhifd	sp!, {r4, r5, r6, r7, r8, pc}
	b	.L779
.L712:
	.loc 1 1304 0 is_stmt 1
	mov	r0, r4
	mov	r1, #1
	mov	r2, #0
	bl	EV_DoPlat
.LVL425:
	cmp	r0, #0
	bne	.L779
	.loc 1 1304 0 is_stmt 0 discriminator 1
	ldrb	r3, [r7]	@ zero_extendqisi2
	cmp	r3, #6
	ldmhifd	sp!, {r4, r5, r6, r7, r8, pc}
	b	.L779
.L713:
	.loc 1 1310 0 is_stmt 1
	mov	r0, r4
	mov	r1, #0
	bl	EV_LightTurnOn
.LVL426:
	cmp	r0, #0
	bne	.L779
	.loc 1 1310 0 is_stmt 0 discriminator 1
	ldrb	r3, [r7]	@ zero_extendqisi2
	cmp	r3, #6
	ldmhifd	sp!, {r4, r5, r6, r7, r8, pc}
	b	.L779
.L714:
	.loc 1 1316 0 is_stmt 1
	mov	r0, r4
	mov	r1, #255
	bl	EV_LightTurnOn
.LVL427:
	cmp	r0, #0
	bne	.L779
	.loc 1 1316 0 is_stmt 0 discriminator 1
	ldrb	r3, [r7]	@ zero_extendqisi2
	cmp	r3, #6
	ldmhifd	sp!, {r4, r5, r6, r7, r8, pc}
	b	.L779
.L715:
	.loc 1 1322 0 is_stmt 1
	mov	r0, r4
	mov	r1, #1
	bl	EV_DoDoor
.LVL428:
	cmp	r0, #0
	bne	.L779
	.loc 1 1322 0 is_stmt 0 discriminator 1
	ldrb	r3, [r7]	@ zero_extendqisi2
	cmp	r3, #6
	ldmhifd	sp!, {r4, r5, r6, r7, r8, pc}
	b	.L779
.L716:
	.loc 1 1328 0 is_stmt 1
	mov	r0, r4
	bl	EV_StartLightStrobing
.LVL429:
	cmp	r0, #0
	bne	.L779
	.loc 1 1328 0 is_stmt 0 discriminator 1
	ldrb	r3, [r7]	@ zero_extendqisi2
	cmp	r3, #6
	ldmhifd	sp!, {r4, r5, r6, r7, r8, pc}
	b	.L779
.L717:
	.loc 1 1334 0 is_stmt 1
	mov	r0, r4
	mov	r1, #0
	bl	EV_DoFloor
.LVL430:
	cmp	r0, #0
	bne	.L779
	.loc 1 1334 0 is_stmt 0 discriminator 1
	ldrb	r3, [r7]	@ zero_extendqisi2
	cmp	r3, #6
	ldmhifd	sp!, {r4, r5, r6, r7, r8, pc}
	b	.L779
.L718:
	.loc 1 1340 0 is_stmt 1
	mov	r0, r4
	mov	r1, #3
	mov	r2, #0
	bl	EV_DoPlat
.LVL431:
	cmp	r0, #0
	bne	.L779
	.loc 1 1340 0 is_stmt 0 discriminator 1
	ldrb	r3, [r7]	@ zero_extendqisi2
	cmp	r3, #6
	ldmhifd	sp!, {r4, r5, r6, r7, r8, pc}
	b	.L779
.L719:
	.loc 1 1346 0 is_stmt 1
	mov	r0, r4
	mov	r1, #5
	bl	EV_DoCeiling
.LVL432:
	cmp	r0, #0
	bne	.L779
	.loc 1 1346 0 is_stmt 0 discriminator 1
	ldrb	r3, [r7]	@ zero_extendqisi2
	cmp	r3, #6
	ldmhifd	sp!, {r4, r5, r6, r7, r8, pc}
	b	.L779
.L720:
	.loc 1 1353 0 is_stmt 1
	mov	r0, r4
	mov	r1, #8
	bl	EV_DoFloor
.LVL433:
	cmp	r0, #0
	bne	.L779
	.loc 1 1353 0 is_stmt 0 discriminator 1
	ldrb	r3, [r7]	@ zero_extendqisi2
	cmp	r3, #6
	ldmhifd	sp!, {r4, r5, r6, r7, r8, pc}
	b	.L779
.L721:
	.loc 1 1359 0 is_stmt 1
	mov	r0, r4
	mov	r1, #35
	bl	EV_LightTurnOn
.LVL434:
	cmp	r0, #0
	bne	.L779
	.loc 1 1359 0 is_stmt 0 discriminator 1
	ldrb	r3, [r7]	@ zero_extendqisi2
	cmp	r3, #6
	ldmhifd	sp!, {r4, r5, r6, r7, r8, pc}
	b	.L779
.L722:
	.loc 1 1365 0 is_stmt 1
	mov	r0, r4
	mov	r1, #2
	bl	EV_DoFloor
.LVL435:
	cmp	r0, #0
	bne	.L779
	.loc 1 1365 0 is_stmt 0 discriminator 1
	ldrb	r3, [r7]	@ zero_extendqisi2
	cmp	r3, #6
	ldmhifd	sp!, {r4, r5, r6, r7, r8, pc}
	b	.L779
.L723:
	.loc 1 1371 0 is_stmt 1
	mov	r0, r4
	mov	r1, #9
	bl	EV_DoFloor
.LVL436:
	cmp	r0, #0
	bne	.L779
	.loc 1 1371 0 is_stmt 0 discriminator 1
	ldrb	r3, [r7]	@ zero_extendqisi2
	cmp	r3, #6
	ldmhifd	sp!, {r4, r5, r6, r7, r8, pc}
	b	.L779
.L724:
	.loc 1 1377 0 is_stmt 1
	mov	r0, r4
	mov	r1, #1
	bl	EV_DoFloor
.LVL437:
	cmp	r0, #0
	bne	.L779
	.loc 1 1377 0 is_stmt 0 discriminator 1
	ldrb	r3, [r7]	@ zero_extendqisi2
	cmp	r3, #6
	ldmhifd	sp!, {r4, r5, r6, r7, r8, pc}
	b	.L779
.L725:
	.loc 1 1383 0 is_stmt 1
	mov	r1, r8
	mov	r2, r6
	mov	r0, r4
	bl	EV_Teleport
.LVL438:
	cmp	r0, #0
	bne	.L779
	.loc 1 1383 0 is_stmt 0 discriminator 1
	ldrb	r3, [r7]	@ zero_extendqisi2
	cmp	r3, #6
	ldmhifd	sp!, {r4, r5, r6, r7, r8, pc}
	b	.L779
.L726:
	.loc 1 1389 0 is_stmt 1
	ldrb	r3, [r7]	@ zero_extendqisi2
	.loc 1 1391 0
	mov	r0, r4
	.loc 1 1389 0
	cmp	r3, #6
	.loc 1 1391 0
	mov	r1, #1
	.loc 1 1389 0
	bls	.L911
.LVL439:
	.loc 1 1396 0
	bl	EV_DoCeiling
.LVL440:
	cmp	r0, #0
	ldmeqfd	sp!, {r4, r5, r6, r7, r8, pc}
	b	.L779
.L727:
	.loc 1 1402 0
	mov	r0, r4
	mov	r1, #4
	bl	EV_DoCeiling
.LVL441:
	cmp	r0, #0
	bne	.L779
	.loc 1 1402 0 is_stmt 0 discriminator 1
	ldrb	r3, [r7]	@ zero_extendqisi2
	cmp	r3, #6
	ldmhifd	sp!, {r4, r5, r6, r7, r8, pc}
	b	.L779
.L729:
	.loc 1 1415 0 is_stmt 1
	mov	r1, #0
	mov	r0, r4
	mov	r2, r1
	bl	EV_DoPlat
.LVL442:
	cmp	r0, #0
	bne	.L779
	.loc 1 1415 0 is_stmt 0 discriminator 1
	ldrb	r3, [r7]	@ zero_extendqisi2
	cmp	r3, #6
	ldmhifd	sp!, {r4, r5, r6, r7, r8, pc}
	b	.L779
.L730:
	.loc 1 1421 0 is_stmt 1
	mov	r0, r4
	bl	EV_StopPlat
.LVL443:
	cmp	r0, #0
	bne	.L779
	.loc 1 1421 0 is_stmt 0 discriminator 1
	ldrb	r3, [r7]	@ zero_extendqisi2
	cmp	r3, #6
	ldmhifd	sp!, {r4, r5, r6, r7, r8, pc}
	b	.L779
.L728:
	.loc 1 1409 0 is_stmt 1
	cmp	r5, #0
	beq	.L782
	.loc 1 1409 0 is_stmt 0 discriminator 1
	ldr	r3, [r5, #40]
	cmp	r3, #0
	ble	.L912
.L782:
	.loc 1 1991 0 is_stmt 1
	ldmfd	sp!, {r4, r5, r6, r7, r8, lr}
	.cfi_remember_state
	.cfi_restore 14
	.cfi_restore 8
	.cfi_restore 7
	.cfi_restore 6
	.cfi_restore 5
	.cfi_restore 4
	.cfi_def_cfa_offset 0
.LVL444:
	.loc 1 1410 0
	b	G_ExitLevel
.LVL445:
.L731:
	.cfi_restore_state
	.loc 1 1427 0
	mov	r0, r4
	mov	r1, #13
	bl	EV_DoFloor
.LVL446:
	cmp	r0, #0
	bne	.L779
	.loc 1 1427 0 is_stmt 0 discriminator 1
	ldrb	r3, [r7]	@ zero_extendqisi2
	cmp	r3, #6
	ldmhifd	sp!, {r4, r5, r6, r7, r8, pc}
	b	.L779
.L732:
	.loc 1 1433 0 is_stmt 1
	mov	r0, r4
	bl	EV_CeilingCrushStop
.LVL447:
	cmp	r0, #0
	bne	.L779
	.loc 1 1433 0 is_stmt 0 discriminator 1
	ldrb	r3, [r7]	@ zero_extendqisi2
	cmp	r3, #6
	ldmhifd	sp!, {r4, r5, r6, r7, r8, pc}
	b	.L779
.L733:
	.loc 1 1439 0 is_stmt 1
	mov	r0, r4
	mov	r1, #10
	bl	EV_DoFloor
.LVL448:
	cmp	r0, #0
	bne	.L779
	.loc 1 1439 0 is_stmt 0 discriminator 1
	ldrb	r3, [r7]	@ zero_extendqisi2
	cmp	r3, #6
	ldmhifd	sp!, {r4, r5, r6, r7, r8, pc}
	b	.L779
.L734:
	.loc 1 1445 0 is_stmt 1
	mov	r0, r4
	mov	r1, #12
	bl	EV_DoFloor
.LVL449:
	cmp	r0, #0
	bne	.L779
	.loc 1 1445 0 is_stmt 0 discriminator 1
	ldrb	r3, [r7]	@ zero_extendqisi2
	cmp	r3, #6
	ldmhifd	sp!, {r4, r5, r6, r7, r8, pc}
	b	.L779
.L735:
	.loc 1 1522 0 is_stmt 1
	mov	r0, r4
	.loc 1 1991 0
	ldmfd	sp!, {r4, r5, r6, r7, r8, lr}
	.cfi_remember_state
	.cfi_restore 14
	.cfi_restore 8
	.cfi_restore 7
	.cfi_restore 6
	.cfi_restore 5
	.cfi_restore 4
	.cfi_def_cfa_offset 0
.LVL450:
	.loc 1 1522 0
	mov	r1, #4
	b	EV_DoCeiling
.LVL451:
.L736:
	.cfi_restore_state
	.loc 1 1527 0
	mov	r0, r4
	.loc 1 1991 0
	ldmfd	sp!, {r4, r5, r6, r7, r8, lr}
	.cfi_remember_state
	.cfi_restore 14
	.cfi_restore 8
	.cfi_restore 7
	.cfi_restore 6
	.cfi_restore 5
	.cfi_restore 4
	.cfi_def_cfa_offset 0
.LVL452:
	.loc 1 1527 0
	mov	r1, #5
	b	EV_DoCeiling
.LVL453:
.L737:
	.cfi_restore_state
	.loc 1 1532 0
	mov	r0, r4
	.loc 1 1991 0
	ldmfd	sp!, {r4, r5, r6, r7, r8, lr}
	.cfi_remember_state
	.cfi_restore 14
	.cfi_restore 8
	.cfi_restore 7
	.cfi_restore 6
	.cfi_restore 5
	.cfi_restore 4
	.cfi_def_cfa_offset 0
.LVL454:
	.loc 1 1532 0
	b	EV_CeilingCrushStop
.LVL455:
.L738:
	.cfi_restore_state
	.loc 1 1537 0
	mov	r0, r4
	.loc 1 1991 0
	ldmfd	sp!, {r4, r5, r6, r7, r8, lr}
	.cfi_remember_state
	.cfi_restore 14
	.cfi_restore 8
	.cfi_restore 7
	.cfi_restore 6
	.cfi_restore 5
	.cfi_restore 4
	.cfi_def_cfa_offset 0
.LVL456:
	.loc 1 1537 0
	mov	r1, #2
	b	EV_DoDoor
.LVL457:
.L739:
	.cfi_restore_state
	.loc 1 1542 0
	mov	r0, r4
	.loc 1 1991 0
	ldmfd	sp!, {r4, r5, r6, r7, r8, lr}
	.cfi_remember_state
	.cfi_restore 14
	.cfi_restore 8
	.cfi_restore 7
	.cfi_restore 6
	.cfi_restore 5
	.cfi_restore 4
	.cfi_def_cfa_offset 0
.LVL458:
	.loc 1 1542 0
	mov	r1, #1
	b	EV_DoDoor
.LVL459:
.L740:
	.cfi_restore_state
	.loc 1 1547 0
	mov	r0, r4
	.loc 1 1991 0
	ldmfd	sp!, {r4, r5, r6, r7, r8, lr}
	.cfi_remember_state
	.cfi_restore 14
	.cfi_restore 8
	.cfi_restore 7
	.cfi_restore 6
	.cfi_restore 5
	.cfi_restore 4
	.cfi_def_cfa_offset 0
.LVL460:
	.loc 1 1547 0
	mov	r1, #6
	b	EV_DoCeiling
.LVL461:
.L741:
	.cfi_restore_state
	.loc 1 1552 0
	mov	r0, r4
	.loc 1 1991 0
	ldmfd	sp!, {r4, r5, r6, r7, r8, lr}
	.cfi_remember_state
	.cfi_restore 14
	.cfi_restore 8
	.cfi_restore 7
	.cfi_restore 6
	.cfi_restore 5
	.cfi_restore 4
	.cfi_def_cfa_offset 0
.LVL462:
	.loc 1 1552 0
	mov	r1, #35
	b	EV_LightTurnOn
.LVL463:
.L742:
	.cfi_restore_state
	.loc 1 1557 0
	mov	r0, r4
	.loc 1 1991 0
	ldmfd	sp!, {r4, r5, r6, r7, r8, lr}
	.cfi_remember_state
	.cfi_restore 14
	.cfi_restore 8
	.cfi_restore 7
	.cfi_restore 6
	.cfi_restore 5
	.cfi_restore 4
	.cfi_def_cfa_offset 0
.LVL464:
	.loc 1 1557 0
	mov	r1, #0
	b	EV_LightTurnOn
.LVL465:
.L743:
	.cfi_restore_state
	.loc 1 1562 0
	mov	r0, r4
	.loc 1 1991 0
	ldmfd	sp!, {r4, r5, r6, r7, r8, lr}
	.cfi_remember_state
	.cfi_restore 14
	.cfi_restore 8
	.cfi_restore 7
	.cfi_restore 6
	.cfi_restore 5
	.cfi_restore 4
	.cfi_def_cfa_offset 0
.LVL466:
	.loc 1 1562 0
	mov	r1, #255
	b	EV_LightTurnOn
.LVL467:
.L744:
	.cfi_restore_state
	.loc 1 1567 0
	mov	r0, r4
	.loc 1 1991 0
	ldmfd	sp!, {r4, r5, r6, r7, r8, lr}
	.cfi_remember_state
	.cfi_restore 14
	.cfi_restore 8
	.cfi_restore 7
	.cfi_restore 6
	.cfi_restore 5
	.cfi_restore 4
	.cfi_def_cfa_offset 0
.LVL468:
	.loc 1 1567 0
	mov	r1, #1
	b	EV_DoFloor
.LVL469:
.L745:
	.cfi_restore_state
	.loc 1 1572 0
	mov	r0, r4
	.loc 1 1991 0
	ldmfd	sp!, {r4, r5, r6, r7, r8, lr}
	.cfi_remember_state
	.cfi_restore 14
	.cfi_restore 8
	.cfi_restore 7
	.cfi_restore 6
	.cfi_restore 5
	.cfi_restore 4
	.cfi_def_cfa_offset 0
.LVL470:
	.loc 1 1572 0
	mov	r1, #0
	b	EV_DoFloor
.LVL471:
.L746:
	.cfi_restore_state
	.loc 1 1577 0
	mov	r0, r4
	.loc 1 1991 0
	ldmfd	sp!, {r4, r5, r6, r7, r8, lr}
	.cfi_remember_state
	.cfi_restore 14
	.cfi_restore 8
	.cfi_restore 7
	.cfi_restore 6
	.cfi_restore 5
	.cfi_restore 4
	.cfi_def_cfa_offset 0
.LVL472:
	.loc 1 1577 0
	mov	r1, #9
	b	EV_DoFloor
.LVL473:
.L747:
	.cfi_restore_state
	.loc 1 1582 0
	mov	r0, r4
	.loc 1 1991 0
	ldmfd	sp!, {r4, r5, r6, r7, r8, lr}
	.cfi_remember_state
	.cfi_restore 14
	.cfi_restore 8
	.cfi_restore 7
	.cfi_restore 6
	.cfi_restore 5
	.cfi_restore 4
	.cfi_def_cfa_offset 0
.LVL474:
	.loc 1 1582 0
	mov	r1, #3
	b	EV_DoDoor
.LVL475:
.L748:
	.cfi_restore_state
	.loc 1 1587 0
	mov	r1, #0
	mov	r0, r4
	.loc 1 1991 0
	ldmfd	sp!, {r4, r5, r6, r7, r8, lr}
	.cfi_remember_state
	.cfi_restore 14
	.cfi_restore 8
	.cfi_restore 7
	.cfi_restore 6
	.cfi_restore 5
	.cfi_restore 4
	.cfi_def_cfa_offset 0
.LVL476:
	.loc 1 1587 0
	mov	r2, r1
	b	EV_DoPlat
.LVL477:
.L749:
	.cfi_restore_state
	.loc 1 1592 0
	mov	r0, r4
	.loc 1 1991 0
	ldmfd	sp!, {r4, r5, r6, r7, r8, lr}
	.cfi_remember_state
	.cfi_restore 14
	.cfi_restore 8
	.cfi_restore 7
	.cfi_restore 6
	.cfi_restore 5
	.cfi_restore 4
	.cfi_def_cfa_offset 0
.LVL478:
	.loc 1 1592 0
	mov	r1, #1
	mov	r2, #0
	b	EV_DoPlat
.LVL479:
.L750:
	.cfi_restore_state
	.loc 1 1597 0
	mov	r0, r4
	.loc 1 1991 0
	ldmfd	sp!, {r4, r5, r6, r7, r8, lr}
	.cfi_remember_state
	.cfi_restore 14
	.cfi_restore 8
	.cfi_restore 7
	.cfi_restore 6
	.cfi_restore 5
	.cfi_restore 4
	.cfi_def_cfa_offset 0
.LVL480:
	.loc 1 1597 0
	b	EV_StopPlat
.LVL481:
.L751:
	.cfi_restore_state
	.loc 1 1602 0
	mov	r0, r4
	.loc 1 1991 0
	ldmfd	sp!, {r4, r5, r6, r7, r8, lr}
	.cfi_remember_state
	.cfi_restore 14
	.cfi_restore 8
	.cfi_restore 7
	.cfi_restore 6
	.cfi_restore 5
	.cfi_restore 4
	.cfi_def_cfa_offset 0
.LVL482:
	.loc 1 1602 0
	mov	r1, #0
	b	EV_DoDoor
.LVL483:
.L752:
	.cfi_restore_state
	.loc 1 1607 0
	mov	r0, r4
	.loc 1 1991 0
	ldmfd	sp!, {r4, r5, r6, r7, r8, lr}
	.cfi_remember_state
	.cfi_restore 14
	.cfi_restore 8
	.cfi_restore 7
	.cfi_restore 6
	.cfi_restore 5
	.cfi_restore 4
	.cfi_def_cfa_offset 0
.LVL484:
	.loc 1 1607 0
	mov	r1, #3
	b	EV_DoFloor
.LVL485:
.L753:
	.cfi_restore_state
	.loc 1 1612 0
	mov	r0, r4
	.loc 1 1991 0
	ldmfd	sp!, {r4, r5, r6, r7, r8, lr}
	.cfi_remember_state
	.cfi_restore 14
	.cfi_restore 8
	.cfi_restore 7
	.cfi_restore 6
	.cfi_restore 5
	.cfi_restore 4
	.cfi_def_cfa_offset 0
.LVL486:
	.loc 1 1612 0
	mov	r1, #10
	b	EV_DoFloor
.LVL487:
.L754:
	.cfi_restore_state
	.loc 1 1617 0
	mov	r0, r4
	.loc 1 1991 0
	ldmfd	sp!, {r4, r5, r6, r7, r8, lr}
	.cfi_remember_state
	.cfi_restore 14
	.cfi_restore 8
	.cfi_restore 7
	.cfi_restore 6
	.cfi_restore 5
	.cfi_restore 4
	.cfi_def_cfa_offset 0
.LVL488:
	.loc 1 1617 0
	mov	r1, #12
	b	EV_DoFloor
.LVL489:
.L755:
	.cfi_restore_state
	.loc 1 1622 0
	mov	r0, r4
	.loc 1 1991 0
	ldmfd	sp!, {r4, r5, r6, r7, r8, lr}
	.cfi_remember_state
	.cfi_restore 14
	.cfi_restore 8
	.cfi_restore 7
	.cfi_restore 6
	.cfi_restore 5
	.cfi_restore 4
	.cfi_def_cfa_offset 0
.LVL490:
	.loc 1 1622 0
	mov	r1, #13
	b	EV_DoFloor
.LVL491:
.L756:
	.cfi_restore_state
	.loc 1 1628 0
	mov	r0, r4
	.loc 1 1991 0
	ldmfd	sp!, {r4, r5, r6, r7, r8, lr}
	.cfi_remember_state
	.cfi_restore 14
	.cfi_restore 8
	.cfi_restore 7
	.cfi_restore 6
	.cfi_restore 5
	.cfi_restore 4
	.cfi_def_cfa_offset 0
.LVL492:
	.loc 1 1628 0
	mov	r1, #3
	mov	r2, #0
	b	EV_DoPlat
.LVL493:
.L757:
	.cfi_restore_state
	.loc 1 1634 0
	mov	r0, r4
	.loc 1 1991 0
	ldmfd	sp!, {r4, r5, r6, r7, r8, lr}
	.cfi_remember_state
	.cfi_restore 14
	.cfi_restore 8
	.cfi_restore 7
	.cfi_restore 6
	.cfi_restore 5
	.cfi_restore 4
	.cfi_def_cfa_offset 0
.LVL494:
	.loc 1 1634 0
	mov	r1, #8
	b	EV_DoFloor
.LVL495:
.L758:
	.cfi_restore_state
	.loc 1 1639 0
	mov	r0, r4
	mov	r1, r8
	mov	r2, r6
	.loc 1 1991 0
	ldmfd	sp!, {r4, r5, r6, r7, r8, lr}
	.cfi_remember_state
	.cfi_restore 14
	.cfi_restore 8
	.cfi_restore 7
	.cfi_restore 6
	.cfi_restore 5
	.cfi_restore 4
	.cfi_def_cfa_offset 0
.LVL496:
	.loc 1 1639 0
	b	EV_Teleport
.LVL497:
.L759:
	.cfi_restore_state
	.loc 1 1644 0
	mov	r0, r4
	.loc 1 1991 0
	ldmfd	sp!, {r4, r5, r6, r7, r8, lr}
	.cfi_remember_state
	.cfi_restore 14
	.cfi_restore 8
	.cfi_restore 7
	.cfi_restore 6
	.cfi_restore 5
	.cfi_restore 4
	.cfi_def_cfa_offset 0
.LVL498:
	.loc 1 1644 0
	mov	r1, #2
	b	EV_DoFloor
.LVL499:
.L760:
	.cfi_restore_state
	.loc 1 1451 0
	mov	r0, r4
	mov	r1, #1
	bl	EV_BuildStairs
.LVL500:
	cmp	r0, #0
	bne	.L779
	.loc 1 1451 0 is_stmt 0 discriminator 1
	ldrb	r3, [r7]	@ zero_extendqisi2
	cmp	r3, #6
	ldmhifd	sp!, {r4, r5, r6, r7, r8, pc}
	b	.L779
.L761:
	.loc 1 1457 0 is_stmt 1
	mov	r0, r4
	bl	EV_TurnTagLightsOff
.LVL501:
	cmp	r0, #0
	bne	.L779
	.loc 1 1457 0 is_stmt 0 discriminator 1
	ldrb	r3, [r7]	@ zero_extendqisi2
	cmp	r3, #6
	ldmhifd	sp!, {r4, r5, r6, r7, r8, pc}
	b	.L779
.L762:
	.loc 1 1649 0 is_stmt 1
	mov	r0, r4
	.loc 1 1991 0
	ldmfd	sp!, {r4, r5, r6, r7, r8, lr}
	.cfi_remember_state
	.cfi_restore 14
	.cfi_restore 8
	.cfi_restore 7
	.cfi_restore 6
	.cfi_restore 5
	.cfi_restore 4
	.cfi_def_cfa_offset 0
.LVL502:
	.loc 1 1649 0
	mov	r1, #5
	b	EV_DoDoor
.LVL503:
.L763:
	.cfi_restore_state
	.loc 1 1654 0
	mov	r0, r4
	.loc 1 1991 0
	ldmfd	sp!, {r4, r5, r6, r7, r8, lr}
	.cfi_remember_state
	.cfi_restore 14
	.cfi_restore 8
	.cfi_restore 7
	.cfi_restore 6
	.cfi_restore 5
	.cfi_restore 4
	.cfi_def_cfa_offset 0
.LVL504:
	.loc 1 1654 0
	mov	r1, #6
	b	EV_DoDoor
.LVL505:
.L764:
	.cfi_restore_state
	.loc 1 1659 0
	mov	r0, r4
	.loc 1 1991 0
	ldmfd	sp!, {r4, r5, r6, r7, r8, lr}
	.cfi_remember_state
	.cfi_restore 14
	.cfi_restore 8
	.cfi_restore 7
	.cfi_restore 6
	.cfi_restore 5
	.cfi_restore 4
	.cfi_def_cfa_offset 0
.LVL506:
	.loc 1 1659 0
	mov	r1, #7
	b	EV_DoDoor
.LVL507:
.L765:
	.cfi_restore_state
	.loc 1 1463 0
	mov	r0, r4
	mov	r1, #5
	bl	EV_DoDoor
.LVL508:
	cmp	r0, #0
	bne	.L779
	.loc 1 1463 0 is_stmt 0 discriminator 1
	ldrb	r3, [r7]	@ zero_extendqisi2
	cmp	r3, #6
	ldmhifd	sp!, {r4, r5, r6, r7, r8, pc}
	b	.L779
.L766:
	.loc 1 1469 0 is_stmt 1
	mov	r0, r4
	mov	r1, #6
	bl	EV_DoDoor
.LVL509:
	cmp	r0, #0
	bne	.L779
	.loc 1 1469 0 is_stmt 0 discriminator 1
	ldrb	r3, [r7]	@ zero_extendqisi2
	cmp	r3, #6
	ldmhifd	sp!, {r4, r5, r6, r7, r8, pc}
	b	.L779
.L767:
	.loc 1 1475 0 is_stmt 1
	mov	r0, r4
	mov	r1, #7
	bl	EV_DoDoor
.LVL510:
	cmp	r0, #0
	bne	.L779
	.loc 1 1475 0 is_stmt 0 discriminator 1
	ldrb	r3, [r7]	@ zero_extendqisi2
	cmp	r3, #6
	ldmhifd	sp!, {r4, r5, r6, r7, r8, pc}
	b	.L779
.L768:
	.loc 1 1481 0 is_stmt 1
	mov	r0, r4
	mov	r1, #4
	bl	EV_DoFloor
.LVL511:
	cmp	r0, #0
	bne	.L779
	.loc 1 1481 0 is_stmt 0 discriminator 1
	ldrb	r3, [r7]	@ zero_extendqisi2
	cmp	r3, #6
	ldmhifd	sp!, {r4, r5, r6, r7, r8, pc}
	b	.L779
.L769:
	.loc 1 1664 0 is_stmt 1
	mov	r0, r4
	.loc 1 1991 0
	ldmfd	sp!, {r4, r5, r6, r7, r8, lr}
	.cfi_remember_state
	.cfi_restore 14
	.cfi_restore 8
	.cfi_restore 7
	.cfi_restore 6
	.cfi_restore 5
	.cfi_restore 4
	.cfi_def_cfa_offset 0
.LVL512:
	.loc 1 1664 0
	mov	r1, #4
	mov	r2, #0
	b	EV_DoPlat
.LVL513:
.L770:
	.cfi_restore_state
	.loc 1 1487 0
	mov	r0, r4
	mov	r1, #4
	mov	r2, #0
	bl	EV_DoPlat
.LVL514:
	cmp	r0, #0
	bne	.L779
	.loc 1 1487 0 is_stmt 0 discriminator 1
	ldrb	r3, [r7]	@ zero_extendqisi2
	cmp	r3, #6
	ldmhifd	sp!, {r4, r5, r6, r7, r8, pc}
	b	.L779
.L771:
	.loc 1 1495 0 is_stmt 1
	cmp	r5, #0
	beq	.L783
	.loc 1 1495 0 is_stmt 0 discriminator 1
	ldr	r3, [r5, #40]
	cmp	r3, #0
	ble	.L913
.L783:
	.loc 1 1991 0 is_stmt 1
	ldmfd	sp!, {r4, r5, r6, r7, r8, lr}
	.cfi_remember_state
	.cfi_restore 14
	.cfi_restore 8
	.cfi_restore 7
	.cfi_restore 6
	.cfi_restore 5
	.cfi_restore 4
	.cfi_def_cfa_offset 0
.LVL515:
	.loc 1 1496 0
	b	G_SecretExitLevel
.LVL516:
.L775:
	.cfi_restore_state
	.loc 1 1680 0
	mov	r0, r4
	.loc 1 1991 0
	ldmfd	sp!, {r4, r5, r6, r7, r8, lr}
	.cfi_remember_state
	.cfi_restore 14
	.cfi_restore 8
	.cfi_restore 7
	.cfi_restore 6
	.cfi_restore 5
	.cfi_restore 4
	.cfi_def_cfa_offset 0
.LVL517:
	.loc 1 1680 0
	mov	r1, #14
	b	EV_DoFloor
.LVL518:
.L776:
	.cfi_restore_state
	.loc 1 1508 0
	mov	r0, r4
	mov	r1, #14
	bl	EV_DoFloor
.LVL519:
	cmp	r0, #0
	bne	.L779
	.loc 1 1508 0 is_stmt 0 discriminator 1
	ldrb	r3, [r7]	@ zero_extendqisi2
	cmp	r3, #6
	ldmhifd	sp!, {r4, r5, r6, r7, r8, pc}
	b	.L779
.L777:
	.loc 1 1514 0 is_stmt 1
	mov	r0, r4
	mov	r1, #7
	bl	EV_DoCeiling
.LVL520:
	cmp	r0, #0
	bne	.L779
	.loc 1 1514 0 is_stmt 0 discriminator 1
	ldrb	r3, [r7]	@ zero_extendqisi2
	cmp	r3, #6
	ldmhifd	sp!, {r4, r5, r6, r7, r8, pc}
	b	.L779
.L773:
	.loc 1 1669 0 is_stmt 1
	cmp	r5, #0
	ldmnefd	sp!, {r4, r5, r6, r7, r8, pc}
	.loc 1 1670 0
	mov	r0, r4
	mov	r1, r8
	mov	r2, r6
	.loc 1 1991 0
	ldmfd	sp!, {r4, r5, r6, r7, r8, lr}
	.cfi_remember_state
	.cfi_restore 14
	.cfi_restore 8
	.cfi_restore 7
	.cfi_restore 6
	.cfi_restore 5
	.cfi_restore 4
	.cfi_def_cfa_offset 0
.LVL521:
	.loc 1 1670 0
	b	EV_Teleport
.LVL522:
.L774:
	.cfi_restore_state
	.loc 1 1675 0
	mov	r0, r4
	.loc 1 1991 0
	ldmfd	sp!, {r4, r5, r6, r7, r8, lr}
	.cfi_remember_state
	.cfi_restore 14
	.cfi_restore 8
	.cfi_restore 7
	.cfi_restore 6
	.cfi_restore 5
	.cfi_restore 4
	.cfi_def_cfa_offset 0
.LVL523:
	.loc 1 1675 0
	mov	r1, #4
	b	EV_DoFloor
.LVL524:
.L772:
	.cfi_restore_state
	.loc 1 1501 0
	cmp	r5, #0
	ldmnefd	sp!, {r4, r5, r6, r7, r8, pc}
	.loc 1 1502 0 discriminator 1
	mov	r1, r8
	mov	r2, r6
	mov	r0, r4
	bl	EV_Teleport
.LVL525:
	.loc 1 1501 0 discriminator 1
	cmp	r0, #0
	bne	.L779
	.loc 1 1502 0
	ldrb	r3, [r7]	@ zero_extendqisi2
	cmp	r3, #6
	ldmhifd	sp!, {r4, r5, r6, r7, r8, pc}
	b	.L779
.L704:
	.loc 1 1695 0
	ldrb	r3, [r7]	@ zero_extendqisi2
	cmp	r3, #6
	ldmlsfd	sp!, {r4, r5, r6, r7, r8, pc}
	.loc 1 1696 0
	sub	r2, r2, #142
	cmp	r2, #127
	ldrls	pc, [pc, r2, asl #2]
	b	.L681
.L785:
	.word	.L784
	.word	.L786
	.word	.L787
	.word	.L788
	.word	.L789
	.word	.L790
	.word	.L791
	.word	.L792
	.word	.L793
	.word	.L794
	.word	.L795
	.word	.L796
	.word	.L797
	.word	.L798
	.word	.L799
	.word	.L800
	.word	.L681
	.word	.L681
	.word	.L681
	.word	.L681
	.word	.L681
	.word	.L681
	.word	.L681
	.word	.L681
	.word	.L681
	.word	.L681
	.word	.L681
	.word	.L681
	.word	.L681
	.word	.L681
	.word	.L681
	.word	.L681
	.word	.L681
	.word	.L681
	.word	.L681
	.word	.L681
	.word	.L681
	.word	.L681
	.word	.L681
	.word	.L681
	.word	.L681
	.word	.L681
	.word	.L681
	.word	.L681
	.word	.L681
	.word	.L681
	.word	.L681
	.word	.L681
	.word	.L681
	.word	.L681
	.word	.L681
	.word	.L681
	.word	.L681
	.word	.L681
	.word	.L681
	.word	.L681
	.word	.L681
	.word	.L801
	.word	.L802
	.word	.L803
	.word	.L804
	.word	.L681
	.word	.L681
	.word	.L681
	.word	.L681
	.word	.L805
	.word	.L806
	.word	.L681
	.word	.L681
	.word	.L681
	.word	.L807
	.word	.L681
	.word	.L681
	.word	.L681
	.word	.L681
	.word	.L681
	.word	.L681
	.word	.L808
	.word	.L809
	.word	.L681
	.word	.L681
	.word	.L681
	.word	.L681
	.word	.L681
	.word	.L681
	.word	.L810
	.word	.L811
	.word	.L681
	.word	.L681
	.word	.L812
	.word	.L813
	.word	.L681
	.word	.L681
	.word	.L814
	.word	.L815
	.word	.L681
	.word	.L681
	.word	.L816
	.word	.L817
	.word	.L681
	.word	.L681
	.word	.L818
	.word	.L819
	.word	.L681
	.word	.L681
	.word	.L681
	.word	.L681
	.word	.L681
	.word	.L681
	.word	.L681
	.word	.L681
	.word	.L681
	.word	.L681
	.word	.L681
	.word	.L820
	.word	.L821
	.word	.L681
	.word	.L681
	.word	.L681
	.word	.L681
	.word	.L822
	.word	.L823
	.word	.L824
	.word	.L825
	.word	.L826
	.word	.L827
	.word	.L828
	.word	.L829
.L829:
	.loc 1 1983 0
	cmp	r5, #0
	ldmnefd	sp!, {r4, r5, r6, r7, r8, pc}
	.loc 1 1984 0
	mov	r0, r4
	mov	r1, r8
	mov	r2, r6
	.loc 1 1991 0
	ldmfd	sp!, {r4, r5, r6, r7, r8, lr}
	.cfi_remember_state
	.cfi_restore 14
	.cfi_restore 8
	.cfi_restore 7
	.cfi_restore 6
	.cfi_restore 5
	.cfi_restore 4
	.cfi_def_cfa_offset 0
.LVL526:
	.loc 1 1984 0
	b	EV_SilentTeleport
.LVL527:
.L828:
	.cfi_restore_state
	.loc 1 1822 0
	cmp	r5, #0
	ldmnefd	sp!, {r4, r5, r6, r7, r8, pc}
	.loc 1 1822 0 is_stmt 0 discriminator 1
	mov	r1, r8
	mov	r2, r6
	mov	r0, r4
	bl	EV_SilentTeleport
.LVL528:
	cmp	r0, #0
	ldmeqfd	sp!, {r4, r5, r6, r7, r8, pc}
	b	.L779
.L917:
	.align	2
.L916:
	.word	compatibility_level
	.word	EV_DoGenFloor
	.word	EV_DoGenCeiling
	.word	1015809
	.word	EV_DoGenLockedDoor
	.word	EV_DoGenDoor
	.word	EV_DoGenLift
	.word	EV_DoGenStairs
	.word	comp
.L827:
	.loc 1 1978 0 is_stmt 1
	cmp	r5, #0
	ldmnefd	sp!, {r4, r5, r6, r7, r8, pc}
	.loc 1 1979 0
	mov	r0, r4
	mov	r1, r8
	mov	r2, r6
	mov	r3, r5
	.loc 1 1991 0
	ldmfd	sp!, {r4, r5, r6, r7, r8, lr}
	.cfi_remember_state
	.cfi_restore 14
	.cfi_restore 8
	.cfi_restore 7
	.cfi_restore 6
	.cfi_restore 5
	.cfi_restore 4
	.cfi_def_cfa_offset 0
.LVL529:
	.loc 1 1979 0
	b	EV_SilentLineTeleport
.LVL530:
.L826:
	.cfi_restore_state
	.loc 1 1816 0
	cmp	r5, #0
	ldmnefd	sp!, {r4, r5, r6, r7, r8, pc}
	.loc 1 1817 0 discriminator 1
	mov	r1, r8
	mov	r2, r6
	mov	r3, r5
	mov	r0, r4
	bl	EV_SilentLineTeleport
.LVL531:
	.loc 1 1816 0 discriminator 1
	cmp	r0, #0
	ldmeqfd	sp!, {r4, r5, r6, r7, r8, pc}
	b	.L779
.L825:
	.loc 1 1973 0
	cmp	r5, #0
	ldmnefd	sp!, {r4, r5, r6, r7, r8, pc}
	.loc 1 1974 0
	mov	r0, r4
	mov	r1, r8
	mov	r2, r6
	.loc 1 1991 0
	ldmfd	sp!, {r4, r5, r6, r7, r8, lr}
	.cfi_remember_state
	.cfi_restore 14
	.cfi_restore 8
	.cfi_restore 7
	.cfi_restore 6
	.cfi_restore 5
	.cfi_restore 4
	.cfi_def_cfa_offset 0
.LVL532:
	.loc 1 1974 0
	mov	r3, #1
	b	EV_SilentLineTeleport
.LVL533:
.L824:
	.cfi_restore_state
	.loc 1 1810 0
	cmp	r5, #0
	ldmnefd	sp!, {r4, r5, r6, r7, r8, pc}
	.loc 1 1811 0 discriminator 1
	mov	r1, r8
	mov	r2, r6
	mov	r0, r4
	mov	r3, #1
	bl	EV_SilentLineTeleport
.LVL534:
	.loc 1 1810 0 discriminator 1
	cmp	r0, #0
	ldmeqfd	sp!, {r4, r5, r6, r7, r8, pc}
	b	.L779
.L823:
	.loc 1 1969 0
	mov	r0, r4
	mov	r1, r8
	mov	r2, r6
	.loc 1 1991 0
	ldmfd	sp!, {r4, r5, r6, r7, r8, lr}
	.cfi_remember_state
	.cfi_restore 14
	.cfi_restore 8
	.cfi_restore 7
	.cfi_restore 6
	.cfi_restore 5
	.cfi_restore 4
	.cfi_def_cfa_offset 0
.LVL535:
	.loc 1 1969 0
	mov	r3, #1
	b	EV_SilentLineTeleport
.LVL536:
.L822:
	.cfi_restore_state
	.loc 1 1805 0
	mov	r1, r8
	mov	r2, r6
	mov	r0, r4
	mov	r3, #1
	bl	EV_SilentLineTeleport
.LVL537:
	cmp	r0, #0
	ldmeqfd	sp!, {r4, r5, r6, r7, r8, pc}
	b	.L779
.L821:
	.loc 1 1882 0
	mov	r0, r4
	.loc 1 1991 0
	ldmfd	sp!, {r4, r5, r6, r7, r8, lr}
	.cfi_remember_state
	.cfi_restore 14
	.cfi_restore 8
	.cfi_restore 7
	.cfi_restore 6
	.cfi_restore 5
	.cfi_restore 4
	.cfi_def_cfa_offset 0
.LVL538:
	.loc 1 1882 0
	mov	r1, #1
	b	EV_BuildStairs
.LVL539:
.L820:
	.cfi_restore_state
	.loc 1 1875 0
	mov	r0, r4
	.loc 1 1991 0
	ldmfd	sp!, {r4, r5, r6, r7, r8, lr}
	.cfi_remember_state
	.cfi_restore 14
	.cfi_restore 8
	.cfi_restore 7
	.cfi_restore 6
	.cfi_restore 5
	.cfi_restore 4
	.cfi_def_cfa_offset 0
.LVL540:
	.loc 1 1875 0
	mov	r1, #0
	b	EV_BuildStairs
.LVL541:
.L819:
	.cfi_restore_state
	.loc 1 1965 0
	mov	r0, r4
	mov	r1, r8
	mov	r2, r6
	.loc 1 1991 0
	ldmfd	sp!, {r4, r5, r6, r7, r8, lr}
	.cfi_remember_state
	.cfi_restore 14
	.cfi_restore 8
	.cfi_restore 7
	.cfi_restore 6
	.cfi_restore 5
	.cfi_restore 4
	.cfi_def_cfa_offset 0
.LVL542:
	.loc 1 1965 0
	mov	r3, #0
	b	EV_SilentLineTeleport
.LVL543:
.L818:
	.cfi_restore_state
	.loc 1 1800 0
	mov	r1, r8
	mov	r2, r6
	mov	r0, r4
	mov	r3, #0
	bl	EV_SilentLineTeleport
.LVL544:
	cmp	r0, #0
	ldmeqfd	sp!, {r4, r5, r6, r7, r8, pc}
	b	.L779
.L817:
	.loc 1 1936 0
	mov	r0, r4
	.loc 1 1991 0
	ldmfd	sp!, {r4, r5, r6, r7, r8, lr}
	.cfi_remember_state
	.cfi_restore 14
	.cfi_restore 8
	.cfi_restore 7
	.cfi_restore 6
	.cfi_restore 5
	.cfi_restore 4
	.cfi_def_cfa_offset 0
.LVL545:
	.loc 1 1936 0
	mov	r1, #1
	b	EV_DoChange
.LVL546:
.L816:
	.cfi_restore_state
	.loc 1 1766 0
	mov	r0, r4
	mov	r1, #1
	bl	EV_DoChange
.LVL547:
	cmp	r0, #0
	ldmeqfd	sp!, {r4, r5, r6, r7, r8, pc}
	b	.L779
.L815:
	.loc 1 1960 0
	mov	r0, r4
	.loc 1 1991 0
	ldmfd	sp!, {r4, r5, r6, r7, r8, lr}
	.cfi_remember_state
	.cfi_restore 14
	.cfi_restore 8
	.cfi_restore 7
	.cfi_restore 6
	.cfi_restore 5
	.cfi_restore 4
	.cfi_def_cfa_offset 0
.LVL548:
	.loc 1 1960 0
	mov	r1, #2
	b	EV_DoElevator
.LVL549:
.L814:
	.cfi_restore_state
	.loc 1 1794 0
	mov	r0, r4
	mov	r1, #2
	bl	EV_DoElevator
.LVL550:
	cmp	r0, #0
	ldmeqfd	sp!, {r4, r5, r6, r7, r8, pc}
	b	.L779
.L813:
	.loc 1 1954 0
	mov	r0, r4
	.loc 1 1991 0
	ldmfd	sp!, {r4, r5, r6, r7, r8, lr}
	.cfi_remember_state
	.cfi_restore 14
	.cfi_restore 8
	.cfi_restore 7
	.cfi_restore 6
	.cfi_restore 5
	.cfi_restore 4
	.cfi_def_cfa_offset 0
.LVL551:
	.loc 1 1954 0
	mov	r1, #1
	b	EV_DoElevator
.LVL552:
.L812:
	.cfi_restore_state
	.loc 1 1787 0
	mov	r0, r4
	mov	r1, #1
	bl	EV_DoElevator
.LVL553:
	cmp	r0, #0
	ldmeqfd	sp!, {r4, r5, r6, r7, r8, pc}
	b	.L779
.L811:
	.loc 1 1948 0
	mov	r0, r4
	.loc 1 1991 0
	ldmfd	sp!, {r4, r5, r6, r7, r8, lr}
	.cfi_remember_state
	.cfi_restore 14
	.cfi_restore 8
	.cfi_restore 7
	.cfi_restore 6
	.cfi_restore 5
	.cfi_restore 4
	.cfi_def_cfa_offset 0
.LVL554:
	.loc 1 1948 0
	mov	r1, #0
	b	EV_DoElevator
.LVL555:
.L810:
	.cfi_restore_state
	.loc 1 1780 0
	mov	r0, r4
	mov	r1, #0
	bl	EV_DoElevator
.LVL556:
	cmp	r0, #0
	ldmeqfd	sp!, {r4, r5, r6, r7, r8, pc}
	b	.L779
.L809:
	.loc 1 1942 0
	mov	r0, r4
	.loc 1 1991 0
	ldmfd	sp!, {r4, r5, r6, r7, r8, lr}
	.cfi_remember_state
	.cfi_restore 14
	.cfi_restore 8
	.cfi_restore 7
	.cfi_restore 6
	.cfi_restore 5
	.cfi_restore 4
	.cfi_def_cfa_offset 0
.LVL557:
	.loc 1 1942 0
	mov	r1, #5
	b	EV_DoFloor
.LVL558:
.L808:
	.cfi_restore_state
	.loc 1 1773 0
	mov	r0, r4
	mov	r1, #5
	bl	EV_DoFloor
.LVL559:
	cmp	r0, #0
	ldmeqfd	sp!, {r4, r5, r6, r7, r8, pc}
	b	.L779
.L807:
	.loc 1 1923 0
	mov	r0, r4
	.loc 1 1991 0
	ldmfd	sp!, {r4, r5, r6, r7, r8, lr}
	.cfi_remember_state
	.cfi_restore 14
	.cfi_restore 8
	.cfi_restore 7
	.cfi_restore 6
	.cfi_restore 5
	.cfi_restore 4
	.cfi_def_cfa_offset 0
.LVL560:
	.loc 1 1923 0
	mov	r1, #7
	mov	r2, #0
	b	EV_DoPlat
.LVL561:
.L806:
	.cfi_restore_state
	.loc 1 1917 0
	mov	r0, r4
	mov	r1, r8
	mov	r2, r6
	.loc 1 1991 0
	ldmfd	sp!, {r4, r5, r6, r7, r8, lr}
	.cfi_remember_state
	.cfi_restore 14
	.cfi_restore 8
	.cfi_restore 7
	.cfi_restore 6
	.cfi_restore 5
	.cfi_restore 4
	.cfi_def_cfa_offset 0
.LVL562:
	.loc 1 1917 0
	b	EV_SilentTeleport
.LVL563:
.L805:
	.cfi_restore_state
	.loc 1 1751 0
	mov	r1, r8
	mov	r2, r6
	mov	r0, r4
	bl	EV_SilentTeleport
.LVL564:
	cmp	r0, #0
	ldmeqfd	sp!, {r4, r5, r6, r7, r8, pc}
	b	.L779
.L804:
	.loc 1 1912 0
	mov	r0, r4
	.loc 1 1991 0
	ldmfd	sp!, {r4, r5, r6, r7, r8, lr}
	.cfi_remember_state
	.cfi_restore 14
	.cfi_restore 8
	.cfi_restore 7
	.cfi_restore 6
	.cfi_restore 5
	.cfi_restore 4
	.cfi_def_cfa_offset 0
.LVL565:
	.loc 1 1912 0
	mov	r1, #3
	b	EV_DoCeiling
.LVL566:
.L803:
	.cfi_restore_state
	.loc 1 1906 0
	mov	r0, r4
	.loc 1 1991 0
	ldmfd	sp!, {r4, r5, r6, r7, r8, lr}
	.cfi_remember_state
	.cfi_restore 14
	.cfi_restore 8
	.cfi_restore 7
	.cfi_restore 6
	.cfi_restore 5
	.cfi_restore 4
	.cfi_def_cfa_offset 0
.LVL567:
	.loc 1 1906 0
	mov	r1, #2
	b	EV_DoCeiling
.LVL568:
.L802:
	.cfi_restore_state
	.loc 1 1745 0
	mov	r0, r4
	mov	r1, #3
	bl	EV_DoCeiling
.LVL569:
	cmp	r0, #0
	ldmeqfd	sp!, {r4, r5, r6, r7, r8, pc}
	b	.L779
.L801:
	.loc 1 1738 0
	mov	r0, r4
	mov	r1, #2
	bl	EV_DoCeiling
.LVL570:
	cmp	r0, #0
	ldmeqfd	sp!, {r4, r5, r6, r7, r8, pc}
	b	.L779
.L800:
	.loc 1 1900 0
	mov	r0, r4
	.loc 1 1991 0
	ldmfd	sp!, {r4, r5, r6, r7, r8, lr}
	.cfi_remember_state
	.cfi_restore 14
	.cfi_restore 8
	.cfi_restore 7
	.cfi_restore 6
	.cfi_restore 5
	.cfi_restore 4
	.cfi_def_cfa_offset 0
.LVL571:
	.loc 1 1900 0
	b	EV_TurnTagLightsOff
.LVL572:
.L799:
	.cfi_restore_state
	.loc 1 1894 0
	mov	r0, r4
	.loc 1 1991 0
	ldmfd	sp!, {r4, r5, r6, r7, r8, lr}
	.cfi_remember_state
	.cfi_restore 14
	.cfi_restore 8
	.cfi_restore 7
	.cfi_restore 6
	.cfi_restore 5
	.cfi_restore 4
	.cfi_def_cfa_offset 0
.LVL573:
	.loc 1 1894 0
	b	EV_StartLightStrobing
.LVL574:
.L798:
	.cfi_restore_state
	.loc 1 1888 0
	mov	r0, r4
	.loc 1 1991 0
	ldmfd	sp!, {r4, r5, r6, r7, r8, lr}
	.cfi_remember_state
	.cfi_restore 14
	.cfi_restore 8
	.cfi_restore 7
	.cfi_restore 6
	.cfi_restore 5
	.cfi_restore 4
	.cfi_def_cfa_offset 0
.LVL575:
	.loc 1 1888 0
	b	EV_DoDonut
.LVL576:
.L797:
	.cfi_restore_state
	.loc 1 1930 0
	mov	r0, r4
	.loc 1 1991 0
	ldmfd	sp!, {r4, r5, r6, r7, r8, lr}
	.cfi_remember_state
	.cfi_restore 14
	.cfi_restore 8
	.cfi_restore 7
	.cfi_restore 6
	.cfi_restore 5
	.cfi_restore 4
	.cfi_def_cfa_offset 0
.LVL577:
	.loc 1 1930 0
	mov	r1, #0
	b	EV_DoChange
.LVL578:
.L796:
	.cfi_restore_state
	.loc 1 1759 0
	mov	r0, r4
	mov	r1, #0
	bl	EV_DoChange
.LVL579:
	cmp	r0, #0
	ldmeqfd	sp!, {r4, r5, r6, r7, r8, pc}
	b	.L779
.L795:
	.loc 1 1868 0
	mov	r0, r4
	.loc 1 1991 0
	ldmfd	sp!, {r4, r5, r6, r7, r8, lr}
	.cfi_remember_state
	.cfi_restore 14
	.cfi_restore 8
	.cfi_restore 7
	.cfi_restore 6
	.cfi_restore 5
	.cfi_restore 4
	.cfi_def_cfa_offset 0
.LVL580:
	.loc 1 1868 0
	mov	r1, #0
	b	EV_DoCeiling
.LVL581:
.L794:
	.cfi_restore_state
	.loc 1 1861 0
	mov	r0, r4
	mov	r1, #1
	bl	EV_DoCeiling
.LVL582:
	.loc 1 1862 0
	mov	r0, r4
	.loc 1 1991 0
	ldmfd	sp!, {r4, r5, r6, r7, r8, lr}
	.cfi_remember_state
	.cfi_restore 14
	.cfi_restore 8
	.cfi_restore 7
	.cfi_restore 6
	.cfi_restore 5
	.cfi_restore 4
	.cfi_def_cfa_offset 0
.LVL583:
	.loc 1 1862 0
	mov	r1, #1
	b	EV_DoFloor
.LVL584:
.L793:
	.cfi_restore_state
	.loc 1 1854 0
	mov	r0, r4
	.loc 1 1991 0
	ldmfd	sp!, {r4, r5, r6, r7, r8, lr}
	.cfi_remember_state
	.cfi_restore 14
	.cfi_restore 8
	.cfi_restore 7
	.cfi_restore 6
	.cfi_restore 5
	.cfi_restore 4
	.cfi_def_cfa_offset 0
.LVL585:
	.loc 1 1854 0
	mov	r1, #7
	b	EV_DoCeiling
.LVL586:
.L792:
	.cfi_restore_state
	.loc 1 1848 0
	mov	r0, r4
	.loc 1 1991 0
	ldmfd	sp!, {r4, r5, r6, r7, r8, lr}
	.cfi_remember_state
	.cfi_restore 14
	.cfi_restore 8
	.cfi_restore 7
	.cfi_restore 6
	.cfi_restore 5
	.cfi_restore 4
	.cfi_def_cfa_offset 0
.LVL587:
	.loc 1 1848 0
	mov	r1, #2
	mov	r2, #32
	b	EV_DoPlat
.LVL588:
.L791:
	.cfi_restore_state
	.loc 1 1842 0
	mov	r0, r4
	.loc 1 1991 0
	ldmfd	sp!, {r4, r5, r6, r7, r8, lr}
	.cfi_remember_state
	.cfi_restore 14
	.cfi_restore 8
	.cfi_restore 7
	.cfi_restore 6
	.cfi_restore 5
	.cfi_restore 4
	.cfi_def_cfa_offset 0
.LVL589:
	.loc 1 1842 0
	mov	r1, #2
	mov	r2, #24
	b	EV_DoPlat
.LVL590:
.L790:
	.cfi_restore_state
	.loc 1 1836 0
	mov	r0, r4
	.loc 1 1991 0
	ldmfd	sp!, {r4, r5, r6, r7, r8, lr}
	.cfi_remember_state
	.cfi_restore 14
	.cfi_restore 8
	.cfi_restore 7
	.cfi_restore 6
	.cfi_restore 5
	.cfi_restore 4
	.cfi_def_cfa_offset 0
.LVL591:
	.loc 1 1836 0
	mov	r1, #16
	b	EV_DoFloor
.LVL592:
.L789:
	.cfi_restore_state
	.loc 1 1731 0
	mov	r0, r4
	bl	EV_DoDonut
.LVL593:
	cmp	r0, #0
	ldmeqfd	sp!, {r4, r5, r6, r7, r8, pc}
	b	.L779
.L788:
	.loc 1 1724 0
	mov	r0, r4
	mov	r1, #0
	bl	EV_DoCeiling
.LVL594:
	cmp	r0, #0
	ldmeqfd	sp!, {r4, r5, r6, r7, r8, pc}
	b	.L779
.L787:
	.loc 1 1717 0
	mov	r0, r4
	mov	r1, #2
	mov	r2, #32
	bl	EV_DoPlat
.LVL595:
	cmp	r0, #0
	ldmeqfd	sp!, {r4, r5, r6, r7, r8, pc}
	b	.L779
.L786:
	.loc 1 1710 0
	mov	r0, r4
	mov	r1, #2
	mov	r2, #24
	bl	EV_DoPlat
.LVL596:
	cmp	r0, #0
	ldmeqfd	sp!, {r4, r5, r6, r7, r8, pc}
	b	.L779
.L784:
	.loc 1 1703 0
	mov	r0, r4
	mov	r1, #16
	bl	EV_DoFloor
.LVL597:
	cmp	r0, #0
	ldmeqfd	sp!, {r4, r5, r6, r7, r8, pc}
	b	.L779
.L681:
	ldmfd	sp!, {r4, r5, r6, r7, r8, pc}
.LVL598:
.L906:
.LBB293:
	.loc 1 1149 0
	and	r3, r0, #3104
	cmp	r3, #32
	ldmnefd	sp!, {r4, r5, r6, r7, r8, pc}
	b	.L686
.L693:
	.loc 1 1190 0
	cmp	r0, #13312
	bcc	.L694
	.loc 1 1192 0
	cmp	r5, #0
	beq	.L914
.L695:
	.loc 1 1195 0
	ldrsh	r3, [r4, #24]
	cmp	r3, #0
	ldmeqfd	sp!, {r4, r5, r6, r7, r8, pc}
	.loc 1 1197 0
	ldr	r3, .L916+24
	b	.L688
.LVL599:
.L702:
.LBE293:
	.loc 1 1227 0
	cmp	r3, #88
	beq	.L700
	cmp	r3, #97
	ldmnefd	sp!, {r4, r5, r6, r7, r8, pc}
	b	.L700
.L703:
	sub	r3, r3, #260
	sub	r3, r3, #2
	cmp	r3, #7
	ldmhifd	sp!, {r4, r5, r6, r7, r8, pc}
	b	.L700
.LVL600:
.L907:
.LBB294:
	.loc 1 1158 0
	and	r3, r0, #3104
	cmp	r3, #32
	ldmnefd	sp!, {r4, r5, r6, r7, r8, pc}
	b	.L690
.L694:
	.loc 1 1199 0
	cmp	r0, #12288
	bcc	.L696
	.loc 1 1201 0
	cmp	r5, #0
	beq	.L915
.L697:
	.loc 1 1204 0
	ldrsh	r3, [r4, #24]
	cmp	r3, #0
	ldmeqfd	sp!, {r4, r5, r6, r7, r8, pc}
	.loc 1 1206 0
	ldr	r3, .L916+28
	b	.L688
.L910:
	.loc 1 1168 0
	tst	r0, #128
	ldmeqfd	sp!, {r4, r5, r6, r7, r8, pc}
	.loc 1 1170 0
	ldrh	r3, [r4, #20]
	tst	r3, #32
	beq	.L692
	ldmfd	sp!, {r4, r5, r6, r7, r8, pc}
.L914:
	.loc 1 1193 0
	tst	r0, #32
	bne	.L695
	ldmfd	sp!, {r4, r5, r6, r7, r8, pc}
.LVL601:
.L911:
.LBE294:
	.loc 1 1391 0
	bl	EV_DoCeiling
.LVL602:
	.loc 1 1392 0
	mov	r0, r4
	mov	r1, #1
	bl	EV_DoFloor
.LVL603:
	.loc 1 1393 0
	mov	r3, #0
	strh	r3, [r4, #22]	@ movhi
	ldmfd	sp!, {r4, r5, r6, r7, r8, pc}
.L912:
	.loc 1 1409 0 discriminator 2
	ldr	r3, .L916+32
	ldr	r3, [r3, #60]
	cmp	r3, #0
	ldmeqfd	sp!, {r4, r5, r6, r7, r8, pc}
	b	.L782
.L913:
	.loc 1 1495 0 discriminator 2
	ldr	r3, .L916+32
	ldr	r3, [r3, #60]
	cmp	r3, #0
	ldmeqfd	sp!, {r4, r5, r6, r7, r8, pc}
	b	.L783
.LVL604:
.L915:
.LBB295:
	.loc 1 1202 0
	tst	r0, #32
	bne	.L697
	ldmfd	sp!, {r4, r5, r6, r7, r8, pc}
.LBE295:
	.cfi_endproc
.LFE31:
	.size	P_CrossSpecialLine, .-P_CrossSpecialLine
	.align	2
	.global	P_ShootSpecialLine
	.type	P_ShootSpecialLine, %function
P_ShootSpecialLine:
.LFB32:
	.loc 1 2006 0
	.cfi_startproc
	@ args = 0, pretend = 0, frame = 0
	@ frame_needed = 0, uses_anonymous_args = 0
.LVL605:
	stmfd	sp!, {r3, r4, r5, r6, r7, lr}
	.cfi_def_cfa_offset 24
	.cfi_offset 3, -24
	.cfi_offset 4, -20
	.cfi_offset 5, -16
	.cfi_offset 6, -12
	.cfi_offset 7, -8
	.cfi_offset 14, -4
	.loc 1 2008 0
	ldr	r5, .L1029
	.loc 1 2006 0
	mov	r4, r1
	.loc 1 2008 0
	ldrb	r6, [r5]	@ zero_extendqisi2
	cmp	r6, #6
	bls	.L919
.LVL606:
.LBB296:
	.loc 1 2015 0
	ldrh	r3, [r1, #22]
	sxth	r2, r3
	cmp	r2, #0
	blt	.L919
	.loc 1 2019 0
	cmp	r2, #24576
	uxth	r3, r3
	bge	.L1017
	.loc 1 2029 0
	cmp	r2, #16384
	blt	.L925
	.loc 1 2031 0
	ldr	r2, [r0, #156]
	cmp	r2, #0
	beq	.L1018
.L926:
	.loc 1 2034 0
	ldrsh	r2, [r4, #24]
	cmp	r2, #0
	ldmeqfd	sp!, {r3, r4, r5, r6, r7, pc}
	.loc 1 2036 0
	ldr	r2, .L1029+4
.LVL607:
.L924:
	.loc 1 2094 0
	and	r3, r3, #7
	cmp	r3, #4
	beq	.L934
	cmp	r3, #5
	ldmnefd	sp!, {r3, r4, r5, r6, r7, pc}
	.loc 1 2101 0
	mov	r0, r4
	blx	r2
.LVL608:
	cmp	r0, #0
	ldmeqfd	sp!, {r3, r4, r5, r6, r7, pc}
.L1014:
.LBE296:
	.loc 1 2138 0
	mov	r0, r4
	.loc 1 2175 0
	ldmfd	sp!, {r3, r4, r5, r6, r7, lr}
	.cfi_remember_state
	.cfi_restore 14
	.cfi_restore 7
	.cfi_restore 6
	.cfi_restore 5
	.cfi_restore 4
	.cfi_restore 3
	.cfi_def_cfa_offset 0
.LVL609:
	.loc 1 2138 0
	mov	r1, #1
	b	P_ChangeSwitchTexture
.LVL610:
.L919:
	.cfi_restore_state
	.loc 1 2110 0
	ldr	r7, [r0, #156]
	cmp	r7, #0
	beq	.L1019
.L936:
	.loc 1 2124 0
	mov	r0, r4
.LVL611:
	bl	P_CheckTag
.LVL612:
	cmp	r0, #0
	ldmeqfd	sp!, {r3, r4, r5, r6, r7, pc}
	.loc 1 2127 0
	ldrsh	r3, [r4, #22]
	cmp	r3, #46
	beq	.L938
	cmp	r3, #47
	beq	.L939
	cmp	r3, #24
	beq	.L1020
	.loc 1 2151 0
	cmp	r6, #6
	ldmlsfd	sp!, {r3, r4, r5, r6, r7, pc}
	.loc 1 2152 0
	cmp	r3, #197
	beq	.L944
	cmp	r3, #198
	ldmnefd	sp!, {r3, r4, r5, r6, r7, pc}
	.loc 1 2166 0
	cmp	r7, #0
	beq	.L947
	.loc 1 2166 0 is_stmt 0 discriminator 1
	ldr	r3, [r7, #40]
	cmp	r3, #0
	ble	.L1021
.L947:
	.loc 1 2168 0 is_stmt 1
	mov	r0, r4
	mov	r1, #0
	bl	P_ChangeSwitchTexture
.LVL613:
	.loc 1 2175 0
	ldmfd	sp!, {r3, r4, r5, r6, r7, lr}
	.cfi_remember_state
	.cfi_restore 14
	.cfi_restore 7
	.cfi_restore 6
	.cfi_restore 5
	.cfi_restore 4
	.cfi_restore 3
	.cfi_def_cfa_offset 0
.LVL614:
	.loc 1 2169 0
	b	G_SecretExitLevel
.LVL615:
.L1017:
	.cfi_restore_state
.LBB297:
	.loc 1 2021 0
	ldr	r2, [r0, #156]
	cmp	r2, #0
	beq	.L1022
.L921:
	.loc 1 2024 0
	ldrsh	r2, [r4, #24]
	cmp	r2, #0
	ldmeqfd	sp!, {r3, r4, r5, r6, r7, pc}
	.loc 1 2027 0
	ldr	r2, .L1029+8
	b	.L924
.LVL616:
.L1019:
.LBE297:
.LBB298:
	.loc 1 2113 0
	ldrsh	r3, [r4, #22]
	cmp	r3, #46
	ldmnefd	sp!, {r3, r4, r5, r6, r7, pc}
	b	.L936
.LVL617:
.L939:
.LBE298:
	.loc 1 2143 0
	mov	r0, r4
	mov	r1, #3
	mov	r2, #0
	bl	EV_DoPlat
.LVL618:
	cmp	r0, #0
	bne	.L942
	.loc 1 2143 0 is_stmt 0 discriminator 1
	ldrb	r3, [r5]	@ zero_extendqisi2
	cmp	r3, #6
	ldmhifd	sp!, {r3, r4, r5, r6, r7, pc}
.L942:
.LBB299:
	.loc 1 2098 0 is_stmt 1
	mov	r0, r4
.LBE299:
	.loc 1 2175 0
	ldmfd	sp!, {r3, r4, r5, r6, r7, lr}
	.cfi_remember_state
	.cfi_restore 14
	.cfi_restore 7
	.cfi_restore 6
	.cfi_restore 5
	.cfi_restore 4
	.cfi_restore 3
	.cfi_def_cfa_offset 0
.LVL619:
.LBB300:
	.loc 1 2098 0
	mov	r1, #0
	b	P_ChangeSwitchTexture
.LVL620:
.L934:
	.cfi_restore_state
	.loc 1 2097 0
	mov	r0, r4
	blx	r2
.LVL621:
	cmp	r0, #0
	ldmeqfd	sp!, {r3, r4, r5, r6, r7, pc}
	b	.L942
.LVL622:
.L925:
	.loc 1 2038 0
	cmp	r3, #15360
	bcs	.L1023
	.loc 1 2051 0
	cmp	r3, #14336
	bcc	.L929
	.loc 1 2053 0
	ldr	r1, [r0, #156]
.LVL623:
	cmp	r1, #0
	ldmeqfd	sp!, {r3, r4, r5, r6, r7, pc}
	.loc 1 2055 0
	and	r3, r3, #7
	sub	r3, r3, #4
	cmp	r3, #1
	ldmhifd	sp!, {r3, r4, r5, r6, r7, pc}
	.loc 1 2057 0
	mov	r0, r4
.LVL624:
	bl	P_CanUnlockGenDoor
.LVL625:
	cmp	r0, #0
	ldmeqfd	sp!, {r3, r4, r5, r6, r7, pc}
	.loc 1 2062 0
	ldrsh	r3, [r4, #24]
	cmp	r3, #0
	ldmeqfd	sp!, {r3, r4, r5, r6, r7, pc}
	ldrh	r3, [r4, #22]
	.loc 1 2065 0
	ldr	r2, .L1029+12
	b	.L924
.LVL626:
.L938:
.LBE300:
	.loc 1 2137 0
	mov	r0, r4
	mov	r1, #3
	bl	EV_DoDoor
.LVL627:
	b	.L1014
.L1020:
	.loc 1 2131 0
	mov	r0, r4
	mov	r1, #3
	bl	EV_DoFloor
.LVL628:
	cmp	r0, #0
	bne	.L942
	.loc 1 2131 0 is_stmt 0 discriminator 1
	ldrb	r3, [r5]	@ zero_extendqisi2
	cmp	r3, #6
	ldmhifd	sp!, {r3, r4, r5, r6, r7, pc}
	b	.L942
.LVL629:
.L1023:
.LBB301:
	.loc 1 2040 0 is_stmt 1
	ldr	r2, [r0, #156]
	cmp	r2, #0
	beq	.L1024
.L928:
	.loc 1 2047 0
	ldrsh	r2, [r4, #24]
	cmp	r2, #0
	ldmeqfd	sp!, {r3, r4, r5, r6, r7, pc}
	.loc 1 2049 0
	ldr	r2, .L1029+16
	b	.L924
.L1022:
	.loc 1 2022 0
	and	r2, r3, #3104
	cmp	r2, #32
	ldmnefd	sp!, {r3, r4, r5, r6, r7, pc}
	b	.L921
.L929:
	.loc 1 2067 0
	cmp	r3, #13312
	bcc	.L930
	.loc 1 2069 0
	ldr	r2, [r0, #156]
	cmp	r2, #0
	beq	.L1025
.L948:
	.loc 1 2072 0
	ldr	r2, .L1029+20
	b	.L924
.LVL630:
.L944:
.LBE301:
	.loc 1 2157 0
	cmp	r7, #0
	beq	.L946
	.loc 1 2157 0 is_stmt 0 discriminator 1
	ldr	r3, [r7, #40]
	cmp	r3, #0
	ble	.L1026
.L946:
	.loc 1 2159 0 is_stmt 1
	mov	r0, r4
	mov	r1, #0
	bl	P_ChangeSwitchTexture
.LVL631:
	.loc 1 2175 0
	ldmfd	sp!, {r3, r4, r5, r6, r7, lr}
	.cfi_remember_state
	.cfi_restore 14
	.cfi_restore 7
	.cfi_restore 6
	.cfi_restore 5
	.cfi_restore 4
	.cfi_restore 3
	.cfi_def_cfa_offset 0
.LVL632:
	.loc 1 2160 0
	b	G_ExitLevel
.LVL633:
.L1018:
	.cfi_restore_state
.LBB302:
	.loc 1 2032 0
	and	r2, r3, #3104
	cmp	r2, #32
	ldmnefd	sp!, {r3, r4, r5, r6, r7, pc}
	b	.L926
.L930:
	.loc 1 2074 0
	cmp	r3, #12288
	bcc	.L931
	.loc 1 2076 0
	ldr	r2, [r0, #156]
	cmp	r2, #0
	beq	.L1027
.L932:
	.loc 1 2079 0
	ldrsh	r2, [r4, #24]
	cmp	r2, #0
	ldmeqfd	sp!, {r3, r4, r5, r6, r7, pc}
	.loc 1 2081 0
	ldr	r2, .L1029+24
	b	.L924
.L1024:
	.loc 1 2042 0
	tst	r3, #128
	ldmeqfd	sp!, {r3, r4, r5, r6, r7, pc}
	.loc 1 2044 0
	ldrh	r2, [r1, #20]
	tst	r2, #32
	beq	.L928
	ldmfd	sp!, {r3, r4, r5, r6, r7, pc}
.L931:
	.loc 1 2083 0
	cmp	r3, #12160
	bcc	.L919
	.loc 1 2085 0
	ldr	r2, [r0, #156]
	cmp	r2, #0
	beq	.L1028
.L933:
	.loc 1 2088 0
	ldrsh	r2, [r4, #24]
	cmp	r2, #0
	ldmeqfd	sp!, {r3, r4, r5, r6, r7, pc}
	.loc 1 2090 0
	ldr	r2, .L1029+28
	b	.L924
.LVL634:
.L1026:
.LBE302:
	.loc 1 2157 0 discriminator 2
	ldr	r3, .L1029+32
	ldr	r3, [r3, #60]
	cmp	r3, #0
	ldmeqfd	sp!, {r3, r4, r5, r6, r7, pc}
	b	.L946
.L1021:
	.loc 1 2166 0 discriminator 2
	ldr	r3, .L1029+32
	ldr	r3, [r3, #60]
	cmp	r3, #0
	bne	.L947
	ldmfd	sp!, {r3, r4, r5, r6, r7, pc}
.LVL635:
.L1025:
.LBB303:
	.loc 1 2070 0
	tst	r3, #32
	bne	.L948
	ldmfd	sp!, {r3, r4, r5, r6, r7, pc}
.L1027:
	.loc 1 2077 0
	tst	r3, #32
	bne	.L932
	ldmfd	sp!, {r3, r4, r5, r6, r7, pc}
.L1028:
	.loc 1 2086 0
	tst	r3, #32
	bne	.L933
	ldmfd	sp!, {r3, r4, r5, r6, r7, pc}
.L1030:
	.align	2
.L1029:
	.word	compatibility_level
	.word	EV_DoGenCeiling
	.word	EV_DoGenFloor
	.word	EV_DoGenLockedDoor
	.word	EV_DoGenDoor
	.word	EV_DoGenLift
	.word	EV_DoGenStairs
	.word	EV_DoGenCrusher
	.word	comp
.LBE303:
	.cfi_endproc
.LFE32:
	.size	P_ShootSpecialLine, .-P_ShootSpecialLine
	.align	2
	.global	P_PlayerInSpecialSector
	.type	P_PlayerInSpecialSector, %function
P_PlayerInSpecialSector:
.LFB33:
	.loc 1 2187 0
	.cfi_startproc
	@ args = 0, pretend = 0, frame = 0
	@ frame_needed = 0, uses_anonymous_args = 0
.LVL636:
	.loc 1 2190 0
	ldr	r3, [r0]
	.loc 1 2187 0
	stmfd	sp!, {r4, r5, r6, lr}
	.cfi_def_cfa_offset 16
	.cfi_offset 4, -16
	.cfi_offset 5, -12
	.cfi_offset 6, -8
	.cfi_offset 14, -4
	.loc 1 2190 0
	ldr	r2, [r3, #64]
	.loc 1 2194 0
	ldr	r1, [r3, #32]
	.loc 1 2190 0
	ldr	r5, [r2]
.LVL637:
	.loc 1 2194 0
	ldr	r2, [r5, #12]
	cmp	r1, r2
	ldmnefd	sp!, {r4, r5, r6, pc}
	.loc 1 2199 0
	ldrh	r2, [r5, #190]
	mov	r4, r0
	sxth	r1, r2
	cmp	r1, #31
	ble	.L1067
	.loc 1 2254 0
	uxth	r0, r2
.LVL638:
	and	r1, r0, #96
	mov	r1, r1, asr #5
	cmp	r1, #2
	beq	.L1048
	cmp	r1, #3
	beq	.L1049
	cmp	r1, #1
	beq	.L1068
.L1047:
	.loc 1 2277 0
	tst	r0, #128
	ldmeqfd	sp!, {r4, r5, r6, pc}
	.loc 1 2280 0
	bic	r2, r2, #128
	.loc 1 2279 0
	ldr	r3, [r4, #216]
	.loc 1 2280 0
	uxth	r2, r2
	.loc 1 2281 0
	sxth	r1, r2
	cmp	r1, #31
	.loc 1 2279 0
	add	r3, r3, #1
	str	r3, [r4, #216]
	.loc 1 2280 0
	strgth	r2, [r5, #190]	@ movhi
	.loc 1 2281 0
	ldmgtfd	sp!, {r4, r5, r6, pc}
	.loc 1 2282 0
	mov	r3, #0
	strh	r3, [r5, #190]	@ movhi
.L1031:
	ldmfd	sp!, {r4, r5, r6, pc}
.LVL639:
.L1067:
	.loc 1 2201 0
	sub	r1, r1, #4
	cmp	r1, #12
	ldrls	pc, [pc, r1, asl #2]
	b	.L1031
.L1036:
	.word	.L1035
	.word	.L1037
	.word	.L1031
	.word	.L1038
	.word	.L1031
	.word	.L1039
	.word	.L1031
	.word	.L1040
	.word	.L1031
	.word	.L1031
	.word	.L1031
	.word	.L1031
	.word	.L1035
.L1040:
	.loc 1 2237 0
	ldr	r2, .L1071
	ldr	r2, [r2, #32]
	cmp	r2, #0
	.loc 1 2238 0
	ldrne	r2, [r0, #200]
	bicne	r2, r2, #2
	strne	r2, [r0, #200]
	.loc 1 2240 0
	ldr	r2, .L1071+4
	ldr	r1, [r2]
	ands	r1, r1, #31
	beq	.L1069
.LVL640:
.L1046:
	.loc 1 2243 0
	ldr	r3, [r4, #40]
	cmp	r3, #10
	ldmgtfd	sp!, {r4, r5, r6, pc}
	.loc 1 2292 0
	ldmfd	sp!, {r4, r5, r6, lr}
	.cfi_remember_state
	.cfi_restore 14
	.cfi_restore 6
	.cfi_restore 5
	.cfi_restore 4
	.cfi_def_cfa_offset 0
.LVL641:
	.loc 1 2244 0
	b	G_ExitLevel
.LVL642:
.L1039:
	.cfi_restore_state
	.loc 1 2232 0
	mov	r2, #0
	.loc 1 2231 0
	ldr	r3, [r0, #216]
	add	r3, r3, #1
	str	r3, [r0, #216]
	.loc 1 2232 0
	strh	r2, [r5, #190]	@ movhi
	.loc 1 2233 0
	ldmfd	sp!, {r4, r5, r6, pc}
.L1038:
	.loc 1 2212 0
	ldr	r2, [r0, #64]
	cmp	r2, #0
	ldmnefd	sp!, {r4, r5, r6, pc}
	.loc 1 2213 0
	ldr	r2, .L1071+4
	ldr	r1, [r2]
	ands	r1, r1, #31
	ldmnefd	sp!, {r4, r5, r6, pc}
	.loc 1 2214 0
	mov	r0, r3
.LVL643:
	.loc 1 2292 0
	ldmfd	sp!, {r4, r5, r6, lr}
	.cfi_remember_state
	.cfi_restore 14
	.cfi_restore 6
	.cfi_restore 5
	.cfi_restore 4
	.cfi_def_cfa_offset 0
.LVL644:
	.loc 1 2214 0
	mov	r2, r1
	mov	r3, #5
.LVL645:
	b	P_DamageMobj
.LVL646:
.L1037:
	.cfi_restore_state
	.loc 1 2205 0
	ldr	r2, [r0, #64]
	cmp	r2, #0
	ldmnefd	sp!, {r4, r5, r6, pc}
	.loc 1 2206 0
	ldr	r2, .L1071+4
	ldr	r1, [r2]
	ands	r1, r1, #31
	ldmnefd	sp!, {r4, r5, r6, pc}
	.loc 1 2207 0
	mov	r0, r3
.LVL647:
	.loc 1 2292 0
	ldmfd	sp!, {r4, r5, r6, lr}
	.cfi_remember_state
	.cfi_restore 14
	.cfi_restore 6
	.cfi_restore 5
	.cfi_restore 4
	.cfi_def_cfa_offset 0
.LVL648:
	.loc 1 2207 0
	mov	r2, r1
	mov	r3, #10
.LVL649:
	b	P_DamageMobj
.LVL650:
.L1035:
	.cfi_restore_state
	.loc 1 2221 0
	ldr	r3, [r0, #64]
	cmp	r3, #0
	bne	.L1042
.LVL651:
.L1044:
	.loc 1 2224 0
	ldr	r3, .L1071+4
	ldr	r1, [r3]
	ands	r1, r1, #31
	ldmnefd	sp!, {r4, r5, r6, pc}
	.loc 1 2225 0
	ldr	r0, [r4]
	mov	r2, r1
	.loc 1 2292 0
	ldmfd	sp!, {r4, r5, r6, lr}
	.cfi_remember_state
	.cfi_restore 14
	.cfi_restore 6
	.cfi_restore 5
	.cfi_restore 4
	.cfi_def_cfa_offset 0
.LVL652:
	.loc 1 2225 0
	mov	r3, #20
	b	P_DamageMobj
.LVL653:
.L1068:
	.cfi_restore_state
	.loc 1 2259 0
	ldr	r1, [r4, #64]
	cmp	r1, #0
	bne	.L1047
	.loc 1 2260 0
	ldr	r1, .L1071+4
	ldr	r1, [r1]
	ands	r1, r1, #31
	bne	.L1047
	.loc 1 2261 0
	mov	r0, r3
	mov	r2, r1
	mov	r3, #5
	bl	P_DamageMobj
.LVL654:
	ldrh	r2, [r5, #190]
	uxth	r0, r2
	b	.L1047
.L1049:
	.loc 1 2269 0
	ldr	r3, [r4, #64]
	cmp	r3, #0
	bne	.L1051
.L1054:
	.loc 1 2272 0
	ldr	r3, .L1071+4
	ldr	r1, [r3]
	ands	r1, r1, #31
	beq	.L1070
.L1064:
	ldrh	r2, [r5, #190]
	uxth	r0, r2
	b	.L1047
.L1048:
	.loc 1 2264 0
	ldr	r1, [r4, #64]
	cmp	r1, #0
	bne	.L1047
	.loc 1 2265 0
	ldr	r1, .L1071+4
	ldr	r1, [r1]
	ands	r1, r1, #31
	bne	.L1047
	.loc 1 2266 0
	mov	r0, r3
	mov	r2, r1
	mov	r3, #10
	bl	P_DamageMobj
.LVL655:
	ldrh	r2, [r5, #190]
	uxth	r0, r2
	b	.L1047
.L1051:
	.loc 1 2270 0
	mov	r0, #25
	bl	P_Random
.LVL656:
	cmp	r0, #4
	ble	.L1054
	b	.L1064
.L1070:
	.loc 1 2273 0
	ldr	r0, [r4]
	mov	r2, r1
	mov	r3, #20
	bl	P_DamageMobj
.LVL657:
	b	.L1064
.LVL658:
.L1069:
	.loc 1 2241 0
	mov	r0, r3
.LVL659:
	mov	r2, r1
	mov	r3, #20
	bl	P_DamageMobj
.LVL660:
	b	.L1046
.LVL661:
.L1042:
	.loc 1 2222 0
	mov	r0, #25
.LVL662:
	bl	P_Random
.LVL663:
	cmp	r0, #4
	ble	.L1044
	ldmfd	sp!, {r4, r5, r6, pc}
.L1072:
	.align	2
.L1071:
	.word	comp
	.word	leveltime
	.cfi_endproc
.LFE33:
	.size	P_PlayerInSpecialSector, .-P_PlayerInSpecialSector
	.global	__aeabi_idiv
	.global	__aeabi_idivmod
	.align	2
	.global	P_UpdateSpecials
	.type	P_UpdateSpecials, %function
P_UpdateSpecials:
.LFB34:
	.loc 1 2312 0
	.cfi_startproc
	@ args = 0, pretend = 0, frame = 0
	@ frame_needed = 0, uses_anonymous_args = 0
	stmfd	sp!, {r3, r4, r5, r6, r7, r8, r9, r10, fp, lr}
	.cfi_def_cfa_offset 40
	.cfi_offset 3, -40
	.cfi_offset 4, -36
	.cfi_offset 5, -32
	.cfi_offset 6, -28
	.cfi_offset 7, -24
	.cfi_offset 8, -20
	.cfi_offset 9, -16
	.cfi_offset 10, -12
	.cfi_offset 11, -8
	.cfi_offset 14, -4
	.loc 1 2318 0
	ldr	r4, .L1120
	ldr	r3, [r4, #12]
	cmp	r3, #1
	beq	.L1115
.L1075:
	.loc 1 2328 0
	ldr	r3, .L1120+4
	ldr	r3, [r3]
	cmp	r3, #1
	beq	.L1116
.L1100:
	.loc 1 2348 0
	ldmia	r4, {r6, r10}
	cmp	r6, r10
	bcs	.L1083
	.loc 1 2354 0
	ldr	r2, .L1120+8
	.loc 1 2356 0
	ldr	r3, .L1120+12
	.loc 1 2354 0
	ldr	r9, [r2]
	.loc 1 2356 0
	ldr	r8, [r3]
	ldr	r7, .L1120+16
.L1085:
.LVL664:
	.loc 1 2350 0
	ldr	r4, [r6, #8]
.LVL665:
	ldr	fp, [r6, #12]
	add	r3, r4, fp
	cmp	r4, r3
	movlt	r5, r4
	bge	.L1089
.L1088:
	.loc 1 2352 0
	ldr	r1, [r6, #16]
	ldr	r0, [r7]
	bl	__aeabi_idiv
.LVL666:
	mov	r1, fp
	add	r0, r0, r4
	bl	__aeabi_idivmod
.LVL667:
	.loc 1 2353 0
	ldr	r3, [r6]
	.loc 1 2352 0
	add	r1, r5, r1
.LVL668:
	.loc 1 2353 0
	cmp	r3, #0
	.loc 1 2354 0
	strne	r1, [r9, r4, asl #2]
	.loc 1 2356 0
	streq	r1, [r8, r4, asl #2]
	.loc 1 2350 0
	ldr	r5, [r6, #8]
	ldr	fp, [r6, #12]
	add	r4, r4, #1
.LVL669:
	add	r3, r5, fp
	cmp	r3, r4
	bgt	.L1088
.LVL670:
.L1089:
	.loc 1 2348 0
	add	r6, r6, #20
.LVL671:
	cmp	r6, r10
	bcc	.L1085
.LVL672:
.L1083:
	ldr	r4, .L1120+20
.LBB304:
	.loc 1 2388 0
	ldr	r9, .L1120+24
	add	r5, r4, #16
	add	r6, r4, #320
	ldr	r8, .L1120+28
.LBE304:
	.loc 1 2375 0
	ldr	r7, .L1120+32
	b	.L1099
.LVL673:
.L1118:
	.loc 1 2367 0
	bcc	.L1095
	cmp	r3, #2
	bne	.L1093
	.loc 1 2380 0
	ldr	r3, [r5, #-16]
	ldr	r2, [r7]
	ldrh	r3, [r3, #26]
	ldr	r1, [r4, #8]
	add	r3, r3, r3, asl #4
	add	r3, r2, r3, asl #2
	strh	r1, [r3, #10]	@ movhi
.L1093:
.LBB305:
	.loc 1 2388 0
	ldr	r3, [r9, #84]
	.loc 1 2387 0
	ldr	r0, [r4, #16]
.LVL674:
	.loc 1 2388 0
	cmp	r3, #0
	bne	.L1097
	.loc 1 2388 0 is_stmt 0 discriminator 1
	ldrb	r3, [r8]	@ zero_extendqisi2
	cmp	r3, #16
	bhi	.L1098
.L1097:
	.loc 1 2391 0 is_stmt 1
	mov	r0, r5
.LVL675:
.L1098:
	.loc 1 2392 0
	mov	r1, #23
	bl	S_StartSound
.LVL676:
.LBE305:
	.loc 1 2394 0
	mov	r0, r4
	mov	r1, #0
	mov	r2, #20
	bl	memset
.LVL677:
.L1091:
	add	r4, r4, #20
	.loc 1 2361 0 discriminator 2
	cmp	r4, r6
	add	r5, r5, #20
	beq	.L1117
.L1099:
	.loc 1 2362 0
	ldr	r3, [r4, #12]
	cmp	r3, #0
	beq	.L1091
	.loc 1 2364 0
	sub	r3, r3, #1
	.loc 1 2365 0
	cmp	r3, #0
	.loc 1 2364 0
	str	r3, [r4, #12]
	.loc 1 2365 0
	bne	.L1091
	.loc 1 2367 0
	ldrb	r3, [r4, #4]	@ zero_extendqisi2
	cmp	r3, #1
	bne	.L1118
	.loc 1 2375 0
	ldr	r3, [r5, #-16]
	ldr	r2, [r7]
	ldrh	r3, [r3, #26]
	ldr	r1, [r4, #8]
	add	r3, r3, r3, asl #4
	add	r3, r2, r3, asl #2
	strh	r1, [r3, #12]	@ movhi
	.loc 1 2377 0
	b	.L1093
.L1117:
	ldmfd	sp!, {r3, r4, r5, r6, r7, r8, r9, r10, fp, pc}
.L1095:
	.loc 1 2370 0
	ldr	r3, [r5, #-16]
	ldr	r2, [r7]
	ldrh	r3, [r3, #26]
	ldr	r1, [r4, #8]
	add	r3, r3, r3, asl #4
	add	r3, r2, r3, asl #2
	strh	r1, [r3, #8]	@ movhi
	.loc 1 2372 0
	b	.L1093
.L1115:
	.loc 1 2320 0
	ldr	r3, [r4, #16]
	sub	r3, r3, #1
	.loc 1 2321 0
	cmp	r3, #0
	.loc 1 2320 0
	str	r3, [r4, #16]
	.loc 1 2321 0
	bne	.L1075
	.loc 1 2322 0
	bl	G_ExitLevel
.LVL678:
	b	.L1075
.L1116:
.LBB306:
	.loc 1 2340 0
	ldr	r3, .L1120+36
	ldr	ip, .L1120+40
.LVL679:
	ldr	r7, [r3]
	mov	r3, #0
.LVL680:
	.loc 1 2333 0
	ldr	r0, [ip, r3, asl #2]
	ldr	r2, .L1120+44
	cmp	r0, #0
	sub	r1, r2, #104
	bne	.L1119
.L1076:
	.loc 1 2331 0 discriminator 2
	add	r3, r3, #1
.LVL681:
	cmp	r3, #4
	add	r2, r2, #284
	add	r1, r1, #288
	beq	.L1100
	.loc 1 2333 0
	ldr	r0, [ip, r3, asl #2]
	cmp	r0, #0
	beq	.L1076
.L1119:
	mov	r6, #0
	mov	lr, r2
	mov	r0, r6
.L1080:
.LVL682:
	.loc 1 2337 0
	ldr	r5, [ip, r0, asl #2]
	cmp	r5, #0
	beq	.L1077
	.loc 1 2338 0
	cmp	r0, r3
	ldreq	r5, [r1, #104]
	ldrne	r5, [lr]
	rsbeq	r5, r5, #0
	add	r6, r6, r5
.LVL683:
.L1077:
	.loc 1 2335 0 discriminator 2
	add	r0, r0, #1
.LVL684:
	cmp	r0, #4
	add	lr, lr, #4
	bne	.L1080
	.loc 1 2340 0
	cmp	r7, r6
	bgt	.L1076
.LVL685:
	.loc 1 2344 0
	bl	G_ExitLevel
.LVL686:
	b	.L1100
.L1121:
	.align	2
.L1120:
	.word	.LANCHOR0
	.word	levelFragLimit
	.word	texturetranslation
	.word	flattranslation
	.word	leveltime
	.word	buttonlist
	.word	comp
	.word	compatibility_level
	.word	sides
	.word	levelFragLimitCount
	.word	playeringame
	.word	players+104
.LBE306:
	.cfi_endproc
.LFE34:
	.size	P_UpdateSpecials, .-P_UpdateSpecials
	.global	__aeabi_ldivmod
	.align	2
	.global	P_SpawnSpecials
	.type	P_SpawnSpecials, %function
P_SpawnSpecials:
.LFB35:
	.loc 1 2413 0
	.cfi_startproc
	@ args = 0, pretend = 0, frame = 56
	@ frame_needed = 0, uses_anonymous_args = 0
.LVL687:
	stmfd	sp!, {r4, r5, r6, r7, r8, r9, r10, fp, lr}
	.cfi_def_cfa_offset 36
	.cfi_offset 4, -36
	.cfi_offset 5, -32
	.cfi_offset 6, -28
	.cfi_offset 7, -24
	.cfi_offset 8, -20
	.cfi_offset 9, -16
	.cfi_offset 10, -12
	.cfi_offset 11, -8
	.cfi_offset 14, -4
.LBB367:
.LBB368:
	.loc 3 132 0
	mov	r1, #0
.LBE368:
.LBE367:
	.loc 1 2413 0
	sub	sp, sp, #68
	.cfi_def_cfa_offset 104
.LBB370:
.LBB369:
	.loc 3 132 0
	mvn	r2, #0
	ldr	r0, .L1311
	bl	W_FindNumFromName
.LVL688:
.LBE369:
.LBE370:
	.loc 1 2423 0
	mov	r3, #0
	ldr	r4, .L1311+4
	.loc 1 2425 0
	ldr	r0, .L1311+8
	.loc 1 2423 0
	str	r3, [r4, #12]
	.loc 1 2425 0
	bl	M_CheckParm
.LVL689:
	.loc 1 2426 0
	cmp	r0, #0
	beq	.L1123
	.loc 1 2426 0 is_stmt 0 discriminator 1
	ldr	r3, .L1311+12
	ldr	r3, [r3]
	cmp	r3, #0
	.loc 1 2428 0 is_stmt 1 discriminator 1
	movne	r2, #1
	.loc 1 2429 0 discriminator 1
	ldrne	r3, .L1311+16
	.loc 1 2428 0 discriminator 1
	strne	r2, [r4, #12]
	.loc 1 2429 0 discriminator 1
	strne	r3, [r4, #16]
.L1123:
	.loc 1 2432 0
	ldr	r0, .L1311+20
.LVL690:
	bl	M_CheckParm
.LVL691:
	.loc 1 2433 0
	cmp	r0, #0
	beq	.L1124
	.loc 1 2433 0 is_stmt 0 discriminator 1
	ldr	r3, .L1311+12
	ldr	r3, [r3]
	cmp	r3, #0
	bne	.L1298
.LVL692:
.L1124:
	.loc 1 2442 0 is_stmt 1
	mov	r3, #0
	ldr	r4, .L1311+24
	.loc 1 2443 0
	ldr	r0, .L1311+28
	.loc 1 2442 0
	str	r3, [r4]
	.loc 1 2443 0
	bl	M_CheckParm
.LVL693:
	.loc 1 2444 0
	cmp	r0, #0
	beq	.L1125
	.loc 1 2444 0 is_stmt 0 discriminator 1
	ldr	r3, .L1311+12
	ldr	r3, [r3]
	cmp	r3, #0
	bne	.L1299
.LVL694:
.L1125:
	.loc 1 2456 0 is_stmt 1
	ldr	r3, .L1311+32
	.loc 1 2455 0
	ldr	r10, .L1311+36
	.loc 1 2456 0
	ldr	r3, [r3]
	.loc 1 2455 0
	ldr	r4, [r10]
.LVL695:
	.loc 1 2456 0
	cmp	r3, #0
	movgt	r5, #0
	.loc 1 2494 0
	ldrgt	r6, .L1311+40
	.loc 1 2456 0
	ble	.L1146
.LVL696:
.L1145:
	.loc 1 2458 0
	ldrh	r2, [r4, #190]
	cmp	r2, #0
	beq	.L1130
	.loc 1 2461 0
	uxth	r3, r2
	tst	r3, #128
	.loc 1 2462 0
	ldrne	r1, [r6]
	.loc 1 2464 0
	and	r3, r3, #31
	.loc 1 2462 0
	addne	r1, r1, #1
	.loc 1 2464 0
	sub	r3, r3, #1
	.loc 1 2462 0
	strne	r1, [r6]
	.loc 1 2464 0
	cmp	r3, #16
	ldrls	pc, [pc, r3, asl #2]
	b	.L1130
.L1133:
	.word	.L1132
	.word	.L1134
	.word	.L1135
	.word	.L1136
	.word	.L1130
	.word	.L1130
	.word	.L1130
	.word	.L1137
	.word	.L1138
	.word	.L1139
	.word	.L1130
	.word	.L1140
	.word	.L1141
	.word	.L1142
	.word	.L1130
	.word	.L1130
	.word	.L1143
.L1138:
	.loc 1 2493 0
	sxth	r2, r2
	cmp	r2, #31
	.loc 1 2494 0
	ldrle	r3, [r6]
	addle	r3, r3, #1
	strle	r3, [r6]
.L1130:
	.loc 1 2456 0 discriminator 2
	ldr	r3, .L1311+32
	add	r5, r5, #1
.LVL697:
	ldr	r3, [r3]
	add	r4, r4, #196
.LVL698:
	cmp	r3, r5
	bgt	.L1145
.LVL699:
.L1146:
	.loc 1 2524 0
	bl	P_RemoveAllActiveCeilings
.LVL700:
	.loc 1 2526 0
	bl	P_RemoveAllActivePlats
.LVL701:
	.loc 1 2529 0
	mov	r1, #0
	ldr	r2, .L1311+44
	add	r0, r2, #320
.LVL702:
.L1128:
	.loc 1 2529 0 is_stmt 0 discriminator 3
	mov	r3, r2
	str	r1, [r3], #4
	add	r3, r3, #4
	str	r1, [r2, #4]
	str	r1, [r3], #4
	add	r2, r2, #20
	str	r1, [r3], #4
	.loc 1 2528 0 is_stmt 1 discriminator 3
	cmp	r2, r0
	.loc 1 2529 0 discriminator 3
	str	r1, [r3]
	.loc 1 2528 0 discriminator 3
	bne	.L1128
.LBB371:
.LBB372:
	.loc 1 745 0
	ldr	r3, .L1311+32
	ldr	r6, [r3]
.LVL703:
	subs	r5, r6, #1
.LVL704:
	bmi	.L1152
	mov	r4, #196
.LVL705:
	ldr	r7, [r10]
	.loc 1 746 0
	mvn	r2, #0
	mla	r4, r4, r6, r7
	.loc 1 745 0
	mov	r3, r4
.LVL706:
.L1150:
	.loc 1 746 0
	str	r2, [r3, #-172]
	sub	r3, r3, #196
	.loc 1 745 0
	cmp	r3, r7
	bne	.L1150
.LBB373:
	.loc 1 750 0
	mov	r8, #196
.L1266:
.LVL707:
	.loc 1 749 0
	ldrsh	r0, [r4, #-2]
	mov	r1, r6
	bl	__aeabi_uidivmod
.LVL708:
	.loc 1 750 0
	mla	r1, r8, r1, r7
	ldr	r2, [r1, #24]
	sub	r4, r4, #196
	str	r2, [r4, #20]
	.loc 1 751 0
	str	r5, [r1, #24]
.LBE373:
	.loc 1 747 0
	sub	r5, r5, #1
.LVL709:
	cmn	r5, #1
	bne	.L1266
.L1152:
	.loc 1 756 0
	ldr	r3, .L1311+48
	ldr	r4, [r3]
.LVL710:
	subs	r7, r4, #1
.LVL711:
	bmi	.L1300
	ldr	r3, .L1311+52
	rsb	r5, r4, r4, asl #5
	ldr	r8, [r3]
	str	r3, [sp, #24]
	add	r5, r8, r5, asl #2
	.loc 1 757 0
	mvn	r2, #0
	.loc 1 756 0
	mov	r3, r5
.LVL712:
.L1154:
	.loc 1 757 0
	str	r2, [r3, #-52]
	sub	r3, r3, #124
	.loc 1 756 0
	cmp	r3, r8
	bne	.L1154
.L1265:
.LVL713:
.LBB374:
	.loc 1 760 0
	ldrsh	r0, [r5, #-100]
	mov	r1, r4
	bl	__aeabi_uidivmod
.LVL714:
	.loc 1 761 0
	rsb	r1, r1, r1, asl #5
	add	r3, r8, r1, asl #2
	ldr	r2, [r3, #72]
	sub	r5, r5, #124
	str	r2, [r5, #76]
	.loc 1 762 0
	str	r7, [r3, #72]
.LBE374:
	.loc 1 758 0
	sub	r7, r7, #1
.LVL715:
	cmn	r7, #1
	bne	.L1265
	.loc 1 757 0
	mov	fp, r8
.L1153:
.LVL716:
.LBE372:
.LBE371:
.LBB375:
.LBB376:
	.loc 1 2765 0
	cmp	r4, #0
	ble	.L1156
	mov	r3, #0
	str	r3, [sp, #16]
	str	r3, [sp, #12]
	b	.L1186
.LVL717:
.L1303:
.LBB377:
	.loc 1 2769 0
	mov	r9, #0
	.loc 1 2783 0
	ldr	r2, .L1311+56
.LVL718:
	ldrh	r3, [fp, #26]
	ldr	r2, [r2]
	add	r3, r3, r3, asl #4
	add	r3, r2, r3, asl #2
	ldr	r3, [r3, #16]
	ldr	r2, [r10]
	.loc 1 2782 0
	add	r4, r4, #5
.LVL719:
	.loc 1 2783 0
	rsb	r3, r2, r3
	ldr	r2, .L1311+60
	mov	r3, r3, asr #2
	mul	r8, r2, r3
.LVL720:
.L1158:
	.loc 1 2793 0
	cmp	r4, #251
	beq	.L1235
.L1304:
	ble	.L1301
	cmp	r4, #253
	beq	.L1235
	blt	.L1165
	cmp	r4, #254
	beq	.L1236
	cmp	r4, #255
	bne	.L1159
.LBB378:
	.loc 1 2826 0
	ldr	r2, .L1311+56
	.loc 1 2825 0
	ldr	r3, [sp, #24]
	.loc 1 2826 0
	ldr	r1, [r2]
	.loc 1 2825 0
	ldr	r3, [r3]
	ldr	r2, [sp, #16]
	.loc 1 2826 0
	mov	r0, #0
	.loc 1 2825 0
	add	r3, r3, r2
	ldrh	r3, [r3, #26]
.LVL721:
	.loc 1 2826 0
	add	ip, r3, r3, asl #4
	add	r2, r1, ip, asl #2
	ldr	r1, [r1, ip, asl #2]
	ldr	r2, [r2, #4]
	rsb	r1, r1, #0
	.loc 1 2825 0
	str	r3, [sp]
	.loc 1 2826 0
	str	r9, [sp, #4]
	mvn	r3, #0
.LVL722:
	bl	Add_Scroller
.LVL723:
.L1159:
.LBE378:
.LBE377:
	.loc 1 2765 0
	ldr	r3, .L1311+48
	add	fp, fp, #124
.LVL724:
	ldr	r4, [r3]
	ldr	r3, [sp, #12]
	add	r3, r3, #1
	str	r3, [sp, #12]
.LVL725:
	cmp	r3, r4
	ldr	r3, [sp, #16]
.LVL726:
	add	r3, r3, #124
	str	r3, [sp, #16]
	bge	.L1302
.LVL727:
.L1186:
.LBB486:
	.loc 1 2770 0
	ldrsh	r4, [fp, #22]
	.loc 1 2767 0
	ldr	r2, [fp, #12]
	.loc 1 2780 0
	sub	r1, r4, #245
	.loc 1 2768 0
	ldr	r3, [fp, #16]
	.loc 1 2767 0
	mov	r2, r2, asr #5
	.loc 1 2780 0
	cmp	r1, #4
	.loc 1 2767 0
	str	r2, [sp, #20]
.LVL728:
	.loc 1 2768 0
	mov	r7, r3, asr #5
.LVL729:
	.loc 1 2780 0
	bls	.L1303
	.loc 1 2786 0
	sub	r3, r4, #214
	cmp	r3, #4
	.loc 1 2769 0
	movhi	r9, #0
	mvnhi	r8, #0
	.loc 1 2786 0
	bhi	.L1158
.LVL730:
	.loc 1 2790 0
	ldr	r2, .L1311+56
.LVL731:
	ldrh	r3, [fp, #26]
	ldr	r2, [r2]
	add	r3, r3, r3, asl #4
	add	r3, r2, r3, asl #2
	ldr	r3, [r3, #16]
	ldr	r2, [r10]
	.loc 1 2789 0
	add	r4, r4, #36
.LVL732:
	.loc 1 2790 0
	rsb	r3, r2, r3
	ldr	r2, .L1311+60
	mov	r3, r3, asr #2
	.loc 1 2793 0
	cmp	r4, #251
	.loc 1 2790 0
	mul	r8, r2, r3
.LVL733:
	.loc 1 2788 0
	mov	r9, #1
.LVL734:
	.loc 1 2793 0
	bne	.L1304
.L1235:
.LBB481:
	.loc 1 2805 0
	ldr	r3, [sp, #20]
.LBE481:
	.loc 1 2793 0
	mvn	r6, #0
.LBB482:
	.loc 1 2805 0
	rsb	r5, r3, #0
	b	.L1160
.LVL735:
.L1169:
	stmia	sp, {r6, r9}
	mov	r0, #1
.LVL736:
	mov	r1, r5
	mov	r2, r7
	mov	r3, r8
	bl	Add_Scroller
.LVL737:
.L1160:
	.loc 1 2804 0
	mov	r1, r6
	mov	r0, fp
	bl	P_FindSectorFromLineTag
.LVL738:
	subs	r6, r0, #0
	bge	.L1169
	.loc 1 2806 0
	cmp	r4, #253
	bne	.L1159
.LVL739:
.L1165:
.LBB379:
.LBB380:
	.loc 2 72 0
	mov	r2, #6144
	ldr	r3, [sp, #20]
.LBE380:
.LBE379:
	.loc 1 2812 0
	mvn	r6, #0
.LBB384:
.LBB381:
	.loc 2 72 0
	smull	r0, r1, r3, r2
.LBE381:
.LBE384:
.LBB385:
.LBB386:
	smull	r2, r3, r7, r2
.LBE386:
.LBE385:
.LBB389:
.LBB382:
	mov	r5, r0, lsr #16
.LBE382:
.LBE389:
.LBB390:
.LBB387:
	mov	r4, r2, lsr #16
.LVL740:
.LBE387:
.LBE390:
.LBB391:
.LBB383:
	orr	r5, r5, r1, asl #16
.LVL741:
.LBE383:
.LBE391:
.LBB392:
.LBB388:
	orr	r4, r4, r3, asl #16
.LVL742:
	b	.L1171
.LVL743:
.L1172:
.LBE388:
.LBE392:
	.loc 1 2813 0
	stmia	sp, {r6, r9}
	mov	r0, #3
.LVL744:
	mov	r1, r5
	mov	r2, r4
	mov	r3, r8
	bl	Add_Scroller
.LVL745:
.L1171:
	.loc 1 2812 0
	mov	r1, r6
	mov	r0, fp
	bl	P_FindSectorFromLineTag
.LVL746:
	subs	r6, r0, #0
	bge	.L1172
	b	.L1159
.LVL747:
.L1301:
.LBE482:
	.loc 1 2793 0
	cmp	r4, #85
	beq	.L1162
	cmp	r4, #250
	beq	.L1234
	cmp	r4, #48
	bne	.L1159
.LBB483:
	.loc 1 2831 0
	mov	r0, #0
	ldr	r3, [sp, #24]
	ldr	r1, [sp, #16]
	ldr	r3, [r3]
	mov	r2, r0
	add	r3, r3, r1
	ldrh	r3, [r3, #26]
	mov	r1, #65536
	stmia	sp, {r3, r9}
	mvn	r3, #0
	bl	Add_Scroller
.LVL748:
	b	.L1159
.L1236:
.LBB393:
.LBB394:
	.loc 1 2743 0
	mov	r2, r7
.LBE394:
.LBE393:
.LBE483:
	.loc 1 2793 0
	mvn	r6, #0
.LBB484:
.LBB479:
.LBB477:
	.loc 1 2743 0
	mov	r3, r7, asr #31
	strd	r2, [sp, #56]
	str	r8, [sp, #28]
	str	r9, [sp, #48]
.LVL749:
.L1166:
.LBE477:
.LBE479:
	.loc 1 2819 0
	mov	r1, r6
	mov	r0, fp
	bl	P_FindLineFromLineTag
.LVL750:
	subs	r6, r0, #0
	blt	.L1159
	.loc 1 2820 0
	ldr	r3, [sp, #12]
	cmp	r6, r3
	beq	.L1166
	.loc 1 2821 0
	ldr	r3, [sp, #24]
	rsb	r2, r6, r6, asl #5
	ldr	r3, [r3]
	add	r9, r3, r2, asl #2
.LVL751:
.LBB480:
.LBB478:
	.loc 1 2735 0
	ldr	r8, [r9, #12]
.LVL752:
	ldr	r5, [r9, #16]
.LBB395:
.LBB396:
	.loc 2 59 0
	mov	r2, r8, asr #31
.LVL753:
.LBE396:
.LBE395:
.LBB399:
.LBB400:
	mov	r3, r5, asr #31
	.loc 2 60 0
	eor	r0, r3, r5
.LVL754:
.LBE400:
.LBE399:
.LBB402:
.LBB397:
	eor	r4, r2, r8
.LBE397:
.LBE402:
.LBB403:
.LBB401:
	rsb	r0, r3, r0
.LBE401:
.LBE403:
.LBB404:
.LBB398:
	rsb	r4, r2, r4
.LVL755:
.LBE398:
.LBE404:
	.loc 1 2736 0
	cmp	r4, r0
	movlt	r3, r4
.LVL756:
	movlt	r4, r0
	movlt	r0, r3
.LVL757:
.LBB405:
.LBB406:
.LBB407:
.LBB408:
	.loc 2 59 0
	mov	ip, r4, asr #31
.LBE408:
.LBE407:
.LBB411:
.LBB412:
	mov	r3, r0, asr #31
.LVL758:
	.loc 2 60 0
	eor	r1, r3, r0
.LBE412:
.LBE411:
.LBB414:
.LBB409:
	eor	r2, ip, r4
.LVL759:
.LBE409:
.LBE414:
.LBB415:
.LBB413:
	rsb	r3, r3, r1
.LBE413:
.LBE415:
.LBB416:
.LBB410:
	rsb	ip, ip, r2
.LVL760:
.LBE410:
.LBE416:
	.loc 2 84 0
	cmp	ip, r3, asr #14
	bgt	.L1175
	eor	r0, r0, r4
.LVL761:
	mov	r0, r0, asr #31
	eor	r0, r0, #-2147483648
	mvn	r0, r0
.L1176:
.LBE406:
.LBE405:
	.loc 1 2738 0
	ldr	r3, .L1311+64
	mov	r0, r0, asr #5
	ldr	r3, [r3, r0, asl #2]
	ldr	r2, .L1311+68
	add	r3, r3, #1073741824
	.loc 1 2739 0
	mov	r3, r3, lsr #19
	.loc 1 2738 0
	ldr	r2, [r2, r3, asl #2]
.LVL762:
.LBB418:
.LBB419:
.LBB420:
.LBB421:
	.loc 2 59 0
	mov	r1, r2, asr #31
.LVL763:
	.loc 2 60 0
	eor	r3, r1, r2
	rsb	r3, r1, r3
.LBE421:
.LBE420:
	.loc 2 84 0
	cmp	r3, ip, asr #14
	bgt	.L1177
.LBE419:
.LBE418:
	.loc 1 2742 0
	ldr	r3, .L1311+72
.LBB427:
.LBB422:
	.loc 2 84 0
	eor	r4, r4, r2
.LVL764:
.LBE422:
.LBE427:
	.loc 1 2742 0
	ldrb	r3, [r3]	@ zero_extendqisi2
.LBB428:
.LBB423:
	.loc 2 84 0
	mov	r4, r4, asr #31
	eor	r4, r4, #-2147483648
.LBE423:
.LBE428:
	.loc 1 2742 0
	cmp	r3, #9
.LBB429:
.LBB424:
	.loc 2 84 0
	mvn	r4, r4
.LBE424:
.LBE429:
	.loc 1 2742 0
	bhi	.L1305
.LVL765:
.L1179:
.LBB430:
.LBB431:
	.loc 2 72 0
	ldr	r3, [sp, #20]
.LBE431:
.LBE430:
.LBB433:
.LBB434:
.LBB435:
.LBB436:
	.loc 2 59 0
	mov	ip, r4, asr #31
.LBE436:
.LBE435:
.LBE434:
.LBE433:
.LBB450:
.LBB432:
	.loc 2 72 0
	smull	r2, r3, r3, r8
	mov	r2, r2, lsr #16
	orr	r2, r2, r3, asl #16
.LBE432:
.LBE450:
.LBB451:
.LBB447:
.LBB440:
.LBB437:
	.loc 2 60 0
	mov	r3, ip
.LBE437:
.LBE440:
.LBE447:
.LBE451:
.LBB452:
.LBB453:
	.loc 2 72 0
	smull	r0, r1, r7, r5
	mov	r0, r0, lsr #16
	orr	r0, r0, r1, asl #16
.LBE453:
.LBE452:
	.loc 1 2746 0
	add	r0, r0, r2
.LVL766:
.LBB454:
.LBB448:
.LBB441:
.LBB442:
	.loc 2 59 0
	mov	r1, r0, asr #31
.LVL767:
	.loc 2 60 0
	eor	r2, r1, r0
.LBE442:
.LBE441:
.LBB444:
.LBB438:
	eor	ip, ip, r4
.LBE438:
.LBE444:
.LBB445:
.LBB443:
	rsb	r2, r1, r2
.LBE443:
.LBE445:
.LBB446:
.LBB439:
	rsb	ip, r3, ip
.LBE439:
.LBE446:
	.loc 2 84 0
	cmp	ip, r2, asr #14
	bgt	.L1181
	eor	lr, r4, r0
	mov	lr, lr, asr #31
	eor	lr, lr, #-2147483648
	mvn	lr, lr
.LVL768:
.L1182:
.LBE448:
.LBE454:
.LBB455:
.LBB456:
	.loc 2 72 0
	ldr	r3, [sp, #20]
	smull	r0, r1, r5, r3
.LBE456:
.LBE455:
.LBB459:
.LBB460:
	smull	r2, r3, r7, r8
.LBE460:
.LBE459:
.LBB462:
.LBB457:
	mov	r0, r0, lsr #16
.LBE457:
.LBE462:
.LBB463:
.LBB461:
	mov	r2, r2, lsr #16
	orr	r2, r2, r3, asl #16
.LBE461:
.LBE463:
.LBB464:
.LBB458:
	orr	r0, r0, r1, asl #16
.LBE458:
.LBE464:
	.loc 1 2747 0
	rsb	r0, r2, r0
.LBB465:
.LBB466:
.LBB467:
.LBB468:
	.loc 2 59 0
	mov	r2, r0, asr #31
	.loc 2 60 0
	eor	r3, r2, r0
	rsb	r3, r2, r3
.LBE468:
.LBE467:
	.loc 2 84 0
	cmp	ip, r3, asr #14
.LBE466:
.LBE465:
	.loc 1 2746 0
	rsb	ip, lr, #0
.LVL769:
.LBB471:
.LBB469:
	.loc 2 84 0
	bgt	.L1183
	eor	r0, r0, r4
.LVL770:
	mov	r2, r0, asr #31
.LVL771:
	eor	r0, r2, #-2147483648
	mvn	r0, r0
.L1184:
.LBE469:
.LBE471:
	.loc 1 2747 0
	rsb	r2, r0, #0
.LVL772:
.L1180:
	.loc 1 2749 0
	ldrh	r3, [r9, #26]
	mov	r1, ip
	str	r3, [sp]
	ldr	r3, [sp, #48]
	mov	r0, #0
	str	r3, [sp, #4]
	ldr	r3, [sp, #28]
	bl	Add_Scroller
.LVL773:
	b	.L1166
.LVL774:
.L1175:
.LBB472:
.LBB417:
	.loc 2 85 0
	mov	r3, r0, asr #31
	mov	r1, r3, asl #16
	orr	r1, r1, r0, lsr #16
	mov	r2, r4
	mov	r0, r0, asl #16
.LVL775:
	mov	r3, r4, asr #31
	str	ip, [sp, #32]
	bl	__aeabi_ldivmod
.LVL776:
	ldr	ip, [sp, #32]
	b	.L1176
.LVL777:
.L1177:
.LBE417:
.LBE472:
.LBB473:
.LBB425:
	mov	r1, r4, asr #31
.LVL778:
	mov	r1, r1, asl #16
	orr	r1, r1, r4, lsr #16
	mov	r0, r4, asl #16
	mov	r3, r2, asr #31
	bl	__aeabi_ldivmod
.LVL779:
.LBE425:
.LBE473:
	.loc 1 2742 0
	ldr	r3, .L1311+72
.LBB474:
.LBB426:
	.loc 2 85 0
	mov	r4, r0
.LVL780:
.LBE426:
.LBE474:
	.loc 1 2742 0
	ldrb	r3, [r3]	@ zero_extendqisi2
	cmp	r3, #9
	bls	.L1179
.L1305:
	.loc 1 2743 0
	mov	r0, r4
	rsb	r2, r5, #0
	bic	r3, r2, r5
	mov	r3, r3, asr #31
	mul	ip, r7, r3
	mov	r1, r4, asr #31
	strd	r0, [sp, #32]
	ldr	r4, [sp, #20]
	ldr	r1, [sp, #60]
	mla	ip, r2, r1, ip
	umull	r2, r3, r7, r2
	smull	r0, r1, r4, r8
	add	r3, ip, r3
	subs	r0, r2, r0
	sbc	r1, r3, r1
	ldrd	r2, [sp, #32]
	bl	__aeabi_ldivmod
.LVL781:
	.loc 1 2744 0
	ldrd	r2, [sp, #32]
	.loc 1 2743 0
	str	r0, [sp, #52]
.LVL782:
	.loc 1 2744 0
	smull	r0, r1, r7, r8
.LVL783:
	strd	r0, [sp, #40]
	smull	r0, r1, r5, r4
	ldrd	r4, [sp, #40]
	subs	r4, r4, r0
	sbc	r5, r5, r1
.LVL784:
	mov	r0, r4
	mov	r1, r5
	bl	__aeabi_ldivmod
.LVL785:
	ldr	ip, [sp, #52]
	mov	r2, r0
.LVL786:
	b	.L1180
.LVL787:
.L1183:
.LBB475:
.LBB470:
	.loc 2 85 0
	mov	r3, r0, asr #31
	mov	r1, r3, asl #16
	orr	r1, r1, r0, lsr #16
	mov	r2, r4
.LVL788:
	mov	r0, r0, asl #16
.LVL789:
	mov	r3, r4, asr #31
	str	ip, [sp, #32]
	bl	__aeabi_ldivmod
.LVL790:
	ldr	ip, [sp, #32]
	b	.L1184
.LVL791:
.L1181:
.LBE470:
.LBE475:
.LBB476:
.LBB449:
	mov	r3, r0, asr #31
.LVL792:
	mov	r1, r3, asl #16
.LVL793:
	orr	r1, r1, r0, lsr #16
	mov	r2, r4
	mov	r0, r0, asl #16
.LVL794:
	mov	r3, r4, asr #31
	str	ip, [sp, #32]
	bl	__aeabi_ldivmod
.LVL795:
	ldr	ip, [sp, #32]
	mov	lr, r0
	b	.L1182
.LVL796:
.L1234:
.LBE449:
.LBE476:
.LBE478:
.LBE480:
	.loc 1 2799 0
	ldr	r3, [sp, #20]
.LBE484:
	.loc 1 2793 0
	mvn	r5, #0
.LBB485:
	.loc 1 2799 0
	rsb	r4, r3, #0
.LVL797:
	b	.L1163
.LVL798:
.L1168:
	stmia	sp, {r5, r9}
	mov	r0, #2
.LVL799:
	mov	r1, r4
	mov	r2, r7
	mov	r3, r8
	bl	Add_Scroller
.LVL800:
.L1163:
	.loc 1 2798 0
	mov	r1, r5
	mov	r0, fp
	bl	P_FindSectorFromLineTag
.LVL801:
	subs	r5, r0, #0
	bge	.L1168
	b	.L1159
.LVL802:
.L1162:
	.loc 1 2835 0
	mov	r0, #0
	ldr	r3, [sp, #24]
	ldr	r1, [sp, #16]
	ldr	r3, [r3]
	mov	r2, r0
	add	r3, r3, r1
	ldrh	r3, [r3, #26]
	ldr	r1, .L1311+76
	stmia	sp, {r3, r9}
	mvn	r3, #0
	bl	Add_Scroller
.LVL803:
	b	.L1159
.LVL804:
.L1302:
	ldr	r3, .L1311+32
	ldr	r6, [r3]
.LVL805:
	ldr	r3, [sp, #24]
.LBE485:
.LBE486:
.LBE376:
.LBE375:
.LBB487:
.LBB488:
	.loc 1 2973 0
	cmp	r6, #0
	ldr	r5, [r3]
	ble	.L1191
.LVL806:
.L1187:
	mov	r2, #196
	.loc 1 2975 0
	mov	r0, #59392
	.loc 1 2976 0
	mov	r1, #2048
	ldr	r3, [r10]
	mla	r2, r2, r6, r3
.LVL807:
.L1190:
	.loc 1 2975 0
	str	r0, [r3, #96]
	.loc 1 2976 0
	str	r1, [r3, #100]
	add	r3, r3, #196
	.loc 1 2973 0
	cmp	r3, r2
	bne	.L1190
.L1191:
.LVL808:
	.loc 1 2979 0
	cmp	r4, #0
	movgt	r9, #0
.LBB489:
	.loc 1 2995 0
	ldrgt	r7, .L1311+72
.LBE489:
	.loc 1 2979 0
	bgt	.L1193
	b	.L1122
.LVL809:
.L1203:
	ldr	r3, .L1311+48
	add	r9, r9, #1
.LVL810:
	ldr	r3, [r3]
	add	r5, r5, #124
.LVL811:
	cmp	r9, r3
	bge	.L1306
.LVL812:
.L1193:
	.loc 1 2980 0
	ldrsh	r3, [r5, #22]
	cmp	r3, #223
	bne	.L1203
.LBB492:
	.loc 1 2982 0
	ldr	r0, [r5, #12]
	ldr	r1, [r5, #16]
	bl	P_AproxDistance
.LVL813:
	.loc 1 2983 0
	ldr	r3, .L1311+80
	.loc 1 2982 0
	mov	r0, r0, asr #16
.LVL814:
	.loc 1 2983 0
	mul	r3, r3, r0
	cmp	r3, #0
	add	r2, r3, #127
	movlt	r3, r2
	mov	r3, r3, asr #7
	add	r6, r3, #53248
.LVL815:
	.loc 1 2990 0
	cmp	r6, #59392
	ble	.L1195
	.loc 1 2991 0
	rsb	r3, r3, #12416
	add	r3, r3, #18
	rsb	r3, r3, r3, asl #3
	ldr	r2, .L1311+84
	mov	r3, r3, asl #4
	smull	r2, r4, r2, r3
	mov	r3, r3, asr #31
	rsb	r4, r3, r4, asr #6
.LVL816:
.L1196:
	.loc 1 2995 0
	ldrb	r3, [r7]	@ zero_extendqisi2
	cmp	r3, #10
	bls	.L1197
	.loc 1 2997 0
	cmp	r6, #65536
	.loc 1 3000 0
	bicle	r6, r6, r6, asr #31
.LVL817:
	.loc 1 2998 0
	movgt	r6, #65536
.LVL818:
	.loc 1 3002 0
	cmp	r4, #32
	movlt	r4, #32
.LVL819:
.L1197:
	.loc 1 3005 0
	mvn	fp, #0
	.loc 1 3021 0
	mov	r8, #196
	b	.L1200
.LVL820:
.L1201:
	ldr	r3, [r10]
	mla	r3, r8, fp, r3
	str	r6, [r3, #96]
	.loc 1 3022 0
	str	r4, [r3, #100]
.LVL821:
.L1200:
	.loc 1 3005 0
	mov	r1, fp
	mov	r0, r5
	bl	P_FindSectorFromLineTag
.LVL822:
	subs	fp, r0, #0
	blt	.L1203
	.loc 1 3018 0
	ldrb	r3, [r7]	@ zero_extendqisi2
	sub	r3, r3, #7
	cmp	r3, #3
	bhi	.L1201
.LVL823:
.LBB490:
.LBB491:
	.loc 1 2853 0
	mov	r1, #5
	mov	r2, #0
	mov	r0, #36
.LVL824:
	bl	Z_Malloc
.LVL825:
	.loc 1 2855 0
	ldr	r2, .L1311+88
	.loc 1 2856 0
	str	r6, [r0, #24]
	.loc 1 2855 0
	str	r2, [r0, #8]
	.loc 1 2857 0
	str	r4, [r0, #28]
	.loc 1 2858 0
	str	fp, [r0, #32]
	.loc 1 2859 0
	bl	P_AddThinker
.LVL826:
	b	.L1201
.LVL827:
.L1195:
.LBE491:
.LBE490:
	.loc 1 2993 0
	sub	r3, r3, #2864
	sub	r4, r3, #4
	add	r4, r4, r4, asl #2
	mov	r4, r4, asl #1
	add	r3, r4, #127
	cmp	r4, #0
	movlt	r4, r3
	mov	r4, r4, asr #7
.LVL828:
	b	.L1196
.LVL829:
.L1156:
.LBE492:
	.loc 1 2973 0
	cmp	r6, #0
	movgt	r5, fp
	bgt	.L1187
.LVL830:
.L1122:
.LBE488:
.LBE487:
	.loc 1 2586 0
	add	sp, sp, #68
	.cfi_remember_state
	.cfi_def_cfa_offset 36
	@ sp needed
	ldmfd	sp!, {r4, r5, r6, r7, r8, r9, r10, fp, pc}
.LVL831:
.L1306:
	.cfi_restore_state
.LBB493:
.LBB494:
	.loc 1 3328 0
	cmp	r3, #0
	.loc 1 3324 0
	ldr	r3, [sp, #24]
	ldr	r6, [r3]
.LVL832:
	.loc 1 3328 0
	ble	.L1122
	mov	r4, #0
.LBB495:
.LBB496:
	.loc 1 3300 0
	mov	r5, #196
.LVL833:
	b	.L1217
.LVL834:
.L1309:
.LBE496:
.LBE495:
	.loc 1 3329 0
	cmp	r3, #226
	beq	.L1242
	cmp	r3, #224
	beq	.L1307
.L1205:
	.loc 1 3328 0
	ldr	r3, .L1311+48
	add	r4, r4, #1
.LVL835:
	ldr	r9, [r3]
	add	r6, r6, #124
.LVL836:
	cmp	r4, r9
	bge	.L1308
.LVL837:
.L1217:
	.loc 1 3329 0
	ldrsh	r3, [r6, #22]
	cmp	r3, #225
	bne	.L1309
	mvn	r7, #0
	b	.L1206
.LVL838:
.L1210:
	.loc 1 3337 0
	ldr	r1, [r6, #12]
	ldr	r2, [r6, #16]
	mov	r0, #3
.LVL839:
	str	r7, [sp]
	mov	r3, #0
	bl	Add_Pusher
.LVL840:
.L1206:
	.loc 1 3336 0
	mov	r1, r7
	mov	r0, r6
	bl	P_FindSectorFromLineTag
.LVL841:
	subs	r7, r0, #0
	bge	.L1210
	b	.L1205
.LVL842:
.L1307:
	.loc 1 3329 0
	mvn	r7, #0
	b	.L1208
.LVL843:
.L1209:
	.loc 1 3333 0
	ldr	r1, [r6, #12]
	ldr	r2, [r6, #16]
	mov	r0, #2
.LVL844:
	str	r7, [sp]
	mov	r3, #0
	bl	Add_Pusher
.LVL845:
.L1208:
	.loc 1 3332 0
	mov	r1, r7
	mov	r0, r6
	bl	P_FindSectorFromLineTag
.LVL846:
	subs	r7, r0, #0
	bge	.L1209
	b	.L1205
.LVL847:
.L1242:
	.loc 1 3329 0
	mvn	r7, #0
.L1207:
.LVL848:
	.loc 1 3340 0
	mov	r1, r7
	mov	r0, r6
	bl	P_FindSectorFromLineTag
.LVL849:
	subs	r7, r0, #0
	blt	.L1205
.LVL850:
.LBB498:
.LBB497:
	.loc 1 3300 0
	ldr	r3, [r10]
	mla	r3, r5, r7, r3
	ldr	r3, [r3, #92]
.LVL851:
	.loc 1 3301 0
	cmp	r3, #0
	bne	.L1215
	b	.L1207
.L1213:
	.loc 1 3311 0
	ldr	r3, [r3, #36]
.LVL852:
	.loc 1 3301 0
	cmp	r3, #0
	beq	.L1207
.L1215:
	.loc 1 3303 0
	ldrb	r2, [r3, #104]	@ zero_extendqisi2
	sub	r2, r2, #137
	cmp	r2, #1
	bhi	.L1213
.LBE497:
.LBE498:
	.loc 1 3344 0
	ldr	r1, [r6, #12]
	ldr	r2, [r6, #16]
	mov	r0, #0
.LVL853:
	str	r7, [sp]
	bl	Add_Pusher
.LVL854:
	b	.L1207
.LVL855:
.L1308:
.LBE494:
.LBE493:
	.loc 1 2542 0 discriminator 1
	cmp	r9, #0
	ble	.L1122
	ldr	r2, [sp, #24]
.LBB499:
	.loc 1 2550 0
	ldr	r3, .L1311+56
	ldr	r4, [r2]
.LVL856:
	ldr	r5, [r10]
	ldr	fp, [r3]
.LBE499:
	.loc 1 2543 0
	ldr	r10, .L1311+92
	ldrsh	r3, [r4, #22]
.LBB500:
	.loc 1 2550 0
	mov	r8, #0
.LBE500:
	.loc 1 2543 0
	cmp	r3, r10
.LBB501:
	.loc 1 2568 0
	mov	r6, #196
.LVL857:
.LBE501:
	.loc 1 2543 0
	beq	.L1219
.LVL858:
.L1310:
	bgt	.L1220
	cmp	r3, #213
	beq	.L1221
	cmp	r3, #242
	bne	.L1218
.LBB502:
	.loc 1 2550 0
	ldrh	r3, [r4, #26]
	.loc 1 2551 0
	mvn	r1, #0
	.loc 1 2550 0
	add	r3, r3, r3, asl #4
	add	r3, fp, r3, asl #2
	ldr	r7, [r3, #16]
	ldr	r3, .L1311+60
	rsb	r7, r5, r7
	mov	r7, r7, asr #2
	mul	r7, r3, r7
.LVL859:
	.loc 1 2551 0
	b	.L1224
.LVL860:
.L1225:
	.loc 1 2552 0
	mla	r3, r6, r1, r5
	str	r7, [r3, #128]
.LVL861:
.L1224:
	.loc 1 2551 0 discriminator 1
	mov	r0, r4
	bl	P_FindSectorFromLineTag
.LVL862:
	subs	r1, r0, #0
	bge	.L1225
.LVL863:
.L1218:
.LBE502:
	.loc 1 2542 0 discriminator 2
	add	r8, r8, #1
.LVL864:
	cmp	r8, r9
	add	r4, r4, #124
	beq	.L1122
.L1297:
	.loc 1 2543 0
	ldrsh	r3, [r4, #22]
	cmp	r3, r10
	bne	.L1310
.L1219:
.LBB503:
	.loc 1 2566 0
	ldrh	r3, [r4, #26]
	.loc 1 2567 0
	mvn	r1, #0
	.loc 1 2566 0
	add	r3, r3, r3, asl #4
	add	r3, fp, r3, asl #2
	ldr	r7, [r3, #16]
	ldr	r3, .L1311+60
	rsb	r7, r5, r7
	mov	r7, r7, asr #2
	mul	r7, r3, r7
.LVL865:
	.loc 1 2567 0
	b	.L1229
.LVL866:
.L1230:
	.loc 1 2568 0
	mla	r3, r6, r1, r5
	str	r7, [r3, #180]
.LVL867:
.L1229:
	.loc 1 2567 0 discriminator 1
	mov	r0, r4
	bl	P_FindSectorFromLineTag
.LVL868:
	subs	r1, r0, #0
	bge	.L1230
.LBE503:
	.loc 1 2542 0
	add	r8, r8, #1
.LVL869:
	cmp	r8, r9
	add	r4, r4, #124
	bne	.L1297
	b	.L1122
.LVL870:
.L1220:
	.loc 1 2543 0
	sub	r3, r3, #268
	sub	r3, r3, #3
	cmp	r3, #1
	mvnls	r1, #0
.LBB504:
	.loc 1 2583 0
	orrls	r7, r8, #-2147483648
.LBE504:
	.loc 1 2543 0
	bls	.L1223
	b	.L1218
.LVL871:
.L1231:
.LBB505:
	.loc 1 2583 0
	mla	r3, r6, r1, r5
	str	r7, [r3, #156]
.LVL872:
.L1223:
	.loc 1 2582 0 discriminator 1
	mov	r0, r4
	bl	P_FindSectorFromLineTag
.LVL873:
	subs	r1, r0, #0
	bge	.L1231
.LBE505:
	.loc 1 2542 0
	add	r8, r8, #1
.LVL874:
	cmp	r8, r9
	add	r4, r4, #124
	bne	.L1297
	b	.L1122
.LVL875:
.L1221:
.LBB506:
	.loc 1 2558 0
	ldrh	r3, [r4, #26]
	.loc 1 2559 0
	mvn	r1, #0
	.loc 1 2558 0
	add	r3, r3, r3, asl #4
	add	r3, fp, r3, asl #2
	ldr	r7, [r3, #16]
	ldr	r3, .L1311+60
	rsb	r7, r5, r7
	mov	r7, r7, asr #2
	mul	r7, r3, r7
.LVL876:
	.loc 1 2559 0
	b	.L1226
.LVL877:
.L1227:
	.loc 1 2560 0
	mla	r3, r6, r1, r5
	str	r7, [r3, #176]
.LVL878:
.L1226:
	.loc 1 2559 0 discriminator 1
	mov	r0, r4
	bl	P_FindSectorFromLineTag
.LVL879:
	subs	r1, r0, #0
	bge	.L1227
.LBE506:
	.loc 1 2542 0
	add	r8, r8, #1
.LVL880:
	cmp	r8, r9
	add	r4, r4, #124
	bne	.L1297
	b	.L1122
.LVL881:
.L1143:
	.loc 1 2519 0
	mov	r0, r4
	bl	P_SpawnFireFlicker
.LVL882:
	.loc 1 2520 0
	b	.L1130
.L1142:
	.loc 1 2514 0
	mov	r0, r4
	mov	r1, r5
	bl	P_SpawnDoorRaiseIn5Mins
.LVL883:
	.loc 1 2515 0
	b	.L1130
.L1141:
	.loc 1 2509 0
	mov	r0, r4
	mov	r1, #15
	mov	r2, #1
	bl	P_SpawnStrobeFlash
.LVL884:
	.loc 1 2510 0
	b	.L1130
.L1140:
	.loc 1 2504 0
	mov	r0, r4
	mov	r1, #35
	mov	r2, #1
	bl	P_SpawnStrobeFlash
.LVL885:
	.loc 1 2505 0
	b	.L1130
.L1139:
	.loc 1 2499 0
	mov	r0, r4
	bl	P_SpawnDoorCloseIn30
.LVL886:
	.loc 1 2500 0
	b	.L1130
.L1137:
	.loc 1 2489 0
	mov	r0, r4
	bl	P_SpawnGlowingLight
.LVL887:
	.loc 1 2490 0
	b	.L1130
.L1136:
	.loc 1 2483 0
	mov	r0, r4
	mov	r1, #15
	mov	r2, #0
	bl	P_SpawnStrobeFlash
.LVL888:
	.loc 1 2484 0
	ldrh	r3, [r4, #190]
	orr	r3, r3, #96
	strh	r3, [r4, #190]	@ movhi
	.loc 1 2485 0
	b	.L1130
.L1135:
	.loc 1 2478 0
	mov	r0, r4
	mov	r1, #35
	mov	r2, #0
	bl	P_SpawnStrobeFlash
.LVL889:
	.loc 1 2479 0
	b	.L1130
.L1134:
	.loc 1 2473 0
	mov	r0, r4
	mov	r1, #15
	mov	r2, #0
	bl	P_SpawnStrobeFlash
.LVL890:
	.loc 1 2474 0
	b	.L1130
.L1132:
	.loc 1 2468 0
	mov	r0, r4
	bl	P_SpawnLightFlash
.LVL891:
	.loc 1 2469 0
	b	.L1130
.LVL892:
.L1299:
.LBB507:
	.loc 1 2447 0
	ldr	r3, .L1311+96
	add	r0, r0, #1
.LVL893:
	ldr	r3, [r3]
	ldr	r0, [r3, r0, asl #2]
.LVL894:
	bl	atoi
.LVL895:
	.loc 1 2448 0
	cmp	r0, #0
	.loc 1 2449 0
	mov	r2, #1
	.loc 1 2448 0
	movle	r0, #10
.LVL896:
	.loc 1 2450 0
	ldr	r3, .L1311+100
	.loc 1 2449 0
	str	r2, [r4]
	.loc 1 2450 0
	str	r0, [r3]
	b	.L1125
.LVL897:
.L1298:
.LBE507:
.LBB508:
	.loc 1 2436 0
	ldr	r3, .L1311+96
	add	r0, r0, #1
.LVL898:
	ldr	r3, [r3]
	ldr	r0, [r3, r0, asl #2]
.LVL899:
	bl	atoi
.LVL900:
	.loc 1 2437 0
	mov	r2, #1
	.loc 1 2436 0
	ldr	r3, .L1311+104
	.loc 1 2437 0
	str	r2, [r4, #12]
	.loc 1 2436 0
	mul	r0, r3, r0
.LVL901:
	.loc 1 2438 0
	str	r0, [r4, #16]
	b	.L1124
.LVL902:
.L1300:
	ldr	r3, .L1311+52
	str	r3, [sp, #24]
	ldr	fp, [r3]
	b	.L1153
.L1312:
	.align	2
.L1311:
	.word	.LC2
	.word	.LANCHOR0
	.word	.LC3
	.word	deathmatch
	.word	42000
	.word	.LC4
	.word	levelFragLimit
	.word	.LC5
	.word	numsectors
	.word	sectors
	.word	totalsecret
	.word	buttonlist
	.word	numlines
	.word	lines
	.word	sides
	.word	438261969
	.word	tantoangle
	.word	finesine
	.word	compatibility_level
	.word	-65536
	.word	7864
	.word	799063683
	.word	T_Friction
	.word	261
	.word	myargv
	.word	levelFragLimitCount
	.word	2100
.LBE508:
	.cfi_endproc
.LFE35:
	.size	P_SpawnSpecials, .-P_SpawnSpecials
	.align	2
	.global	P_GetPushThing
	.type	P_GetPushThing, %function
P_GetPushThing:
.LFB46:
	.loc 1 3295 0
	.cfi_startproc
	@ args = 0, pretend = 0, frame = 0
	@ frame_needed = 0, uses_anonymous_args = 0
	@ link register save eliminated.
.LVL903:
	.loc 1 3300 0
	mov	r3, #196
	ldr	r2, .L1321
.LVL904:
	ldr	r2, [r2]
.LVL905:
	mla	r0, r3, r0, r2
.LVL906:
	ldr	r0, [r0, #92]
.LVL907:
	.loc 1 3301 0
	cmp	r0, #0
	bxeq	lr
.L1316:
	.loc 1 3303 0
	ldrb	r3, [r0, #104]	@ zero_extendqisi2
	sub	r3, r3, #137
	cmp	r3, #1
	bxls	lr
	.loc 1 3311 0
	ldr	r0, [r0, #36]
.LVL908:
	.loc 1 3301 0
	cmp	r0, #0
	bne	.L1316
	.loc 1 3314 0
	bx	lr
.L1322:
	.align	2
.L1321:
	.word	sectors
	.cfi_endproc
.LFE46:
	.size	P_GetPushThing, .-P_GetPushThing
	.comm	tmpusher,4,4
	.comm	levelFragLimitCount,4,4
	.comm	levelFragLimit,4,4
	.section	.rodata.str1.4,"aMS",%progbits,1
	.align	2
.LC0:
	.ascii	"ANIMATED\000"
	.space	3
.LC1:
	.ascii	"P_InitPicAnims: bad cycle from %s to %s\000"
.LC2:
	.ascii	"texture2\000"
	.space	3
.LC3:
	.ascii	"-avg\000"
	.space	3
.LC4:
	.ascii	"-timer\000"
	.space	1
.LC5:
	.ascii	"-frags\000"
	.bss
	.align	2
	.set	.LANCHOR0,. + 0
	.type	anims, %object
	.size	anims, 4
anims:
	.space	4
	.type	lastanim, %object
	.size	lastanim, 4
lastanim:
	.space	4
	.type	maxanims, %object
	.size	maxanims, 4
maxanims:
	.space	4
	.type	levelTimer, %object
	.size	levelTimer, 4
levelTimer:
	.space	4
	.type	levelTimeCount, %object
	.size	levelTimeCount, 4
levelTimeCount:
	.space	4
	.text
.Letext0:
	.file 4 "c:/devl/prboom3ds/src/z_zone.h"
	.file 5 "c:/devl/prboom3ds/src/doomdef.h"
	.file 6 "c:\\devkitpro\\devkitarm\\lib\\gcc\\arm-none-eabi\\4.9.2\\include\\stddef.h"
	.file 7 "c:/devl/prboom3ds/src/doomtype.h"
	.file 8 "c:/devl/prboom3ds/src/tables.h"
	.file 9 "c:/devl/prboom3ds/src/d_think.h"
	.file 10 "c:/devl/prboom3ds/src/info.h"
	.file 11 "c:/devl/prboom3ds/src/p_pspr.h"
	.file 12 "c:/devl/prboom3ds/src/doomdata.h"
	.file 13 "c:/devl/prboom3ds/src/p_mobj.h"
	.file 14 "c:/devl/prboom3ds/src/r_defs.h"
	.file 15 "c:/devl/prboom3ds/src/d_player.h"
	.file 16 "c:/devl/prboom3ds/src/d_ticcmd.h"
	.file 17 "c:/devl/prboom3ds/src/doomstat.h"
	.file 18 "c:/devl/prboom3ds/src/p_spec.h"
	.file 19 "c:/devl/prboom3ds/src/m_random.h"
	.file 20 "c:/devl/prboom3ds/src/sounds.h"
	.file 21 "c:/devl/prboom3ds/src/m_bbox.h"
	.file 22 "c:/devl/prboom3ds/src/p_setup.h"
	.file 23 "c:/devl/prboom3ds/src/m_argv.h"
	.file 24 "c:/devl/prboom3ds/src/r_state.h"
	.file 25 "c:/devl/prboom3ds/src/p_map.h"
	.file 26 "c:/devl/prboom3ds/src/d_deh.h"
	.file 27 "c:/devl/prboom3ds/src/p_tick.h"
	.file 28 "c:/devl/prboom3ds/src/p_maputl.h"
	.file 29 "c:/devl/prboom3ds/src/r_main.h"
	.file 30 "c:/devl/prboom3ds/src/r_data.h"
	.file 31 "c:/devl/prboom3ds/src/lprintf.h"
	.file 32 "c:/devl/prboom3ds/src/s_sound.h"
	.file 33 "c:/devl/prboom3ds/src/g_game.h"
	.file 34 "c:/devl/prboom3ds/src/p_inter.h"
	.file 35 "c:\\devkitpro\\devkitarm\\arm-none-eabi\\include\\stdlib.h"