	.arch armv6k
	.fpu softvfp
	.eabi_attribute 23, 1
	.eabi_attribute 24, 1
	.eabi_attribute 25, 1
	.eabi_attribute 26, 1
	.eabi_attribute 30, 2
	.eabi_attribute 34, 1
	.eabi_attribute 18, 4
	.file	"r_draw.c"
	.text
.Ltext0:
	.cfi_sections	.debug_frame
	.align	2
	.type	R_FlushColumns, %function
R_FlushColumns:
.LFB8:
	.file 1 "c:/devl/prboom3ds/src/r_draw.c"
	.loc 1 181 0
	.cfi_startproc
	@ args = 0, pretend = 0, frame = 0
	@ frame_needed = 0, uses_anonymous_args = 0
	stmfd	sp!, {r3, r4, r5, lr}
	.cfi_def_cfa_offset 16
	.cfi_offset 3, -16
	.cfi_offset 4, -12
	.cfi_offset 5, -8
	.cfi_offset 14, -4
	.loc 1 182 0
	ldr	r4, .L7
	ldr	r3, [r4]
	cmp	r3, #4
	bne	.L2
	.loc 1 182 0 is_stmt 0 discriminator 1
	ldmib	r4, {r2, r3}
	cmp	r2, r3
	blt	.L3
.L2:
	.loc 1 183 0 is_stmt 1
	ldr	r3, .L7+4
	ldr	r3, [r3]
	blx	r3
.LVL0:
.L4:
	.loc 1 189 0
	mov	r3, #0
	str	r3, [r4]
	ldmfd	sp!, {r3, r4, r5, pc}
.L3:
	.loc 1 186 0
	ldr	r5, .L7+4
	ldr	r3, [r5, #4]
	blx	r3
.LVL1:
	.loc 1 187 0
	ldr	r3, [r5, #8]
	blx	r3
.LVL2:
	b	.L4
.L8:
	.align	2
.L7:
	.word	.LANCHOR0
	.word	.LANCHOR1
	.cfi_endproc
.LFE8:
	.size	R_FlushColumns, .-R_FlushColumns
	.align	2
	.type	R_FlushWhole8, %function
R_FlushWhole8:
.LFB10:
	.file 2 "c:/devl/prboom3ds/src/r_drawflush.inl"
	.loc 2 100 0
	.cfi_startproc
	@ args = 0, pretend = 0, frame = 0
	@ frame_needed = 0, uses_anonymous_args = 0
	stmfd	sp!, {r4, r5, r6, r7, r8, r9, r10, lr}
	.cfi_def_cfa_offset 32
	.cfi_offset 4, -32
	.cfi_offset 5, -28
	.cfi_offset 6, -24
	.cfi_offset 7, -20
	.cfi_offset 8, -16
	.cfi_offset 9, -12
	.cfi_offset 10, -8
	.cfi_offset 14, -4
	ldr	r8, .L18
	.loc 2 109 0
	ldr	ip, .L18+4
	ldr	r9, [r8]
	add	r5, r8, #16
	.loc 2 105 0
	mov	lr, r9
	mov	r3, r9, asl #2
	add	r4, r8, #32
	.loc 2 109 0
	ldr	r7, [r8, #12]
	add	r5, r5, r3
	add	r4, r4, r3
	.loc 2 108 0
	add	r6, r8, #48
.L10:
	.loc 2 105 0
	subs	lr, lr, #1
	bmi	.L17
.L14:
	.loc 2 107 0
	ldr	r3, [r5, #-4]!
.LVL3:
	.loc 2 109 0
	ldr	r2, [ip, #24]
	add	r1, r7, lr
	mla	r2, r2, r3, r1
	.loc 2 110 0
	ldr	r0, [r4, #-4]!
	.loc 2 109 0
	ldr	r1, [ip, #12]
	.loc 2 108 0
	add	r10, lr, r3, asl #2
	.loc 2 112 0
	subs	r0, r0, r3
	.loc 2 109 0
	add	r2, r1, r2
	.loc 2 108 0
	add	r10, r6, r10
.LVL4:
	.loc 2 112 0
	bmi	.L10
	mov	r3, #0
.LVL5:
	add	r0, r0, #1
.LVL6:
.L12:
	.loc 2 124 0
	ldrb	r1, [r10, r3, asl #2]	@ zero_extendqisi2
	add	r3, r3, #1
.LVL7:
	strb	r1, [r2]
.LVL8:
	.loc 2 128 0
	ldr	r1, [ip, #24]
	.loc 2 112 0
	cmp	r3, r0
	.loc 2 128 0
	add	r2, r2, r1
.LVL9:
	.loc 2 112 0
	bne	.L12
	.loc 2 105 0
	subs	lr, lr, #1
	bpl	.L14
.LVL10:
.L17:
	sub	r3, r9, #1
	cmp	r9, #0
	movlt	r9, r3
	rsbge	r9, r9, r3
	str	r9, [r8]
	ldmfd	sp!, {r4, r5, r6, r7, r8, r9, r10, pc}
.L19:
	.align	2
.L18:
	.word	.LANCHOR0
	.word	.LANCHOR1
	.cfi_endproc
.LFE10:
	.size	R_FlushWhole8, .-R_FlushWhole8
	.align	2
	.type	R_FlushHT8, %function
R_FlushHT8:
.LFB11:
	.loc 2 141 0
	.cfi_startproc
	@ args = 0, pretend = 0, frame = 8
	@ frame_needed = 0, uses_anonymous_args = 0
.LVL11:
	stmfd	sp!, {r4, r5, r6, r7, r8, r9, r10, fp, lr}
	.cfi_def_cfa_offset 36
	.cfi_offset 4, -36
	.cfi_offset 5, -32
	.cfi_offset 6, -28
	.cfi_offset 7, -24
	.cfi_offset 8, -20
	.cfi_offset 9, -16
	.cfi_offset 10, -12
	.cfi_offset 11, -8
	.cfi_offset 14, -4
	.loc 2 144 0
	mov	r4, #0
	ldr	r6, .L35
	.loc 2 141 0
	sub	sp, sp, #12
	.cfi_def_cfa_offset 48
	ldr	r7, [r6, #8]
	.loc 2 156 0
	ldr	r1, .L35+4
	.loc 2 183 0
	add	r3, r7, #1
	str	r3, [sp]
	mov	r3, r3, asl #2
	ldr	r8, [r6, #4]
	.loc 2 156 0
	ldr	fp, [r6, #12]
	add	r10, r6, #16
	add	r9, r6, #32
	.loc 2 183 0
	str	r3, [sp, #4]
	.loc 2 155 0
	add	r6, r6, #48
.LVL12:
.L26:
	.loc 2 149 0
	ldr	ip, [r10, r4, asl #2]
.LVL13:
	.loc 2 150 0
	ldr	lr, [r9, r4, asl #2]
.LVL14:
	.loc 2 153 0
	cmp	ip, r8
	bge	.L24
	.loc 2 156 0
	ldr	r2, [r1, #24]
	add	r3, fp, r4
	mla	r3, r2, ip, r3
	.loc 2 157 0
	rsb	r5, ip, r8
	.loc 2 156 0
	ldr	r2, [r1, #12]
	.loc 2 155 0
	add	ip, r4, ip, asl #2
.LVL15:
	.loc 2 159 0
	cmp	r5, #0
	.loc 2 156 0
	add	r2, r2, r3
	.loc 2 155 0
	add	ip, r6, ip
.LVL16:
	.loc 2 159 0
	ble	.L24
	mov	r3, #0
.LVL17:
.L25:
	.loc 2 172 0
	ldrb	r0, [ip, r3, asl #2]	@ zero_extendqisi2
	add	r3, r3, #1
.LVL18:
	strb	r0, [r2]
.LVL19:
	.loc 2 176 0
	ldr	r0, [r1, #24]
	.loc 2 159 0
	cmp	r3, r5
	.loc 2 176 0
	add	r2, r2, r0
.LVL20:
	.loc 2 159 0
	bne	.L25
.LVL21:
.L24:
	.loc 2 181 0
	cmp	lr, r7
	ble	.L23
	.loc 2 184 0
	ldr	r3, [sp]
	ldr	r2, [r1, #24]
	.loc 2 185 0
	rsb	lr, r7, lr
.LVL22:
	.loc 2 184 0
	mla	r2, r2, r3, fp
	add	r3, r2, r4
	ldr	r2, [sp, #4]
	ldr	r0, [r1, #12]
	add	ip, r2, r4
	.loc 2 187 0
	cmp	lr, #0
	.loc 2 184 0
	add	r2, r0, r3
	add	ip, r6, ip
.LVL23:
	.loc 2 187 0
	ble	.L23
	mov	r3, #0
.LVL24:
.L28:
	.loc 2 200 0
	ldrb	r0, [ip, r3, asl #2]	@ zero_extendqisi2
	add	r3, r3, #1
.LVL25:
	strb	r0, [r2]
.LVL26:
	.loc 2 204 0
	ldr	r0, [r1, #24]
	.loc 2 187 0
	cmp	r3, lr
	.loc 2 204 0
	add	r2, r2, r0
.LVL27:
	.loc 2 187 0
	bne	.L28
.LVL28:
.L23:
	.loc 2 207 0
	add	r4, r4, #1
.LVL29:
	.loc 2 147 0
	cmp	r4, #4
	bne	.L26
	.loc 2 209 0
	add	sp, sp, #12
	.cfi_def_cfa_offset 36
	@ sp needed
	ldmfd	sp!, {r4, r5, r6, r7, r8, r9, r10, fp, pc}
.LVL30:
.L36:
	.align	2
.L35:
	.word	.LANCHOR0
	.word	.LANCHOR1
	.cfi_endproc
.LFE11:
	.size	R_FlushHT8, .-R_FlushHT8
	.align	2
	.type	R_FlushQuad8, %function
R_FlushQuad8:
.LFB12:
	.loc 2 212 0
	.cfi_startproc
	@ args = 0, pretend = 0, frame = 0
	@ frame_needed = 0, uses_anonymous_args = 0
	.loc 2 213 0
	ldr	r0, .L49
	.loc 2 214 0
	ldr	ip, .L49+4
	ldr	r3, [r0, #12]
	ldr	r2, [ip, #24]
	.loc 2 212 0
	str	lr, [sp, #-4]!
	.cfi_def_cfa_offset 4
	.cfi_offset 14, -4
	.loc 2 213 0
	ldr	lr, [r0, #4]
	.loc 2 214 0
	ldr	r1, [ip, #12]
	mla	r3, r2, lr, r3
	.loc 2 213 0
	add	r2, r0, #48
	.loc 2 214 0
	add	r3, r1, r3
	.loc 2 213 0
	add	r2, r2, lr, asl #2
.LVL31:
	.loc 2 225 0
	ldr	r1, [r0, #8]
	orr	r0, r3, r2
	.loc 2 253 0
	tst	r0, #3
	.loc 2 225 0
	rsb	r1, lr, r1
.LVL32:
	.loc 2 253 0
	bne	.L47
.LVL33:
	.loc 2 254 0
	cmp	r1, #0
	ldrlt	pc, [sp], #4
.L41:
	.loc 2 256 0
	ldr	r0, [r2], #4
.LVL34:
	.loc 2 254 0
	sub	r1, r1, #1
.LVL35:
	.loc 2 256 0
	str	r0, [r3]
.LVL36:
	.loc 2 258 0
	ldr	r0, [ip, #24]
	.loc 2 254 0
	cmn	r1, #1
	.loc 2 258 0
	add	r3, r3, r0
.LVL37:
	.loc 2 254 0
	bne	.L41
	ldr	pc, [sp], #4
.LVL38:
.L47:
	.loc 2 261 0
	cmp	r1, #0
	blt	.L48
	add	r2, r2, #4
.LVL39:
.L42:
	.loc 2 263 0
	ldrb	r0, [r2, #-4]	@ zero_extendqisi2
	.loc 2 261 0
	sub	r1, r1, #1
.LVL40:
	.loc 2 263 0
	strb	r0, [r3]
	.loc 2 264 0
	ldrb	r0, [r2, #-3]	@ zero_extendqisi2
	.loc 2 261 0
	cmn	r1, #1
	.loc 2 264 0
	strb	r0, [r3, #1]
	.loc 2 265 0
	ldrb	r0, [r2, #-2]	@ zero_extendqisi2
	add	r2, r2, #4
.LVL41:
	strb	r0, [r3, #2]
	.loc 2 266 0
	ldrb	r0, [r2, #-5]	@ zero_extendqisi2
	strb	r0, [r3, #3]
.LVL42:
	.loc 2 268 0
	ldr	r0, [ip, #24]
	add	r3, r3, r0
.LVL43:
	.loc 2 261 0
	bne	.L42
	ldr	pc, [sp], #4
.LVL44:
.L48:
	ldr	pc, [sp], #4
.L50:
	.align	2
.L49:
	.word	.LANCHOR0
	.word	.LANCHOR1
	.cfi_endproc
.LFE12:
	.size	R_FlushQuad8, .-R_FlushQuad8
	.align	2
	.type	R_FlushWholeTL8, %function
R_FlushWholeTL8:
.LFB13:
	.loc 2 100 0
	.cfi_startproc
	@ args = 0, pretend = 0, frame = 8
	@ frame_needed = 0, uses_anonymous_args = 0
	stmfd	sp!, {r4, r5, r6, r7, r8, r9, r10, fp, lr}
	.cfi_def_cfa_offset 36
	.cfi_offset 4, -36
	.cfi_offset 5, -32
	.cfi_offset 6, -28
	.cfi_offset 7, -24
	.cfi_offset 8, -20
	.cfi_offset 9, -16
	.cfi_offset 10, -12
	.cfi_offset 11, -8
	.cfi_offset 14, -4
	ldr	fp, .L60
	sub	sp, sp, #12
	.cfi_def_cfa_offset 48
	ldr	r3, [fp]
	add	r8, fp, #16
	mov	r6, r3
	str	r3, [sp, #4]
	add	r7, fp, #32
	mov	r3, r3, asl #2
	.loc 2 109 0
	ldr	r4, .L60+4
	ldr	r10, [fp, #12]
	ldr	r5, [fp, #1008]
	add	r8, r8, r3
	add	r7, r7, r3
	.loc 2 108 0
	add	r9, fp, #48
.L52:
	.loc 2 105 0
	subs	r6, r6, #1
	bmi	.L59
.L56:
	.loc 2 107 0
	ldr	ip, [r8, #-4]!
.LVL45:
	.loc 2 109 0
	ldr	r3, [r4, #24]
	add	r2, r6, r10
	mla	r3, r3, ip, r2
	.loc 2 110 0
	ldr	lr, [r7, #-4]!
	.loc 2 109 0
	ldr	r2, [r4, #12]
	.loc 2 112 0
	subs	lr, lr, ip
	.loc 2 108 0
	add	ip, r6, ip, asl #2
.LVL46:
	.loc 2 109 0
	add	r3, r2, r3
	.loc 2 108 0
	add	ip, r9, ip
.LVL47:
	.loc 2 112 0
	bmi	.L52
	mov	r2, #0
	add	lr, lr, #1
.LVL48:
.L54:
	.loc 2 115 0
	ldrb	r1, [r3]	@ zero_extendqisi2
	ldrb	r0, [ip, r2, asl #2]	@ zero_extendqisi2
	add	r1, r5, r1, asl #8
	ldrb	r1, [r1, r0]	@ zero_extendqisi2
	add	r2, r2, #1
.LVL49:
	strb	r1, [r3]
.LVL50:
	.loc 2 128 0
	ldr	r1, [r4, #24]
	.loc 2 112 0
	cmp	r2, lr
	.loc 2 128 0
	add	r3, r3, r1
.LVL51:
	.loc 2 112 0
	bne	.L54
	.loc 2 105 0
	subs	r6, r6, #1
	bpl	.L56
.LVL52:
.L59:
	ldr	r2, [sp, #4]
	sub	r3, r2, #1
	cmp	r2, #0
	rsbge	r3, r2, r3
	str	r3, [fp]
	.loc 2 131 0
	add	sp, sp, #12
	.cfi_def_cfa_offset 36
	@ sp needed
	ldmfd	sp!, {r4, r5, r6, r7, r8, r9, r10, fp, pc}
.L61:
	.align	2
.L60:
	.word	.LANCHOR0
	.word	.LANCHOR1
	.cfi_endproc
.LFE13:
	.size	R_FlushWholeTL8, .-R_FlushWholeTL8
	.align	2
	.type	R_FlushHTTL8, %function
R_FlushHTTL8:
.LFB14:
	.loc 2 141 0
	.cfi_startproc
	@ args = 0, pretend = 0, frame = 16
	@ frame_needed = 0, uses_anonymous_args = 0
.LVL53:
	stmfd	sp!, {r4, r5, r6, r7, r8, r9, r10, fp, lr}
	.cfi_def_cfa_offset 36
	.cfi_offset 4, -36
	.cfi_offset 5, -32
	.cfi_offset 6, -28
	.cfi_offset 7, -24
	.cfi_offset 8, -20
	.cfi_offset 9, -16
	.cfi_offset 10, -12
	.cfi_offset 11, -8
	.cfi_offset 14, -4
	.loc 2 144 0
	mov	r6, #0
	ldr	r3, .L77
	.loc 2 141 0
	sub	sp, sp, #20
	.cfi_def_cfa_offset 56
	ldr	r8, [r3, #8]
	ldr	r9, [r3, #4]
	.loc 2 183 0
	add	r2, r8, #1
	.loc 2 156 0
	ldr	fp, [r3, #12]
	ldr	ip, [r3, #1008]
	.loc 2 183 0
	str	r2, [sp, #8]
	add	r10, r3, #16
	mov	r2, r2, asl #2
	.loc 2 155 0
	add	r3, r3, #48
	.loc 2 156 0
	ldr	r0, .L77+4
	.loc 2 183 0
	str	r2, [sp, #12]
	.loc 2 155 0
	str	r3, [sp, #4]
.LVL54:
.L68:
	.loc 2 149 0
	ldr	r4, [r10, r6, asl #2]
.LVL55:
	.loc 2 150 0
	ldr	r3, .L77+8
	.loc 2 153 0
	cmp	r4, r9
	.loc 2 150 0
	ldr	r5, [r3, r6, asl #2]
.LVL56:
	.loc 2 153 0
	bge	.L66
	.loc 2 156 0
	ldr	r2, [r0, #24]
	add	r3, fp, r6
	mla	r3, r2, r4, r3
	ldr	r2, [r0, #12]
	.loc 2 157 0
	rsb	r7, r4, r9
	.loc 2 156 0
	add	r3, r2, r3
	.loc 2 155 0
	ldr	r2, [sp, #4]
	add	r4, r6, r4, asl #2
.LVL57:
	.loc 2 159 0
	cmp	r7, #0
	.loc 2 155 0
	add	r4, r2, r4
.LVL58:
	.loc 2 159 0
	ble	.L66
	mov	r2, #0
.LVL59:
.L67:
	.loc 2 163 0
	ldrb	r1, [r3]	@ zero_extendqisi2
	ldrb	lr, [r4, r2, asl #2]	@ zero_extendqisi2
	add	r1, ip, r1, asl #8
	ldrb	r1, [r1, lr]	@ zero_extendqisi2
	add	r2, r2, #1
.LVL60:
	strb	r1, [r3]
.LVL61:
	.loc 2 176 0
	ldr	r1, [r0, #24]
	.loc 2 159 0
	cmp	r2, r7
	.loc 2 176 0
	add	r3, r3, r1
.LVL62:
	.loc 2 159 0
	bne	.L67
.LVL63:
.L66:
	.loc 2 181 0
	cmp	r5, r8
	ble	.L65
	.loc 2 184 0
	ldr	r2, [sp, #8]
	ldr	r3, [r0, #24]
	ldr	r1, [sp, #12]
	mla	r3, r3, r2, fp
	ldr	r2, [r0, #12]
	add	r3, r3, r6
	.loc 2 185 0
	rsb	r5, r8, r5
.LVL64:
	.loc 2 184 0
	add	r3, r2, r3
	ldr	r2, [sp, #4]
	add	r4, r1, r6
	.loc 2 187 0
	cmp	r5, #0
	add	r4, r2, r4
.LVL65:
	ble	.L65
	mov	r2, #0
.LVL66:
.L70:
	.loc 2 191 0
	ldrb	r1, [r3]	@ zero_extendqisi2
	ldrb	lr, [r4, r2, asl #2]	@ zero_extendqisi2
	add	r1, ip, r1, asl #8
	ldrb	r1, [r1, lr]	@ zero_extendqisi2
	add	r2, r2, #1
.LVL67:
	strb	r1, [r3]
.LVL68:
	.loc 2 204 0
	ldr	r1, [r0, #24]
	.loc 2 187 0
	cmp	r2, r5
	.loc 2 204 0
	add	r3, r3, r1
.LVL69:
	.loc 2 187 0
	bne	.L70
.LVL70:
.L65:
	.loc 2 207 0
	add	r6, r6, #1
.LVL71:
	.loc 2 147 0
	cmp	r6, #4
	bne	.L68
	.loc 2 209 0
	add	sp, sp, #20
	.cfi_def_cfa_offset 36
	@ sp needed
	ldmfd	sp!, {r4, r5, r6, r7, r8, r9, r10, fp, pc}
.LVL72:
.L78:
	.align	2
.L77:
	.word	.LANCHOR0
	.word	.LANCHOR1
	.word	.LANCHOR0+32
	.cfi_endproc
.LFE14:
	.size	R_FlushHTTL8, .-R_FlushHTTL8
	.align	2
	.type	R_FlushQuadTL8, %function
R_FlushQuadTL8:
.LFB15:
	.loc 2 212 0
	.cfi_startproc
	@ args = 0, pretend = 0, frame = 0
	@ frame_needed = 0, uses_anonymous_args = 0
	.loc 2 213 0
	ldr	r1, .L85
	.loc 2 212 0
	stmfd	sp!, {r4, lr}
	.cfi_def_cfa_offset 8
	.cfi_offset 4, -8
	.cfi_offset 14, -4
	.loc 2 214 0
	ldr	lr, .L85+4
	.loc 2 213 0
	ldr	r2, [r1, #4]
	.loc 2 214 0
	ldr	r0, [r1, #12]
	ldr	r3, [lr, #24]
	.loc 2 225 0
	ldr	ip, [r1, #8]
	.loc 2 214 0
	mla	r3, r3, r2, r0
	ldr	r4, [lr, #12]
	.loc 2 228 0
	subs	ip, ip, r2
	.loc 2 213 0
	add	r0, r1, #48
	.loc 2 214 0
	add	r3, r4, r3
	.loc 2 213 0
	add	r2, r0, r2, asl #2
.LVL73:
	.loc 2 228 0
	ldmmifd	sp!, {r4, pc}
	ldr	r1, [r1, #1008]
	add	r2, r2, #4
.LVL74:
.L81:
	.loc 2 230 0
	ldrb	r0, [r3]	@ zero_extendqisi2
	ldrb	r4, [r2, #-4]	@ zero_extendqisi2
	add	r0, r1, r0, asl #8
	ldrb	r4, [r0, r4]	@ zero_extendqisi2
	.loc 2 231 0
	ldrb	r0, [r3, #1]	@ zero_extendqisi2
	.loc 2 230 0
	strb	r4, [r3]
	.loc 2 231 0
	ldrb	r4, [r2, #-3]	@ zero_extendqisi2
	add	r0, r1, r0, asl #8
	ldrb	r4, [r0, r4]	@ zero_extendqisi2
	.loc 2 232 0
	ldrb	r0, [r3, #2]	@ zero_extendqisi2
	.loc 2 231 0
	strb	r4, [r3, #1]
	.loc 2 232 0
	ldrb	r4, [r2, #-2]	@ zero_extendqisi2
	add	r0, r1, r0, asl #8
	ldrb	r4, [r0, r4]	@ zero_extendqisi2
	.loc 2 233 0
	ldrb	r0, [r3, #3]	@ zero_extendqisi2
	.loc 2 232 0
	strb	r4, [r3, #2]
	.loc 2 233 0
	ldrb	r4, [r2, #-1]	@ zero_extendqisi2
	add	r0, r1, r0, asl #8
	ldrb	r0, [r0, r4]	@ zero_extendqisi2
	.loc 2 228 0
	sub	ip, ip, #1
.LVL75:
	.loc 2 233 0
	strb	r0, [r3, #3]
.LVL76:
	.loc 2 235 0
	ldr	r0, [lr, #24]
	.loc 2 228 0
	cmn	ip, #1
	add	r2, r2, #4
.LVL77:
	.loc 2 235 0
	add	r3, r3, r0
.LVL78:
	.loc 2 228 0
	bne	.L81
	ldmfd	sp!, {r4, pc}
.L86:
	.align	2
.L85:
	.word	.LANCHOR0
	.word	.LANCHOR1
	.cfi_endproc
.LFE15:
	.size	R_FlushQuadTL8, .-R_FlushQuadTL8
	.align	2
	.type	R_FlushWholeFuzz8, %function
R_FlushWholeFuzz8:
.LFB16:
	.loc 2 100 0
	.cfi_startproc
	@ args = 0, pretend = 0, frame = 0
	@ frame_needed = 0, uses_anonymous_args = 0
	stmfd	sp!, {r4, r5, r6, r7, r8, r9, r10, lr}
	.cfi_def_cfa_offset 32
	.cfi_offset 4, -32
	.cfi_offset 5, -28
	.cfi_offset 6, -24
	.cfi_offset 7, -20
	.cfi_offset 8, -16
	.cfi_offset 9, -12
	.cfi_offset 10, -8
	.cfi_offset 14, -4
	ldr	lr, .L97
	.loc 2 109 0
	ldr	ip, .L97+4
	ldr	r9, [lr]
	add	r7, lr, #16
	.loc 2 105 0
	mov	r5, r9
	mov	r3, r9, asl #2
	add	r6, lr, #32
	.loc 2 109 0
	ldr	r8, [lr, #12]
	ldr	r4, [lr, #1012]
	ldr	r2, [lr, #1016]
	add	r7, r7, r3
	add	r6, r6, r3
.L88:
	.loc 2 105 0
	subs	r5, r5, #1
	bmi	.L96
.L93:
	.loc 2 107 0
	ldr	r0, [r7, #-4]!
.LVL79:
	.loc 2 109 0
	ldr	r3, [ip, #24]
	add	r1, r8, r5
	mla	r3, r3, r0, r1
	.loc 2 110 0
	ldr	r1, [r6, #-4]!
	.loc 2 109 0
	ldr	r10, [ip, #12]
	.loc 2 112 0
	subs	r0, r1, r0
.LVL80:
	.loc 2 109 0
	add	r3, r10, r3
.LVL81:
	.loc 2 112 0
	bmi	.L88
.LVL82:
.L91:
	.loc 2 118 0
	add	r1, lr, r2, asl #2
	ldr	r1, [r1, #1020]
	.loc 2 122 0
	cmp	r2, #49
	.loc 2 118 0
	ldrb	r1, [r3, r1]	@ zero_extendqisi2
	.loc 2 112 0
	sub	r0, r0, #1
.LVL83:
	.loc 2 118 0
	add	r1, r4, r1
	ldrb	r1, [r1, #1536]	@ zero_extendqisi2
	.loc 2 122 0
	addne	r2, r2, #1
	.loc 2 118 0
	strb	r1, [r3]
	.loc 2 128 0
	ldr	r1, [ip, #24]
	.loc 2 122 0
	moveq	r2, #0
	.loc 2 112 0
	cmn	r0, #1
	.loc 2 128 0
	add	r3, r3, r1
.LVL84:
	.loc 2 112 0
	bne	.L91
	.loc 2 105 0
	subs	r5, r5, #1
	bpl	.L93
.LVL85:
.L96:
	sub	r3, r9, #1
	cmp	r9, #0
	movlt	r9, r3
	rsbge	r9, r9, r3
	str	r2, [lr, #1016]
	str	r9, [lr]
	ldmfd	sp!, {r4, r5, r6, r7, r8, r9, r10, pc}
.L98:
	.align	2
.L97:
	.word	.LANCHOR0
	.word	.LANCHOR1
	.cfi_endproc
.LFE16:
	.size	R_FlushWholeFuzz8, .-R_FlushWholeFuzz8
	.align	2
	.type	R_FlushHTFuzz8, %function
R_FlushHTFuzz8:
.LFB17:
	.loc 2 141 0
	.cfi_startproc
	@ args = 0, pretend = 0, frame = 8
	@ frame_needed = 0, uses_anonymous_args = 0
.LVL86:
	stmfd	sp!, {r4, r5, r6, r7, r8, r9, r10, fp, lr}
	.cfi_def_cfa_offset 36
	.cfi_offset 4, -36
	.cfi_offset 5, -32
	.cfi_offset 6, -28
	.cfi_offset 7, -24
	.cfi_offset 8, -20
	.cfi_offset 9, -16
	.cfi_offset 10, -12
	.cfi_offset 11, -8
	.cfi_offset 14, -4
	.loc 2 144 0
	mov	r6, #0
	ldr	lr, .L116
	.loc 2 141 0
	sub	sp, sp, #12
	.cfi_def_cfa_offset 48
	ldr	r7, [lr, #8]
	.loc 2 156 0
	ldr	r4, .L116+4
	.loc 2 183 0
	add	r2, r7, #1
	ldr	r8, [lr, #4]
	.loc 2 156 0
	ldr	fp, [lr, #12]
	ldr	r5, [lr, #1012]
	ldr	r3, [lr, #1016]
	.loc 2 183 0
	str	r2, [sp, #4]
	add	r10, lr, #16
	add	r9, lr, #32
.LVL87:
.L106:
	.loc 2 149 0
	ldr	r0, [r10, r6, asl #2]
.LVL88:
	.loc 2 150 0
	ldr	ip, [r9, r6, asl #2]
.LVL89:
	.loc 2 153 0
	cmp	r0, r8
	bge	.L103
.LVL90:
	.loc 2 156 0
	ldr	r1, [r4, #24]
	add	r2, r6, fp
	mla	r2, r1, r0, r2
	.loc 2 157 0
	rsb	r0, r0, r8
.LVL91:
	.loc 2 156 0
	ldr	r1, [r4, #12]
	.loc 2 159 0
	subs	r0, r0, #1
	.loc 2 156 0
	add	r2, r1, r2
.LVL92:
	.loc 2 159 0
	bmi	.L103
.LVL93:
.L105:
	.loc 2 166 0
	add	r1, lr, r3, asl #2
	ldr	r1, [r1, #1020]
	.loc 2 170 0
	cmp	r3, #49
	.loc 2 166 0
	ldrb	r1, [r2, r1]	@ zero_extendqisi2
	.loc 2 159 0
	sub	r0, r0, #1
.LVL94:
	.loc 2 166 0
	add	r1, r5, r1
	ldrb	r1, [r1, #1536]	@ zero_extendqisi2
	.loc 2 170 0
	addne	r3, r3, #1
	.loc 2 166 0
	strb	r1, [r2]
	.loc 2 176 0
	ldr	r1, [r4, #24]
	.loc 2 170 0
	moveq	r3, #0
	.loc 2 159 0
	cmn	r0, #1
	.loc 2 176 0
	add	r2, r2, r1
.LVL95:
	.loc 2 159 0
	bne	.L105
.LVL96:
.L103:
	.loc 2 181 0
	cmp	ip, r7
	ble	.L102
.LVL97:
	.loc 2 184 0
	ldr	r1, [sp, #4]
	ldr	r2, [r4, #24]
	.loc 2 185 0
	rsb	ip, r7, ip
.LVL98:
	.loc 2 184 0
	mla	r2, r2, r1, fp
	ldr	r1, [r4, #12]
	add	r2, r6, r2
	.loc 2 187 0
	subs	ip, ip, #1
	.loc 2 184 0
	add	r2, r1, r2
.LVL99:
	.loc 2 187 0
	bmi	.L102
.LVL100:
.L109:
	.loc 2 194 0
	add	r1, lr, r3, asl #2
	ldr	r1, [r1, #1020]
	.loc 2 198 0
	cmp	r3, #49
	.loc 2 194 0
	ldrb	r1, [r2, r1]	@ zero_extendqisi2
	.loc 2 187 0
	sub	ip, ip, #1
.LVL101:
	.loc 2 194 0
	add	r1, r5, r1
	ldrb	r1, [r1, #1536]	@ zero_extendqisi2
	.loc 2 198 0
	addne	r3, r3, #1
	.loc 2 194 0
	strb	r1, [r2]
	.loc 2 204 0
	ldr	r1, [r4, #24]
	.loc 2 198 0
	moveq	r3, #0
	.loc 2 187 0
	cmn	ip, #1
	.loc 2 204 0
	add	r2, r2, r1
.LVL102:
	.loc 2 187 0
	bne	.L109
.LVL103:
.L102:
	.loc 2 207 0
	add	r6, r6, #1
.LVL104:
	.loc 2 147 0
	cmp	r6, #4
	bne	.L106
	str	r3, [lr, #1016]
	.loc 2 209 0
	add	sp, sp, #12
	.cfi_def_cfa_offset 36
	@ sp needed
	ldmfd	sp!, {r4, r5, r6, r7, r8, r9, r10, fp, pc}
.LVL105:
.L117:
	.align	2
.L116:
	.word	.LANCHOR0
	.word	.LANCHOR1
	.cfi_endproc
.LFE17:
	.size	R_FlushHTFuzz8, .-R_FlushHTFuzz8
	.align	2
	.type	R_FlushQuadFuzz8, %function
R_FlushQuadFuzz8:
.LFB18:
	.loc 2 212 0
	.cfi_startproc
	@ args = 0, pretend = 0, frame = 8
	@ frame_needed = 0, uses_anonymous_args = 0
	stmfd	sp!, {r4, r5, r6, r7, r8, r9, r10, fp, lr}
	.cfi_def_cfa_offset 36
	.cfi_offset 4, -36
	.cfi_offset 5, -32
	.cfi_offset 6, -28
	.cfi_offset 7, -24
	.cfi_offset 8, -20
	.cfi_offset 9, -16
	.cfi_offset 10, -12
	.cfi_offset 11, -8
	.cfi_offset 14, -4
	.loc 2 220 0
	mov	r9, #50
	.loc 2 213 0
	ldr	lr, .L124
	.loc 2 220 0
	ldr	r4, .L124+4
	.loc 2 219 0
	ldr	r0, [lr, #1016]
	.loc 2 220 0
	ldr	r1, [lr, #20]
	.loc 2 221 0
	ldr	r3, [lr, #24]
	.loc 2 220 0
	add	r1, r0, r1
	smull	r2, ip, r4, r1
	mov	r2, r1, asr #31
	rsb	r2, r2, ip, asr #4
	mul	r2, r9, r2
	rsb	r2, r2, r1
	.loc 2 221 0
	add	r3, r2, r3
	smull	r1, ip, r4, r3
	mov	r1, r3, asr #31
	rsb	r1, r1, ip, asr #4
	mul	r1, r9, r1
	.loc 2 222 0
	ldr	r5, [lr, #28]
	.loc 2 221 0
	rsb	r1, r1, r3
	.loc 2 222 0
	add	r5, r1, r5
	smull	r3, r8, r4, r5
	.loc 2 214 0
	ldr	r7, .L124+8
	.loc 2 213 0
	ldr	r6, [lr, #4]
.LVL106:
	.loc 2 214 0
	ldr	r7, [r7, #24]
	.loc 2 222 0
	mov	r3, r5, asr #31
	.loc 2 214 0
	ldr	ip, [lr, #12]
	.loc 2 222 0
	rsb	r3, r3, r8, asr #4
	.loc 2 214 0
	mla	ip, r7, r6, ip
	.loc 2 222 0
	mul	r3, r9, r3
	.loc 2 214 0
	ldr	r8, .L124+8
	.loc 2 225 0
	ldr	r7, [lr, #8]
	.loc 2 214 0
	ldr	r8, [r8, #12]
	.loc 2 212 0
	sub	sp, sp, #12
	.cfi_def_cfa_offset 48
	.loc 2 238 0
	subs	r6, r7, r6
.LVL107:
	str	r6, [sp]
	.loc 2 222 0
	rsb	r3, r3, r5
	.loc 2 214 0
	add	ip, r8, ip
.LVL108:
	.loc 2 238 0
	bmi	.L118
	ldr	fp, [lr, #1012]
	.loc 2 244 0
	str	r4, [sp, #4]
.LVL109:
.L120:
	.loc 2 240 0
	add	r5, lr, r0, asl #2
	ldr	r6, [r5, #1020]
	.loc 2 241 0
	add	r5, lr, r2, asl #2
	.loc 2 240 0
	ldrb	r6, [ip, r6]	@ zero_extendqisi2
	.loc 2 241 0
	ldr	r5, [r5, #1020]
	.loc 2 240 0
	add	r6, fp, r6
	ldrb	r6, [r6, #1536]	@ zero_extendqisi2
	.loc 2 241 0
	add	r5, ip, r5
	.loc 2 240 0
	strb	r6, [ip]
	.loc 2 241 0
	ldrb	r5, [r5, #1]	@ zero_extendqisi2
	.loc 2 242 0
	add	r7, lr, r1, asl #2
	.loc 2 241 0
	add	r5, fp, r5
	ldrb	r6, [r5, #1536]	@ zero_extendqisi2
	.loc 2 242 0
	ldr	r5, [r7, #1020]
	.loc 2 241 0
	strb	r6, [ip, #1]
	.loc 2 242 0
	add	r5, ip, r5
	ldrb	r5, [r5, #2]	@ zero_extendqisi2
	.loc 2 243 0
	add	r6, lr, r3, asl #2
	.loc 2 242 0
	add	r5, fp, r5
	ldrb	r4, [r5, #1536]	@ zero_extendqisi2
	.loc 2 243 0
	ldr	r5, [r6, #1020]
	.loc 2 242 0
	strb	r4, [ip, #2]
	.loc 2 244 0
	ldr	r4, [sp, #4]
	.loc 2 243 0
	add	r5, ip, r5
	.loc 2 246 0
	add	r6, r1, #1
	.loc 2 243 0
	ldrb	r1, [r5, #3]	@ zero_extendqisi2
.LVL110:
	.loc 2 246 0
	mov	r5, r4
	.loc 2 244 0
	add	r8, r0, #1
	.loc 2 245 0
	add	r7, r2, #1
	.loc 2 247 0
	add	r10, r3, #1
	.loc 2 244 0
	smull	r3, r0, r4, r8
.LVL111:
	.loc 2 245 0
	smull	r3, r2, r4, r7
.LVL112:
	.loc 2 246 0
	smull	r4, r3, r4, r6
	.loc 2 247 0
	mov	r4, r5
	.loc 2 243 0
	add	r1, fp, r1
	ldrb	r1, [r1, #1536]	@ zero_extendqisi2
	.loc 2 247 0
	smull	r4, r5, r4, r10
	.loc 2 243 0
	strb	r1, [ip, #3]
	.loc 2 244 0
	mov	r1, r8, asr #31
	rsb	r0, r1, r0, asr #4
	.loc 2 245 0
	mov	r1, r7, asr #31
	rsb	r2, r1, r2, asr #4
	.loc 2 246 0
	mov	r1, r6, asr #31
	rsb	r1, r1, r3, asr #4
	.loc 2 247 0
	mov	r3, r10, asr #31
	rsb	r3, r3, r5, asr #4
	.loc 2 238 0
	ldr	r4, [sp]
	.loc 2 244 0
	mul	r0, r9, r0
	.loc 2 245 0
	mul	r2, r9, r2
	.loc 2 246 0
	mul	r1, r9, r1
	.loc 2 247 0
	mul	r3, r9, r3
	.loc 2 249 0
	ldr	r5, .L124+8
	.loc 2 238 0
	sub	r4, r4, #1
	.loc 2 249 0
	ldr	r5, [r5, #24]
	.loc 2 238 0
	cmn	r4, #1
	str	r4, [sp]
.LVL113:
	.loc 2 249 0
	add	ip, ip, r5
.LVL114:
	.loc 2 244 0
	rsb	r0, r0, r8
.LVL115:
	.loc 2 245 0
	rsb	r2, r2, r7
.LVL116:
	.loc 2 246 0
	rsb	r1, r1, r6
.LVL117:
	.loc 2 247 0
	rsb	r3, r3, r10
.LVL118:
	.loc 2 238 0
	bne	.L120
.LVL119:
.L118:
	.loc 2 283 0
	add	sp, sp, #12
	.cfi_def_cfa_offset 36
	@ sp needed
	ldmfd	sp!, {r4, r5, r6, r7, r8, r9, r10, fp, pc}
.L125:
	.align	2
.L124:
	.word	.LANCHOR0
	.word	1374389535
	.word	.LANCHOR1
	.cfi_endproc
.LFE18:
	.size	R_FlushQuadFuzz8, .-R_FlushQuadFuzz8
	.align	2
	.type	R_FlushWhole15, %function
R_FlushWhole15:
.LFB19:
	.loc 2 100 0
	.cfi_startproc
	@ args = 0, pretend = 0, frame = 0
	@ frame_needed = 0, uses_anonymous_args = 0
	stmfd	sp!, {r4, r5, r6, r7, r8, r9, r10, fp, lr}
	.cfi_def_cfa_offset 36
	.cfi_offset 4, -36
	.cfi_offset 5, -32
	.cfi_offset 6, -28
	.cfi_offset 7, -24
	.cfi_offset 8, -20
	.cfi_offset 9, -16
	.cfi_offset 10, -12
	.cfi_offset 11, -8
	.cfi_offset 14, -4
	ldr	r8, .L135
	.loc 2 109 0
	ldr	r3, .L135+4
	ldr	r9, [r8]
	ldr	r4, [r3, #28]
	.loc 2 105 0
	mov	r0, r9
	mov	r2, r9, asl #2
	add	lr, r8, #16
	add	ip, r8, #32
	.loc 2 109 0
	ldr	r7, [r3, #16]
	ldr	r6, [r8, #12]
	.loc 2 108 0
	ldr	r5, .L135+8
	add	lr, lr, r2
	add	ip, ip, r2
	mov	r10, r4, asl #1
.L127:
	.loc 2 105 0
	subs	r0, r0, #1
	bmi	.L134
.L131:
	.loc 2 107 0
	ldr	r2, [lr, #-4]!
.LVL120:
	add	r1, r6, r0
	.loc 2 109 0
	mla	r1, r2, r4, r1
	.loc 2 110 0
	ldr	fp, [ip, #-4]!
	.loc 2 108 0
	add	r3, r0, r2, asl #2
	.loc 2 112 0
	subs	r2, fp, r2
.LVL121:
	.loc 2 109 0
	add	r1, r7, r1, asl #1
	.loc 2 108 0
	add	r3, r5, r3, asl #1
.LVL122:
	.loc 2 112 0
	bmi	.L127
	add	r3, r3, #8
.LVL123:
.L129:
	.loc 2 124 0
	ldrh	fp, [r3, #-8]
	.loc 2 112 0
	sub	r2, r2, #1
.LVL124:
	cmn	r2, #1
	.loc 2 124 0
	strh	fp, [r1], r10	@ movhi
.LVL125:
	add	r3, r3, #8
.LVL126:
	.loc 2 112 0
	bne	.L129
	.loc 2 105 0
	subs	r0, r0, #1
	bpl	.L131
.LVL127:
.L134:
	sub	r3, r9, #1
	cmp	r9, #0
	movlt	r9, r3
	rsbge	r9, r9, r3
	str	r9, [r8]
	ldmfd	sp!, {r4, r5, r6, r7, r8, r9, r10, fp, pc}
.L136:
	.align	2
.L135:
	.word	.LANCHOR0
	.word	.LANCHOR1
	.word	.LANCHOR0+1220
	.cfi_endproc
.LFE19:
	.size	R_FlushWhole15, .-R_FlushWhole15
	.align	2
	.type	R_FlushHT15, %function
R_FlushHT15:
.LFB20:
	.loc 2 141 0
	.cfi_startproc
	@ args = 0, pretend = 0, frame = 8
	@ frame_needed = 0, uses_anonymous_args = 0
.LVL128:
	stmfd	sp!, {r4, r5, r6, r7, r8, r9, r10, fp, lr}
	.cfi_def_cfa_offset 36
	.cfi_offset 4, -36
	.cfi_offset 5, -32
	.cfi_offset 6, -28
	.cfi_offset 7, -24
	.cfi_offset 8, -20
	.cfi_offset 9, -16
	.cfi_offset 10, -12
	.cfi_offset 11, -8
	.cfi_offset 14, -4
	.loc 2 144 0
	mov	lr, #0
	ldr	r6, .L152
	.loc 2 156 0
	ldr	r2, .L152+4
	ldr	r7, [r6, #8]
	ldr	r1, [r6, #12]
	ldr	r10, [r2, #28]
	.loc 2 183 0
	add	r4, r7, #1
	.loc 2 184 0
	mla	r5, r10, r4, r1
	ldr	r3, .L152+8
	.loc 2 156 0
	ldr	r2, [r2, #16]
	.loc 2 141 0
	sub	sp, sp, #12
	.cfi_def_cfa_offset 48
	add	r4, r3, r4, asl #3
	ldr	r8, [r6, #4]
	add	r9, r6, #16
	.loc 2 156 0
	str	r1, [sp, #4]
	str	r2, [sp]
	add	r5, r2, r5, asl #1
	add	r4, r4, #8
	mov	fp, r10, asl #1
	add	r6, r6, #32
.LVL129:
.L143:
	.loc 2 149 0
	ldr	r3, [r9, lr, asl #2]
.LVL130:
	.loc 2 150 0
	ldr	r2, [r6, lr, asl #2]
.LVL131:
	.loc 2 153 0
	cmp	r3, r8
	bge	.L141
	ldr	r1, [sp, #4]
	.loc 2 156 0
	ldr	ip, [sp]
	add	r0, r1, lr
	mla	r0, r3, r10, r0
	.loc 2 157 0
	rsb	r1, r3, r8
	.loc 2 156 0
	add	r0, ip, r0, asl #1
	.loc 2 155 0
	ldr	ip, .L152+8
	add	r3, lr, r3, asl #2
.LVL132:
	.loc 2 159 0
	subs	r1, r1, #1
	.loc 2 155 0
	add	r3, ip, r3, asl #1
.LVL133:
	.loc 2 159 0
	bmi	.L141
	add	r3, r3, #8
.LVL134:
.L142:
	.loc 2 172 0
	ldrh	ip, [r3, #-8]
	.loc 2 159 0
	sub	r1, r1, #1
.LVL135:
	cmn	r1, #1
	.loc 2 172 0
	strh	ip, [r0], fp	@ movhi
.LVL136:
	add	r3, r3, #8
.LVL137:
	.loc 2 159 0
	bne	.L142
.LVL138:
.L141:
	.loc 2 181 0
	cmp	r2, r7
	ble	.L140
	.loc 2 185 0
	rsb	r2, r7, r2
.LVL139:
	.loc 2 187 0
	subs	r2, r2, #1
	.loc 2 184 0
	mov	r1, r5
.LVL140:
	.loc 2 187 0
	bmi	.L140
	mov	r3, r4
.LVL141:
.L145:
	.loc 2 200 0
	ldrh	r0, [r3, #-8]
	.loc 2 187 0
	sub	r2, r2, #1
.LVL142:
	cmn	r2, #1
	.loc 2 200 0
	strh	r0, [r1], fp	@ movhi
.LVL143:
	add	r3, r3, #8
.LVL144:
	.loc 2 187 0
	bne	.L145
.LVL145:
.L140:
	.loc 2 207 0
	add	lr, lr, #1
.LVL146:
	.loc 2 147 0
	cmp	lr, #4
	add	r5, r5, #2
	add	r4, r4, #2
	bne	.L143
	.loc 2 209 0
	add	sp, sp, #12
	.cfi_def_cfa_offset 36
	@ sp needed
	ldmfd	sp!, {r4, r5, r6, r7, r8, r9, r10, fp, pc}
.LVL147:
.L153:
	.align	2
.L152:
	.word	.LANCHOR0
	.word	.LANCHOR1
	.word	.LANCHOR0+1220
	.cfi_endproc
.LFE20:
	.size	R_FlushHT15, .-R_FlushHT15
	.align	2
	.type	R_FlushQuad15, %function
R_FlushQuad15:
.LFB21:
	.loc 2 212 0
	.cfi_startproc
	@ args = 0, pretend = 0, frame = 0
	@ frame_needed = 0, uses_anonymous_args = 0
	.loc 2 213 0
	ldr	r3, .L160
	.loc 2 212 0
	stmfd	sp!, {r4, lr}
	.cfi_def_cfa_offset 8
	.cfi_offset 4, -8
	.cfi_offset 14, -4
	.loc 2 214 0
	ldr	r4, .L160+4
	.loc 2 213 0
	ldr	r0, [r3, #4]
	.loc 2 214 0
	ldr	r2, [r3, #12]
	ldr	ip, [r4, #28]
	.loc 2 225 0
	ldr	r1, [r3, #8]
	.loc 2 214 0
	mla	lr, ip, r0, r2
	.loc 2 213 0
	ldr	r3, .L160+8
	.loc 2 214 0
	ldr	r2, [r4, #16]
	.loc 2 272 0
	subs	r1, r1, r0
	.loc 2 214 0
	add	r2, r2, lr, asl #1
	.loc 2 213 0
	add	r3, r3, r0, asl #3
.LVL148:
	.loc 2 272 0
	ldmmifd	sp!, {r4, pc}
	mov	ip, ip, asl #1
	add	r3, r3, #8
.LVL149:
.L156:
	.loc 2 274 0
	ldrh	r0, [r3, #-8]
	.loc 2 272 0
	sub	r1, r1, #1
.LVL150:
	.loc 2 274 0
	strh	r0, [r2]	@ movhi
	.loc 2 275 0
	ldrh	r0, [r3, #-6]
	.loc 2 272 0
	cmn	r1, #1
	.loc 2 275 0
	strh	r0, [r2, #2]	@ movhi
	.loc 2 276 0
	ldrh	r0, [r3, #-4]
	add	r3, r3, #8
.LVL151:
	strh	r0, [r2, #4]	@ movhi
	.loc 2 277 0
	ldrh	r0, [r3, #-10]
	strh	r0, [r2, #6]	@ movhi
.LVL152:
	.loc 2 279 0
	add	r2, r2, ip
.LVL153:
	.loc 2 272 0
	bne	.L156
	ldmfd	sp!, {r4, pc}
.L161:
	.align	2
.L160:
	.word	.LANCHOR0
	.word	.LANCHOR1
	.word	.LANCHOR0+1220
	.cfi_endproc
.LFE21:
	.size	R_FlushQuad15, .-R_FlushQuad15
	.align	2
	.type	R_FlushWholeTL15, %function
R_FlushWholeTL15:
.LFB22:
	.loc 2 100 0
	.cfi_startproc
	@ args = 0, pretend = 0, frame = 8
	@ frame_needed = 0, uses_anonymous_args = 0
	stmfd	sp!, {r4, r5, r6, r7, r8, r9, r10, fp, lr}
	.cfi_def_cfa_offset 36
	.cfi_offset 4, -36
	.cfi_offset 5, -32
	.cfi_offset 6, -28
	.cfi_offset 7, -24
	.cfi_offset 8, -20
	.cfi_offset 9, -16
	.cfi_offset 10, -12
	.cfi_offset 11, -8
	.cfi_offset 14, -4
	ldr	r2, .L171
	.loc 2 109 0
	ldr	r3, .L171+4
	ldr	r1, .L171
	ldr	r2, [r2]
	.loc 2 100 0
	sub	sp, sp, #12
	.cfi_def_cfa_offset 48
	.loc 2 109 0
	ldr	r9, [r3, #28]
	ldr	r10, [r3, #16]
	ldr	r3, [r1, #12]
	mov	r6, r2
	str	r2, [sp, #4]
	add	r8, r1, #16
	mov	r2, r2, asl #2
	add	r7, r1, #32
	add	r8, r8, r2
	add	r7, r7, r2
	mov	fp, r9, asl #1
	str	r3, [sp]
.L163:
	.loc 2 105 0
	subs	r6, r6, #1
	bmi	.L170
.L167:
	ldr	r2, [sp]
	.loc 2 107 0
	ldr	r3, [r8, #-4]!
.LVL154:
	add	r1, r2, r6
	.loc 2 109 0
	mla	r1, r3, r9, r1
	.loc 2 110 0
	ldr	ip, [r7, #-4]!
	.loc 2 108 0
	add	r0, r6, r3, asl #2
	.loc 2 112 0
	subs	ip, ip, r3
	.loc 2 108 0
	ldr	r3, .L171+8
.LVL155:
	.loc 2 109 0
	add	r1, r10, r1, asl #1
	.loc 2 108 0
	add	r0, r3, r0, asl #1
.LVL156:
	.loc 2 112 0
	bmi	.L163
	add	r0, r0, #8
.LVL157:
.L165:
	.loc 2 115 0
	ldr	r2, .L171+12
	ldrh	r5, [r0, #-8]
	mov	lr, r2
	ldrh	r3, [r1]
	and	r4, r5, #992
	and	r2, r2, r5
	add	r5, r4, r4, asl #2
	and	lr, lr, r3
	add	r4, r4, r5, asl #1
	and	r3, r3, #992
	add	r5, r2, r2, asl #2
	add	lr, lr, lr, asl #2
	add	r3, r3, r3, asl #2
	add	r2, r2, r5, asl #1
	add	r2, lr, r2
	add	r3, r3, r4
	ldr	lr, .L171+12
	mov	r3, r3, asr #4
	mov	r2, r2, asr #4
	.loc 2 112 0
	sub	ip, ip, #1
.LVL158:
	.loc 2 115 0
	and	r3, r3, #992
	and	lr, lr, r2
	orr	r3, r3, lr
	.loc 2 112 0
	cmn	ip, #1
	add	r0, r0, #8
.LVL159:
	.loc 2 115 0
	strh	r3, [r1], fp	@ movhi
.LVL160:
	.loc 2 112 0
	bne	.L165
	.loc 2 105 0
	subs	r6, r6, #1
	bpl	.L167
.LVL161:
.L170:
	ldr	r2, [sp, #4]
	sub	r3, r2, #1
	cmp	r2, #0
	rsbge	r3, r2, r3
	ldr	r2, .L171
	str	r3, [r2]
	.loc 2 131 0
	add	sp, sp, #12
	.cfi_def_cfa_offset 36
	@ sp needed
	ldmfd	sp!, {r4, r5, r6, r7, r8, r9, r10, fp, pc}
.L172:
	.align	2
.L171:
	.word	.LANCHOR0
	.word	.LANCHOR1
	.word	.LANCHOR0+1220
	.word	31775
	.cfi_endproc
.LFE22:
	.size	R_FlushWholeTL15, .-R_FlushWholeTL15
	.align	2
	.type	R_FlushHTTL15, %function
R_FlushHTTL15:
.LFB23:
	.loc 2 141 0
	.cfi_startproc
	@ args = 0, pretend = 0, frame = 24
	@ frame_needed = 0, uses_anonymous_args = 0
.LVL162:
	ldr	r3, .L188
	stmfd	sp!, {r4, r5, r6, r7, r8, r9, r10, fp, lr}
	.cfi_def_cfa_offset 36
	.cfi_offset 4, -36
	.cfi_offset 5, -32
	.cfi_offset 6, -28
	.cfi_offset 7, -24
	.cfi_offset 8, -20
	.cfi_offset 9, -16
	.cfi_offset 10, -12
	.cfi_offset 11, -8
	.cfi_offset 14, -4
	.loc 2 156 0
	ldr	r0, [r3, #12]
	.loc 2 144 0
	mov	r7, #0
	.loc 2 156 0
	mov	ip, r0
	ldr	r1, .L188+4
	.loc 2 141 0
	sub	sp, sp, #28
	.cfi_def_cfa_offset 64
	ldr	r10, [r3, #8]
	.loc 2 156 0
	str	r0, [sp, #20]
	ldr	r0, [r1, #28]
	.loc 2 183 0
	add	r8, r10, #1
	ldr	r2, .L188+8
	.loc 2 184 0
	mla	r9, r0, r8, ip
	.loc 2 156 0
	ldr	r1, [r1, #16]
	add	r8, r2, r8, asl #3
	ldr	r2, [r3, #4]
	add	r3, r3, #32
	str	r0, [sp, #16]
	str	r1, [sp, #12]
	str	r2, [sp, #4]
	add	r9, r1, r9, asl #1
	add	r8, r8, #8
	mov	fp, r0, asl #1
	str	r3, [sp, #8]
.LVL163:
.L179:
	.loc 2 149 0
	ldr	r3, .L188+12
	ldr	lr, [r3, r7, asl #2]
.LVL164:
	.loc 2 150 0
	ldr	r3, [sp, #8]
	ldr	r4, [r3, r7, asl #2]
.LVL165:
	.loc 2 153 0
	ldr	r3, [sp, #4]
	cmp	lr, r3
	bge	.L177
	ldr	r3, [sp, #20]
	add	r5, r3, r7
	.loc 2 156 0
	ldr	r3, [sp, #16]
	mla	r5, lr, r3, r5
	.loc 2 157 0
	ldr	r3, [sp, #4]
	rsb	r6, lr, r3
	.loc 2 156 0
	ldr	r3, [sp, #12]
	.loc 2 155 0
	add	lr, r7, lr, asl #2
.LVL166:
	.loc 2 156 0
	add	r5, r3, r5, asl #1
	.loc 2 155 0
	ldr	r3, .L188+8
	.loc 2 159 0
	subs	r6, r6, #1
	.loc 2 155 0
	add	lr, r3, lr, asl #1
.LVL167:
	.loc 2 159 0
	bmi	.L177
	add	lr, lr, #8
.LVL168:
.L178:
	.loc 2 163 0
	ldr	r2, .L188+16
	ldrh	ip, [lr, #-8]
	mov	r1, r2
	ldrh	r3, [r5]
	and	r0, ip, #992
	and	r2, r2, ip
	add	ip, r0, r0, asl #2
	and	r1, r1, r3
	add	r0, r0, ip, asl #1
	and	r3, r3, #992
	add	ip, r2, r2, asl #2
	add	r1, r1, r1, asl #2
	add	r3, r3, r3, asl #2
	add	r2, r2, ip, asl #1
	add	r2, r1, r2
	add	r3, r3, r0
	ldr	r1, .L188+16
	mov	r3, r3, asr #4
	mov	r2, r2, asr #4
	.loc 2 159 0
	sub	r6, r6, #1
.LVL169:
	.loc 2 163 0
	and	r3, r3, #992
	and	r1, r1, r2
	orr	r3, r3, r1
	.loc 2 159 0
	cmn	r6, #1
	add	lr, lr, #8
.LVL170:
	.loc 2 163 0
	strh	r3, [r5], fp	@ movhi
.LVL171:
	.loc 2 159 0
	bne	.L178
.LVL172:
.L177:
	.loc 2 181 0
	cmp	r4, r10
	ble	.L176
	.loc 2 185 0
	rsb	r4, r10, r4
.LVL173:
	.loc 2 187 0
	subs	r4, r4, #1
	.loc 2 184 0
	mov	lr, r9
.LVL174:
	.loc 2 187 0
	bmi	.L176
	mov	r5, r8
.LVL175:
.L181:
	.loc 2 191 0
	ldr	ip, .L188+16
	ldrh	r0, [r5, #-8]
	mov	r2, ip
	ldrh	r1, [lr]
	and	ip, ip, r0
	and	r3, r0, #992
	and	r2, r2, r1
	add	r0, r3, r3, asl #2
	and	r1, r1, #992
	add	r6, ip, ip, asl #2
	add	r3, r3, r0, asl #1
	add	r1, r1, r1, asl #2
	add	r0, r2, r2, asl #2
	add	r2, ip, r6, asl #1
	add	r3, r1, r3
	add	r2, r0, r2
	ldr	r1, .L188+16
	mov	r3, r3, asr #4
	mov	r2, r2, asr #4
	.loc 2 187 0
	sub	r4, r4, #1
.LVL176:
	.loc 2 191 0
	and	r3, r3, #992
	and	r1, r1, r2
	orr	r3, r3, r1
	.loc 2 187 0
	cmn	r4, #1
	add	r5, r5, #8
.LVL177:
	.loc 2 191 0
	strh	r3, [lr], fp	@ movhi
.LVL178:
	.loc 2 187 0
	bne	.L181
.LVL179:
.L176:
	.loc 2 207 0
	add	r7, r7, #1
.LVL180:
	.loc 2 147 0
	cmp	r7, #4
	add	r9, r9, #2
	add	r8, r8, #2
	bne	.L179
	.loc 2 209 0
	add	sp, sp, #28
	.cfi_def_cfa_offset 36
	@ sp needed
	ldmfd	sp!, {r4, r5, r6, r7, r8, r9, r10, fp, pc}
.LVL181:
.L189:
	.align	2
.L188:
	.word	.LANCHOR0
	.word	.LANCHOR1
	.word	.LANCHOR0+1220
	.word	.LANCHOR0+16
	.word	31775
	.cfi_endproc
.LFE23:
	.size	R_FlushHTTL15, .-R_FlushHTTL15
	.align	2
	.type	R_FlushQuadTL15, %function
R_FlushQuadTL15:
.LFB24:
	.loc 2 212 0
	.cfi_startproc
	@ args = 0, pretend = 0, frame = 0
	@ frame_needed = 0, uses_anonymous_args = 0
	.loc 2 213 0
	ldr	r2, .L196
	.loc 2 214 0
	ldr	r0, .L196+4
	.loc 2 213 0
	ldr	r3, [r2, #4]
	.loc 2 214 0
	ldr	r1, [r2, #12]
	.loc 2 212 0
	stmfd	sp!, {r4, r5, r6, r7, lr}
	.cfi_def_cfa_offset 20
	.cfi_offset 4, -20
	.cfi_offset 5, -16
	.cfi_offset 6, -12
	.cfi_offset 7, -8
	.cfi_offset 14, -4
	.loc 2 214 0
	ldr	lr, [r0, #28]
	.loc 2 225 0
	ldr	ip, [r2, #8]
	.loc 2 214 0
	mla	r2, lr, r3, r1
	ldr	r1, [r0, #16]
	.loc 2 213 0
	ldr	r0, .L196+8
	.loc 2 228 0
	subs	ip, ip, r3
	.loc 2 214 0
	add	r1, r1, r2, asl #1
	.loc 2 213 0
	add	r0, r0, r3, asl #3
.LVL182:
	.loc 2 228 0
	ldmmifd	sp!, {r4, r5, r6, r7, pc}
	mov	lr, lr, asl #1
	add	r0, r0, #8
.LVL183:
.L192:
	.loc 2 230 0
	ldr	r4, .L196+12
	ldrh	r3, [r0, #-8]
	mov	r2, r4
	ldrh	r6, [r1]
	and	r5, r3, #992
	and	r4, r4, r3
	add	r7, r5, r5, asl #2
	and	r3, r6, #992
	and	r2, r2, r6
	add	r6, r4, r4, asl #2
	add	r5, r5, r7, asl #1
	add	r4, r4, r6, asl #1
	add	r3, r3, r3, asl #2
	add	r2, r2, r2, asl #2
	add	r3, r3, r5
	add	r2, r2, r4
	ldr	r4, .L196+12
	mov	r2, r2, asr #4
	mov	r3, r3, asr #4
	and	r4, r4, r2
	and	r3, r3, #992
	orr	r3, r3, r4
	.loc 2 231 0
	ldr	r4, .L196+12
	.loc 2 230 0
	strh	r3, [r1]	@ movhi
	.loc 2 231 0
	mov	r2, r4
	ldrh	r3, [r0, #-6]
	ldrh	r6, [r1, #2]
	and	r5, r3, #992
	and	r4, r4, r3
	add	r7, r5, r5, asl #2
	and	r3, r6, #992
	and	r2, r2, r6
	add	r6, r4, r4, asl #2
	add	r5, r5, r7, asl #1
	add	r4, r4, r6, asl #1
	add	r3, r3, r3, asl #2
	add	r2, r2, r2, asl #2
	add	r3, r3, r5
	add	r2, r2, r4
	ldr	r4, .L196+12
	mov	r2, r2, asr #4
	mov	r3, r3, asr #4
	and	r4, r4, r2
	and	r3, r3, #992
	orr	r3, r3, r4
	.loc 2 232 0
	ldr	r4, .L196+12
	.loc 2 231 0
	strh	r3, [r1, #2]	@ movhi
	.loc 2 232 0
	mov	r2, r4
	ldrh	r3, [r0, #-4]
	ldrh	r6, [r1, #4]
	and	r5, r3, #992
	and	r4, r4, r3
	add	r7, r5, r5, asl #2
	and	r3, r6, #992
	and	r2, r2, r6
	add	r6, r4, r4, asl #2
	add	r5, r5, r7, asl #1
	add	r4, r4, r6, asl #1
	add	r3, r3, r3, asl #2
	add	r2, r2, r2, asl #2
	add	r3, r3, r5
	add	r2, r2, r4
	ldr	r4, .L196+12
	mov	r2, r2, asr #4
	mov	r3, r3, asr #4
	and	r4, r4, r2
	and	r3, r3, #992
	orr	r3, r3, r4
	.loc 2 233 0
	ldr	r4, .L196+12
	.loc 2 232 0
	strh	r3, [r1, #4]	@ movhi
	.loc 2 233 0
	mov	r2, r4
	ldrh	r3, [r0, #-2]
	ldrh	r6, [r1, #6]
	and	r5, r3, #992
	and	r4, r4, r3
	and	r2, r2, r6
	and	r3, r6, #992
	add	r7, r5, r5, asl #2
	add	r6, r4, r4, asl #2
	add	r4, r4, r6, asl #1
	add	r5, r5, r7, asl #1
	add	r3, r3, r3, asl #2
	add	r2, r2, r2, asl #2
	add	r2, r2, r4
	add	r3, r3, r5
	ldr	r4, .L196+12
	mov	r3, r3, asr #4
	mov	r2, r2, asr #4
	.loc 2 228 0
	sub	ip, ip, #1
.LVL184:
	.loc 2 233 0
	and	r3, r3, #992
	and	r4, r4, r2
	orr	r3, r3, r4
	.loc 2 228 0
	cmn	ip, #1
	.loc 2 233 0
	strh	r3, [r1, #6]	@ movhi
.LVL185:
	add	r0, r0, #8
	.loc 2 235 0
	add	r1, r1, lr
.LVL186:
	.loc 2 228 0
	bne	.L192
	ldmfd	sp!, {r4, r5, r6, r7, pc}
.L197:
	.align	2
.L196:
	.word	.LANCHOR0
	.word	.LANCHOR1
	.word	.LANCHOR0+1220
	.word	31775
	.cfi_endproc
.LFE24:
	.size	R_FlushQuadTL15, .-R_FlushQuadTL15
	.align	2
	.type	R_FlushWholeFuzz15, %function
R_FlushWholeFuzz15:
.LFB25:
	.loc 2 100 0
	.cfi_startproc
	@ args = 0, pretend = 0, frame = 8
	@ frame_needed = 0, uses_anonymous_args = 0
	stmfd	sp!, {r4, r5, r6, r7, r8, r9, r10, fp, lr}
	.cfi_def_cfa_offset 36
	.cfi_offset 4, -36
	.cfi_offset 5, -32
	.cfi_offset 6, -28
	.cfi_offset 7, -24
	.cfi_offset 8, -20
	.cfi_offset 9, -16
	.cfi_offset 10, -12
	.cfi_offset 11, -8
	.cfi_offset 14, -4
	ldr	r4, .L208
	.loc 2 109 0
	ldr	r3, .L208+4
	ldr	r2, [r4]
	.loc 2 100 0
	sub	sp, sp, #12
	.cfi_def_cfa_offset 48
	.loc 2 109 0
	ldr	r8, [r3, #28]
	mov	r5, r2
	str	r2, [sp, #4]
	add	r7, r4, #16
	mov	r2, r2, asl #2
	add	r6, r4, #32
	ldr	r10, [r3, #16]
	ldr	r9, [r4, #12]
	ldr	r0, [r4, #1016]
	add	r7, r7, r2
	add	r6, r6, r2
	mov	fp, r8, asl #1
.L199:
	.loc 2 105 0
	subs	r5, r5, #1
	bmi	.L207
.L204:
	.loc 2 107 0
	ldr	ip, [r7, #-4]!
.LVL187:
	add	r1, r9, r5
	.loc 2 109 0
	mla	r1, ip, r8, r1
	.loc 2 110 0
	ldr	r3, [r6, #-4]!
	.loc 2 109 0
	add	r1, r10, r1, asl #1
.LVL188:
	.loc 2 112 0
	subs	ip, r3, ip
.LVL189:
	bmi	.L199
.L202:
	.loc 2 118 0
	add	r3, r4, r0, asl #2
	ldr	r3, [r3, #1020]
	ldr	r2, .L208+8
	mov	r3, r3, asl #1
	ldrh	lr, [r1, r3]
	.loc 2 122 0
	cmp	r0, #49
	.loc 2 118 0
	and	r3, lr, #992
	and	r2, r2, lr
	rsb	lr, r2, r2, asl #4
	rsb	r3, r3, r3, asl #4
	ldr	r2, .L208+8
	mov	r3, r3, asr #4
	mov	lr, lr, asr #4
	.loc 2 112 0
	sub	ip, ip, #1
.LVL190:
	.loc 2 118 0
	and	r3, r3, #992
	and	r2, r2, lr
	.loc 2 122 0
	addne	r0, r0, #1
	moveq	r0, #0
.LVL191:
	.loc 2 118 0
	orr	r2, r3, r2
	.loc 2 112 0
	cmn	ip, #1
	.loc 2 118 0
	strh	r2, [r1], fp	@ movhi
.LVL192:
	.loc 2 112 0
	bne	.L202
	.loc 2 105 0
	subs	r5, r5, #1
	bpl	.L204
.LVL193:
.L207:
	ldr	r2, [sp, #4]
	str	r0, [r4, #1016]
	sub	r3, r2, #1
	cmp	r2, #0
	rsbge	r3, r2, r3
	str	r3, [r4]
	.loc 2 131 0
	add	sp, sp, #12
	.cfi_def_cfa_offset 36
	@ sp needed
	ldmfd	sp!, {r4, r5, r6, r7, r8, r9, r10, fp, pc}
.L209:
	.align	2
.L208:
	.word	.LANCHOR0
	.word	.LANCHOR1
	.word	31775
	.cfi_endproc
.LFE25:
	.size	R_FlushWholeFuzz15, .-R_FlushWholeFuzz15
	.align	2
	.type	R_FlushHTFuzz15, %function
R_FlushHTFuzz15:
.LFB26:
	.loc 2 141 0
	.cfi_startproc
	@ args = 0, pretend = 0, frame = 8
	@ frame_needed = 0, uses_anonymous_args = 0
.LVL194:
	stmfd	sp!, {r4, r5, r6, r7, r8, r9, r10, fp, lr}
	.cfi_def_cfa_offset 36
	.cfi_offset 4, -36
	.cfi_offset 5, -32
	.cfi_offset 6, -28
	.cfi_offset 7, -24
	.cfi_offset 8, -20
	.cfi_offset 9, -16
	.cfi_offset 10, -12
	.cfi_offset 11, -8
	.cfi_offset 14, -4
	.loc 2 144 0
	mov	r6, #0
	ldr	r5, .L227
	.loc 2 156 0
	ldr	r3, .L227+4
	ldr	r8, [r5, #8]
	ldr	r10, [r3, #28]
	ldr	r2, [r5, #12]
	.loc 2 184 0
	mla	r7, r8, r10, r10
	.loc 2 156 0
	ldr	r3, [r3, #16]
	.loc 2 141 0
	sub	sp, sp, #12
	.cfi_def_cfa_offset 48
	.loc 2 184 0
	add	r7, r2, r7
	ldr	r9, [r5, #4]
	ldr	r0, [r5, #1016]
	.loc 2 156 0
	str	r2, [sp, #4]
	str	r3, [sp]
	add	r7, r3, r7, asl #1
	mov	fp, r10, asl #1
.LVL195:
.L217:
	.loc 2 149 0
	ldr	r3, .L227+8
	ldr	ip, [r3, r6, asl #2]
.LVL196:
	.loc 2 150 0
	add	r3, r3, #16
	.loc 2 153 0
	cmp	ip, r9
	.loc 2 150 0
	ldr	lr, [r3, r6, asl #2]
.LVL197:
	.loc 2 153 0
	bge	.L214
.LVL198:
	ldr	r3, [sp, #4]
	add	r4, r3, r6
	.loc 2 156 0
	mla	r4, ip, r10, r4
	ldr	r3, [sp]
	.loc 2 157 0
	rsb	ip, ip, r9
.LVL199:
	.loc 2 159 0
	subs	ip, ip, #1
	.loc 2 156 0
	add	r4, r3, r4, asl #1
.LVL200:
	.loc 2 159 0
	bmi	.L214
.LVL201:
.L216:
	.loc 2 166 0
	add	r3, r5, r0, asl #2
	ldr	r3, [r3, #1020]
	ldr	r2, .L227+12
	mov	r3, r3, asl #1
	ldrh	r1, [r4, r3]
	.loc 2 170 0
	cmp	r0, #49
	.loc 2 166 0
	and	r3, r1, #992
	and	r2, r2, r1
	rsb	r1, r2, r2, asl #4
	rsb	r3, r3, r3, asl #4
	ldr	r2, .L227+12
	mov	r3, r3, asr #4
	mov	r1, r1, asr #4
	.loc 2 159 0
	sub	ip, ip, #1
.LVL202:
	.loc 2 166 0
	and	r3, r3, #992
	and	r2, r2, r1
	.loc 2 170 0
	addne	r0, r0, #1
	moveq	r0, #0
.LVL203:
	.loc 2 166 0
	orr	r2, r3, r2
	.loc 2 159 0
	cmn	ip, #1
	.loc 2 166 0
	strh	r2, [r4], fp	@ movhi
.LVL204:
	.loc 2 159 0
	bne	.L216
.LVL205:
.L214:
	.loc 2 181 0
	cmp	lr, r8
	ble	.L213
.LVL206:
	.loc 2 185 0
	rsb	lr, r8, lr
.LVL207:
	.loc 2 187 0
	subs	lr, lr, #1
	.loc 2 184 0
	mov	ip, r7
.LVL208:
	.loc 2 187 0
	bmi	.L213
.LVL209:
.L220:
	.loc 2 194 0
	add	r3, r5, r0, asl #2
	ldr	r3, [r3, #1020]
	ldr	r2, .L227+12
	mov	r3, r3, asl #1
	ldrh	r1, [ip, r3]
	.loc 2 198 0
	cmp	r0, #49
	.loc 2 194 0
	and	r3, r1, #992
	and	r2, r2, r1
	rsb	r3, r3, r3, asl #4
	rsb	r2, r2, r2, asl #4
	ldr	r1, .L227+12
	mov	r3, r3, asr #4
	mov	r2, r2, asr #4
	.loc 2 187 0
	sub	lr, lr, #1
.LVL210:
	.loc 2 194 0
	and	r3, r3, #992
	and	r1, r1, r2
	.loc 2 198 0
	addne	r0, r0, #1
	moveq	r0, #0
.LVL211:
	.loc 2 194 0
	orr	r3, r3, r1
	.loc 2 187 0
	cmn	lr, #1
	.loc 2 194 0
	strh	r3, [ip], fp	@ movhi
.LVL212:
	.loc 2 187 0
	bne	.L220
.LVL213:
.L213:
	.loc 2 207 0
	add	r6, r6, #1
.LVL214:
	.loc 2 147 0
	cmp	r6, #4
	add	r7, r7, #2
	bne	.L217
	str	r0, [r5, #1016]
	.loc 2 209 0
	add	sp, sp, #12
	.cfi_def_cfa_offset 36
	@ sp needed
	ldmfd	sp!, {r4, r5, r6, r7, r8, r9, r10, fp, pc}
.LVL215:
.L228:
	.align	2
.L227:
	.word	.LANCHOR0
	.word	.LANCHOR1
	.word	.LANCHOR0+16
	.word	31775
	.cfi_endproc
.LFE26:
	.size	R_FlushHTFuzz15, .-R_FlushHTFuzz15
	.align	2
	.type	R_FlushQuadFuzz15, %function
R_FlushQuadFuzz15:
.LFB27:
	.loc 2 212 0
	.cfi_startproc
	@ args = 0, pretend = 0, frame = 16
	@ frame_needed = 0, uses_anonymous_args = 0
	stmfd	sp!, {r4, r5, r6, r7, r8, r9, r10, fp, lr}
	.cfi_def_cfa_offset 36
	.cfi_offset 4, -36
	.cfi_offset 5, -32
	.cfi_offset 6, -28
	.cfi_offset 7, -24
	.cfi_offset 8, -20
	.cfi_offset 9, -16
	.cfi_offset 10, -12
	.cfi_offset 11, -8
	.cfi_offset 14, -4
	.loc 2 220 0
	mov	r5, #50
	.loc 2 213 0
	ldr	r9, .L235
	.loc 2 220 0
	ldr	r10, .L235+4
	.loc 2 219 0
	ldr	lr, [r9, #1016]
	.loc 2 220 0
	ldr	r3, [r9, #20]
	.loc 2 221 0
	ldr	r2, [r9, #24]
	.loc 2 220 0
	add	r3, lr, r3
	smull	r1, r0, r10, r3
	mov	r1, r3, asr #31
	rsb	r0, r1, r0, asr #4
	mul	r0, r5, r0
	rsb	r0, r0, r3
	.loc 2 221 0
	add	r2, r0, r2
	smull	r3, ip, r10, r2
	mov	r3, r2, asr #31
	rsb	ip, r3, ip, asr #4
	mul	ip, r5, ip
	.loc 2 222 0
	ldr	r3, [r9, #28]
	.loc 2 221 0
	rsb	ip, ip, r2
	.loc 2 222 0
	add	r3, ip, r3
	smull	r2, r1, r10, r3
	.loc 2 214 0
	ldr	fp, .L235+8
	.loc 2 222 0
	mov	r2, r3, asr #31
	.loc 2 213 0
	ldr	r7, [r9, #4]
.LVL216:
	.loc 2 214 0
	ldr	r4, [r9, #12]
	ldr	r6, [fp, #28]
	.loc 2 222 0
	rsb	r1, r2, r1, asr #4
	mul	r1, r5, r1
	.loc 2 214 0
	mla	r2, r6, r7, r4
	.loc 2 225 0
	ldr	r8, [r9, #8]
	.loc 2 214 0
	ldr	r4, [fp, #16]
	.loc 2 212 0
	sub	sp, sp, #20
	.cfi_def_cfa_offset 56
	.loc 2 238 0
	subs	r7, r8, r7
.LVL217:
	str	r7, [sp, #8]
	.loc 2 222 0
	rsb	r1, r1, r3
	.loc 2 214 0
	add	r4, r4, r2, asl #1
.LVL218:
	.loc 2 238 0
	bmi	.L229
	mov	r3, r6, asl #1
	.loc 2 244 0
	str	r5, [sp]
	str	r3, [sp, #12]
.LVL219:
.L231:
	.loc 2 240 0
	add	r3, r9, lr, asl #2
	ldr	r2, [r3, #1020]
	ldr	r3, .L235+12
	mov	r2, r2, asl #1
	ldrh	r6, [r4, r2]
	.loc 2 244 0
	add	r5, lr, #1
	.loc 2 240 0
	and	r2, r6, #992
	and	r3, r3, r6
	rsb	r2, r2, r2, asl #4
	rsb	r3, r3, r3, asl #4
	ldr	lr, .L235+12
.LVL220:
	mov	r3, r3, asr #4
	.loc 2 241 0
	add	r6, r9, r0, asl #2
	.loc 2 240 0
	mov	r2, r2, asr #4
	and	r2, r2, #992
	and	lr, lr, r3
	.loc 2 241 0
	ldr	r6, [r6, #1020]
	.loc 2 240 0
	orr	r3, r2, lr
	strh	r3, [r4]	@ movhi
	.loc 2 241 0
	add	r3, r4, r6, asl #1
	ldrh	lr, [r3, #2]
	ldr	r3, .L235+12
	and	r2, lr, #992
	and	r3, r3, lr
	rsb	r2, r2, r2, asl #4
	rsb	r3, r3, r3, asl #4
	ldr	lr, .L235+12
	mov	r3, r3, asr #4
	.loc 2 242 0
	add	r6, r9, ip, asl #2
	.loc 2 241 0
	mov	r2, r2, asr #4
	and	r2, r2, #992
	and	lr, lr, r3
	.loc 2 242 0
	ldr	r6, [r6, #1020]
	.loc 2 241 0
	orr	r3, r2, lr
	strh	r3, [r4, #2]	@ movhi
	.loc 2 242 0
	add	r3, r4, r6, asl #1
	ldrh	r3, [r3, #4]
	ldr	r6, .L235+12
	and	lr, r3, #992
	and	r6, r6, r3
	.loc 2 246 0
	add	r3, ip, #1
	mov	r7, r3
	.loc 2 243 0
	add	fp, r9, r1, asl #2
	.loc 2 242 0
	rsb	lr, lr, lr, asl #4
	rsb	r6, r6, r6, asl #4
	ldr	r8, .L235+12
	.loc 2 245 0
	add	r2, r0, #1
	.loc 2 242 0
	mov	r6, r6, asr #4
	.loc 2 243 0
	ldr	r0, [fp, #1020]
.LVL221:
	.loc 2 242 0
	mov	lr, lr, asr #4
	and	lr, lr, #992
	and	r8, r8, r6
	orr	r8, lr, r8
	.loc 2 247 0
	add	r6, r1, #1
	.loc 2 244 0
	smull	r3, lr, r10, r5
	.loc 2 243 0
	add	r1, r4, r0, asl #1
.LVL222:
	.loc 2 245 0
	smull	r3, r0, r10, r2
	.loc 2 246 0
	mov	r3, r7
	.loc 2 242 0
	strh	r8, [r4, #4]	@ movhi
	.loc 2 243 0
	ldrh	fp, [r1, #6]
	.loc 2 246 0
	smull	r3, r1, r10, r3
	.loc 2 247 0
	smull	r3, r8, r10, r6
	mov	r3, r8
	.loc 2 243 0
	ldr	ip, .L235+12
.LVL223:
	.loc 2 246 0
	str	r7, [sp, #4]
	.loc 2 243 0
	and	ip, ip, fp
	rsb	ip, ip, ip, asl #4
	ldr	r7, .L235+12
.LVL224:
	mov	ip, ip, asr #4
	and	r7, r7, ip
	.loc 2 244 0
	mov	ip, r5, asr #31
	rsb	lr, ip, lr, asr #4
	ldr	ip, [sp]
	.loc 2 243 0
	and	r8, fp, #992
	.loc 2 244 0
	mul	lr, ip, lr
	.loc 2 245 0
	mov	ip, r2, asr #31
	rsb	r0, ip, r0, asr #4
	ldr	ip, [sp]
	.loc 2 243 0
	rsb	r8, r8, r8, asl #4
	.loc 2 245 0
	mul	r0, ip, r0
	.loc 2 246 0
	ldr	ip, [sp, #4]
	.loc 2 243 0
	mov	r8, r8, asr #4
	.loc 2 246 0
	mov	ip, ip, asr #31
	rsb	ip, ip, r1, asr #4
	ldr	r1, [sp]
	.loc 2 238 0
	ldr	fp, [sp, #8]
	.loc 2 246 0
	mul	ip, r1, ip
	.loc 2 247 0
	mov	r1, r6, asr #31
	rsb	r1, r1, r3, asr #4
	ldr	r3, [sp]
	.loc 2 243 0
	and	r8, r8, #992
	.loc 2 247 0
	mul	r1, r3, r1
	.loc 2 249 0
	ldr	r3, [sp, #12]
	.loc 2 243 0
	orr	r8, r8, r7
	.loc 2 238 0
	sub	fp, fp, #1
	.loc 2 243 0
	strh	r8, [r4, #6]	@ movhi
	.loc 2 249 0
	add	r4, r4, r3
.LVL225:
	.loc 2 246 0
	ldr	r3, [sp, #4]
	.loc 2 238 0
	cmn	fp, #1
	str	fp, [sp, #8]
.LVL226:
	.loc 2 244 0
	rsb	lr, lr, r5
.LVL227:
	.loc 2 245 0
	rsb	r0, r0, r2
.LVL228:
	.loc 2 246 0
	rsb	ip, ip, r3
.LVL229:
	.loc 2 247 0
	rsb	r1, r1, r6
.LVL230:
	.loc 2 238 0
	bne	.L231
.LVL231:
.L229:
	.loc 2 283 0
	add	sp, sp, #20
	.cfi_def_cfa_offset 36
	@ sp needed
	ldmfd	sp!, {r4, r5, r6, r7, r8, r9, r10, fp, pc}
.LVL232:
.L236:
	.align	2
.L235:
	.word	.LANCHOR0
	.word	1374389535
	.word	.LANCHOR1
	.word	31775
	.cfi_endproc
.LFE27:
	.size	R_FlushQuadFuzz15, .-R_FlushQuadFuzz15
	.align	2
	.type	R_FlushWhole16, %function
R_FlushWhole16:
.LFB28:
	.loc 2 100 0
	.cfi_startproc
	@ args = 0, pretend = 0, frame = 0
	@ frame_needed = 0, uses_anonymous_args = 0
	stmfd	sp!, {r4, r5, r6, r7, r8, r9, r10, fp, lr}
	.cfi_def_cfa_offset 36
	.cfi_offset 4, -36
	.cfi_offset 5, -32
	.cfi_offset 6, -28
	.cfi_offset 7, -24
	.cfi_offset 8, -20
	.cfi_offset 9, -16
	.cfi_offset 10, -12
	.cfi_offset 11, -8
	.cfi_offset 14, -4
	ldr	r8, .L246
	.loc 2 109 0
	ldr	r3, .L246+4
	ldr	r9, [r8]
	ldr	r4, [r3, #28]
	.loc 2 105 0
	mov	r0, r9
	mov	r2, r9, asl #2
	add	lr, r8, #16
	add	ip, r8, #32
	.loc 2 109 0
	ldr	r7, [r3, #16]
	ldr	r6, [r8, #12]
	.loc 2 108 0
	ldr	r5, .L246+8
	add	lr, lr, r2
	add	ip, ip, r2
	mov	r10, r4, asl #1
.L238:
	.loc 2 105 0
	subs	r0, r0, #1
	bmi	.L245
.L242:
	.loc 2 107 0
	ldr	r2, [lr, #-4]!
.LVL233:
	add	r1, r6, r0
	.loc 2 109 0
	mla	r1, r2, r4, r1
	.loc 2 110 0
	ldr	fp, [ip, #-4]!
	.loc 2 108 0
	add	r3, r0, r2, asl #2
	.loc 2 112 0
	subs	r2, fp, r2
.LVL234:
	.loc 2 109 0
	add	r1, r7, r1, asl #1
	.loc 2 108 0
	add	r3, r5, r3, asl #1
.LVL235:
	.loc 2 112 0
	bmi	.L238
	add	r3, r3, #8
.LVL236:
.L240:
	.loc 2 124 0
	ldrh	fp, [r3, #-8]
	.loc 2 112 0
	sub	r2, r2, #1
.LVL237:
	cmn	r2, #1
	.loc 2 124 0
	strh	fp, [r1], r10	@ movhi
.LVL238:
	add	r3, r3, #8
.LVL239:
	.loc 2 112 0
	bne	.L240
	.loc 2 105 0
	subs	r0, r0, #1
	bpl	.L242
.LVL240:
.L245:
	sub	r3, r9, #1
	cmp	r9, #0
	movlt	r9, r3
	rsbge	r9, r9, r3
	str	r9, [r8]
	ldmfd	sp!, {r4, r5, r6, r7, r8, r9, r10, fp, pc}
.L247:
	.align	2
.L246:
	.word	.LANCHOR0
	.word	.LANCHOR1
	.word	.LANCHOR0+1220
	.cfi_endproc
.LFE28:
	.size	R_FlushWhole16, .-R_FlushWhole16
	.align	2
	.type	R_FlushHT16, %function
R_FlushHT16:
.LFB29:
	.loc 2 141 0
	.cfi_startproc
	@ args = 0, pretend = 0, frame = 8
	@ frame_needed = 0, uses_anonymous_args = 0
.LVL241:
	stmfd	sp!, {r4, r5, r6, r7, r8, r9, r10, fp, lr}
	.cfi_def_cfa_offset 36
	.cfi_offset 4, -36
	.cfi_offset 5, -32
	.cfi_offset 6, -28
	.cfi_offset 7, -24
	.cfi_offset 8, -20
	.cfi_offset 9, -16
	.cfi_offset 10, -12
	.cfi_offset 11, -8
	.cfi_offset 14, -4
	.loc 2 144 0
	mov	lr, #0
	ldr	r6, .L263
	.loc 2 156 0
	ldr	r2, .L263+4
	ldr	r7, [r6, #8]
	ldr	r1, [r6, #12]
	ldr	r10, [r2, #28]
	.loc 2 183 0
	add	r4, r7, #1
	.loc 2 184 0
	mla	r5, r10, r4, r1
	ldr	r3, .L263+8
	.loc 2 156 0
	ldr	r2, [r2, #16]
	.loc 2 141 0
	sub	sp, sp, #12
	.cfi_def_cfa_offset 48
	add	r4, r3, r4, asl #3
	ldr	r8, [r6, #4]
	add	r9, r6, #16
	.loc 2 156 0
	str	r1, [sp, #4]
	str	r2, [sp]
	add	r5, r2, r5, asl #1
	add	r4, r4, #8
	mov	fp, r10, asl #1
	add	r6, r6, #32
.LVL242:
.L254:
	.loc 2 149 0
	ldr	r3, [r9, lr, asl #2]
.LVL243:
	.loc 2 150 0
	ldr	r2, [r6, lr, asl #2]
.LVL244:
	.loc 2 153 0
	cmp	r3, r8
	bge	.L252
	ldr	r1, [sp, #4]
	.loc 2 156 0
	ldr	ip, [sp]
	add	r0, r1, lr
	mla	r0, r3, r10, r0
	.loc 2 157 0
	rsb	r1, r3, r8
	.loc 2 156 0
	add	r0, ip, r0, asl #1
	.loc 2 155 0
	ldr	ip, .L263+8
	add	r3, lr, r3, asl #2
.LVL245:
	.loc 2 159 0
	subs	r1, r1, #1
	.loc 2 155 0
	add	r3, ip, r3, asl #1
.LVL246:
	.loc 2 159 0
	bmi	.L252
	add	r3, r3, #8
.LVL247:
.L253:
	.loc 2 172 0
	ldrh	ip, [r3, #-8]
	.loc 2 159 0
	sub	r1, r1, #1
.LVL248:
	cmn	r1, #1
	.loc 2 172 0
	strh	ip, [r0], fp	@ movhi
.LVL249:
	add	r3, r3, #8
.LVL250:
	.loc 2 159 0
	bne	.L253
.LVL251:
.L252:
	.loc 2 181 0
	cmp	r2, r7
	ble	.L251
	.loc 2 185 0
	rsb	r2, r7, r2
.LVL252:
	.loc 2 187 0
	subs	r2, r2, #1
	.loc 2 184 0
	mov	r1, r5
.LVL253:
	.loc 2 187 0
	bmi	.L251
	mov	r3, r4
.LVL254:
.L256:
	.loc 2 200 0
	ldrh	r0, [r3, #-8]
	.loc 2 187 0
	sub	r2, r2, #1
.LVL255:
	cmn	r2, #1
	.loc 2 200 0
	strh	r0, [r1], fp	@ movhi
.LVL256:
	add	r3, r3, #8
.LVL257:
	.loc 2 187 0
	bne	.L256
.LVL258:
.L251:
	.loc 2 207 0
	add	lr, lr, #1
.LVL259:
	.loc 2 147 0
	cmp	lr, #4
	add	r5, r5, #2
	add	r4, r4, #2
	bne	.L254
	.loc 2 209 0
	add	sp, sp, #12
	.cfi_def_cfa_offset 36
	@ sp needed
	ldmfd	sp!, {r4, r5, r6, r7, r8, r9, r10, fp, pc}
.LVL260:
.L264:
	.align	2
.L263:
	.word	.LANCHOR0
	.word	.LANCHOR1
	.word	.LANCHOR0+1220
	.cfi_endproc
.LFE29:
	.size	R_FlushHT16, .-R_FlushHT16
	.align	2
	.type	R_FlushQuad16, %function
R_FlushQuad16:
.LFB30:
	.loc 2 212 0
	.cfi_startproc
	@ args = 0, pretend = 0, frame = 0
	@ frame_needed = 0, uses_anonymous_args = 0
	.loc 2 213 0
	ldr	r3, .L271
	.loc 2 212 0
	stmfd	sp!, {r4, lr}
	.cfi_def_cfa_offset 8
	.cfi_offset 4, -8
	.cfi_offset 14, -4
	.loc 2 214 0
	ldr	r4, .L271+4
	.loc 2 213 0
	ldr	r0, [r3, #4]
	.loc 2 214 0
	ldr	r2, [r3, #12]
	ldr	ip, [r4, #28]
	.loc 2 225 0
	ldr	r1, [r3, #8]
	.loc 2 214 0
	mla	lr, ip, r0, r2
	.loc 2 213 0
	ldr	r3, .L271+8
	.loc 2 214 0
	ldr	r2, [r4, #16]
	.loc 2 272 0
	subs	r1, r1, r0
	.loc 2 214 0
	add	r2, r2, lr, asl #1
	.loc 2 213 0
	add	r3, r3, r0, asl #3
.LVL261:
	.loc 2 272 0
	ldmmifd	sp!, {r4, pc}
	mov	ip, ip, asl #1
	add	r3, r3, #8
.LVL262:
.L267:
	.loc 2 274 0
	ldrh	r0, [r3, #-8]
	.loc 2 272 0
	sub	r1, r1, #1
.LVL263:
	.loc 2 274 0
	strh	r0, [r2]	@ movhi
	.loc 2 275 0
	ldrh	r0, [r3, #-6]
	.loc 2 272 0
	cmn	r1, #1
	.loc 2 275 0
	strh	r0, [r2, #2]	@ movhi
	.loc 2 276 0
	ldrh	r0, [r3, #-4]
	add	r3, r3, #8
.LVL264:
	strh	r0, [r2, #4]	@ movhi
	.loc 2 277 0
	ldrh	r0, [r3, #-10]
	strh	r0, [r2, #6]	@ movhi
.LVL265:
	.loc 2 279 0
	add	r2, r2, ip
.LVL266:
	.loc 2 272 0
	bne	.L267
	ldmfd	sp!, {r4, pc}
.L272:
	.align	2
.L271:
	.word	.LANCHOR0
	.word	.LANCHOR1
	.word	.LANCHOR0+1220
	.cfi_endproc
.LFE30:
	.size	R_FlushQuad16, .-R_FlushQuad16
	.align	2
	.type	R_FlushWholeTL16, %function
R_FlushWholeTL16:
.LFB31:
	.loc 2 100 0
	.cfi_startproc
	@ args = 0, pretend = 0, frame = 8
	@ frame_needed = 0, uses_anonymous_args = 0
	stmfd	sp!, {r4, r5, r6, r7, r8, r9, r10, fp, lr}
	.cfi_def_cfa_offset 36
	.cfi_offset 4, -36
	.cfi_offset 5, -32
	.cfi_offset 6, -28
	.cfi_offset 7, -24
	.cfi_offset 8, -20
	.cfi_offset 9, -16
	.cfi_offset 10, -12
	.cfi_offset 11, -8
	.cfi_offset 14, -4
	ldr	r2, .L282
	.loc 2 109 0
	ldr	r3, .L282+4
	ldr	r1, .L282
	ldr	r2, [r2]
	.loc 2 100 0
	sub	sp, sp, #12
	.cfi_def_cfa_offset 48
	.loc 2 109 0
	ldr	r9, [r3, #28]
	ldr	r10, [r3, #16]
	ldr	r3, [r1, #12]
	mov	r6, r2
	str	r2, [sp, #4]
	add	r8, r1, #16
	mov	r2, r2, asl #2
	add	r7, r1, #32
	add	r8, r8, r2
	add	r7, r7, r2
	mov	fp, r9, asl #1
	str	r3, [sp]
.L274:
	.loc 2 105 0
	subs	r6, r6, #1
	bmi	.L281
.L278:
	ldr	r2, [sp]
	.loc 2 107 0
	ldr	r3, [r8, #-4]!
.LVL267:
	add	r1, r2, r6
	.loc 2 109 0
	mla	r1, r3, r9, r1
	.loc 2 110 0
	ldr	ip, [r7, #-4]!
	.loc 2 108 0
	add	r0, r6, r3, asl #2
	.loc 2 112 0
	subs	ip, ip, r3
	.loc 2 108 0
	ldr	r3, .L282+8
.LVL268:
	.loc 2 109 0
	add	r1, r10, r1, asl #1
	.loc 2 108 0
	add	r0, r3, r0, asl #1
.LVL269:
	.loc 2 112 0
	bmi	.L274
	add	r0, r0, #8
.LVL270:
.L276:
	.loc 2 115 0
	ldrh	lr, [r0, #-8]
	ldrh	r2, [r1]
	and	r5, lr, #2016
	add	r3, r5, r5, asl #2
	bic	lr, lr, #2016
	and	r4, r2, #2016
	add	r5, r5, r3, asl #1
	bic	r2, r2, #2016
	add	r3, lr, lr, asl #2
	add	r2, r2, r2, asl #2
	add	r4, r4, r4, asl #2
	add	r3, lr, r3, asl #1
	add	r3, r2, r3
	add	r4, r4, r5
	mov	r2, r4, asr #4
	mov	r3, r3, asr #4
	.loc 2 112 0
	sub	ip, ip, #1
.LVL271:
	.loc 2 115 0
	and	r2, r2, #2016
	bic	r3, r3, #2016
	orr	r3, r2, r3
	.loc 2 112 0
	cmn	ip, #1
	add	r0, r0, #8
.LVL272:
	.loc 2 115 0
	strh	r3, [r1], fp	@ movhi
.LVL273:
	.loc 2 112 0
	bne	.L276
	.loc 2 105 0
	subs	r6, r6, #1
	bpl	.L278
.LVL274:
.L281:
	ldr	r2, [sp, #4]
	sub	r3, r2, #1
	cmp	r2, #0
	rsbge	r3, r2, r3
	ldr	r2, .L282
	str	r3, [r2]
	.loc 2 131 0
	add	sp, sp, #12
	.cfi_def_cfa_offset 36
	@ sp needed
	ldmfd	sp!, {r4, r5, r6, r7, r8, r9, r10, fp, pc}
.L283:
	.align	2
.L282:
	.word	.LANCHOR0
	.word	.LANCHOR1
	.word	.LANCHOR0+1220
	.cfi_endproc
.LFE31:
	.size	R_FlushWholeTL16, .-R_FlushWholeTL16
	.align	2
	.type	R_FlushHTTL16, %function
R_FlushHTTL16:
.LFB32:
	.loc 2 141 0
	.cfi_startproc
	@ args = 0, pretend = 0, frame = 24
	@ frame_needed = 0, uses_anonymous_args = 0
.LVL275:
	ldr	r3, .L299
	stmfd	sp!, {r4, r5, r6, r7, r8, r9, r10, fp, lr}
	.cfi_def_cfa_offset 36
	.cfi_offset 4, -36
	.cfi_offset 5, -32
	.cfi_offset 6, -28
	.cfi_offset 7, -24
	.cfi_offset 8, -20
	.cfi_offset 9, -16
	.cfi_offset 10, -12
	.cfi_offset 11, -8
	.cfi_offset 14, -4
	.loc 2 156 0
	ldr	r0, [r3, #12]
	.loc 2 144 0
	mov	r7, #0
	.loc 2 156 0
	mov	ip, r0
	ldr	r1, .L299+4
	.loc 2 141 0
	sub	sp, sp, #28
	.cfi_def_cfa_offset 64
	ldr	r10, [r3, #8]
	.loc 2 156 0
	str	r0, [sp, #20]
	ldr	r0, [r1, #28]
	.loc 2 183 0
	add	r8, r10, #1
	ldr	r2, .L299+8
	.loc 2 184 0
	mla	r9, r0, r8, ip
	.loc 2 156 0
	ldr	r1, [r1, #16]
	add	r8, r2, r8, asl #3
	ldr	r2, [r3, #4]
	add	r3, r3, #32
	str	r0, [sp, #16]
	str	r1, [sp, #12]
	str	r2, [sp, #4]
	add	r9, r1, r9, asl #1
	add	r8, r8, #8
	mov	fp, r0, asl #1
	str	r3, [sp, #8]
.LVL276:
.L290:
	.loc 2 149 0
	ldr	r3, .L299+12
	ldr	lr, [r3, r7, asl #2]
.LVL277:
	.loc 2 150 0
	ldr	r3, [sp, #8]
	ldr	r4, [r3, r7, asl #2]
.LVL278:
	.loc 2 153 0
	ldr	r3, [sp, #4]
	cmp	lr, r3
	bge	.L288
	ldr	r3, [sp, #20]
	add	r5, r3, r7
	.loc 2 156 0
	ldr	r3, [sp, #16]
	mla	r5, lr, r3, r5
	.loc 2 157 0
	ldr	r3, [sp, #4]
	rsb	r6, lr, r3
	.loc 2 156 0
	ldr	r3, [sp, #12]
	.loc 2 155 0
	add	lr, r7, lr, asl #2
.LVL279:
	.loc 2 156 0
	add	r5, r3, r5, asl #1
	.loc 2 155 0
	ldr	r3, .L299+8
	.loc 2 159 0
	subs	r6, r6, #1
	.loc 2 155 0
	add	lr, r3, lr, asl #1
.LVL280:
	.loc 2 159 0
	bmi	.L288
	add	lr, lr, #8
.LVL281:
.L289:
	.loc 2 163 0
	ldrh	r1, [lr, #-8]
	ldrh	r2, [r5]
	and	ip, r1, #2016
	add	r3, ip, ip, asl #2
	bic	r1, r1, #2016
	and	r0, r2, #2016
	add	ip, ip, r3, asl #1
	bic	r2, r2, #2016
	add	r3, r1, r1, asl #2
	add	r2, r2, r2, asl #2
	add	r0, r0, r0, asl #2
	add	r3, r1, r3, asl #1
	add	r3, r2, r3
	add	r0, r0, ip
	mov	r2, r0, asr #4
	mov	r3, r3, asr #4
	.loc 2 159 0
	sub	r6, r6, #1
.LVL282:
	.loc 2 163 0
	and	r2, r2, #2016
	bic	r3, r3, #2016
	orr	r3, r2, r3
	.loc 2 159 0
	cmn	r6, #1
	add	lr, lr, #8
.LVL283:
	.loc 2 163 0
	strh	r3, [r5], fp	@ movhi
.LVL284:
	.loc 2 159 0
	bne	.L289
.LVL285:
.L288:
	.loc 2 181 0
	cmp	r4, r10
	ble	.L287
	.loc 2 185 0
	rsb	r4, r10, r4
.LVL286:
	.loc 2 187 0
	subs	r4, r4, #1
	.loc 2 184 0
	mov	lr, r9
.LVL287:
	.loc 2 187 0
	bmi	.L287
	mov	r5, r8
.LVL288:
.L292:
	.loc 2 191 0
	ldrh	r1, [r5, #-8]
	ldrh	r0, [lr]
	and	ip, r1, #2016
	add	r3, ip, ip, asl #2
	bic	r1, r1, #2016
	and	r2, r0, #2016
	add	ip, ip, r3, asl #1
	bic	r0, r0, #2016
	add	r3, r1, r1, asl #2
	add	r2, r2, r2, asl #2
	add	r0, r0, r0, asl #2
	add	r1, r1, r3, asl #1
	add	r2, r2, ip
	add	r3, r0, r1
	mov	r2, r2, asr #4
	mov	r3, r3, asr #4
	.loc 2 187 0
	sub	r4, r4, #1
.LVL289:
	.loc 2 191 0
	and	r2, r2, #2016
	bic	r3, r3, #2016
	orr	r3, r2, r3
	.loc 2 187 0
	cmn	r4, #1
	add	r5, r5, #8
.LVL290:
	.loc 2 191 0
	strh	r3, [lr], fp	@ movhi
.LVL291:
	.loc 2 187 0
	bne	.L292
.LVL292:
.L287:
	.loc 2 207 0
	add	r7, r7, #1
.LVL293:
	.loc 2 147 0
	cmp	r7, #4
	add	r9, r9, #2
	add	r8, r8, #2
	bne	.L290
	.loc 2 209 0
	add	sp, sp, #28
	.cfi_def_cfa_offset 36
	@ sp needed
	ldmfd	sp!, {r4, r5, r6, r7, r8, r9, r10, fp, pc}
.LVL294:
.L300:
	.align	2
.L299:
	.word	.LANCHOR0
	.word	.LANCHOR1
	.word	.LANCHOR0+1220
	.word	.LANCHOR0+16
	.cfi_endproc
.LFE32:
	.size	R_FlushHTTL16, .-R_FlushHTTL16
	.align	2
	.type	R_FlushQuadTL16, %function
R_FlushQuadTL16:
.LFB33:
	.loc 2 212 0
	.cfi_startproc
	@ args = 0, pretend = 0, frame = 0
	@ frame_needed = 0, uses_anonymous_args = 0
	.loc 2 213 0
	ldr	r1, .L307
	.loc 2 212 0
	stmfd	sp!, {r4, r5, r6, r7, lr}
	.cfi_def_cfa_offset 20
	.cfi_offset 4, -20
	.cfi_offset 5, -16
	.cfi_offset 6, -12
	.cfi_offset 7, -8
	.cfi_offset 14, -4
	.loc 2 214 0
	ldr	lr, .L307+4
	.loc 2 213 0
	ldr	r3, [r1, #4]
	.loc 2 214 0
	ldr	r2, [r1, #12]
	ldr	ip, [lr, #28]
	.loc 2 225 0
	ldr	r0, [r1, #8]
	.loc 2 214 0
	mla	r2, ip, r3, r2
	ldr	lr, [lr, #16]
	.loc 2 213 0
	ldr	r1, .L307+8
	.loc 2 228 0
	subs	r0, r0, r3
	.loc 2 214 0
	add	r2, lr, r2, asl #1
	.loc 2 213 0
	add	r1, r1, r3, asl #3
.LVL295:
	.loc 2 228 0
	ldmmifd	sp!, {r4, r5, r6, r7, pc}
	mov	ip, ip, asl #1
	add	r1, r1, #8
.LVL296:
.L303:
	.loc 2 230 0
	ldrh	r4, [r1, #-8]
	ldrh	r3, [r2]
	and	r5, r4, #2016
	bic	r4, r4, #2016
	add	r7, r5, r5, asl #2
	and	lr, r3, #2016
	add	r6, r4, r4, asl #2
	bic	r3, r3, #2016
	add	r5, r5, r7, asl #1
	add	r4, r4, r6, asl #1
	add	lr, lr, lr, asl #2
	add	r3, r3, r3, asl #2
	add	lr, lr, r5
	add	r3, r3, r4
	mov	lr, lr, asr #4
	mov	r3, r3, asr #4
	and	lr, lr, #2016
	bic	r3, r3, #2016
	orr	r3, lr, r3
	strh	r3, [r2]	@ movhi
	.loc 2 231 0
	ldrh	r4, [r1, #-6]
	ldrh	r3, [r2, #2]
	and	r5, r4, #2016
	bic	r4, r4, #2016
	add	r7, r5, r5, asl #2
	and	lr, r3, #2016
	add	r6, r4, r4, asl #2
	bic	r3, r3, #2016
	add	r5, r5, r7, asl #1
	add	r4, r4, r6, asl #1
	add	lr, lr, lr, asl #2
	add	r3, r3, r3, asl #2
	add	lr, lr, r5
	add	r3, r3, r4
	mov	lr, lr, asr #4
	mov	r3, r3, asr #4
	and	lr, lr, #2016
	bic	r3, r3, #2016
	orr	r3, lr, r3
	strh	r3, [r2, #2]	@ movhi
	.loc 2 232 0
	ldrh	r4, [r1, #-4]
	ldrh	r3, [r2, #4]
	and	r5, r4, #2016
	bic	r4, r4, #2016
	add	r7, r5, r5, asl #2
	and	lr, r3, #2016
	add	r6, r4, r4, asl #2
	bic	r3, r3, #2016
	add	r5, r5, r7, asl #1
	add	r4, r4, r6, asl #1
	add	lr, lr, lr, asl #2
	add	r3, r3, r3, asl #2
	add	lr, lr, r5
	add	r3, r3, r4
	mov	lr, lr, asr #4
	mov	r3, r3, asr #4
	and	lr, lr, #2016
	bic	r3, r3, #2016
	orr	r3, lr, r3
	strh	r3, [r2, #4]	@ movhi
	.loc 2 233 0
	ldrh	r4, [r1, #-2]
	ldrh	r3, [r2, #6]
	and	r5, r4, #2016
	bic	r4, r4, #2016
	and	lr, r3, #2016
	add	r7, r5, r5, asl #2
	bic	r3, r3, #2016
	add	r6, r4, r4, asl #2
	add	r5, r5, r7, asl #1
	add	lr, lr, lr, asl #2
	add	r3, r3, r3, asl #2
	add	r4, r4, r6, asl #1
	add	lr, lr, r5
	add	r3, r3, r4
	mov	lr, lr, asr #4
	mov	r3, r3, asr #4
	.loc 2 228 0
	sub	r0, r0, #1
.LVL297:
	.loc 2 233 0
	and	lr, lr, #2016
	bic	r3, r3, #2016
	orr	r3, lr, r3
	.loc 2 228 0
	cmn	r0, #1
	.loc 2 233 0
	strh	r3, [r2, #6]	@ movhi
.LVL298:
	add	r1, r1, #8
	.loc 2 235 0
	add	r2, r2, ip
.LVL299:
	.loc 2 228 0
	bne	.L303
	ldmfd	sp!, {r4, r5, r6, r7, pc}
.L308:
	.align	2
.L307:
	.word	.LANCHOR0
	.word	.LANCHOR1
	.word	.LANCHOR0+1220
	.cfi_endproc
.LFE33:
	.size	R_FlushQuadTL16, .-R_FlushQuadTL16
	.align	2
	.type	R_FlushWholeFuzz16, %function
R_FlushWholeFuzz16:
.LFB34:
	.loc 2 100 0
	.cfi_startproc
	@ args = 0, pretend = 0, frame = 0
	@ frame_needed = 0, uses_anonymous_args = 0
	ldr	ip, .L319
	stmfd	sp!, {r4, r5, r6, r7, r8, r9, r10, fp, lr}
	.cfi_def_cfa_offset 36
	.cfi_offset 4, -36
	.cfi_offset 5, -32
	.cfi_offset 6, -28
	.cfi_offset 7, -24
	.cfi_offset 8, -20
	.cfi_offset 9, -16
	.cfi_offset 10, -12
	.cfi_offset 11, -8
	.cfi_offset 14, -4
	ldr	r9, [ip]
	.loc 2 109 0
	ldr	r3, .L319+4
	.loc 2 105 0
	mov	lr, r9
	mov	r2, r9, asl #2
	.loc 2 109 0
	ldr	r6, [r3, #28]
	add	r5, ip, #16
	add	r4, ip, #32
	add	r5, r5, r2
	add	r4, r4, r2
	ldr	r8, [r3, #16]
	ldr	r7, [ip, #12]
	ldr	r2, [ip, #1016]
	mov	r10, r6, asl #1
.L310:
	.loc 2 105 0
	subs	lr, lr, #1
	bmi	.L318
.L315:
	.loc 2 107 0
	ldr	r0, [r5, #-4]!
.LVL300:
	add	r1, r7, lr
	.loc 2 109 0
	mla	r1, r0, r6, r1
	.loc 2 110 0
	ldr	r3, [r4, #-4]!
	.loc 2 109 0
	add	r1, r8, r1, asl #1
.LVL301:
	.loc 2 112 0
	subs	r0, r3, r0
.LVL302:
	bmi	.L310
.L313:
	.loc 2 118 0
	add	r3, ip, r2, asl #2
	ldr	r3, [r3, #1020]
	.loc 2 122 0
	cmp	r2, #49
	.loc 2 118 0
	mov	r3, r3, asl #1
	ldrh	r3, [r1, r3]
	.loc 2 112 0
	sub	r0, r0, #1
.LVL303:
	.loc 2 118 0
	and	fp, r3, #2016
	bic	r3, r3, #2016
	rsb	fp, fp, fp, asl #4
	rsb	r3, r3, r3, asl #4
	mov	fp, fp, asr #4
	mov	r3, r3, asr #4
	and	fp, fp, #2016
	bic	r3, r3, #2016
	.loc 2 122 0
	addne	r2, r2, #1
	moveq	r2, #0
.LVL304:
	.loc 2 118 0
	orr	r3, fp, r3
	.loc 2 112 0
	cmn	r0, #1
	.loc 2 118 0
	strh	r3, [r1], r10	@ movhi
.LVL305:
	.loc 2 112 0
	bne	.L313
	.loc 2 105 0
	subs	lr, lr, #1
	bpl	.L315
.LVL306:
.L318:
	sub	r3, r9, #1
	cmp	r9, #0
	movlt	r9, r3
	rsbge	r9, r9, r3
	str	r2, [ip, #1016]
	str	r9, [ip]
	ldmfd	sp!, {r4, r5, r6, r7, r8, r9, r10, fp, pc}
.L320:
	.align	2
.L319:
	.word	.LANCHOR0
	.word	.LANCHOR1
	.cfi_endproc
.LFE34:
	.size	R_FlushWholeFuzz16, .-R_FlushWholeFuzz16
	.align	2
	.type	R_FlushHTFuzz16, %function
R_FlushHTFuzz16:
.LFB35:
	.loc 2 141 0
	.cfi_startproc
	@ args = 0, pretend = 0, frame = 8
	@ frame_needed = 0, uses_anonymous_args = 0
.LVL307:
	stmfd	sp!, {r4, r5, r6, r7, r8, r9, r10, fp, lr}
	.cfi_def_cfa_offset 36
	.cfi_offset 4, -36
	.cfi_offset 5, -32
	.cfi_offset 6, -28
	.cfi_offset 7, -24
	.cfi_offset 8, -20
	.cfi_offset 9, -16
	.cfi_offset 10, -12
	.cfi_offset 11, -8
	.cfi_offset 14, -4
	.loc 2 144 0
	mov	r5, #0
	ldr	r4, .L338
	.loc 2 156 0
	ldr	r3, .L338+4
	ldr	r7, [r4, #8]
	ldr	r9, [r3, #28]
	ldr	r2, [r4, #12]
	.loc 2 184 0
	mla	r6, r7, r9, r9
	.loc 2 156 0
	ldr	r3, [r3, #16]
	.loc 2 141 0
	sub	sp, sp, #12
	.cfi_def_cfa_offset 48
	.loc 2 184 0
	add	r6, r2, r6
	ldr	r8, [r4, #4]
	ldr	r1, [r4, #1016]
	.loc 2 156 0
	str	r2, [sp, #4]
	str	r3, [sp]
	add	r6, r3, r6, asl #1
	mov	fp, r9, asl #1
	add	r10, r4, #16
.LVL308:
.L328:
	.loc 2 149 0
	ldr	r0, [r10, r5, asl #2]
.LVL309:
	.loc 2 150 0
	ldr	r3, .L338+8
	.loc 2 153 0
	cmp	r0, r8
	.loc 2 150 0
	ldr	ip, [r3, r5, asl #2]
.LVL310:
	.loc 2 153 0
	bge	.L325
.LVL311:
	ldr	r3, [sp, #4]
	add	lr, r3, r5
	.loc 2 156 0
	mla	lr, r0, r9, lr
	ldr	r3, [sp]
	.loc 2 157 0
	rsb	r0, r0, r8
.LVL312:
	.loc 2 159 0
	subs	r0, r0, #1
	.loc 2 156 0
	add	lr, r3, lr, asl #1
.LVL313:
	.loc 2 159 0
	bmi	.L325
.LVL314:
.L327:
	.loc 2 166 0
	add	r3, r4, r1, asl #2
	ldr	r3, [r3, #1020]
	.loc 2 170 0
	cmp	r1, #49
	.loc 2 166 0
	mov	r3, r3, asl #1
	ldrh	r3, [lr, r3]
	.loc 2 159 0
	sub	r0, r0, #1
.LVL315:
	.loc 2 166 0
	and	r2, r3, #2016
	bic	r3, r3, #2016
	rsb	r2, r2, r2, asl #4
	rsb	r3, r3, r3, asl #4
	mov	r2, r2, asr #4
	mov	r3, r3, asr #4
	and	r2, r2, #2016
	bic	r3, r3, #2016
	.loc 2 170 0
	addne	r1, r1, #1
	moveq	r1, #0
.LVL316:
	.loc 2 166 0
	orr	r3, r2, r3
	.loc 2 159 0
	cmn	r0, #1
	.loc 2 166 0
	strh	r3, [lr], fp	@ movhi
.LVL317:
	.loc 2 159 0
	bne	.L327
.LVL318:
.L325:
	.loc 2 181 0
	cmp	ip, r7
	ble	.L324
.LVL319:
	.loc 2 185 0
	rsb	ip, r7, ip
.LVL320:
	.loc 2 187 0
	subs	ip, ip, #1
	.loc 2 184 0
	mov	r0, r6
.LVL321:
	.loc 2 187 0
	bmi	.L324
.LVL322:
.L331:
	.loc 2 194 0
	add	r3, r4, r1, asl #2
	ldr	r3, [r3, #1020]
	.loc 2 198 0
	cmp	r1, #49
	.loc 2 194 0
	mov	r3, r3, asl #1
	ldrh	r3, [r0, r3]
	.loc 2 187 0
	sub	ip, ip, #1
.LVL323:
	.loc 2 194 0
	and	r2, r3, #2016
	bic	r3, r3, #2016
	rsb	r2, r2, r2, asl #4
	rsb	r3, r3, r3, asl #4
	mov	r2, r2, asr #4
	mov	r3, r3, asr #4
	and	r2, r2, #2016
	bic	r3, r3, #2016
	.loc 2 198 0
	addne	r1, r1, #1
	moveq	r1, #0
.LVL324:
	.loc 2 194 0
	orr	r3, r2, r3
	.loc 2 187 0
	cmn	ip, #1
	.loc 2 194 0
	strh	r3, [r0], fp	@ movhi
.LVL325:
	.loc 2 187 0
	bne	.L331
.LVL326:
.L324:
	.loc 2 207 0
	add	r5, r5, #1
.LVL327:
	.loc 2 147 0
	cmp	r5, #4
	add	r6, r6, #2
	bne	.L328
	str	r1, [r4, #1016]
	.loc 2 209 0
	add	sp, sp, #12
	.cfi_def_cfa_offset 36
	@ sp needed
	ldmfd	sp!, {r4, r5, r6, r7, r8, r9, r10, fp, pc}
.LVL328:
.L339:
	.align	2
.L338:
	.word	.LANCHOR0
	.word	.LANCHOR1
	.word	.LANCHOR0+32
	.cfi_endproc
.LFE35:
	.size	R_FlushHTFuzz16, .-R_FlushHTFuzz16
	.align	2
	.type	R_FlushQuadFuzz16, %function
R_FlushQuadFuzz16:
.LFB36:
	.loc 2 212 0
	.cfi_startproc
	@ args = 0, pretend = 0, frame = 16
	@ frame_needed = 0, uses_anonymous_args = 0
	stmfd	sp!, {r4, r5, r6, r7, r8, r9, r10, fp, lr}
	.cfi_def_cfa_offset 36
	.cfi_offset 4, -36
	.cfi_offset 5, -32
	.cfi_offset 6, -28
	.cfi_offset 7, -24
	.cfi_offset 8, -20
	.cfi_offset 9, -16
	.cfi_offset 10, -12
	.cfi_offset 11, -8
	.cfi_offset 14, -4
	.loc 2 220 0
	mov	r5, #50
	.loc 2 213 0
	ldr	r9, .L346
	.loc 2 220 0
	ldr	r10, .L346+4
	.loc 2 219 0
	ldr	lr, [r9, #1016]
	.loc 2 220 0
	ldr	r3, [r9, #20]
	.loc 2 221 0
	ldr	r2, [r9, #24]
	.loc 2 220 0
	add	r3, lr, r3
	smull	r1, r0, r10, r3
	mov	r1, r3, asr #31
	rsb	r0, r1, r0, asr #4
	mul	r0, r5, r0
	rsb	r0, r0, r3
	.loc 2 221 0
	add	r2, r0, r2
	smull	r3, ip, r10, r2
	mov	r3, r2, asr #31
	rsb	ip, r3, ip, asr #4
	mul	ip, r5, ip
	.loc 2 222 0
	ldr	r3, [r9, #28]
	.loc 2 221 0
	rsb	ip, ip, r2
	.loc 2 222 0
	add	r3, ip, r3
	smull	r2, r1, r10, r3
	.loc 2 214 0
	ldr	fp, .L346+8
	.loc 2 222 0
	mov	r2, r3, asr #31
	.loc 2 213 0
	ldr	r7, [r9, #4]
.LVL329:
	.loc 2 214 0
	ldr	r4, [r9, #12]
	ldr	r6, [fp, #28]
	.loc 2 222 0
	rsb	r1, r2, r1, asr #4
	mul	r1, r5, r1
	.loc 2 214 0
	mla	r2, r6, r7, r4
	.loc 2 225 0
	ldr	r8, [r9, #8]
	.loc 2 214 0
	ldr	r4, [fp, #16]
	.loc 2 212 0
	sub	sp, sp, #20
	.cfi_def_cfa_offset 56
	.loc 2 238 0
	subs	r7, r8, r7
.LVL330:
	str	r7, [sp, #8]
	.loc 2 222 0
	rsb	r1, r1, r3
	.loc 2 214 0
	add	r4, r4, r2, asl #1
.LVL331:
	.loc 2 238 0
	bmi	.L340
	.loc 2 244 0
	mov	r7, r5
	mov	r3, r6, asl #1
	str	r3, [sp, #12]
.LVL332:
.L342:
	.loc 2 240 0
	add	r3, r9, lr, asl #2
	ldr	r3, [r3, #1020]
	.loc 2 241 0
	add	r2, r9, r0, asl #2
	.loc 2 240 0
	mov	r3, r3, asl #1
	ldrh	r3, [r4, r3]
	.loc 2 241 0
	ldr	r2, [r2, #1020]
	.loc 2 240 0
	and	r5, r3, #2016
	bic	r3, r3, #2016
	rsb	r5, r5, r5, asl #4
	rsb	r3, r3, r3, asl #4
	mov	r5, r5, asr #4
	mov	r3, r3, asr #4
	and	r5, r5, #2016
	bic	r3, r3, #2016
	orr	r3, r5, r3
	strh	r3, [r4]	@ movhi
	.loc 2 241 0
	add	r2, r4, r2, asl #1
	ldrh	r3, [r2, #2]
	.loc 2 242 0
	add	r2, r9, ip, asl #2
	.loc 2 241 0
	and	r5, r3, #2016
	bic	r3, r3, #2016
	rsb	r5, r5, r5, asl #4
	rsb	r3, r3, r3, asl #4
	mov	r5, r5, asr #4
	mov	r3, r3, asr #4
	and	r5, r5, #2016
	.loc 2 242 0
	ldr	r2, [r2, #1020]
	.loc 2 241 0
	bic	r3, r3, #2016
	orr	r3, r5, r3
	strh	r3, [r4, #2]	@ movhi
	.loc 2 242 0
	add	r3, r4, r2, asl #1
	ldrh	r3, [r3, #4]
	.loc 2 245 0
	add	r5, r0, #1
	.loc 2 242 0
	and	r8, r3, #2016
	bic	r3, r3, #2016
	rsb	r3, r3, r3, asl #4
	mov	r3, r3, asr #4
	rsb	r8, r8, r8, asl #4
	.loc 2 243 0
	add	fp, r9, r1, asl #2
	.loc 2 244 0
	add	r6, lr, #1
	.loc 2 242 0
	bic	r0, r3, #2016
.LVL333:
	mov	r8, r8, asr #4
	.loc 2 247 0
	add	r3, r1, #1
	str	r3, [sp, #4]
	.loc 2 246 0
	add	r2, ip, #1
	.loc 2 244 0
	smull	r3, lr, r10, r6
.LVL334:
	.loc 2 243 0
	ldr	ip, [fp, #1020]
.LVL335:
	.loc 2 242 0
	and	r8, r8, #2016
	orr	r8, r8, r0
	.loc 2 246 0
	smull	r3, r1, r10, r2
.LVL336:
	.loc 2 245 0
	smull	r3, r0, r10, r5
	.loc 2 247 0
	ldr	r3, [sp, #4]
	.loc 2 243 0
	add	ip, r4, ip, asl #1
	.loc 2 242 0
	strh	r8, [r4, #4]	@ movhi
	.loc 2 243 0
	ldrh	fp, [ip, #6]
	.loc 2 247 0
	smull	ip, r3, r10, r3
	.loc 2 244 0
	mov	ip, r6, asr #31
	rsb	lr, ip, lr, asr #4
	.loc 2 245 0
	mov	ip, r5, asr #31
	rsb	r0, ip, r0, asr #4
	.loc 2 246 0
	mov	ip, r2, asr #31
	rsb	ip, ip, r1, asr #4
	.loc 2 247 0
	ldr	r1, [sp, #4]
	.loc 2 243 0
	and	r8, fp, #2016
	.loc 2 247 0
	mov	r1, r1, asr #31
	rsb	r1, r1, r3, asr #4
	.loc 2 243 0
	bic	fp, fp, #2016
	.loc 2 238 0
	ldr	r3, [sp, #8]
	.loc 2 243 0
	rsb	r8, r8, r8, asl #4
	rsb	fp, fp, fp, asl #4
	.loc 2 238 0
	sub	r3, r3, #1
	.loc 2 243 0
	mov	r8, r8, asr #4
	mov	fp, fp, asr #4
	.loc 2 244 0
	mul	lr, r7, lr
	.loc 2 245 0
	mul	r0, r7, r0
	.loc 2 246 0
	mul	ip, r7, ip
	.loc 2 247 0
	mul	r1, r7, r1
	.loc 2 238 0
	str	r3, [sp, #8]
.LVL337:
	.loc 2 243 0
	and	r8, r8, #2016
	bic	fp, fp, #2016
	.loc 2 238 0
	cmn	r3, #1
	.loc 2 249 0
	ldr	r3, [sp, #12]
.LVL338:
	.loc 2 243 0
	orr	r8, r8, fp
	strh	r8, [r4, #6]	@ movhi
	.loc 2 249 0
	add	r4, r4, r3
.LVL339:
	.loc 2 247 0
	ldr	r3, [sp, #4]
	.loc 2 244 0
	rsb	lr, lr, r6
.LVL340:
	.loc 2 245 0
	rsb	r0, r0, r5
.LVL341:
	.loc 2 246 0
	rsb	ip, ip, r2
.LVL342:
	.loc 2 247 0
	rsb	r1, r1, r3
.LVL343:
	.loc 2 238 0
	bne	.L342
.LVL344:
.L340:
	.loc 2 283 0
	add	sp, sp, #20
	.cfi_def_cfa_offset 36
	@ sp needed
	ldmfd	sp!, {r4, r5, r6, r7, r8, r9, r10, fp, pc}
.LVL345:
.L347:
	.align	2
.L346:
	.word	.LANCHOR0
	.word	1374389535
	.word	.LANCHOR1
	.cfi_endproc
.LFE36:
	.size	R_FlushQuadFuzz16, .-R_FlushQuadFuzz16
	.align	2
	.type	R_FlushWhole32, %function
R_FlushWhole32:
.LFB37:
	.loc 2 100 0
	.cfi_startproc
	@ args = 0, pretend = 0, frame = 0
	@ frame_needed = 0, uses_anonymous_args = 0
	stmfd	sp!, {r4, r5, r6, r7, r8, r9, r10, fp, lr}
	.cfi_def_cfa_offset 36
	.cfi_offset 4, -36
	.cfi_offset 5, -32
	.cfi_offset 6, -28
	.cfi_offset 7, -24
	.cfi_offset 8, -20
	.cfi_offset 9, -16
	.cfi_offset 10, -12
	.cfi_offset 11, -8
	.cfi_offset 14, -4
	ldr	r10, .L357
	.loc 2 109 0
	ldr	lr, .L357+4
	ldr	fp, [r10]
	add	r6, r10, #16
	.loc 2 105 0
	mov	r4, fp
	mov	r3, fp, asl #2
	add	r5, r10, #32
	.loc 2 109 0
	ldr	r9, [r10, #12]
	ldr	r8, [lr, #20]
	.loc 2 108 0
	ldr	r7, .L357+8
	add	r6, r6, r3
	add	r5, r5, r3
.L349:
	.loc 2 105 0
	subs	r4, r4, #1
	bmi	.L356
.L353:
	.loc 2 107 0
	ldr	r3, [r6, #-4]!
.LVL346:
	.loc 2 109 0
	ldr	r2, [lr, #32]
	add	r1, r9, r4
	mla	r2, r2, r3, r1
	.loc 2 110 0
	ldr	r0, [r5, #-4]!
	.loc 2 108 0
	add	ip, r4, r3, asl #2
	.loc 2 112 0
	subs	r0, r0, r3
	.loc 2 109 0
	add	r2, r8, r2, asl #2
	.loc 2 108 0
	add	ip, r7, ip, asl #2
.LVL347:
	.loc 2 112 0
	bmi	.L349
	mov	r3, #0
.LVL348:
	add	r0, r0, #1
.LVL349:
.L351:
	.loc 2 124 0
	ldr	r1, [ip, r3, asl #4]
	add	r3, r3, #1
.LVL350:
	str	r1, [r2]
.LVL351:
	.loc 2 128 0
	ldr	r1, [lr, #32]
	.loc 2 112 0
	cmp	r3, r0
	.loc 2 128 0
	add	r2, r2, r1, asl #2
.LVL352:
	.loc 2 112 0
	bne	.L351
	.loc 2 105 0
	subs	r4, r4, #1
	bpl	.L353
.LVL353:
.L356:
	sub	r3, fp, #1
	cmp	fp, #0
	movlt	fp, r3
	rsbge	fp, fp, r3
	str	fp, [r10]
	ldmfd	sp!, {r4, r5, r6, r7, r8, r9, r10, fp, pc}
.L358:
	.align	2
.L357:
	.word	.LANCHOR0
	.word	.LANCHOR1
	.word	.LANCHOR0+3140
	.cfi_endproc
.LFE37:
	.size	R_FlushWhole32, .-R_FlushWhole32
	.align	2
	.type	R_FlushHT32, %function
R_FlushHT32:
.LFB38:
	.loc 2 141 0
	.cfi_startproc
	@ args = 0, pretend = 0, frame = 8
	@ frame_needed = 0, uses_anonymous_args = 0
.LVL354:
	.loc 2 156 0
	ldr	r1, .L374
	.loc 2 141 0
	stmfd	sp!, {r4, r5, r6, r7, r8, r9, r10, fp, lr}
	.cfi_def_cfa_offset 36
	.cfi_offset 4, -36
	.cfi_offset 5, -32
	.cfi_offset 6, -28
	.cfi_offset 7, -24
	.cfi_offset 8, -20
	.cfi_offset 9, -16
	.cfi_offset 10, -12
	.cfi_offset 11, -8
	.cfi_offset 14, -4
	.loc 2 156 0
	ldr	r10, [r1, #20]
	.loc 2 144 0
	mov	r5, #0
	mov	ip, r10
	ldr	r3, .L374+4
	ldr	r4, .L374+8
	ldr	r7, [r3, #8]
	.loc 2 141 0
	sub	sp, sp, #12
	.cfi_def_cfa_offset 48
	.loc 2 183 0
	add	r2, r7, #1
	ldr	r8, [r3, #4]
	.loc 2 156 0
	ldr	fp, [r3, #12]
	.loc 2 183 0
	str	r2, [sp, #4]
	add	r4, r4, r2, asl #4
	add	r9, r3, #16
	add	r0, r3, #32
.LVL355:
.L365:
	.loc 2 149 0
	ldr	lr, [r9, r5, asl #2]
.LVL356:
	.loc 2 150 0
	ldr	r6, [r0, r5, asl #2]
.LVL357:
	.loc 2 153 0
	cmp	lr, r8
	bge	.L363
	.loc 2 156 0
	ldr	r2, [r1, #32]
	add	r3, r5, fp
	mla	r2, r2, lr, r3
	.loc 2 157 0
	rsb	r10, lr, r8
	.loc 2 155 0
	ldr	r3, .L374+8
	add	lr, r5, lr, asl #2
.LVL358:
	.loc 2 159 0
	cmp	r10, #0
	.loc 2 156 0
	add	r2, ip, r2, asl #2
	.loc 2 155 0
	add	lr, r3, lr, asl #2
.LVL359:
	.loc 2 159 0
	ble	.L363
	mov	r3, #0
	str	ip, [sp]
.LVL360:
.L364:
	.loc 2 172 0
	ldr	ip, [lr, r3, asl #4]
	add	r3, r3, #1
	str	ip, [r2]
	.loc 2 176 0
	ldr	ip, [r1, #32]
	.loc 2 159 0
	cmp	r3, r10
	.loc 2 176 0
	add	r2, r2, ip, asl #2
.LVL361:
	.loc 2 159 0
	bne	.L364
	ldr	ip, [sp]
.LVL362:
.L363:
	.loc 2 181 0
	cmp	r6, r7
	ble	.L362
.LVL363:
	.loc 2 184 0
	ldr	r2, [r1, #32]
	ldr	r3, [sp, #4]
	.loc 2 185 0
	rsb	r6, r7, r6
.LVL364:
	.loc 2 184 0
	mla	r2, r2, r3, fp
	.loc 2 187 0
	cmp	r6, #0
	.loc 2 184 0
	add	r2, r5, r2
	add	r2, ip, r2, asl #2
.LVL365:
	.loc 2 187 0
	ble	.L362
	mov	r3, #0
.LVL366:
.L367:
	.loc 2 200 0
	ldr	lr, [r4, r3, asl #4]
	add	r3, r3, #1
.LVL367:
	str	lr, [r2]
.LVL368:
	.loc 2 204 0
	ldr	lr, [r1, #32]
	.loc 2 187 0
	cmp	r3, r6
	.loc 2 204 0
	add	r2, r2, lr, asl #2
.LVL369:
	.loc 2 187 0
	bne	.L367
.LVL370:
.L362:
	.loc 2 207 0
	add	r5, r5, #1
.LVL371:
	.loc 2 147 0
	cmp	r5, #4
	add	r4, r4, #4
	bne	.L365
	.loc 2 209 0
	add	sp, sp, #12
	.cfi_def_cfa_offset 36
	@ sp needed
	ldmfd	sp!, {r4, r5, r6, r7, r8, r9, r10, fp, pc}
.LVL372:
.L375:
	.align	2
.L374:
	.word	.LANCHOR1
	.word	.LANCHOR0
	.word	.LANCHOR0+3140
	.cfi_endproc
.LFE38:
	.size	R_FlushHT32, .-R_FlushHT32
	.align	2
	.type	R_FlushQuad32, %function
R_FlushQuad32:
.LFB39:
	.loc 2 212 0
	.cfi_startproc
	@ args = 0, pretend = 0, frame = 0
	@ frame_needed = 0, uses_anonymous_args = 0
	.loc 2 213 0
	ldr	r1, .L382
	.loc 2 214 0
	ldr	ip, .L382+4
	.loc 2 213 0
	ldr	r0, [r1, #4]
	.loc 2 214 0
	ldr	r2, [r1, #12]
	ldr	r3, [ip, #32]
	.loc 2 212 0
	str	lr, [sp, #-4]!
	.cfi_def_cfa_offset 4
	.cfi_offset 14, -4
	.loc 2 214 0
	mla	lr, r3, r0, r2
	.loc 2 225 0
	ldr	r1, [r1, #8]
	.loc 2 214 0
	ldr	r2, [ip, #20]
	.loc 2 213 0
	ldr	r3, .L382+8
	.loc 2 272 0
	subs	r1, r1, r0
	.loc 2 214 0
	add	r2, r2, lr, asl #2
	.loc 2 213 0
	add	r3, r3, r0, asl #4
.LVL373:
	.loc 2 272 0
	ldrmi	pc, [sp], #4
	add	r3, r3, #16
.LVL374:
.L378:
	.loc 2 274 0
	ldr	r0, [r3, #-16]
	.loc 2 272 0
	sub	r1, r1, #1
.LVL375:
	.loc 2 274 0
	str	r0, [r2]
	.loc 2 275 0
	ldr	r0, [r3, #-12]
	.loc 2 272 0
	cmn	r1, #1
	.loc 2 275 0
	str	r0, [r2, #4]
	.loc 2 276 0
	ldr	r0, [r3, #-8]
	add	r3, r3, #16
.LVL376:
	str	r0, [r2, #8]
	.loc 2 277 0
	ldr	r0, [r3, #-20]
	str	r0, [r2, #12]
.LVL377:
	.loc 2 279 0
	ldr	r0, [ip, #32]
	add	r2, r2, r0, asl #2
.LVL378:
	.loc 2 272 0
	bne	.L378
	ldr	pc, [sp], #4
.L383:
	.align	2
.L382:
	.word	.LANCHOR0
	.word	.LANCHOR1
	.word	.LANCHOR0+3140
	.cfi_endproc
.LFE39:
	.size	R_FlushQuad32, .-R_FlushQuad32
	.align	2
	.type	R_FlushWholeTL32, %function
R_FlushWholeTL32:
.LFB40:
	.loc 2 100 0
	.cfi_startproc
	@ args = 0, pretend = 0, frame = 8
	@ frame_needed = 0, uses_anonymous_args = 0
	stmfd	sp!, {r4, r5, r6, r7, r8, r9, r10, fp, lr}
	.cfi_def_cfa_offset 36
	.cfi_offset 4, -36
	.cfi_offset 5, -32
	.cfi_offset 6, -28
	.cfi_offset 7, -24
	.cfi_offset 8, -20
	.cfi_offset 9, -16
	.cfi_offset 10, -12
	.cfi_offset 11, -8
	.cfi_offset 14, -4
	ldr	r3, .L393
	ldr	r2, .L393
	ldr	r3, [r3]
	sub	sp, sp, #12
	.cfi_def_cfa_offset 48
	.loc 2 109 0
	ldr	r6, .L393+4
	mov	r7, r3
	str	r3, [sp, #4]
	add	r9, r2, #16
	mov	r3, r3, asl #2
	add	r8, r2, #32
	add	r9, r9, r3
	add	r8, r8, r3
	ldr	r3, [r6, #20]
	ldr	r10, [r2, #12]
	str	r3, [sp]
.L385:
	.loc 2 105 0
	subs	r7, r7, #1
	bmi	.L392
.L389:
	.loc 2 107 0
	ldr	r3, [r9, #-4]!
.LVL379:
	.loc 2 109 0
	ldr	r2, [r6, #32]
	add	r1, r10, r7
	mla	r1, r2, r3, r1
	.loc 2 110 0
	ldr	ip, [r8, #-4]!
	.loc 2 108 0
	add	lr, r7, r3, asl #2
	.loc 2 112 0
	subs	ip, ip, r3
	.loc 2 109 0
	ldr	r3, [sp]
.LVL380:
	add	r1, r3, r1, asl #2
	.loc 2 108 0
	ldr	r3, .L393+8
	add	lr, r3, lr, asl #2
.LVL381:
	.loc 2 112 0
	bmi	.L385
	mov	r0, #0
	add	ip, ip, #1
.LVL382:
.L387:
	.loc 2 115 0
	ldr	r2, [lr, r0, asl #4]
	ldr	r3, [r1]
	bic	r5, r2, #-16777216
	bic	r5, r5, #65280
	bic	r4, r3, #-16777216
	and	fp, r2, #65280
	bic	r4, r4, #65280
	add	r2, r5, r5, asl #2
	add	r5, r5, r2, asl #1
	add	r4, r4, r4, asl #2
	and	r3, r3, #65280
	add	r2, fp, fp, asl #2
	add	r2, fp, r2, asl #1
	add	r4, r5, r4
	add	r3, r3, r3, asl #2
	add	r3, r2, r3
	mov	r4, r4, lsr #4
	bic	r2, r4, #-16777216
	mov	r3, r3, lsr #4
	bic	r2, r2, #65280
	and	r3, r3, #65280
	orr	r3, r3, r2
	str	r3, [r1]
.LVL383:
	add	r0, r0, #1
.LVL384:
	.loc 2 128 0
	ldr	r3, [r6, #32]
	.loc 2 112 0
	cmp	r0, ip
	.loc 2 128 0
	add	r1, r1, r3, asl #2
.LVL385:
	.loc 2 112 0
	bne	.L387
	.loc 2 105 0
	subs	r7, r7, #1
	bpl	.L389
.LVL386:
.L392:
	ldr	r2, [sp, #4]
	sub	r3, r2, #1
	cmp	r2, #0
	rsbge	r3, r2, r3
	ldr	r2, .L393
	str	r3, [r2]
	.loc 2 131 0
	add	sp, sp, #12
	.cfi_def_cfa_offset 36
	@ sp needed
	ldmfd	sp!, {r4, r5, r6, r7, r8, r9, r10, fp, pc}
.L394:
	.align	2
.L393:
	.word	.LANCHOR0
	.word	.LANCHOR1
	.word	.LANCHOR0+3140
	.cfi_endproc
.LFE40:
	.size	R_FlushWholeTL32, .-R_FlushWholeTL32
	.align	2
	.type	R_FlushHTTL32, %function
R_FlushHTTL32:
.LFB41:
	.loc 2 141 0
	.cfi_startproc
	@ args = 0, pretend = 0, frame = 24
	@ frame_needed = 0, uses_anonymous_args = 0
.LVL387:
	stmfd	sp!, {r4, r5, r6, r7, r8, r9, r10, fp, lr}
	.cfi_def_cfa_offset 36
	.cfi_offset 4, -36
	.cfi_offset 5, -32
	.cfi_offset 6, -28
	.cfi_offset 7, -24
	.cfi_offset 8, -20
	.cfi_offset 9, -16
	.cfi_offset 10, -12
	.cfi_offset 11, -8
	.cfi_offset 14, -4
	.loc 2 144 0
	mov	r8, #0
	ldr	r3, .L410
	.loc 2 156 0
	ldr	r4, .L410+4
	ldr	r1, [r3, #12]
	.loc 2 141 0
	sub	sp, sp, #28
	.cfi_def_cfa_offset 64
	ldr	r7, .L410+8
	.loc 2 156 0
	str	r1, [sp, #12]
	ldr	r1, [r4, #20]
	ldmib	r3, {r2, r10}
	add	r3, r3, #32
	str	r2, [sp, #4]
	.loc 2 183 0
	add	r2, r10, #1
	str	r2, [sp, #20]
	.loc 2 156 0
	str	r1, [sp, #8]
	add	r7, r7, r2, asl #4
	str	r3, [sp, #16]
.LVL388:
.L401:
	.loc 2 149 0
	ldr	r3, .L410+12
	ldr	r5, [r3, r8, asl #2]
.LVL389:
	.loc 2 150 0
	ldr	r3, [sp, #16]
	ldr	r6, [r3, r8, asl #2]
.LVL390:
	.loc 2 153 0
	ldr	r3, [sp, #4]
	cmp	r5, r3
	bge	.L399
	ldr	r2, [sp, #12]
	.loc 2 156 0
	ldr	r3, [r4, #32]
	add	ip, r2, r8
	mla	ip, r3, r5, ip
	.loc 2 157 0
	ldr	r3, [sp, #4]
	rsb	r9, r5, r3
	.loc 2 156 0
	ldr	r3, [sp, #8]
	.loc 2 155 0
	add	r5, r8, r5, asl #2
.LVL391:
	.loc 2 156 0
	add	ip, r3, ip, asl #2
	.loc 2 155 0
	ldr	r3, .L410+8
	.loc 2 159 0
	cmp	r9, #0
	.loc 2 155 0
	add	r5, r3, r5, asl #2
.LVL392:
	.loc 2 159 0
	ble	.L399
	mov	lr, #0
.LVL393:
.L400:
	.loc 2 163 0
	ldr	r2, [r5, lr, asl #4]
	ldr	r3, [ip]
	bic	r0, r2, #-16777216
	bic	r0, r0, #65280
	bic	r1, r3, #-16777216
	and	fp, r2, #65280
	bic	r1, r1, #65280
	add	r2, r0, r0, asl #2
	add	r0, r0, r2, asl #1
	add	r1, r1, r1, asl #2
	and	r3, r3, #65280
	add	r2, fp, fp, asl #2
	add	r2, fp, r2, asl #1
	add	r1, r0, r1
	add	r3, r3, r3, asl #2
	add	r3, r2, r3
	mov	r1, r1, lsr #4
	bic	r2, r1, #-16777216
	mov	r3, r3, lsr #4
	bic	r2, r2, #65280
	and	r3, r3, #65280
	orr	r3, r3, r2
	str	r3, [ip]
.LVL394:
	add	lr, lr, #1
.LVL395:
	.loc 2 176 0
	ldr	r3, [r4, #32]
	.loc 2 159 0
	cmp	lr, r9
	.loc 2 176 0
	add	ip, ip, r3, asl #2
.LVL396:
	.loc 2 159 0
	bne	.L400
.LVL397:
.L399:
	.loc 2 181 0
	cmp	r6, r10
	ble	.L398
.LVL398:
	.loc 2 184 0
	ldr	r3, [sp, #20]
	ldr	ip, [r4, #32]
	ldr	r2, [sp, #12]
	.loc 2 185 0
	rsb	r6, r10, r6
.LVL399:
	.loc 2 184 0
	mla	ip, ip, r3, r2
	ldr	r3, [sp, #8]
	add	ip, ip, r8
	.loc 2 187 0
	cmp	r6, #0
	.loc 2 184 0
	add	ip, r3, ip, asl #2
.LVL400:
	.loc 2 187 0
	ble	.L398
	mov	lr, #0
.LVL401:
.L403:
	.loc 2 191 0
	ldr	r1, [r7, lr, asl #4]
	ldr	r0, [ip]
	bic	r3, r1, #-16777216
	bic	r3, r3, #65280
	bic	r5, r0, #-16777216
	and	r1, r1, #65280
	add	r2, r3, r3, asl #2
	bic	r5, r5, #65280
	add	r3, r3, r2, asl #1
	and	r0, r0, #65280
	add	r2, r5, r5, asl #2
	add	r5, r1, r1, asl #2
	add	r2, r3, r2
	add	r0, r0, r0, asl #2
	add	r1, r1, r5, asl #1
	mov	r2, r2, lsr #4
	add	r3, r1, r0
	bic	r2, r2, #-16777216
	mov	r3, r3, lsr #4
	bic	r2, r2, #65280
	and	r3, r3, #65280
	orr	r3, r3, r2
	str	r3, [ip]
.LVL402:
	add	lr, lr, #1
.LVL403:
	.loc 2 204 0
	ldr	r3, [r4, #32]
	.loc 2 187 0
	cmp	lr, r6
	.loc 2 204 0
	add	ip, ip, r3, asl #2
.LVL404:
	.loc 2 187 0
	bne	.L403
.LVL405:
.L398:
	.loc 2 207 0
	add	r8, r8, #1
.LVL406:
	.loc 2 147 0
	cmp	r8, #4
	add	r7, r7, #4
	bne	.L401
	.loc 2 209 0
	add	sp, sp, #28
	.cfi_def_cfa_offset 36
	@ sp needed
	ldmfd	sp!, {r4, r5, r6, r7, r8, r9, r10, fp, pc}
.LVL407:
.L411:
	.align	2
.L410:
	.word	.LANCHOR0
	.word	.LANCHOR1
	.word	.LANCHOR0+3140
	.word	.LANCHOR0+16
	.cfi_endproc
.LFE41:
	.size	R_FlushHTTL32, .-R_FlushHTTL32
	.align	2
	.type	R_FlushQuadTL32, %function
R_FlushQuadTL32:
.LFB42:
	.loc 2 212 0
	.cfi_startproc
	@ args = 0, pretend = 0, frame = 0
	@ frame_needed = 0, uses_anonymous_args = 0
	.loc 2 213 0
	ldr	r0, .L418
	.loc 2 212 0
	stmfd	sp!, {r4, r5, r6, lr}
	.cfi_def_cfa_offset 16
	.cfi_offset 4, -16
	.cfi_offset 5, -12
	.cfi_offset 6, -8
	.cfi_offset 14, -4
	.loc 2 214 0
	ldr	lr, .L418+4
	.loc 2 213 0
	ldr	r3, [r0, #4]
	.loc 2 214 0
	ldr	r1, [r0, #12]
	ldr	r2, [lr, #32]
	.loc 2 225 0
	ldr	ip, [r0, #8]
	.loc 2 214 0
	mla	r2, r2, r3, r1
	.loc 2 213 0
	ldr	r0, .L418+8
	.loc 2 214 0
	ldr	r1, [lr, #20]
	.loc 2 228 0
	subs	ip, ip, r3
	.loc 2 214 0
	add	r1, r1, r2, asl #2
	.loc 2 213 0
	add	r0, r0, r3, asl #4
.LVL408:
	.loc 2 228 0
	ldmmifd	sp!, {r4, r5, r6, pc}
	add	r0, r0, #16
.LVL409:
.L414:
	.loc 2 230 0
	ldr	r4, [r0, #-16]
	ldr	r5, [r1]
	bic	r3, r4, #-16777216
	bic	r3, r3, #65280
	bic	r6, r5, #-16777216
	and	r4, r4, #65280
	add	r2, r3, r3, asl #2
	bic	r6, r6, #65280
	add	r3, r3, r2, asl #1
	and	r5, r5, #65280
	add	r2, r6, r6, asl #2
	add	r6, r4, r4, asl #2
	add	r4, r4, r6, asl #1
	add	r2, r3, r2
	add	r5, r5, r5, asl #2
	add	r3, r4, r5
	mov	r2, r2, lsr #4
	bic	r2, r2, #-16777216
	mov	r3, r3, lsr #4
	bic	r2, r2, #65280
	and	r3, r3, #65280
	orr	r3, r3, r2
	str	r3, [r1]
	.loc 2 231 0
	ldr	r4, [r0, #-12]
	ldr	r5, [r1, #4]
	bic	r3, r4, #-16777216
	bic	r3, r3, #65280
	bic	r6, r5, #-16777216
	and	r4, r4, #65280
	add	r2, r3, r3, asl #2
	bic	r6, r6, #65280
	add	r3, r3, r2, asl #1
	and	r5, r5, #65280
	add	r2, r6, r6, asl #2
	add	r6, r4, r4, asl #2
	add	r4, r4, r6, asl #1
	add	r2, r3, r2
	add	r5, r5, r5, asl #2
	add	r3, r4, r5
	mov	r2, r2, lsr #4
	bic	r2, r2, #-16777216
	mov	r3, r3, lsr #4
	bic	r2, r2, #65280
	and	r3, r3, #65280
	orr	r3, r3, r2
	str	r3, [r1, #4]
	.loc 2 232 0
	ldr	r4, [r0, #-8]
	ldr	r5, [r1, #8]
	bic	r3, r4, #-16777216
	bic	r3, r3, #65280
	bic	r6, r5, #-16777216
	and	r4, r4, #65280
	add	r2, r3, r3, asl #2
	bic	r6, r6, #65280
	add	r3, r3, r2, asl #1
	and	r5, r5, #65280
	add	r2, r6, r6, asl #2
	add	r6, r4, r4, asl #2
	add	r4, r4, r6, asl #1
	add	r2, r3, r2
	add	r5, r5, r5, asl #2
	add	r3, r4, r5
	mov	r2, r2, lsr #4
	bic	r2, r2, #-16777216
	mov	r3, r3, lsr #4
	bic	r2, r2, #65280
	and	r3, r3, #65280
	orr	r3, r3, r2
	str	r3, [r1, #8]
	.loc 2 233 0
	ldr	r4, [r0, #-4]
	ldr	r5, [r1, #12]
	bic	r3, r4, #-16777216
	bic	r3, r3, #65280
	bic	r6, r5, #-16777216
	and	r4, r4, #65280
	add	r2, r3, r3, asl #2
	bic	r6, r6, #65280
	add	r3, r3, r2, asl #1
	and	r5, r5, #65280
	add	r2, r6, r6, asl #2
	add	r6, r4, r4, asl #2
	add	r2, r3, r2
	add	r5, r5, r5, asl #2
	add	r4, r4, r6, asl #1
	mov	r2, r2, lsr #4
	add	r3, r4, r5
	bic	r2, r2, #-16777216
	mov	r3, r3, lsr #4
	bic	r2, r2, #65280
	and	r3, r3, #65280
	orr	r3, r3, r2
	str	r3, [r1, #12]
.LVL410:
	.loc 2 228 0
	sub	ip, ip, #1
.LVL411:
	.loc 2 235 0
	ldr	r3, [lr, #32]
	.loc 2 228 0
	cmn	ip, #1
	add	r0, r0, #16
.LVL412:
	.loc 2 235 0
	add	r1, r1, r3, asl #2
.LVL413:
	.loc 2 228 0
	bne	.L414
	ldmfd	sp!, {r4, r5, r6, pc}
.L419:
	.align	2
.L418:
	.word	.LANCHOR0
	.word	.LANCHOR1
	.word	.LANCHOR0+3140
	.cfi_endproc
.LFE42:
	.size	R_FlushQuadTL32, .-R_FlushQuadTL32
	.align	2
	.type	R_FlushWholeFuzz32, %function
R_FlushWholeFuzz32:
.LFB43:
	.loc 2 100 0
	.cfi_startproc
	@ args = 0, pretend = 0, frame = 0
	@ frame_needed = 0, uses_anonymous_args = 0
	stmfd	sp!, {r4, r5, r6, r7, r8, r9, r10, fp, lr}
	.cfi_def_cfa_offset 36
	.cfi_offset 4, -36
	.cfi_offset 5, -32
	.cfi_offset 6, -28
	.cfi_offset 7, -24
	.cfi_offset 8, -20
	.cfi_offset 9, -16
	.cfi_offset 10, -12
	.cfi_offset 11, -8
	.cfi_offset 14, -4
	ldr	r4, .L430
	.loc 2 109 0
	ldr	lr, .L430+4
	ldr	r10, [r4]
	add	r7, r4, #16
	.loc 2 105 0
	mov	r5, r10
	mov	r3, r10, asl #2
	add	r6, r4, #32
	.loc 2 109 0
	ldr	r9, [r4, #12]
	ldr	r0, [r4, #1016]
	ldr	r8, [lr, #20]
	add	r7, r7, r3
	add	r6, r6, r3
.L421:
	.loc 2 105 0
	subs	r5, r5, #1
	bmi	.L429
.L426:
	.loc 2 107 0
	ldr	ip, [r7, #-4]!
.LVL414:
	.loc 2 109 0
	ldr	r3, [lr, #32]
	add	r1, r9, r5
	mla	r1, r3, ip, r1
	.loc 2 110 0
	ldr	r3, [r6, #-4]!
	.loc 2 109 0
	add	r1, r8, r1, asl #2
.LVL415:
	.loc 2 112 0
	subs	ip, r3, ip
.LVL416:
	bmi	.L421
.LVL417:
.L424:
	.loc 2 118 0
	add	r3, r4, r0, asl #2
	ldr	r3, [r3, #1020]
	.loc 2 122 0
	cmp	r0, #49
	.loc 2 118 0
	ldr	r2, [r1, r3, asl #2]
	.loc 2 112 0
	sub	ip, ip, #1
.LVL418:
	.loc 2 118 0
	bic	r3, r2, #-16777216
	bic	r3, r3, #65280
	rsb	r3, r3, r3, asl #4
	and	r2, r2, #65280
	rsb	r2, r2, r2, asl #4
	mov	r3, r3, lsr #4
	bic	r3, r3, #-16777216
	mov	fp, r2, lsr #4
	bic	r2, r3, #65280
	and	r3, fp, #65280
	orr	r3, r3, r2
	str	r3, [r1]
	.loc 2 128 0
	ldr	r3, [lr, #32]
	.loc 2 122 0
	addne	r0, r0, #1
	moveq	r0, #0
	.loc 2 112 0
	cmn	ip, #1
	.loc 2 128 0
	add	r1, r1, r3, asl #2
.LVL419:
	.loc 2 112 0
	bne	.L424
	.loc 2 105 0
	subs	r5, r5, #1
	bpl	.L426
.LVL420:
.L429:
	sub	r3, r10, #1
	cmp	r10, #0
	movlt	r10, r3
	rsbge	r10, r10, r3
	str	r0, [r4, #1016]
	str	r10, [r4]
	ldmfd	sp!, {r4, r5, r6, r7, r8, r9, r10, fp, pc}
.L431:
	.align	2
.L430:
	.word	.LANCHOR0
	.word	.LANCHOR1
	.cfi_endproc
.LFE43:
	.size	R_FlushWholeFuzz32, .-R_FlushWholeFuzz32
	.align	2
	.type	R_FlushHTFuzz32, %function
R_FlushHTFuzz32:
.LFB44:
	.loc 2 141 0
	.cfi_startproc
	@ args = 0, pretend = 0, frame = 8
	@ frame_needed = 0, uses_anonymous_args = 0
.LVL421:
	stmfd	sp!, {r4, r5, r6, r7, r8, r9, r10, fp, lr}
	.cfi_def_cfa_offset 36
	.cfi_offset 4, -36
	.cfi_offset 5, -32
	.cfi_offset 6, -28
	.cfi_offset 7, -24
	.cfi_offset 8, -20
	.cfi_offset 9, -16
	.cfi_offset 10, -12
	.cfi_offset 11, -8
	.cfi_offset 14, -4
	.loc 2 144 0
	mov	r6, #0
	ldr	r4, .L449
	.loc 2 156 0
	ldr	r5, .L449+4
	ldr	r7, [r4, #8]
	.loc 2 141 0
	sub	sp, sp, #12
	.cfi_def_cfa_offset 48
	.loc 2 183 0
	add	r3, r7, #1
	ldr	r8, [r4, #4]
	.loc 2 156 0
	ldr	fp, [r4, #12]
	ldr	r1, [r4, #1016]
	ldr	r10, [r5, #20]
	.loc 2 183 0
	str	r3, [sp, #4]
	add	r9, r4, #16
.LVL422:
.L439:
	.loc 2 149 0
	ldr	ip, [r9, r6, asl #2]
.LVL423:
	.loc 2 150 0
	ldr	r3, .L449+8
	.loc 2 153 0
	cmp	ip, r8
	.loc 2 150 0
	ldr	lr, [r3, r6, asl #2]
.LVL424:
	.loc 2 153 0
	bge	.L436
.LVL425:
	.loc 2 156 0
	ldr	r0, [r5, #32]
	add	r3, r6, fp
	mla	r0, r0, ip, r3
	.loc 2 157 0
	rsb	ip, ip, r8
.LVL426:
	.loc 2 159 0
	subs	ip, ip, #1
	.loc 2 156 0
	add	r0, r10, r0, asl #2
.LVL427:
	.loc 2 159 0
	bmi	.L436
.LVL428:
.L438:
	.loc 2 166 0
	add	r3, r4, r1, asl #2
	ldr	r3, [r3, #1020]
	.loc 2 170 0
	cmp	r1, #49
	.loc 2 166 0
	ldr	r2, [r0, r3, asl #2]
	.loc 2 159 0
	sub	ip, ip, #1
.LVL429:
	.loc 2 166 0
	bic	r3, r2, #-16777216
	bic	r3, r3, #65280
	rsb	r3, r3, r3, asl #4
	and	r2, r2, #65280
	mov	r3, r3, lsr #4
	rsb	r2, r2, r2, asl #4
	bic	r3, r3, #-16777216
	mov	r2, r2, lsr #4
	bic	r3, r3, #65280
	and	r2, r2, #65280
	orr	r3, r2, r3
	str	r3, [r0]
	.loc 2 176 0
	ldr	r3, [r5, #32]
	.loc 2 170 0
	addne	r1, r1, #1
	moveq	r1, #0
	.loc 2 159 0
	cmn	ip, #1
	.loc 2 176 0
	add	r0, r0, r3, asl #2
.LVL430:
	.loc 2 159 0
	bne	.L438
.LVL431:
.L436:
	.loc 2 181 0
	cmp	lr, r7
	ble	.L435
.LVL432:
	.loc 2 184 0
	ldr	r2, [r5, #32]
	ldr	r3, [sp, #4]
	.loc 2 185 0
	rsb	lr, r7, lr
.LVL433:
	.loc 2 184 0
	mla	r2, r2, r3, fp
	.loc 2 187 0
	subs	lr, lr, #1
	.loc 2 184 0
	add	r2, r6, r2
	add	r2, r10, r2, asl #2
.LVL434:
	.loc 2 187 0
	bmi	.L435
.LVL435:
.L442:
	.loc 2 194 0
	add	r3, r4, r1, asl #2
	ldr	r3, [r3, #1020]
	.loc 2 198 0
	cmp	r1, #49
	.loc 2 194 0
	ldr	r0, [r2, r3, asl #2]
	.loc 2 187 0
	sub	lr, lr, #1
.LVL436:
	.loc 2 194 0
	bic	r3, r0, #-16777216
	bic	r3, r3, #65280
	rsb	r3, r3, r3, asl #4
	and	r0, r0, #65280
	rsb	r0, r0, r0, asl #4
	mov	r3, r3, lsr #4
	bic	r3, r3, #-16777216
	mov	ip, r0, lsr #4
	bic	r0, r3, #65280
	and	r3, ip, #65280
	orr	r3, r3, r0
	str	r3, [r2]
	.loc 2 204 0
	ldr	r3, [r5, #32]
	.loc 2 198 0
	addne	r1, r1, #1
	moveq	r1, #0
	.loc 2 187 0
	cmn	lr, #1
	.loc 2 204 0
	add	r2, r2, r3, asl #2
.LVL437:
	.loc 2 187 0
	bne	.L442
.LVL438:
.L435:
	.loc 2 207 0
	add	r6, r6, #1
.LVL439:
	.loc 2 147 0
	cmp	r6, #4
	bne	.L439
	str	r1, [r4, #1016]
	.loc 2 209 0
	add	sp, sp, #12
	.cfi_def_cfa_offset 36
	@ sp needed
	ldmfd	sp!, {r4, r5, r6, r7, r8, r9, r10, fp, pc}
.LVL440:
.L450:
	.align	2
.L449:
	.word	.LANCHOR0
	.word	.LANCHOR1
	.word	.LANCHOR0+32
	.cfi_endproc
.LFE44:
	.size	R_FlushHTFuzz32, .-R_FlushHTFuzz32
	.align	2
	.type	R_FlushQuadFuzz32, %function
R_FlushQuadFuzz32:
.LFB45:
	.loc 2 212 0
	.cfi_startproc
	@ args = 0, pretend = 0, frame = 8
	@ frame_needed = 0, uses_anonymous_args = 0
	stmfd	sp!, {r4, r5, r6, r7, r8, r9, r10, fp, lr}
	.cfi_def_cfa_offset 36
	.cfi_offset 4, -36
	.cfi_offset 5, -32
	.cfi_offset 6, -28
	.cfi_offset 7, -24
	.cfi_offset 8, -20
	.cfi_offset 9, -16
	.cfi_offset 10, -12
	.cfi_offset 11, -8
	.cfi_offset 14, -4
	.loc 2 220 0
	mov	r9, #50
	.loc 2 213 0
	ldr	lr, .L457
	.loc 2 220 0
	ldr	r4, .L457+4
	.loc 2 219 0
	ldr	r0, [lr, #1016]
	.loc 2 220 0
	ldr	r1, [lr, #20]
	.loc 2 221 0
	ldr	r3, [lr, #24]
	.loc 2 220 0
	add	r1, r0, r1
	smull	r2, ip, r4, r1
	mov	r2, r1, asr #31
	rsb	r2, r2, ip, asr #4
	mul	r2, r9, r2
	rsb	r2, r2, r1
	.loc 2 221 0
	add	r3, r2, r3
	smull	r1, ip, r4, r3
	mov	r1, r3, asr #31
	rsb	r1, r1, ip, asr #4
	mul	r1, r9, r1
	.loc 2 222 0
	ldr	r5, [lr, #28]
	.loc 2 221 0
	rsb	r1, r1, r3
	.loc 2 222 0
	add	r5, r1, r5
	smull	r3, r8, r4, r5
	.loc 2 214 0
	ldr	r7, .L457+8
	.loc 2 213 0
	ldr	r6, [lr, #4]
.LVL441:
	.loc 2 214 0
	ldr	r7, [r7, #32]
	.loc 2 222 0
	mov	r3, r5, asr #31
	.loc 2 214 0
	ldr	ip, [lr, #12]
	.loc 2 222 0
	rsb	r3, r3, r8, asr #4
	.loc 2 214 0
	mla	ip, r7, r6, ip
	.loc 2 222 0
	mul	r3, r9, r3
	.loc 2 214 0
	ldr	r8, .L457+8
	.loc 2 225 0
	ldr	r7, [lr, #8]
	.loc 2 214 0
	ldr	r8, [r8, #20]
	.loc 2 238 0
	subs	r6, r7, r6
.LVL442:
	.loc 2 212 0
	sub	sp, sp, #12
	.cfi_def_cfa_offset 48
	.loc 2 222 0
	rsb	r3, r3, r5
	.loc 2 214 0
	add	ip, r8, ip, asl #2
.LVL443:
	.loc 2 238 0
	bmi	.L451
	.loc 2 244 0
	str	r6, [sp]
.LVL444:
.L453:
	.loc 2 240 0
	add	r5, lr, r0, asl #2
	ldr	r6, [r5, #1020]
	.loc 2 241 0
	add	r5, lr, r2, asl #2
	.loc 2 240 0
	ldr	r6, [ip, r6, asl #2]
	.loc 2 241 0
	ldr	r7, [r5, #1020]
	.loc 2 240 0
	bic	r5, r6, #-16777216
	bic	r5, r5, #65280
	rsb	r5, r5, r5, asl #4
	and	r6, r6, #65280
	rsb	r6, r6, r6, asl #4
	mov	r5, r5, lsr #4
	mov	r8, r6, lsr #4
	bic	r5, r5, #-16777216
	bic	r6, r5, #65280
	and	r5, r8, #65280
	orr	r5, r5, r6
	str	r5, [ip]
	.loc 2 241 0
	add	r7, r7, #1
	ldr	r6, [ip, r7, asl #2]
	.loc 2 242 0
	add	r7, lr, r1, asl #2
	.loc 2 241 0
	bic	r5, r6, #-16777216
	bic	r5, r5, #65280
	rsb	r5, r5, r5, asl #4
	and	r6, r6, #65280
	rsb	r6, r6, r6, asl #4
	mov	r5, r5, lsr #4
	mov	r8, r6, lsr #4
	bic	r5, r5, #-16777216
	bic	r6, r5, #65280
	.loc 2 242 0
	ldr	r7, [r7, #1020]
	.loc 2 241 0
	and	r5, r8, #65280
	orr	r5, r5, r6
	str	r5, [ip, #4]
	.loc 2 242 0
	add	r5, r7, #2
	ldr	r6, [ip, r5, asl #2]
	.loc 2 243 0
	add	r7, lr, r3, asl #2
	.loc 2 242 0
	bic	r5, r6, #-16777216
	bic	r5, r5, #65280
	rsb	r5, r5, r5, asl #4
	and	r6, r6, #65280
	rsb	r6, r6, r6, asl #4
	mov	r5, r5, lsr #4
	mov	r8, r6, lsr #4
	bic	r5, r5, #-16777216
	bic	r6, r5, #65280
	.loc 2 243 0
	ldr	r7, [r7, #1020]
	.loc 2 242 0
	and	r5, r8, #65280
	orr	r5, r5, r6
	str	r5, [ip, #8]
	.loc 2 243 0
	add	r5, r7, #3
	ldr	fp, [ip, r5, asl #2]
	.loc 2 244 0
	add	r7, r0, #1
	.loc 2 245 0
	add	r6, r2, #1
	.loc 2 246 0
	add	r5, r1, #1
	.loc 2 244 0
	smull	r2, r1, r4, r7
.LVL445:
	.loc 2 245 0
	smull	r0, r2, r4, r6
.LVL446:
	.loc 2 246 0
	smull	r10, r0, r4, r5
	.loc 2 247 0
	add	r8, r3, #1
	.loc 2 243 0
	bic	r3, fp, #-16777216
.LVL447:
	bic	r3, r3, #65280
	rsb	r3, r3, r3, asl #4
	and	fp, fp, #65280
	.loc 2 246 0
	str	r0, [sp, #4]
	.loc 2 243 0
	rsb	fp, fp, fp, asl #4
	mov	r0, r3, lsr #4
	bic	r0, r0, #-16777216
	mov	fp, fp, lsr #4
	bic	r0, r0, #65280
	and	fp, fp, #65280
	orr	fp, fp, r0
	.loc 2 247 0
	smull	r10, r3, r4, r8
	.loc 2 244 0
	mov	r0, r7, asr #31
	.loc 2 243 0
	str	fp, [ip, #12]
	.loc 2 244 0
	rsb	r0, r0, r1, asr #4
	.loc 2 246 0
	ldr	fp, [sp, #4]
	.loc 2 245 0
	mov	r1, r6, asr #31
	rsb	r2, r1, r2, asr #4
	.loc 2 246 0
	mov	r1, r5, asr #31
	rsb	r1, r1, fp, asr #4
	.loc 2 247 0
	mov	fp, r8, asr #31
	rsb	r3, fp, r3, asr #4
	.loc 2 238 0
	ldr	r10, [sp]
	.loc 2 244 0
	mul	r0, r9, r0
	.loc 2 245 0
	mul	r2, r9, r2
	.loc 2 246 0
	mul	r1, r9, r1
	.loc 2 247 0
	mul	r3, r9, r3
	.loc 2 249 0
	ldr	fp, .L457+8
	.loc 2 238 0
	sub	r10, r10, #1
	.loc 2 249 0
	ldr	fp, [fp, #32]
	.loc 2 238 0
	cmn	r10, #1
	str	r10, [sp]
.LVL448:
	.loc 2 249 0
	add	ip, ip, fp, asl #2
.LVL449:
	.loc 2 244 0
	rsb	r0, r0, r7
.LVL450:
	.loc 2 245 0
	rsb	r2, r2, r6
.LVL451:
	.loc 2 246 0
	rsb	r1, r1, r5
.LVL452:
	.loc 2 247 0
	rsb	r3, r3, r8
.LVL453:
	.loc 2 238 0
	bne	.L453
.LVL454:
.L451:
	.loc 2 283 0
	add	sp, sp, #12
	.cfi_def_cfa_offset 36
	@ sp needed
	ldmfd	sp!, {r4, r5, r6, r7, r8, r9, r10, fp, pc}
.L458:
	.align	2
.L457:
	.word	.LANCHOR0
	.word	1374389535
	.word	.LANCHOR1
	.cfi_endproc
.LFE45:
	.size	R_FlushQuadFuzz32, .-R_FlushQuadFuzz32
	.global	__aeabi_idiv
	.align	2
	.type	R_DrawColumn8_PointUV, %function
R_DrawColumn8_PointUV:
.LFB46:
	.file 3 "c:/devl/prboom3ds/src/r_drawcolumn.inl"
	.loc 3 113 0
	.cfi_startproc
	@ args = 0, pretend = 0, frame = 0
	@ frame_needed = 0, uses_anonymous_args = 0
.LVL455:
	stmfd	sp!, {r3, r4, r5, r6, r7, r8, r9, r10, fp, lr}
	.cfi_def_cfa_offset 40
	.cfi_offset 3, -40
	.cfi_offset 4, -36
	.cfi_offset 5, -32
	.cfi_offset 6, -28
	.cfi_offset 7, -24
	.cfi_offset 8, -20
	.cfi_offset 9, -16
	.cfi_offset 10, -12
	.cfi_offset 11, -8
	.cfi_offset 14, -4
	.loc 3 149 0
	ldmib	r0, {r8, r9}
	.loc 3 157 0
	subs	r7, r9, r8
	.loc 3 117 0
	ldr	r6, [r0, #16]
.LVL456:
	.loc 3 121 0
	ldr	r10, [r0, #28]
.LVL457:
	.loc 3 157 0
	ldmmifd	sp!, {r3, r4, r5, r6, r7, r8, r9, r10, fp, pc}
	.loc 3 171 0
	ldr	r3, .L532
	.loc 3 174 0
	ldr	r2, [r0, #60]
	.loc 3 171 0
	ldr	r3, [r3]
	ldr	r4, [r0, #20]
	rsb	r3, r3, r8
	.loc 3 174 0
	cmp	r2, #0
	mov	r5, r0
	.loc 3 171 0
	mla	r4, r6, r3, r4
.LVL458:
	.loc 3 174 0
	bne	.L527
.LVL459:
.L462:
	.loc 3 215 0
	ldr	r8, .L532+4
	ldr	r3, [r8]
	cmp	r3, #4
	beq	.L468
	.loc 3 215 0 is_stmt 0 discriminator 1
	cmp	r3, #0
	bne	.L528
.L469:
	.loc 3 224 0 is_stmt 1
	mov	fp, #1
	.loc 3 223 0
	ldr	r1, [r5, #8]
	.loc 3 222 0
	ldr	r2, [r5, #4]
	.loc 3 221 0
	ldr	r10, [r5]
.LVL460:
	.loc 3 223 0
	str	r1, [r8, #8]
	str	r1, [r8, #32]
	mov	r1, #0
	.loc 3 224 0
	ldr	r0, .L532+8
	.loc 3 230 0
	ldr	r3, .L532+12
	.loc 3 233 0
	ldr	r9, .L532+16
	.loc 3 230 0
	ldr	lr, .L532+20
	.loc 3 231 0
	ldr	ip, .L532+24
	.loc 3 224 0
	str	fp, [r0, #-1204]
	.loc 3 232 0
	ldr	r0, .L532+28
	.loc 3 222 0
	str	r2, [r8, #4]
	str	r2, [r8, #16]
	.loc 3 221 0
	str	r10, [r8, #12]
	.loc 3 233 0
	add	r2, r9, r2, asl #2
.LVL461:
	.loc 3 230 0
	str	lr, [r3]
	.loc 3 231 0
	str	ip, [r3, #4]
	.loc 3 232 0
	str	r0, [r3, #8]
.L471:
.LBB84:
	.loc 3 286 0
	ldr	r3, [r5, #24]
.LBE84:
	.loc 3 245 0
	add	r1, r1, #1
.LBB91:
	.loc 3 286 0
	cmp	r3, #128
.LBE91:
	.loc 3 245 0
	str	r1, [r8]
.LBB92:
	.loc 3 251 0
	ldr	r0, [r5, #32]
.LVL462:
	.loc 3 286 0
	beq	.L529
	.loc 3 294 0
	cmp	r3, #0
	bne	.L475
.LVL463:
	add	r7, r7, #1
.LVL464:
.L476:
	.loc 3 297 0
	ldrb	r1, [r0, r4, asr #16]	@ zero_extendqisi2
	.loc 3 300 0
	add	r4, r4, r6
.LVL465:
	.loc 3 297 0
	strb	r1, [r2, r3, asl #2]
.LVL466:
	add	r3, r3, #1
.LVL467:
	.loc 3 296 0
	cmp	r3, r7
	bne	.L476
	ldmfd	sp!, {r3, r4, r5, r6, r7, r8, r9, r10, fp, pc}
.LVL468:
.L527:
.LBE92:
	.loc 3 174 0 discriminator 1
	ldr	r3, [r0, #64]
	cmp	r3, #1
	bne	.L462
	.loc 3 178 0
	cmp	r8, #0
	beq	.L463
	.loc 3 179 0
	ldr	r3, [r0, #56]
	tst	r3, #1
.LBB93:
	.loc 3 181 0
	mvnne	fp, r10
	uxthne	fp, fp
.LBE93:
	.loc 3 179 0
	bne	.L522
	.loc 3 186 0
	tst	r3, #2
	beq	.L463
.LBB94:
	.loc 3 188 0
	uxth	fp, r10
.L522:
	mov	r0, fp
.LVL469:
	mov	r1, r6
	bl	__aeabi_idiv
.LVL470:
	.loc 3 189 0
	add	r8, r8, r0
	.loc 3 191 0
	add	r4, r4, fp
.LVL471:
	.loc 3 189 0
	str	r8, [r5, #4]
.LVL472:
	.loc 3 190 0
	rsb	r7, r0, r7
.LVL473:
.L463:
.LBE94:
	.loc 3 194 0
	ldr	r3, .L532+32
	ldr	r3, [r3]
	sub	r3, r3, #1
	cmp	r9, r3
	beq	.L465
	.loc 3 195 0
	ldr	r3, [r5, #56]
	tst	r3, #4
	bne	.L530
	.loc 3 201 0
	tst	r3, #8
	beq	.L465
.LBB95:
	.loc 3 203 0
	uxth	r0, r10
	mov	r1, r6
	bl	__aeabi_idiv
.LVL474:
	.loc 3 204 0
	rsb	r9, r0, r9
	str	r9, [r5, #8]
.LVL475:
	.loc 3 205 0
	rsb	r7, r0, r7
.LVL476:
.L465:
.LBE95:
	.loc 3 208 0
	cmp	r7, #0
	bgt	.L462
	ldmfd	sp!, {r3, r4, r5, r6, r7, r8, r9, r10, fp, pc}
.L528:
	.loc 3 216 0
	ldr	r2, .L532+8
	ldr	r2, [r2, #-1204]
	cmp	r2, #1
	beq	.L531
.L468:
	.loc 3 217 0
	bl	R_FlushColumns
.LVL477:
	.loc 3 219 0
	ldr	r3, [r8]
	cmp	r3, #0
	beq	.L469
.L470:
	.loc 3 235 0
	ldr	r2, [r5, #4]
	.loc 3 238 0
	ldr	r0, [r8, #4]
	.loc 3 236 0
	ldr	r1, [r5, #8]
	.loc 3 238 0
	cmp	r2, r0
	.loc 3 235 0
	add	r0, r8, r3, asl #2
	str	r2, [r0, #16]
	.loc 3 236 0
	str	r1, [r0, #32]
	.loc 3 235 0
	ldr	r0, .L532+4
	.loc 3 240 0
	ldr	ip, .L532+4
	.loc 3 239 0
	strgt	r2, [r0, #4]
	.loc 3 240 0
	ldr	r0, [r8, #8]
	.loc 3 243 0
	add	r3, r3, r2, asl #2
	.loc 3 240 0
	cmp	r1, r0
	.loc 3 241 0
	strlt	r1, [ip, #8]
	.loc 3 243 0
	ldr	r1, .L532+16
	add	r2, r1, r3
.LVL478:
	ldr	r1, [r8]
	b	.L471
.LVL479:
.L475:
.LBB96:
.LBB85:
	.loc 3 303 0
	sub	r1, r3, #1
.LVL480:
	.loc 3 304 0
	tst	r1, r3
	bne	.L477
.LBB86:
	.loc 3 305 0
	mov	lr, r1, asl #16
	mvn	lr, lr, lsr #16
	.loc 3 306 0
	sub	r9, r7, #1
	cmn	r9, #1
	.loc 3 305 0
	mvn	lr, lr, asl #16
.LVL481:
	.loc 3 306 0
	mov	r5, r9
.LVL482:
	beq	.L489
	mov	r1, r4
.LVL483:
	add	r3, r2, #8
.LVL484:
	mov	r8, r6, asl #1
.LVL485:
.L479:
	.loc 3 307 0
	and	ip, r1, lr
	ldrb	r10, [r0, ip, asr #16]	@ zero_extendqisi2
	add	ip, r6, r1
	strb	r10, [r3, #-8]
.LVL486:
	.loc 3 311 0
	and	ip, ip, lr
.LVL487:
	ldrb	ip, [r0, ip, asr #16]	@ zero_extendqisi2
	.loc 3 306 0
	subs	r5, r5, #2
.LVL488:
	.loc 3 311 0
	strb	ip, [r3, #-4]
.LVL489:
	add	r1, r8, r1
.LVL490:
	add	r3, r3, #8
.LVL491:
	.loc 3 306 0
	bpl	.L479
	mov	r9, r9, lsr #1
	add	r4, r4, r6, asl #1
	add	r3, r9, #1
.LVL492:
	.loc 3 316 0
	tst	r7, #1
	mla	r4, r9, r8, r4
	add	r2, r2, r3, asl #3
	ldmnefd	sp!, {r3, r4, r5, r6, r7, r8, r9, r10, fp, pc}
.LVL493:
.L489:
	.loc 3 317 0
	and	r4, r4, lr
	ldrb	r3, [r0, r4, asr #16]	@ zero_extendqisi2
	strb	r3, [r2]
	ldmfd	sp!, {r3, r4, r5, r6, r7, r8, r9, r10, fp, pc}
.LVL494:
.L529:
.LBE86:
.LBE85:
	.loc 3 286 0
	mov	r3, #0
	add	r7, r7, #1
.LVL495:
.L474:
	.loc 3 289 0
	bic	r1, r4, #-16777216
	bic	r1, r1, #8388608
	ldrb	r1, [r0, r1, asr #16]	@ zero_extendqisi2
	.loc 3 292 0
	add	r4, r4, r6
.LVL496:
	.loc 3 289 0
	strb	r1, [r2, r3, asl #2]
.LVL497:
	add	r3, r3, #1
.LVL498:
	.loc 3 288 0
	cmp	r3, r7
	bne	.L474
	ldmfd	sp!, {r3, r4, r5, r6, r7, r8, r9, r10, fp, pc}
.LVL499:
.L477:
.LBB90:
.LBB87:
	.loc 3 325 0
	cmp	r4, #0
	.loc 3 323 0
	mov	r3, r3, asl #16
.LVL500:
	.loc 3 325 0
	bge	.L524
	b	.L483
.L485:
	rsb	r4, r3, r4
.LVL501:
.L524:
	.loc 3 328 0
	cmp	r4, r3
	bge	.L485
.L482:
.LBE87:
.LBB88:
	.loc 3 306 0
	mov	r1, #0
	add	r7, r7, #1
.LVL502:
.L484:
.LBE88:
.LBB89:
	.loc 3 345 0
	ldrb	ip, [r0, r4, asr #16]	@ zero_extendqisi2
	.loc 3 348 0
	add	r4, r4, r6
.LVL503:
	cmp	r4, r3
	.loc 3 345 0
	strb	ip, [r2, r1, asl #2]
.LVL504:
	add	r1, r1, #1
.LVL505:
	.loc 3 348 0
	rsbge	r4, r3, r4
.LVL506:
	.loc 3 339 0
	cmp	r7, r1
	bne	.L484
	ldmfd	sp!, {r3, r4, r5, r6, r7, r8, r9, r10, fp, pc}
.LVL507:
.L483:
	.loc 3 326 0 discriminator 1
	adds	r4, r3, r4
.LVL508:
	bpl	.L482
.LVL509:
	.loc 3 326 0 is_stmt 0
	adds	r4, r3, r4
.LVL510:
	bmi	.L483
	b	.L482
.LVL511:
.L531:
.LBE89:
.LBE90:
.LBE96:
	.loc 3 216 0 is_stmt 1 discriminator 1
	ldr	r2, [r8, #12]
	ldr	r1, [r5]
	add	r2, r3, r2
	cmp	r2, r1
	bne	.L468
	b	.L470
.L530:
.LBB97:
	.loc 3 197 0
	mvn	r0, r10
	mov	r1, r6
	uxth	r0, r0
	bl	__aeabi_idiv
.LVL512:
	.loc 3 198 0
	rsb	r9, r0, r9
	str	r9, [r5, #8]
.LVL513:
	.loc 3 199 0
	rsb	r7, r0, r7
.LVL514:
.LBE97:
	b	.L465
.L533:
	.align	2
.L532:
	.word	centery
	.word	.LANCHOR0
	.word	.LANCHOR2
	.word	.LANCHOR1
	.word	.LANCHOR0+48
	.word	R_FlushWhole8
	.word	R_FlushHT8
	.word	R_FlushQuad8
	.word	viewheight
	.cfi_endproc
.LFE46:
	.size	R_DrawColumn8_PointUV, .-R_DrawColumn8_PointUV
	.align	2
	.type	R_DrawColumn8_PointUV_PointZ, %function
R_DrawColumn8_PointUV_PointZ:
.LFB47:
	.loc 3 113 0
	.cfi_startproc
	@ args = 0, pretend = 0, frame = 0
	@ frame_needed = 0, uses_anonymous_args = 0
.LVL515:
	stmfd	sp!, {r3, r4, r5, r6, r7, r8, r9, r10, fp, lr}
	.cfi_def_cfa_offset 40
	.cfi_offset 3, -40
	.cfi_offset 4, -36
	.cfi_offset 5, -32
	.cfi_offset 6, -28
	.cfi_offset 7, -24
	.cfi_offset 8, -20
	.cfi_offset 9, -16
	.cfi_offset 10, -12
	.cfi_offset 11, -8
	.cfi_offset 14, -4
	.loc 3 149 0
	ldmib	r0, {r8, r9}
	.loc 3 157 0
	subs	r7, r9, r8
	.loc 3 117 0
	ldr	r6, [r0, #16]
.LVL516:
	.loc 3 121 0
	ldr	r10, [r0, #28]
.LVL517:
	.loc 3 157 0
	ldmmifd	sp!, {r3, r4, r5, r6, r7, r8, r9, r10, fp, pc}
	.loc 3 171 0
	ldr	r3, .L607
	.loc 3 174 0
	ldr	r2, [r0, #60]
	.loc 3 171 0
	ldr	r3, [r3]
	ldr	r4, [r0, #20]
	rsb	r3, r3, r8
	.loc 3 174 0
	cmp	r2, #0
	mov	r5, r0
	.loc 3 171 0
	mla	r4, r6, r3, r4
.LVL518:
	.loc 3 174 0
	bne	.L602
.LVL519:
.L537:
	.loc 3 215 0
	ldr	r8, .L607+4
	ldr	r3, [r8]
	cmp	r3, #4
	beq	.L543
	.loc 3 215 0 is_stmt 0 discriminator 1
	cmp	r3, #0
	bne	.L603
.L544:
	.loc 3 224 0 is_stmt 1
	mov	fp, #1
	.loc 3 222 0
	ldr	r2, [r5, #4]
	.loc 3 233 0
	ldr	r1, .L607+8
	.loc 3 221 0
	ldr	r10, [r5]
.LVL520:
	.loc 3 223 0
	ldr	r0, [r5, #8]
	.loc 3 222 0
	str	r2, [r8, #4]
	str	r2, [r8, #16]
	.loc 3 233 0
	add	r1, r1, r2, asl #2
.LVL521:
	mov	r2, #0
	.loc 3 224 0
	ldr	ip, .L607+12
	.loc 3 230 0
	ldr	r3, .L607+16
	ldr	r9, .L607+20
	.loc 3 231 0
	ldr	lr, .L607+24
	.loc 3 224 0
	str	fp, [ip, #-1204]
	.loc 3 231 0
	stmia	r3, {r9, lr}
	.loc 3 232 0
	ldr	ip, .L607+28
	.loc 3 221 0
	str	r10, [r8, #12]
	.loc 3 223 0
	str	r0, [r8, #8]
	str	r0, [r8, #32]
	.loc 3 232 0
	str	ip, [r3, #8]
.L546:
.LBB98:
	.loc 3 286 0
	ldr	r3, [r5, #24]
.LBE98:
	.loc 3 245 0
	add	r2, r2, #1
.LBB105:
	.loc 3 286 0
	cmp	r3, #128
.LBE105:
	.loc 3 245 0
	str	r2, [r8]
.LBB106:
	.loc 3 251 0
	ldr	r0, [r5, #32]
.LVL522:
	.loc 3 252 0
	ldr	r2, [r5, #44]
.LVL523:
	.loc 3 286 0
	beq	.L604
	.loc 3 294 0
	cmp	r3, #0
	bne	.L550
.LVL524:
	add	r7, r7, #1
.LVL525:
.L551:
	.loc 3 297 0
	ldrb	ip, [r0, r4, asr #16]	@ zero_extendqisi2
	.loc 3 300 0
	add	r4, r4, r6
.LVL526:
	.loc 3 297 0
	ldrb	ip, [r2, ip]	@ zero_extendqisi2
	strb	ip, [r1, r3, asl #2]
.LVL527:
	add	r3, r3, #1
.LVL528:
	.loc 3 296 0
	cmp	r3, r7
	bne	.L551
	ldmfd	sp!, {r3, r4, r5, r6, r7, r8, r9, r10, fp, pc}
.LVL529:
.L602:
.LBE106:
	.loc 3 174 0 discriminator 1
	ldr	r3, [r0, #64]
	cmp	r3, #1
	bne	.L537
	.loc 3 178 0
	cmp	r8, #0
	beq	.L538
	.loc 3 179 0
	ldr	r3, [r0, #56]
	tst	r3, #1
.LBB107:
	.loc 3 181 0
	mvnne	fp, r10
	uxthne	fp, fp
.LBE107:
	.loc 3 179 0
	bne	.L597
	.loc 3 186 0
	tst	r3, #2
	beq	.L538
.LBB108:
	.loc 3 188 0
	uxth	fp, r10
.L597:
	mov	r0, fp
.LVL530:
	mov	r1, r6
	bl	__aeabi_idiv
.LVL531:
	.loc 3 189 0
	add	r8, r8, r0
	.loc 3 191 0
	add	r4, r4, fp
.LVL532:
	.loc 3 189 0
	str	r8, [r5, #4]
.LVL533:
	.loc 3 190 0
	rsb	r7, r0, r7
.LVL534:
.L538:
.LBE108:
	.loc 3 194 0
	ldr	r3, .L607+32
	ldr	r3, [r3]
	sub	r3, r3, #1
	cmp	r9, r3
	beq	.L540
	.loc 3 195 0
	ldr	r3, [r5, #56]
	tst	r3, #4
	bne	.L605
	.loc 3 201 0
	tst	r3, #8
	beq	.L540
.LBB109:
	.loc 3 203 0
	uxth	r0, r10
	mov	r1, r6
	bl	__aeabi_idiv
.LVL535:
	.loc 3 204 0
	rsb	r9, r0, r9
	str	r9, [r5, #8]
.LVL536:
	.loc 3 205 0
	rsb	r7, r0, r7
.LVL537:
.L540:
.LBE109:
	.loc 3 208 0
	cmp	r7, #0
	bgt	.L537
	ldmfd	sp!, {r3, r4, r5, r6, r7, r8, r9, r10, fp, pc}
.L603:
	.loc 3 216 0
	ldr	r2, .L607+12
	ldr	r2, [r2, #-1204]
	cmp	r2, #1
	beq	.L606
.L543:
	.loc 3 217 0
	bl	R_FlushColumns
.LVL538:
	.loc 3 219 0
	ldr	r3, [r8]
	cmp	r3, #0
	beq	.L544
.L545:
	.loc 3 235 0
	ldr	r1, [r5, #4]
	.loc 3 238 0
	ldr	r0, [r8, #4]
	.loc 3 236 0
	ldr	r2, [r5, #8]
	.loc 3 238 0
	cmp	r1, r0
	.loc 3 235 0
	add	r0, r8, r3, asl #2
	str	r1, [r0, #16]
	.loc 3 236 0
	str	r2, [r0, #32]
	.loc 3 235 0
	ldr	r0, .L607+4
	.loc 3 240 0
	ldr	ip, .L607+4
	.loc 3 239 0
	strgt	r1, [r0, #4]
	.loc 3 240 0
	ldr	r0, [r8, #8]
	.loc 3 243 0
	add	r3, r3, r1, asl #2
	.loc 3 240 0
	cmp	r2, r0
	.loc 3 241 0
	strlt	r2, [ip, #8]
	.loc 3 243 0
	ldr	r2, .L607+8
	add	r1, r2, r3
.LVL539:
	ldr	r2, [r8]
	b	.L546
.LVL540:
.L550:
.LBB110:
.LBB99:
	.loc 3 303 0
	sub	ip, r3, #1
.LVL541:
	.loc 3 304 0
	tst	ip, r3
	bne	.L552
.LBB100:
	.loc 3 305 0
	mov	r5, ip, asl #16
.LVL542:
	mvn	r5, r5, lsr #16
	.loc 3 306 0
	sub	r10, r7, #1
	cmn	r10, #1
	.loc 3 305 0
	mvn	r5, r5, asl #16
.LVL543:
	.loc 3 306 0
	mov	r8, r10
.LVL544:
	beq	.L564
	mov	ip, r4
.LVL545:
	add	r3, r1, #8
.LVL546:
	mov	r9, r6, asl #1
.LVL547:
.L554:
	.loc 3 307 0
	and	lr, ip, r5
	ldrb	lr, [r0, lr, asr #16]	@ zero_extendqisi2
	.loc 3 306 0
	subs	r8, r8, #2
.LVL548:
	.loc 3 307 0
	ldrb	fp, [r2, lr]	@ zero_extendqisi2
	add	lr, r6, ip
	strb	fp, [r3, #-8]
.LVL549:
	.loc 3 311 0
	and	lr, lr, r5
.LVL550:
	ldrb	lr, [r0, lr, asr #16]	@ zero_extendqisi2
	add	ip, r9, ip
.LVL551:
	ldrb	lr, [r2, lr]	@ zero_extendqisi2
	add	r3, r3, #8
.LVL552:
	strb	lr, [r3, #-12]
.LVL553:
	.loc 3 306 0
	bpl	.L554
	mov	r10, r10, lsr #1
	add	r4, r4, r6, asl #1
	add	r3, r10, #1
	.loc 3 316 0
	tst	r7, #1
	mla	r4, r10, r9, r4
	add	r1, r1, r3, asl #3
	ldmnefd	sp!, {r3, r4, r5, r6, r7, r8, r9, r10, fp, pc}
.LVL554:
.L564:
	.loc 3 317 0
	and	r4, r4, r5
	ldrb	r3, [r0, r4, asr #16]	@ zero_extendqisi2
	ldrb	r3, [r2, r3]	@ zero_extendqisi2
	strb	r3, [r1]
	ldmfd	sp!, {r3, r4, r5, r6, r7, r8, r9, r10, fp, pc}
.LVL555:
.L604:
.LBE100:
.LBE99:
	.loc 3 286 0
	mov	r3, #0
	add	r7, r7, #1
.LVL556:
.L549:
	.loc 3 289 0
	bic	ip, r4, #-16777216
	bic	ip, ip, #8388608
	ldrb	ip, [r0, ip, asr #16]	@ zero_extendqisi2
	.loc 3 292 0
	add	r4, r4, r6
.LVL557:
	.loc 3 289 0
	ldrb	ip, [r2, ip]	@ zero_extendqisi2
	strb	ip, [r1, r3, asl #2]
.LVL558:
	add	r3, r3, #1
.LVL559:
	.loc 3 288 0
	cmp	r3, r7
	bne	.L549
	ldmfd	sp!, {r3, r4, r5, r6, r7, r8, r9, r10, fp, pc}
.LVL560:
.L552:
.LBB104:
.LBB101:
	.loc 3 325 0
	cmp	r4, #0
	.loc 3 323 0
	mov	r3, r3, asl #16
.LVL561:
	.loc 3 325 0
	bge	.L599
	b	.L558
.L560:
	rsb	r4, r3, r4
.LVL562:
.L599:
	.loc 3 328 0
	cmp	r4, r3
	bge	.L560
.L557:
.LBE101:
.LBB102:
	.loc 3 306 0
	mov	ip, #0
	add	r7, r7, #1
.LVL563:
.L559:
.LBE102:
.LBB103:
	.loc 3 345 0
	ldrb	lr, [r0, r4, asr #16]	@ zero_extendqisi2
	.loc 3 348 0
	add	r4, r4, r6
.LVL564:
	.loc 3 345 0
	ldrb	lr, [r2, lr]	@ zero_extendqisi2
	.loc 3 348 0
	cmp	r4, r3
	.loc 3 345 0
	strb	lr, [r1, ip, asl #2]
.LVL565:
	add	ip, ip, #1
.LVL566:
	.loc 3 348 0
	rsbge	r4, r3, r4
.LVL567:
	.loc 3 339 0
	cmp	r7, ip
	bne	.L559
	ldmfd	sp!, {r3, r4, r5, r6, r7, r8, r9, r10, fp, pc}
.LVL568:
.L558:
	.loc 3 326 0 discriminator 1
	adds	r4, r3, r4
.LVL569:
	bpl	.L557
.LVL570:
	.loc 3 326 0 is_stmt 0
	adds	r4, r3, r4
.LVL571:
	bmi	.L558
	b	.L557
.LVL572:
.L606:
.LBE103:
.LBE104:
.LBE110:
	.loc 3 216 0 is_stmt 1 discriminator 1
	ldr	r2, [r8, #12]
	ldr	r1, [r5]
	add	r2, r3, r2
	cmp	r2, r1
	bne	.L543
	b	.L545
.L605:
.LBB111:
	.loc 3 197 0
	mvn	r0, r10
	mov	r1, r6
	uxth	r0, r0
	bl	__aeabi_idiv
.LVL573:
	.loc 3 198 0
	rsb	r9, r0, r9
	str	r9, [r5, #8]
.LVL574:
	.loc 3 199 0
	rsb	r7, r0, r7
.LVL575:
.LBE111:
	b	.L540
.L608:
	.align	2
.L607:
	.word	centery
	.word	.LANCHOR0
	.word	.LANCHOR0+48
	.word	.LANCHOR2
	.word	.LANCHOR1
	.word	R_FlushWhole8
	.word	R_FlushHT8
	.word	R_FlushQuad8
	.word	viewheight
	.cfi_endproc
.LFE47:
	.size	R_DrawColumn8_PointUV_PointZ, .-R_DrawColumn8_PointUV_PointZ
	.align	2
	.type	R_DrawColumn8_PointUV_LinearZ, %function
R_DrawColumn8_PointUV_LinearZ:
.LFB48:
	.loc 3 113 0
	.cfi_startproc
	@ args = 0, pretend = 0, frame = 40
	@ frame_needed = 0, uses_anonymous_args = 0
.LVL576:
	stmfd	sp!, {r4, r5, r6, r7, r8, r9, r10, fp, lr}
	.cfi_def_cfa_offset 36
	.cfi_offset 4, -36
	.cfi_offset 5, -32
	.cfi_offset 6, -28
	.cfi_offset 7, -24
	.cfi_offset 8, -20
	.cfi_offset 9, -16
	.cfi_offset 10, -12
	.cfi_offset 11, -8
	.cfi_offset 14, -4
	.loc 3 149 0
	ldmib	r0, {r6, r8}
	.loc 3 113 0
	sub	sp, sp, #44
	.cfi_def_cfa_offset 80
	.loc 3 157 0
	subs	r3, r8, r6
	.loc 3 117 0
	ldr	r5, [r0, #16]
.LVL577:
	.loc 3 157 0
	str	r3, [sp]
	.loc 3 121 0
	ldr	r9, [r0, #28]
.LVL578:
	.loc 3 157 0
	bmi	.L609
	.loc 3 171 0
	ldr	r3, .L687
.LVL579:
	.loc 3 174 0
	ldr	r2, [r0, #60]
	.loc 3 171 0
	ldr	r3, [r3]
	ldr	r4, [r0, #20]
	rsb	r3, r3, r6
	.loc 3 174 0
	cmp	r2, #0
	mov	r7, r0
	.loc 3 171 0
	mla	r4, r5, r3, r4
.LVL580:
	.loc 3 174 0
	bne	.L682
.LVL581:
.L612:
	.loc 3 215 0
	ldr	r8, .L687+4
	ldr	r2, [r8]
	cmp	r2, #4
	beq	.L618
	.loc 3 215 0 is_stmt 0 discriminator 1
	cmp	r2, #0
	bne	.L683
.L619:
	.loc 3 224 0 is_stmt 1
	mov	r10, #1
	.loc 3 230 0
	ldr	r2, .L687+8
	.loc 3 231 0
	ldr	ip, .L687+12
	.loc 3 224 0
	ldr	r0, .L687+16
	.loc 3 231 0
	str	ip, [r2, #4]
	mov	ip, #0
	.loc 3 222 0
	ldr	r3, [r7, #4]
	.loc 3 233 0
	ldr	r9, .L687+20
.LVL582:
	.loc 3 221 0
	ldr	r6, [r7]
	.loc 3 223 0
	ldr	r1, [r7, #8]
	.loc 3 230 0
	ldr	lr, .L687+24
	.loc 3 224 0
	str	r10, [r0, #-1204]
	.loc 3 232 0
	ldr	r0, .L687+28
	.loc 3 233 0
	add	r9, r9, r3, asl #2
	.loc 3 221 0
	str	r6, [r8, #12]
	.loc 3 222 0
	str	r3, [r8, #4]
	str	r3, [r8, #16]
	.loc 3 233 0
	str	r9, [sp, #4]
.LVL583:
	.loc 3 223 0
	str	r1, [r8, #8]
	str	r1, [r8, #32]
	.loc 3 230 0
	str	lr, [r2]
	.loc 3 232 0
	str	r0, [r2, #8]
.LVL584:
.L621:
.LBB112:
	.loc 3 259 0
	ldr	r2, [r7, #12]
	.loc 3 286 0
	ldr	lr, [r7, #24]
	.loc 3 260 0
	ldr	r0, [r7, #44]
	ldr	r1, [r7, #48]
.LBE112:
	.loc 3 245 0
	add	ip, ip, #1
.LBB119:
	.loc 3 259 0
	mov	r2, r2, asr #6
	.loc 3 286 0
	cmp	lr, #128
.LBE119:
	.loc 3 245 0
	str	ip, [r8]
.LBB120:
	.loc 3 259 0
	uxtb	r2, r2
	.loc 3 260 0
	str	r0, [sp, #32]
	str	r1, [sp, #36]
	.loc 3 251 0
	ldr	ip, [r7, #32]
.LVL585:
	.loc 3 286 0
	beq	.L684
	.loc 3 294 0
	cmp	lr, #0
	bne	.L629
.LVL586:
	ldr	r1, [sp]
	ldr	lr, [sp, #4]
	add	r7, r1, #1
.LVL587:
	ldr	r1, .L687+32
	and	r0, r6, #3
	add	r7, r7, r3
	sub	r6, lr, r3, asl #2
.LVL588:
.L630:
	.loc 3 297 0
	and	lr, r3, #3
	add	lr, r0, lr, asl #2
	ldrb	lr, [r1, lr]	@ zero_extendqisi2
	add	r9, sp, #40
	cmp	lr, r2
	movge	lr, #0
	movlt	lr, #1
	add	lr, r9, lr, asl #2
	ldrb	r8, [ip, r4, asr #16]	@ zero_extendqisi2
	ldr	lr, [lr, #-8]
	.loc 3 300 0
	add	r4, r4, r5
.LVL589:
	.loc 3 297 0
	ldrb	lr, [lr, r8]	@ zero_extendqisi2
	strb	lr, [r6, r3, asl #2]
	.loc 3 298 0
	add	r3, r3, #1
.LVL590:
	.loc 3 296 0
	cmp	r3, r7
	bne	.L630
.LVL591:
.L609:
.LBE120:
	.loc 3 357 0
	add	sp, sp, #44
	.cfi_remember_state
	.cfi_def_cfa_offset 36
	@ sp needed
	ldmfd	sp!, {r4, r5, r6, r7, r8, r9, r10, fp, pc}
.LVL592:
.L682:
	.cfi_restore_state
	.loc 3 174 0 discriminator 1
	ldr	r3, [r0, #64]
	cmp	r3, #1
	bne	.L612
	.loc 3 178 0
	cmp	r6, #0
	beq	.L613
	.loc 3 179 0
	ldr	r3, [r0, #56]
	tst	r3, #1
.LBB121:
	.loc 3 181 0
	mvnne	r10, r9
	uxthne	r10, r10
.LBE121:
	.loc 3 179 0
	bne	.L677
	.loc 3 186 0
	tst	r3, #2
	beq	.L613
.LBB122:
	.loc 3 188 0
	uxth	r10, r9
.L677:
	mov	r0, r10
.LVL593:
	mov	r1, r5
	bl	__aeabi_idiv
.LVL594:
	.loc 3 190 0
	ldr	r3, [sp]
	.loc 3 189 0
	add	r6, r6, r0
	.loc 3 190 0
	rsb	r3, r0, r3
	.loc 3 191 0
	add	r4, r4, r10
.LVL595:
	.loc 3 189 0
	str	r6, [r7, #4]
.LVL596:
	.loc 3 190 0
	str	r3, [sp]
.LVL597:
.L613:
.LBE122:
	.loc 3 194 0
	ldr	r3, .L687+36
	ldr	r3, [r3]
	sub	r3, r3, #1
	cmp	r8, r3
	beq	.L615
	.loc 3 195 0
	ldr	r3, [r7, #56]
	tst	r3, #4
	bne	.L685
	.loc 3 201 0
	tst	r3, #8
	beq	.L615
.LBB123:
	.loc 3 203 0
	mov	r1, r5
	uxth	r0, r9
.LVL598:
.L678:
	bl	__aeabi_idiv
.LVL599:
	.loc 3 205 0
	ldr	r3, [sp]
	.loc 3 204 0
	rsb	r8, r0, r8
	.loc 3 205 0
	rsb	r3, r0, r3
	.loc 3 204 0
	str	r8, [r7, #8]
.LVL600:
	.loc 3 205 0
	str	r3, [sp]
.LVL601:
.L615:
.LBE123:
	.loc 3 208 0
	ldr	r3, [sp]
	cmp	r3, #0
	bgt	.L612
	b	.L609
.L683:
	.loc 3 216 0
	ldr	r3, .L687+16
	ldr	r3, [r3, #-1204]
	cmp	r3, #1
	beq	.L686
.L618:
	.loc 3 217 0
	bl	R_FlushColumns
.LVL602:
	.loc 3 219 0
	ldr	r2, [r8]
	cmp	r2, #0
	beq	.L619
	ldr	r0, [r7]
.L620:
	.loc 3 235 0
	ldr	r1, [r7, #4]
	.loc 3 238 0
	ldr	ip, [r8, #4]
	.loc 3 236 0
	ldr	r3, [r7, #8]
	.loc 3 238 0
	cmp	r1, ip
	.loc 3 235 0
	add	ip, r8, r2, asl #2
	.loc 3 236 0
	str	r3, [ip, #32]
	.loc 3 235 0
	str	r1, [ip, #16]
	ldr	ip, .L687+4
	mov	r6, r0
	.loc 3 239 0
	strgt	r1, [ip, #4]
	.loc 3 243 0
	ldr	r0, .L687+20
	.loc 3 240 0
	ldr	ip, [r8, #8]
	ldr	lr, .L687+4
	.loc 3 243 0
	add	r2, r2, r1, asl #2
	.loc 3 240 0
	cmp	r3, ip
	.loc 3 243 0
	add	r2, r0, r2
	.loc 3 241 0
	strlt	r3, [lr, #8]
	ldr	ip, [r8]
	.loc 3 235 0
	mov	r3, r1
	.loc 3 243 0
	str	r2, [sp, #4]
.LVL603:
	b	.L621
.LVL604:
.L629:
.LBB124:
.LBB113:
	.loc 3 303 0
	sub	r1, lr, #1
.LVL605:
	.loc 3 304 0
	tst	r1, lr
	bne	.L631
.LBB114:
	.loc 3 305 0
	mov	r10, r1, asl #16
	mvn	r10, r10, lsr #16
	.loc 3 306 0
	ldr	r1, [sp]
.LVL606:
	.loc 3 305 0
	mvn	r10, r10, asl #16
.LVL607:
	.loc 3 306 0
	sub	r1, r1, #1
	cmn	r1, #1
	andeq	r0, r6, #3
	ldreq	r1, .L687+32
	beq	.L642
	mov	r1, r1, lsr #1
	str	r1, [sp, #12]
	mov	r1, r1, asl #1
	add	lr, r1, #2
.LVL608:
	add	lr, lr, r3
	and	r0, r6, #3
	mov	r6, lr
.LVL609:
	ldr	lr, [sp, #4]
	mov	r7, r3
.LVL610:
	add	r8, lr, #8
	mov	lr, r5, asl #1
	mov	r9, r4
	mov	fp, lr
	str	r1, [sp, #16]
	ldr	r1, .L687+32
	str	lr, [sp, #20]
	str	r4, [sp, #24]
	str	r3, [sp, #28]
	str	r6, [sp, #8]
.LVL611:
.L633:
	.loc 3 307 0
	and	r3, r7, #3
	add	r3, r0, r3, asl #2
	ldrb	lr, [r1, r3]	@ zero_extendqisi2
	add	r3, r7, #1
	cmp	lr, r2
	movge	lr, #0
	movlt	lr, #1
	.loc 3 311 0
	and	r3, r3, #3
	add	r3, r0, r3, asl #2
	ldrb	r3, [r1, r3]	@ zero_extendqisi2
	.loc 3 307 0
	add	r4, sp, #40
	.loc 3 311 0
	cmp	r3, r2
	movge	r3, #0
	movlt	r3, #1
	.loc 3 307 0
	add	lr, r4, lr, asl #2
	and	r4, r9, r10
	ldrb	r4, [ip, r4, asr #16]	@ zero_extendqisi2
	ldr	lr, [lr, #-8]
	.loc 3 311 0
	add	r6, sp, #40
	.loc 3 307 0
	ldrb	r4, [lr, r4]	@ zero_extendqisi2
	add	lr, r5, r9
	strb	r4, [r8, #-8]
.LVL612:
	.loc 3 311 0
	add	r3, r6, r3, asl #2
	and	lr, lr, r10
.LVL613:
	ldrb	lr, [ip, lr, asr #16]	@ zero_extendqisi2
	ldr	r3, [r3, #-8]
	.loc 3 312 0
	add	r7, r7, #2
.LVL614:
	.loc 3 311 0
	ldrb	r3, [r3, lr]	@ zero_extendqisi2
	.loc 3 306 0
	ldr	lr, [sp, #8]
	.loc 3 311 0
	strb	r3, [r8, #-4]
	.loc 3 306 0
	cmp	r7, lr
	add	r9, fp, r9
.LVL615:
	add	r8, r8, #8
.LVL616:
	bne	.L633
	.loc 3 316 0
	ldr	r6, [sp]
	ldr	r3, [sp, #28]
	ldr	r4, [sp, #24]
	tst	r6, #1
	ldr	r6, [sp, #16]
	add	r3, r3, #2
	add	r4, r4, r5, asl #1
	add	r3, r3, r6
	ldr	r5, [sp, #12]
.LVL617:
	ldr	r6, [sp, #20]
	add	lr, r5, #1
	mla	r4, r6, r5, r4
	ldr	r5, [sp, #4]
	add	lr, r5, lr, asl #3
	str	lr, [sp, #4]
	bne	.L609
.LVL618:
.L642:
	.loc 3 317 0
	and	r3, r3, #3
	add	r0, r0, r3, asl #2
	ldrb	r3, [r1, r0]	@ zero_extendqisi2
	and	r4, r4, r10
	cmp	r3, r2
	movge	r2, #0
.LVL619:
	movlt	r2, #1
	add	r3, sp, #40
	add	r2, r3, r2, asl #2
	ldr	r2, [r2, #-8]
	ldrb	r3, [ip, r4, asr #16]	@ zero_extendqisi2
	ldrb	r3, [r2, r3]	@ zero_extendqisi2
	ldr	r2, [sp, #4]
	strb	r3, [r2]
	b	.L609
.LVL620:
.L684:
	ldr	r1, [sp]
	ldr	lr, [sp, #4]
	add	r8, r1, #1
	ldr	r1, .L687+32
	and	r0, r6, #3
	add	r8, r8, r3
	sub	r6, lr, r3, asl #2
.LVL621:
.L627:
.LBE114:
.LBE113:
	.loc 3 289 0
	and	lr, r3, #3
	add	lr, r0, lr, asl #2
	ldrb	lr, [r1, lr]	@ zero_extendqisi2
	bic	r7, r4, #-16777216
	cmp	lr, r2
	movge	lr, #0
	movlt	lr, #1
	add	r9, sp, #40
	add	lr, r9, lr, asl #2
	bic	r7, r7, #8388608
	ldr	r9, [lr, #-8]
	ldrb	lr, [ip, r7, asr #16]	@ zero_extendqisi2
	.loc 3 292 0
	add	r4, r4, r5
.LVL622:
	.loc 3 289 0
	ldrb	lr, [r9, lr]	@ zero_extendqisi2
	strb	lr, [r6, r3, asl #2]
	.loc 3 290 0
	add	r3, r3, #1
.LVL623:
	.loc 3 288 0
	cmp	r3, r8
	bne	.L627
.LBE124:
	.loc 3 357 0
	add	sp, sp, #44
	.cfi_remember_state
	.cfi_def_cfa_offset 36
.LVL624:
	@ sp needed
	ldmfd	sp!, {r4, r5, r6, r7, r8, r9, r10, fp, pc}
.LVL625:
.L631:
	.cfi_restore_state
.LBB125:
.LBB117:
.LBB115:
	.loc 3 325 0
	cmp	r4, #0
	.loc 3 323 0
	mov	lr, lr, asl #16
.LVL626:
	.loc 3 325 0
	bge	.L680
	b	.L637
.L639:
	rsb	r4, lr, r4
.LVL627:
.L680:
	.loc 3 328 0
	cmp	r4, lr
	bge	.L639
.L636:
	ldr	r1, [sp]
	.loc 3 345 0
	and	r0, r6, #3
	add	r7, r1, #1
.LVL628:
	ldr	r1, [sp, #4]
	add	r7, r7, r3
	sub	r8, r1, r3, asl #2
	ldr	r6, .L687+32
.LVL629:
	b	.L638
.LVL630:
.L641:
	ldrb	r1, [r6, r1]	@ zero_extendqisi2
	add	r10, sp, #40
	cmp	r1, r2
	movge	r1, #0
	movlt	r1, #1
	add	r1, r10, r1, asl #2
	ldrb	r9, [ip, r4, asr #16]	@ zero_extendqisi2
	ldr	r1, [r1, #-8]
	.loc 3 348 0
	add	r4, r4, r5
.LVL631:
	.loc 3 345 0
	ldrb	r1, [r1, r9]	@ zero_extendqisi2
	.loc 3 348 0
	cmp	r4, lr
	.loc 3 345 0
	strb	r1, [r8, r3, asl #2]
	.loc 3 348 0
	rsbge	r4, lr, r4
	.loc 3 346 0
	add	r3, r3, #1
.LVL632:
.L638:
	.loc 3 345 0
	and	r1, r3, #3
	.loc 3 339 0
	cmp	r3, r7
	.loc 3 345 0
	add	r1, r0, r1, asl #2
	.loc 3 339 0
	bne	.L641
.LBE115:
.LBE117:
.LBE125:
	.loc 3 357 0
	add	sp, sp, #44
	.cfi_remember_state
	.cfi_def_cfa_offset 36
.LVL633:
	@ sp needed
	ldmfd	sp!, {r4, r5, r6, r7, r8, r9, r10, fp, pc}
.LVL634:
.L637:
	.cfi_restore_state
.LBB126:
.LBB118:
.LBB116:
	.loc 3 326 0 discriminator 1
	adds	r4, lr, r4
.LVL635:
	bpl	.L636
.LVL636:
	.loc 3 326 0 is_stmt 0
	adds	r4, lr, r4
.LVL637:
	bmi	.L637
	b	.L636
.LVL638:
.L686:
.LBE116:
.LBE118:
.LBE126:
	.loc 3 216 0 is_stmt 1 discriminator 1
	ldr	r3, [r8, #12]
	ldr	r0, [r7]
	add	r3, r2, r3
	cmp	r3, r0
	bne	.L618
	b	.L620
.L685:
.LBB127:
	.loc 3 197 0
	mvn	r0, r9
	mov	r1, r5
	uxth	r0, r0
	b	.L678
.L688:
	.align	2
.L687:
	.word	centery
	.word	.LANCHOR0
	.word	.LANCHOR1
	.word	R_FlushHT8
	.word	.LANCHOR2
	.word	.LANCHOR0+48
	.word	R_FlushWhole8
	.word	R_FlushQuad8
	.word	filter_ditherMatrix
	.word	viewheight
.LBE127:
	.cfi_endproc
.LFE48:
	.size	R_DrawColumn8_PointUV_LinearZ, .-R_DrawColumn8_PointUV_LinearZ
	.align	2
	.type	R_DrawColumn15_PointUV, %function
R_DrawColumn15_PointUV:
.LFB55:
	.loc 3 113 0
	.cfi_startproc
	@ args = 0, pretend = 0, frame = 16
	@ frame_needed = 0, uses_anonymous_args = 0
.LVL639:
	stmfd	sp!, {r4, r5, r6, r7, r8, r9, r10, fp, lr}
	.cfi_def_cfa_offset 36
	.cfi_offset 4, -36
	.cfi_offset 5, -32
	.cfi_offset 6, -28
	.cfi_offset 7, -24
	.cfi_offset 8, -20
	.cfi_offset 9, -16
	.cfi_offset 10, -12
	.cfi_offset 11, -8
	.cfi_offset 14, -4
	.loc 3 149 0
	ldmib	r0, {r8, r9}
	.loc 3 157 0
	subs	r5, r9, r8
	.loc 3 113 0
	sub	sp, sp, #20
	.cfi_def_cfa_offset 56
	.loc 3 117 0
	ldr	r6, [r0, #16]
.LVL640:
	.loc 3 121 0
	ldr	r10, [r0, #28]
.LVL641:
	.loc 3 157 0
	bmi	.L689
	.loc 3 171 0
	ldr	r3, .L762
	.loc 3 174 0
	ldr	r2, [r0, #60]
	.loc 3 171 0
	ldr	r3, [r3]
	ldr	r4, [r0, #20]
	rsb	r3, r3, r8
	.loc 3 174 0
	cmp	r2, #0
	mov	r7, r0
	.loc 3 171 0
	mla	r4, r6, r3, r4
.LVL642:
	.loc 3 174 0
	bne	.L757
.LVL643:
.L692:
	.loc 3 215 0
	ldr	r8, .L762+4
	ldr	r2, [r8]
	cmp	r2, #4
	beq	.L698
	.loc 3 215 0 is_stmt 0 discriminator 1
	cmp	r2, #0
	bne	.L758
.L699:
	.loc 3 224 0 is_stmt 1
	mov	fp, #1
	ldr	r0, .L762+8
	.loc 3 230 0
	ldr	r2, .L762+12
	ldr	lr, .L762+16
	.loc 3 231 0
	ldr	ip, .L762+20
	.loc 3 224 0
	str	fp, [r0, #-1204]
	.loc 3 232 0
	ldr	r0, .L762+24
	.loc 3 230 0
	str	lr, [r2]
	.loc 3 231 0
	str	ip, [r2, #4]
	.loc 3 232 0
	str	r0, [r2, #8]
	mov	r2, #0
	.loc 3 222 0
	ldr	r3, [r7, #4]
	.loc 3 221 0
	ldr	r10, [r7]
.LVL644:
	.loc 3 223 0
	ldr	r1, [r7, #8]
	.loc 3 233 0
	ldr	r9, .L762+28
	.loc 3 222 0
	str	r3, [r8, #4]
	str	r3, [r8, #16]
	.loc 3 221 0
	str	r10, [r8, #12]
	.loc 3 233 0
	add	r3, r9, r3, asl #3
.LVL645:
	.loc 3 223 0
	str	r1, [r8, #8]
	str	r1, [r8, #32]
.L701:
.LBB128:
	.loc 3 286 0
	ldr	r1, [r7, #24]
.LBE128:
	.loc 3 245 0
	add	r2, r2, #1
.LBB135:
	.loc 3 286 0
	cmp	r1, #128
.LBE135:
	.loc 3 245 0
	str	r2, [r8]
.LBB136:
	.loc 3 278 0
	add	ip, r5, #1
	.loc 3 251 0
	ldr	r2, [r7, #32]
.LVL646:
	.loc 3 286 0
	beq	.L759
	.loc 3 294 0
	cmp	r1, #0
	bne	.L705
.LVL647:
	.loc 3 297 0
	mov	lr, #128
	mov	ip, #126
	ldr	r1, .L762+32
	add	r3, r3, #8
.LVL648:
	ldr	r0, [r1]
.LVL649:
.L706:
	ldrb	r1, [r2, r4, asr #16]	@ zero_extendqisi2
	.loc 3 296 0
	sub	r5, r5, #1
.LVL650:
	.loc 3 297 0
	smlabb	r1, lr, r1, ip
	ldrh	r1, [r0, r1]
	.loc 3 296 0
	cmn	r5, #1
	.loc 3 297 0
	strh	r1, [r3, #-8]	@ movhi
.LVL651:
	.loc 3 300 0
	add	r4, r4, r6
.LVL652:
	add	r3, r3, #8
.LVL653:
	.loc 3 296 0
	bne	.L706
.LVL654:
.L689:
.LBE136:
	.loc 3 357 0
	add	sp, sp, #20
	.cfi_remember_state
	.cfi_def_cfa_offset 36
	@ sp needed
	ldmfd	sp!, {r4, r5, r6, r7, r8, r9, r10, fp, pc}
.LVL655:
.L757:
	.cfi_restore_state
	.loc 3 174 0 discriminator 1
	ldr	r3, [r0, #64]
	cmp	r3, #1
	bne	.L692
	.loc 3 178 0
	cmp	r8, #0
	beq	.L693
	.loc 3 179 0
	ldr	r3, [r0, #56]
	tst	r3, #1
.LBB137:
	.loc 3 181 0
	mvnne	fp, r10
	uxthne	fp, fp
.LBE137:
	.loc 3 179 0
	bne	.L754
	.loc 3 186 0
	tst	r3, #2
	beq	.L693
.LBB138:
	.loc 3 188 0
	uxth	fp, r10
.L754:
	mov	r0, fp
.LVL656:
	mov	r1, r6
	bl	__aeabi_idiv
.LVL657:
	.loc 3 189 0
	add	r8, r8, r0
	.loc 3 191 0
	add	r4, r4, fp
.LVL658:
	.loc 3 189 0
	str	r8, [r7, #4]
	.loc 3 190 0
	rsb	r5, r0, r5
.LVL659:
.L693:
.LBE138:
	.loc 3 194 0
	ldr	r3, .L762+36
	ldr	r3, [r3]
	sub	r3, r3, #1
	cmp	r9, r3
	beq	.L695
	.loc 3 195 0
	ldr	r3, [r7, #56]
	tst	r3, #4
	bne	.L760
	.loc 3 201 0
	tst	r3, #8
	beq	.L695
.LBB139:
	.loc 3 203 0
	uxth	r0, r10
	mov	r1, r6
	bl	__aeabi_idiv
.LVL660:
	.loc 3 204 0
	rsb	r9, r0, r9
	str	r9, [r7, #8]
	.loc 3 205 0
	rsb	r5, r0, r5
.LVL661:
.L695:
.LBE139:
	.loc 3 208 0
	cmp	r5, #0
	bgt	.L692
	b	.L689
.L758:
	.loc 3 216 0
	ldr	r3, .L762+8
	ldr	r3, [r3, #-1204]
	cmp	r3, #1
	beq	.L761
.L698:
	.loc 3 217 0
	bl	R_FlushColumns
.LVL662:
	.loc 3 219 0
	ldr	r2, [r8]
	cmp	r2, #0
	beq	.L699
.L700:
	.loc 3 235 0
	ldr	r3, [r7, #4]
	.loc 3 238 0
	ldr	r0, [r8, #4]
	.loc 3 236 0
	ldr	r1, [r7, #8]
	.loc 3 238 0
	cmp	r3, r0
	.loc 3 235 0
	add	r0, r8, r2, asl #2
	str	r3, [r0, #16]
	.loc 3 236 0
	str	r1, [r0, #32]
	.loc 3 235 0
	ldr	r0, .L762+4
	.loc 3 240 0
	ldr	ip, .L762+4
	.loc 3 239 0
	strgt	r3, [r0, #4]
	.loc 3 240 0
	ldr	r0, [r8, #8]
	.loc 3 243 0
	add	r2, r2, r3, asl #2
	.loc 3 240 0
	cmp	r1, r0
	.loc 3 241 0
	strlt	r1, [ip, #8]
	.loc 3 243 0
	ldr	r1, .L762+28
	add	r3, r1, r2, asl #1
.LVL663:
	ldr	r2, [r8]
	b	.L701
.LVL664:
.L705:
.LBB140:
.LBB129:
	.loc 3 303 0
	sub	r0, r1, #1
.LVL665:
	.loc 3 304 0
	tst	r0, r1
	bne	.L707
.LBB130:
	.loc 3 305 0
	mov	lr, r0, asl #16
	mvn	lr, lr, lsr #16
	.loc 3 306 0
	sub	r1, r5, #1
	cmn	r1, #1
	str	r1, [sp]
	mov	r7, r1
.LVL666:
	ldreq	r1, .L762+32
	.loc 3 305 0
	mvn	lr, lr, asl #16
.LVL667:
	streq	r1, [sp, #12]
	.loc 3 306 0
	beq	.L720
	ldr	r1, .L762+32
	mov	r0, r4
.LVL668:
	mov	ip, r1
	ldr	r8, [ip]
	mov	ip, r6, asl #1
	.loc 3 307 0
	mov	r10, #128
	mov	r9, #126
	mov	fp, ip
	str	r1, [sp, #12]
	str	ip, [sp, #4]
	add	r1, r3, #16
	str	r5, [sp, #8]
.LVL669:
.L709:
	and	ip, r0, lr
	ldrb	ip, [r2, ip, asr #16]	@ zero_extendqisi2
	.loc 3 306 0
	subs	r7, r7, #2
.LVL670:
	.loc 3 307 0
	smlabb	ip, r10, ip, r9
	ldrh	r5, [r8, ip]
	add	ip, r6, r0
	strh	r5, [r1, #-16]	@ movhi
.LVL671:
	.loc 3 311 0
	and	ip, ip, lr
.LVL672:
	ldrb	ip, [r2, ip, asr #16]	@ zero_extendqisi2
	add	r0, fp, r0
.LVL673:
	smlabb	ip, r10, ip, r9
	ldrh	ip, [r8, ip]
	add	r1, r1, #16
.LVL674:
	strh	ip, [r1, #-24]	@ movhi
.LVL675:
	.loc 3 306 0
	bpl	.L709
	ldr	r1, [sp]
	ldr	r5, [sp, #8]
	mov	r1, r1, lsr #1
	ldr	ip, [sp, #4]
	add	r4, r4, r6, asl #1
	add	r0, r1, #1
.LVL676:
	.loc 3 316 0
	tst	r5, #1
	mla	r4, ip, r1, r4
	add	r3, r3, r0, asl #4
	bne	.L689
.L720:
	.loc 3 317 0
	mov	r1, #126
	and	r4, r4, lr
	ldr	r0, [sp, #12]
	ldrb	r2, [r2, r4, asr #16]	@ zero_extendqisi2
.LVL677:
	ldr	r0, [r0]
	add	r2, r1, r2, asl #7
	ldrh	r2, [r0, r2]
	strh	r2, [r3]	@ movhi
	b	.L689
.LVL678:
.L759:
.LBE130:
.LBE129:
	.loc 3 289 0
	mov	lr, #126
	ldr	r0, .L762+32
	add	r3, r3, #8
.LVL679:
	ldr	ip, [r0]
.LVL680:
.L704:
	bic	r0, r4, #-16777216
	bic	r0, r0, #8388608
	ldrb	r0, [r2, r0, asr #16]	@ zero_extendqisi2
	.loc 3 288 0
	sub	r5, r5, #1
.LVL681:
	.loc 3 289 0
	smlabb	r0, r1, r0, lr
	ldrh	r0, [ip, r0]
	.loc 3 288 0
	cmn	r5, #1
	.loc 3 289 0
	strh	r0, [r3, #-8]	@ movhi
.LVL682:
	.loc 3 292 0
	add	r4, r4, r6
.LVL683:
	add	r3, r3, #8
.LVL684:
	.loc 3 288 0
	bne	.L704
.LBE140:
	.loc 3 357 0
	add	sp, sp, #20
	.cfi_remember_state
	.cfi_def_cfa_offset 36
	@ sp needed
	ldmfd	sp!, {r4, r5, r6, r7, r8, r9, r10, fp, pc}
.LVL685:
.L707:
	.cfi_restore_state
.LBB141:
.LBB133:
.LBB131:
	.loc 3 325 0
	cmp	r4, #0
	.loc 3 323 0
	mov	r1, r1, asl #16
.LVL686:
	.loc 3 325 0
	blt	.L713
	.loc 3 328 0
	cmp	r4, r1
	blt	.L712
.L715:
	rsb	r4, r1, r4
.LVL687:
	cmp	r1, r4
	ble	.L715
.L712:
	.loc 3 345 0
	ldr	r0, .L762+32
	add	r3, r3, #8
.LVL688:
	ldr	r7, [r0]
.LVL689:
	mov	r5, #128
	mov	lr, #126
	b	.L714
.LVL690:
.L717:
	ldrb	r0, [r2, r4, asr #16]	@ zero_extendqisi2
	.loc 3 348 0
	add	r4, r4, r6
.LVL691:
	.loc 3 345 0
	smlabb	r0, r5, r0, lr
	ldrh	r0, [r7, r0]
	.loc 3 348 0
	cmp	r4, r1
	.loc 3 345 0
	strh	r0, [r3, #-8]	@ movhi
.LVL692:
	.loc 3 348 0
	rsbge	r4, r1, r4
.LVL693:
	add	r3, r3, #8
.LVL694:
.L714:
	.loc 3 339 0
	subs	ip, ip, #1
.LVL695:
	bcs	.L717
.LBE131:
.LBE133:
.LBE141:
	.loc 3 357 0
	add	sp, sp, #20
	.cfi_remember_state
	.cfi_def_cfa_offset 36
	@ sp needed
	ldmfd	sp!, {r4, r5, r6, r7, r8, r9, r10, fp, pc}
.LVL696:
.L713:
	.cfi_restore_state
.LBB142:
.LBB134:
.LBB132:
	.loc 3 326 0 discriminator 1
	adds	r4, r1, r4
.LVL697:
	bpl	.L712
.LVL698:
	.loc 3 326 0 is_stmt 0
	adds	r4, r1, r4
.LVL699:
	bmi	.L713
	b	.L712
.LVL700:
.L761:
.LBE132:
.LBE134:
.LBE142:
	.loc 3 216 0 is_stmt 1 discriminator 1
	ldr	r3, [r8, #12]
	ldr	r1, [r7]
	add	r3, r2, r3
	cmp	r3, r1
	bne	.L698
	b	.L700
.L760:
.LBB143:
	.loc 3 197 0
	mvn	r0, r10
	mov	r1, r6
	uxth	r0, r0
	bl	__aeabi_idiv
.LVL701:
	.loc 3 198 0
	rsb	r9, r0, r9
	str	r9, [r7, #8]
	.loc 3 199 0
	rsb	r5, r0, r5
.LVL702:
.LBE143:
	b	.L695
.L763:
	.align	2
.L762:
	.word	centery
	.word	.LANCHOR0
	.word	.LANCHOR2
	.word	.LANCHOR1
	.word	R_FlushWhole15
	.word	R_FlushHT15
	.word	R_FlushQuad15
	.word	.LANCHOR0+1220
	.word	V_Palette15
	.word	viewheight
	.cfi_endproc
.LFE55:
	.size	R_DrawColumn15_PointUV, .-R_DrawColumn15_PointUV
	.align	2
	.type	R_DrawColumn15_PointUV_PointZ, %function
R_DrawColumn15_PointUV_PointZ:
.LFB56:
	.loc 3 113 0
	.cfi_startproc
	@ args = 0, pretend = 0, frame = 24
	@ frame_needed = 0, uses_anonymous_args = 0
.LVL703:
	stmfd	sp!, {r4, r5, r6, r7, r8, r9, r10, fp, lr}
	.cfi_def_cfa_offset 36
	.cfi_offset 4, -36
	.cfi_offset 5, -32
	.cfi_offset 6, -28
	.cfi_offset 7, -24
	.cfi_offset 8, -20
	.cfi_offset 9, -16
	.cfi_offset 10, -12
	.cfi_offset 11, -8
	.cfi_offset 14, -4
	.loc 3 149 0
	ldmib	r0, {r8, r9}
	.loc 3 157 0
	subs	r5, r9, r8
	.loc 3 113 0
	sub	sp, sp, #28
	.cfi_def_cfa_offset 64
	.loc 3 117 0
	ldr	r6, [r0, #16]
.LVL704:
	.loc 3 121 0
	ldr	r10, [r0, #28]
.LVL705:
	.loc 3 157 0
	bmi	.L764
	.loc 3 171 0
	ldr	r3, .L837
	.loc 3 174 0
	ldr	r2, [r0, #60]
	.loc 3 171 0
	ldr	r3, [r3]
	ldr	r4, [r0, #20]
	rsb	r3, r3, r8
	.loc 3 174 0
	cmp	r2, #0
	mov	r7, r0
	.loc 3 171 0
	mla	r4, r6, r3, r4
.LVL706:
	.loc 3 174 0
	bne	.L832
.LVL707:
.L767:
	.loc 3 215 0
	ldr	r8, .L837+4
	ldr	r2, [r8]
	cmp	r2, #4
	beq	.L773
	.loc 3 215 0 is_stmt 0 discriminator 1
	cmp	r2, #0
	bne	.L833
.L774:
	.loc 3 224 0 is_stmt 1
	mov	fp, #1
	ldr	r0, .L837+8
	.loc 3 230 0
	ldr	r2, .L837+12
	ldr	lr, .L837+16
	.loc 3 231 0
	ldr	ip, .L837+20
	.loc 3 224 0
	str	fp, [r0, #-1204]
	.loc 3 232 0
	ldr	r0, .L837+24
	.loc 3 230 0
	str	lr, [r2]
	.loc 3 231 0
	str	ip, [r2, #4]
	.loc 3 232 0
	str	r0, [r2, #8]
	mov	r2, #0
	.loc 3 222 0
	ldr	r3, [r7, #4]
	.loc 3 233 0
	ldr	r9, .L837+28
	.loc 3 221 0
	ldr	r10, [r7]
.LVL708:
	.loc 3 223 0
	ldr	r1, [r7, #8]
	.loc 3 222 0
	str	r3, [r8, #4]
	str	r3, [r8, #16]
	.loc 3 233 0
	add	r3, r9, r3, asl #3
	.loc 3 221 0
	str	r10, [r8, #12]
	.loc 3 233 0
	str	r3, [sp, #4]
.LVL709:
	.loc 3 223 0
	str	r1, [r8, #8]
	str	r1, [r8, #32]
.L776:
.LVL710:
.LBB144:
	.loc 3 286 0
	ldr	r1, [r7, #24]
.LBE144:
	.loc 3 245 0
	add	r2, r2, #1
.LBB151:
	.loc 3 286 0
	cmp	r1, #128
.LBE151:
	.loc 3 245 0
	str	r2, [r8]
.LBB152:
	.loc 3 252 0
	ldr	r0, [r7, #44]
	.loc 3 251 0
	ldr	r2, [r7, #32]
.LVL711:
	.loc 3 278 0
	add	lr, r5, #1
.LVL712:
	.loc 3 286 0
	beq	.L834
	.loc 3 294 0
	cmp	r1, #0
	bne	.L780
.LVL713:
	.loc 3 297 0
	mov	r7, #128
.LVL714:
	mov	lr, #126
	ldr	r1, .L837+32
	ldr	r3, [sp, #4]
	ldr	ip, [r1]
	add	r3, r3, #8
.LVL715:
.L781:
	ldrb	r1, [r2, r4, asr #16]	@ zero_extendqisi2
	.loc 3 296 0
	sub	r5, r5, #1
.LVL716:
	.loc 3 297 0
	ldrb	r1, [r0, r1]	@ zero_extendqisi2
	.loc 3 296 0
	cmn	r5, #1
	.loc 3 297 0
	smlabb	r1, r7, r1, lr
	ldrh	r1, [ip, r1]
	.loc 3 300 0
	add	r4, r4, r6
.LVL717:
	.loc 3 297 0
	strh	r1, [r3, #-8]	@ movhi
.LVL718:
	add	r3, r3, #8
.LVL719:
	.loc 3 296 0
	bne	.L781
.LVL720:
.L764:
.LBE152:
	.loc 3 357 0
	add	sp, sp, #28
	.cfi_remember_state
	.cfi_def_cfa_offset 36
	@ sp needed
	ldmfd	sp!, {r4, r5, r6, r7, r8, r9, r10, fp, pc}
.LVL721:
.L832:
	.cfi_restore_state
	.loc 3 174 0 discriminator 1
	ldr	r3, [r0, #64]
	cmp	r3, #1
	bne	.L767
	.loc 3 178 0
	cmp	r8, #0
	beq	.L768
	.loc 3 179 0
	ldr	r3, [r0, #56]
	tst	r3, #1
.LBB153:
	.loc 3 181 0
	mvnne	fp, r10
	uxthne	fp, fp
.LBE153:
	.loc 3 179 0
	bne	.L829
	.loc 3 186 0
	tst	r3, #2
	beq	.L768
.LBB154:
	.loc 3 188 0
	uxth	fp, r10
.L829:
	mov	r0, fp
.LVL722:
	mov	r1, r6
	bl	__aeabi_idiv
.LVL723:
	.loc 3 189 0
	add	r8, r8, r0
	.loc 3 191 0
	add	r4, r4, fp
.LVL724:
	.loc 3 189 0
	str	r8, [r7, #4]
	.loc 3 190 0
	rsb	r5, r0, r5
.LVL725:
.L768:
.LBE154:
	.loc 3 194 0
	ldr	r3, .L837+36
	ldr	r3, [r3]
	sub	r3, r3, #1
	cmp	r9, r3
	beq	.L770
	.loc 3 195 0
	ldr	r3, [r7, #56]
	tst	r3, #4
	bne	.L835
	.loc 3 201 0
	tst	r3, #8
	beq	.L770
.LBB155:
	.loc 3 203 0
	uxth	r0, r10
	mov	r1, r6
	bl	__aeabi_idiv
.LVL726:
	.loc 3 204 0
	rsb	r9, r0, r9
	str	r9, [r7, #8]
	.loc 3 205 0
	rsb	r5, r0, r5
.LVL727:
.L770:
.LBE155:
	.loc 3 208 0
	cmp	r5, #0
	bgt	.L767
	b	.L764
.L833:
	.loc 3 216 0
	ldr	r3, .L837+8
	ldr	r3, [r3, #-1204]
	cmp	r3, #1
	beq	.L836
.L773:
	.loc 3 217 0
	bl	R_FlushColumns
.LVL728:
	.loc 3 219 0
	ldr	r2, [r8]
	cmp	r2, #0
	beq	.L774
.L775:
	.loc 3 235 0
	ldr	r3, [r7, #4]
	.loc 3 238 0
	ldr	r0, [r8, #4]
	.loc 3 236 0
	ldr	r1, [r7, #8]
	.loc 3 238 0
	cmp	r3, r0
	.loc 3 235 0
	add	r0, r8, r2, asl #2
	str	r3, [r0, #16]
	.loc 3 236 0
	str	r1, [r0, #32]
	.loc 3 235 0
	ldr	r0, .L837+4
	.loc 3 240 0
	ldr	ip, .L837+4
	.loc 3 239 0
	strgt	r3, [r0, #4]
	.loc 3 240 0
	ldr	r0, [r8, #8]
	.loc 3 243 0
	add	r2, r2, r3, asl #2
	.loc 3 240 0
	cmp	r1, r0
	.loc 3 241 0
	strlt	r1, [ip, #8]
	.loc 3 243 0
	ldr	r1, .L837+28
	add	r3, r1, r2, asl #1
	str	r3, [sp, #4]
.LVL729:
	ldr	r2, [r8]
	b	.L776
.LVL730:
.L780:
.LBB156:
.LBB145:
	.loc 3 303 0
	sub	ip, r1, #1
.LVL731:
	.loc 3 304 0
	tst	ip, r1
	bne	.L782
.LBB146:
	.loc 3 305 0
	mov	r7, ip, asl #16
.LVL732:
	mvn	r7, r7, lsr #16
	.loc 3 306 0
	sub	r3, r5, #1
	cmn	r3, #1
	str	r3, [sp, #8]
	ldreq	r3, .L837+32
	.loc 3 305 0
	mvn	r7, r7, asl #16
.LVL733:
	streq	r3, [sp, #20]
	.loc 3 306 0
	beq	.L795
	ldr	r1, .L837+32
	mov	ip, r4
.LVL734:
	mov	lr, r1
	ldr	r8, [lr]
	mov	lr, r6, asl #1
	.loc 3 307 0
	mov	r10, #128
	mov	r9, #126
	mov	fp, lr
	str	r1, [sp, #20]
	ldr	r1, [sp, #4]
	str	lr, [sp, #12]
	add	r1, r1, #16
	str	r5, [sp, #16]
.LVL735:
.L784:
	and	lr, ip, r7
	ldrb	lr, [r2, lr, asr #16]	@ zero_extendqisi2
	.loc 3 306 0
	subs	r3, r3, #2
.LVL736:
	.loc 3 307 0
	ldrb	r5, [r0, lr]	@ zero_extendqisi2
	add	lr, r6, ip
	smlabb	r5, r10, r5, r9
	ldrh	r5, [r8, r5]
	.loc 3 311 0
	and	lr, lr, r7
	.loc 3 307 0
	strh	r5, [r1, #-16]	@ movhi
.LVL737:
	.loc 3 311 0
	ldrb	lr, [r2, lr, asr #16]	@ zero_extendqisi2
	add	ip, fp, ip
.LVL738:
	ldrb	lr, [r0, lr]	@ zero_extendqisi2
	add	r1, r1, #16
.LVL739:
	smlabb	lr, r10, lr, r9
	ldrh	lr, [r8, lr]
	strh	lr, [r1, #-24]	@ movhi
.LVL740:
	.loc 3 306 0
	bpl	.L784
	ldr	r3, [sp, #8]
	add	r4, r4, r6, asl #1
	mov	r1, r3, lsr #1
	ldr	r3, [sp, #12]
	ldr	r5, [sp, #16]
	mla	r4, r3, r1, r4
	ldr	r3, [sp, #4]
	add	ip, r1, #1
.LVL741:
	add	r3, r3, ip, asl #4
	.loc 3 316 0
	tst	r5, #1
	str	r3, [sp, #4]
	bne	.L764
.L795:
	.loc 3 317 0
	mov	r1, #126
	and	r4, r4, r7
	ldrb	r2, [r2, r4, asr #16]	@ zero_extendqisi2
.LVL742:
	ldr	r3, [sp, #20]
	ldrb	r2, [r0, r2]	@ zero_extendqisi2
	ldr	ip, [r3]
	add	r2, r1, r2, asl #7
	ldrh	r2, [ip, r2]
	ldr	r3, [sp, #4]
	strh	r2, [r3]	@ movhi
	b	.L764
.LVL743:
.L834:
.LBE146:
.LBE145:
	.loc 3 289 0
	mov	lr, #126
	ldr	ip, .L837+32
	ldr	r3, [sp, #4]
	ldr	r7, [ip]
.LVL744:
	add	r3, r3, #8
.LVL745:
.L779:
	bic	ip, r4, #-16777216
	bic	ip, ip, #8388608
	ldrb	ip, [r2, ip, asr #16]	@ zero_extendqisi2
	.loc 3 288 0
	sub	r5, r5, #1
.LVL746:
	.loc 3 289 0
	ldrb	ip, [r0, ip]	@ zero_extendqisi2
	.loc 3 288 0
	cmn	r5, #1
	.loc 3 289 0
	smlabb	ip, r1, ip, lr
	ldrh	ip, [r7, ip]
	.loc 3 292 0
	add	r4, r4, r6
.LVL747:
	.loc 3 289 0
	strh	ip, [r3, #-8]	@ movhi
.LVL748:
	add	r3, r3, #8
.LVL749:
	.loc 3 288 0
	bne	.L779
.LBE156:
	.loc 3 357 0
	add	sp, sp, #28
	.cfi_remember_state
	.cfi_def_cfa_offset 36
	@ sp needed
	ldmfd	sp!, {r4, r5, r6, r7, r8, r9, r10, fp, pc}
.LVL750:
.L782:
	.cfi_restore_state
.LBB157:
.LBB149:
.LBB147:
	.loc 3 325 0
	cmp	r4, #0
	.loc 3 323 0
	mov	r1, r1, asl #16
.LVL751:
	.loc 3 325 0
	blt	.L788
	.loc 3 328 0
	cmp	r4, r1
	blt	.L787
.L790:
	rsb	r4, r1, r4
.LVL752:
	cmp	r1, r4
	ble	.L790
.L787:
	.loc 3 345 0
	ldr	ip, .L837+32
	ldr	r3, [sp, #4]
	ldr	r8, [ip]
	add	r3, r3, #8
	mov	r7, #128
.LVL753:
	mov	r5, #126
	b	.L789
.LVL754:
.L792:
	ldrb	ip, [r2, r4, asr #16]	@ zero_extendqisi2
	.loc 3 348 0
	add	r4, r4, r6
.LVL755:
	.loc 3 345 0
	ldrb	ip, [r0, ip]	@ zero_extendqisi2
	.loc 3 348 0
	cmp	r4, r1
	.loc 3 345 0
	smlabb	ip, r7, ip, r5
	ldrh	ip, [r8, ip]
	.loc 3 348 0
	rsbge	r4, r1, r4
	.loc 3 345 0
	strh	ip, [r3, #-8]	@ movhi
.LVL756:
	add	r3, r3, #8
.LVL757:
.L789:
	.loc 3 339 0
	subs	lr, lr, #1
.LVL758:
	bcs	.L792
.LBE147:
.LBE149:
.LBE157:
	.loc 3 357 0
	add	sp, sp, #28
	.cfi_remember_state
	.cfi_def_cfa_offset 36
	@ sp needed
	ldmfd	sp!, {r4, r5, r6, r7, r8, r9, r10, fp, pc}
.LVL759:
.L788:
	.cfi_restore_state
.LBB158:
.LBB150:
.LBB148:
	.loc 3 326 0 discriminator 1
	adds	r4, r1, r4
.LVL760:
	bpl	.L787
.LVL761:
	.loc 3 326 0 is_stmt 0
	adds	r4, r1, r4
.LVL762:
	bmi	.L788
	b	.L787
.LVL763:
.L836:
.LBE148:
.LBE150:
.LBE158:
	.loc 3 216 0 is_stmt 1 discriminator 1
	ldr	r3, [r8, #12]
	ldr	r1, [r7]
	add	r3, r2, r3
	cmp	r3, r1
	bne	.L773
	b	.L775
.L835:
.LBB159:
	.loc 3 197 0
	mvn	r0, r10
	mov	r1, r6
	uxth	r0, r0
	bl	__aeabi_idiv
.LVL764:
	.loc 3 198 0
	rsb	r9, r0, r9
	str	r9, [r7, #8]
	.loc 3 199 0
	rsb	r5, r0, r5
.LVL765:
.LBE159:
	b	.L770
.L838:
	.align	2
.L837:
	.word	centery
	.word	.LANCHOR0
	.word	.LANCHOR2
	.word	.LANCHOR1
	.word	R_FlushWhole15
	.word	R_FlushHT15
	.word	R_FlushQuad15
	.word	.LANCHOR0+1220
	.word	V_Palette15
	.word	viewheight
	.cfi_endproc
.LFE56:
	.size	R_DrawColumn15_PointUV_PointZ, .-R_DrawColumn15_PointUV_PointZ
	.align	2
	.type	R_DrawColumn15_PointUV_LinearZ, %function
R_DrawColumn15_PointUV_LinearZ:
.LFB57:
	.loc 3 113 0
	.cfi_startproc
	@ args = 0, pretend = 0, frame = 48
	@ frame_needed = 0, uses_anonymous_args = 0
.LVL766:
	stmfd	sp!, {r4, r5, r6, r7, r8, r9, r10, fp, lr}
	.cfi_def_cfa_offset 36
	.cfi_offset 4, -36
	.cfi_offset 5, -32
	.cfi_offset 6, -28
	.cfi_offset 7, -24
	.cfi_offset 8, -20
	.cfi_offset 9, -16
	.cfi_offset 10, -12
	.cfi_offset 11, -8
	.cfi_offset 14, -4
	.loc 3 149 0
	ldmib	r0, {r5, r7}
	.loc 3 113 0
	sub	sp, sp, #52
	.cfi_def_cfa_offset 88
	.loc 3 157 0
	subs	r3, r7, r5
	.loc 3 117 0
	ldr	fp, [r0, #16]
.LVL767:
	.loc 3 157 0
	str	r3, [sp, #8]
	.loc 3 121 0
	ldr	r8, [r0, #28]
.LVL768:
	.loc 3 157 0
	bmi	.L839
	.loc 3 171 0
	ldr	r3, .L918
.LVL769:
	.loc 3 174 0
	ldr	r2, [r0, #60]
	.loc 3 171 0
	ldr	r3, [r3]
	ldr	r4, [r0, #20]
	rsb	r3, r3, r5
	.loc 3 174 0
	cmp	r2, #0
	mov	r6, r0
	.loc 3 171 0
	mla	r4, fp, r3, r4
.LVL770:
	.loc 3 174 0
	bne	.L912
.LVL771:
.L842:
	.loc 3 215 0
	ldr	r7, .L918+4
	ldr	r2, [r7]
	cmp	r2, #4
	beq	.L848
	.loc 3 215 0 is_stmt 0 discriminator 1
	cmp	r2, #0
	bne	.L913
.L849:
	.loc 3 222 0 is_stmt 1
	ldmia	r6, {r1, r3}
	.loc 3 224 0
	mov	r9, #1
	.loc 3 233 0
	ldr	r5, .L918+8
	.loc 3 224 0
	ldr	ip, .L918+12
	.loc 3 233 0
	add	r5, r5, r3, asl #3
	str	r5, [sp, #12]
.LVL772:
	mov	r5, #0
.LVL773:
	.loc 3 230 0
	ldr	r2, .L918+16
	ldr	r8, .L918+20
.LVL774:
	.loc 3 231 0
	ldr	lr, .L918+24
	.loc 3 223 0
	ldr	r0, [r6, #8]
	.loc 3 224 0
	str	r9, [ip, #-1204]
	.loc 3 231 0
	stmia	r2, {r8, lr}
	.loc 3 232 0
	ldr	ip, .L918+28
	.loc 3 221 0
	str	r1, [r7, #12]
	.loc 3 222 0
	str	r3, [r7, #4]
	str	r3, [r7, #16]
	.loc 3 223 0
	str	r0, [r7, #8]
	str	r0, [r7, #32]
	.loc 3 232 0
	str	ip, [r2, #8]
.L851:
.LBB160:
	.loc 3 259 0
	ldr	r2, [r6, #12]
	.loc 3 286 0
	ldr	r0, [r6, #24]
	.loc 3 260 0
	ldr	ip, [r6, #48]
	ldr	lr, [r6, #44]
.LBE160:
	.loc 3 245 0
	add	r5, r5, #1
.LBB167:
	.loc 3 259 0
	mov	r2, r2, asr #6
	.loc 3 286 0
	cmp	r0, #128
	.loc 3 260 0
	str	ip, [sp, #44]
.LBE167:
	.loc 3 245 0
	str	r5, [r7]
.LBB168:
	.loc 3 259 0
	uxtb	r2, r2
	.loc 3 260 0
	str	lr, [sp, #40]
	.loc 3 251 0
	ldr	ip, [r6, #32]
.LVL775:
	.loc 3 286 0
	beq	.L914
	.loc 3 294 0
	cmp	r0, #0
	bne	.L859
.LVL776:
	.loc 3 297 0
	mov	r8, #128
	ldr	r0, .L918+32
	ldr	lr, [sp, #8]
	ldr	r9, [r0]
	ldr	r0, [sp, #12]
	add	r7, lr, #1
	ldr	lr, .L918+36
	add	r7, r7, r3
	and	r1, r1, #3
.LVL777:
	add	r5, r0, #8
.LVL778:
.L860:
	and	r0, r3, #3
	add	r0, r1, r0, asl #2
	ldrb	r0, [lr, r0]	@ zero_extendqisi2
	add	r6, sp, #48
	cmp	r0, r2
	movge	r0, #0
	movlt	r0, #1
	add	r0, r6, r0, asl #2
	mov	r6, #126
	ldrb	r10, [ip, r4, asr #16]	@ zero_extendqisi2
	ldr	r0, [r0, #-8]
	.loc 3 298 0
	add	r3, r3, #1
.LVL779:
	.loc 3 297 0
	ldrb	r0, [r0, r10]	@ zero_extendqisi2
	.loc 3 296 0
	cmp	r3, r7
	.loc 3 297 0
	smlabb	r0, r8, r0, r6
	ldrh	r0, [r9, r0]
	.loc 3 300 0
	add	r4, r4, fp
.LVL780:
	.loc 3 297 0
	strh	r0, [r5, #-8]	@ movhi
	add	r5, r5, #8
.LVL781:
	.loc 3 296 0
	bne	.L860
.LVL782:
.L839:
.LBE168:
	.loc 3 357 0
	add	sp, sp, #52
	.cfi_remember_state
	.cfi_def_cfa_offset 36
	@ sp needed
	ldmfd	sp!, {r4, r5, r6, r7, r8, r9, r10, fp, pc}
.LVL783:
.L912:
	.cfi_restore_state
	.loc 3 174 0 discriminator 1
	ldr	r3, [r0, #64]
	cmp	r3, #1
	bne	.L842
	.loc 3 178 0
	cmp	r5, #0
	beq	.L843
	.loc 3 179 0
	ldr	r3, [r0, #56]
	tst	r3, #1
.LBB169:
	.loc 3 181 0
	mvnne	r9, r8
	uxthne	r9, r9
.LBE169:
	.loc 3 179 0
	bne	.L907
	.loc 3 186 0
	tst	r3, #2
	beq	.L843
.LBB170:
	.loc 3 188 0
	uxth	r9, r8
.L907:
	mov	r0, r9
.LVL784:
	mov	r1, fp
	bl	__aeabi_idiv
.LVL785:
	.loc 3 190 0
	ldr	r3, [sp, #8]
	.loc 3 189 0
	add	r5, r5, r0
	.loc 3 190 0
	rsb	r3, r0, r3
	.loc 3 191 0
	add	r4, r4, r9
.LVL786:
	.loc 3 189 0
	str	r5, [r6, #4]
.LVL787:
	.loc 3 190 0
	str	r3, [sp, #8]
.LVL788:
.L843:
.LBE170:
	.loc 3 194 0
	ldr	r3, .L918+40
	ldr	r3, [r3]
	sub	r3, r3, #1
	cmp	r7, r3
	beq	.L845
	.loc 3 195 0
	ldr	r3, [r6, #56]
	tst	r3, #4
	bne	.L915
	.loc 3 201 0
	tst	r3, #8
	beq	.L845
.LBB171:
	.loc 3 203 0
	mov	r1, fp
	uxth	r0, r8
.LVL789:
.L908:
	bl	__aeabi_idiv
.LVL790:
	.loc 3 205 0
	ldr	r3, [sp, #8]
	.loc 3 204 0
	rsb	r7, r0, r7
	.loc 3 205 0
	rsb	r3, r0, r3
	.loc 3 204 0
	str	r7, [r6, #8]
.LVL791:
	.loc 3 205 0
	str	r3, [sp, #8]
.LVL792:
.L845:
.LBE171:
	.loc 3 208 0
	ldr	r3, [sp, #8]
	cmp	r3, #0
	bgt	.L842
	b	.L839
.L913:
	.loc 3 216 0
	ldr	r3, .L918+12
	ldr	r3, [r3, #-1204]
	cmp	r3, #1
	beq	.L916
.L848:
	.loc 3 217 0
	bl	R_FlushColumns
.LVL793:
	.loc 3 219 0
	ldr	r2, [r7]
	cmp	r2, #0
	beq	.L849
	ldr	r1, [r6]
.L850:
	.loc 3 235 0
	ldr	r0, [r6, #4]
	.loc 3 238 0
	ldr	ip, [r7, #4]
	.loc 3 236 0
	ldr	r3, [r6, #8]
	.loc 3 238 0
	cmp	r0, ip
	.loc 3 235 0
	add	ip, r7, r2, asl #2
	.loc 3 236 0
	str	r3, [ip, #32]
	.loc 3 235 0
	str	r0, [ip, #16]
	ldr	ip, .L918+4
	.loc 3 240 0
	ldr	lr, .L918+4
	.loc 3 239 0
	strgt	r0, [ip, #4]
	.loc 3 240 0
	ldr	ip, [r7, #8]
	.loc 3 243 0
	add	r2, r2, r0, asl #2
	.loc 3 240 0
	cmp	r3, ip
	.loc 3 243 0
	ldr	ip, .L918+8
	.loc 3 241 0
	strlt	r3, [lr, #8]
	.loc 3 243 0
	add	r2, ip, r2, asl #1
	.loc 3 235 0
	mov	r3, r0
	ldr	r5, [r7]
	.loc 3 243 0
	str	r2, [sp, #12]
.LVL794:
	b	.L851
.LVL795:
.L859:
.LBB172:
.LBB161:
	.loc 3 303 0
	sub	lr, r0, #1
.LVL796:
	.loc 3 304 0
	tst	lr, r0
	bne	.L861
.LBB162:
	.loc 3 305 0
	mov	r0, lr, asl #16
	mvn	lr, r0, lsr #16
.LVL797:
	.loc 3 306 0
	ldr	r0, [sp, #8]
	.loc 3 305 0
	mvn	r9, lr, asl #16
.LVL798:
	.loc 3 306 0
	sub	r0, r0, #1
	cmn	r0, #1
	beq	.L917
	ldr	lr, .L918+32
	mov	r8, r4
	str	lr, [sp, #36]
	ldr	lr, [lr]
	str	r4, [sp, #28]
	mov	r5, lr
	mov	r6, r3
.LVL799:
	mov	r4, r5
.LVL800:
	mov	r0, r0, lsr #1
	str	r0, [sp, #20]
	mov	r0, r0, asl #1
	str	r0, [sp, #24]
	ldr	r7, [sp, #12]
	add	r0, r0, #2
	add	r0, r0, r3
	mov	r10, fp, asl #1
	ldr	lr, .L918+36
	and	r1, r1, #3
.LVL801:
	add	r7, r7, #16
	str	r10, [sp, #4]
	str	r3, [sp, #32]
	str	r0, [sp, #16]
.LVL802:
.L863:
	.loc 3 307 0
	and	r3, r6, #3
	add	r3, r1, r3, asl #2
	ldrb	r0, [lr, r3]	@ zero_extendqisi2
	add	r3, r6, #1
	.loc 3 311 0
	and	r3, r3, #3
	add	r3, r1, r3, asl #2
	.loc 3 307 0
	cmp	r0, r2
	.loc 3 311 0
	ldrb	r3, [lr, r3]	@ zero_extendqisi2
	.loc 3 307 0
	movge	r0, #0
	movlt	r0, #1
	.loc 3 311 0
	cmp	r3, r2
	movge	r3, #0
	movlt	r3, #1
	.loc 3 307 0
	add	r10, sp, #48
	and	r5, r8, r9
	add	r0, r10, r0, asl #2
	ldrb	r5, [ip, r5, asr #16]	@ zero_extendqisi2
	ldr	r0, [r0, #-8]
	.loc 3 311 0
	add	r3, r10, r3, asl #2
	.loc 3 307 0
	ldrb	r0, [r0, r5]	@ zero_extendqisi2
	mov	r10, #126
	.loc 3 311 0
	ldr	r5, [r3, #-8]
	.loc 3 307 0
	mov	r3, #128
	smlabb	r0, r3, r0, r10
	ldrh	r0, [r4, r0]
	.loc 3 312 0
	add	r6, r6, #2
.LVL803:
	.loc 3 307 0
	strh	r0, [r7, #-16]	@ movhi
.LVL804:
	.loc 3 306 0
	ldr	r0, [sp, #16]
	add	r3, fp, r8
.LVL805:
	cmp	r6, r0
	.loc 3 311 0
	mov	r0, #128
	and	r3, r3, r9
.LVL806:
	ldrb	r3, [ip, r3, asr #16]	@ zero_extendqisi2
	add	r7, r7, #16
.LVL807:
	ldrb	r3, [r5, r3]	@ zero_extendqisi2
	smlabb	r3, r0, r3, r10
	ldr	r0, [sp, #4]
	ldrh	r3, [r4, r3]
	add	r8, r0, r8
.LVL808:
	strh	r3, [r7, #-24]	@ movhi
	.loc 3 306 0
	bne	.L863
	.loc 3 316 0
	ldr	r6, [sp, #8]
.LVL809:
	ldr	r3, [sp, #32]
	tst	r6, #1
	ldr	r6, [sp, #24]
	ldr	r4, [sp, #28]
	add	r3, r3, #2
	ldr	r5, [sp, #20]
	add	r3, r3, r6
	ldr	r6, [sp, #4]
	add	r4, r4, fp, asl #1
	add	r0, r5, #1
	mla	r4, r6, r5, r4
	ldr	r5, [sp, #12]
	add	r0, r5, r0, asl #4
	str	r0, [sp, #12]
	bne	.L839
.LVL810:
.L872:
	.loc 3 317 0
	and	r3, r3, #3
	add	r1, r1, r3, asl #2
	ldrb	r3, [lr, r1]	@ zero_extendqisi2
	mov	r1, #126
	cmp	r3, r2
	movge	r2, #0
.LVL811:
	movlt	r2, #1
	add	r3, sp, #48
	add	r2, r3, r2, asl #2
	and	r4, r4, r9
	ldr	r0, [r2, #-8]
	ldrb	r3, [ip, r4, asr #16]	@ zero_extendqisi2
	ldr	r2, [sp, #36]
	ldrb	r3, [r0, r3]	@ zero_extendqisi2
	ldr	r2, [r2]
	add	r3, r1, r3, asl #7
	ldrh	r3, [r2, r3]
	ldr	r2, [sp, #12]
	strh	r3, [r2]	@ movhi
	b	.L839
.LVL812:
.L914:
.LBE162:
.LBE161:
	.loc 3 289 0
	mov	r8, #126
	str	r0, [sp, #4]
	ldr	r0, [sp, #8]
	ldr	lr, .L918+32
	add	r7, r0, #1
	ldr	r0, [sp, #12]
	ldr	r9, [lr]
	ldr	lr, .L918+36
	add	r7, r7, r3
	and	r1, r1, #3
.LVL813:
	add	r5, r0, #8
.LVL814:
.L857:
	and	r6, r3, #3
	add	r6, r1, r6, asl #2
	ldrb	r6, [lr, r6]	@ zero_extendqisi2
	bic	r10, r4, #-16777216
	cmp	r6, r2
	movge	r6, #0
	movlt	r6, #1
	add	r0, sp, #48
	add	r6, r0, r6, asl #2
	bic	r10, r10, #8388608
	ldrb	r10, [ip, r10, asr #16]	@ zero_extendqisi2
	ldr	r6, [r6, #-8]
	ldrh	r0, [sp, #4]
	ldrb	r6, [r6, r10]	@ zero_extendqisi2
	.loc 3 290 0
	add	r3, r3, #1
.LVL815:
	.loc 3 289 0
	smlabb	r6, r0, r6, r8
	ldrh	r6, [r9, r6]
	.loc 3 288 0
	cmp	r3, r7
	.loc 3 289 0
	strh	r6, [r5, #-8]	@ movhi
	.loc 3 292 0
	add	r4, r4, fp
.LVL816:
	add	r5, r5, #8
.LVL817:
	.loc 3 288 0
	bne	.L857
.LBE172:
	.loc 3 357 0
	add	sp, sp, #52
	.cfi_remember_state
	.cfi_def_cfa_offset 36
	@ sp needed
	ldmfd	sp!, {r4, r5, r6, r7, r8, r9, r10, fp, pc}
.LVL818:
.L861:
	.cfi_restore_state
.LBB173:
.LBB165:
.LBB163:
	.loc 3 325 0
	cmp	r4, #0
	.loc 3 323 0
	mov	r0, r0, asl #16
.LVL819:
	.loc 3 325 0
	bge	.L910
	b	.L867
.L869:
	rsb	r4, r0, r4
.LVL820:
.L910:
	.loc 3 328 0
	cmp	r4, r0
	bge	.L869
.L866:
	ldr	r5, [sp, #8]
	.loc 3 345 0
	ldr	lr, .L918+32
	add	r7, r5, #1
	ldr	lr, [lr]
	ldr	r5, [sp, #12]
	add	r7, r7, r3
	add	r5, r5, #8
	and	r1, r1, #3
.LVL821:
	str	lr, [sp, #4]
	ldr	r10, .L918+36
	mov	r9, #128
	b	.L868
.LVL822:
.L871:
	ldrb	lr, [r10, lr]	@ zero_extendqisi2
	add	r8, sp, #48
	cmp	lr, r2
	movge	lr, #0
	movlt	lr, #1
	add	lr, r8, lr, asl #2
	ldrb	r6, [ip, r4, asr #16]	@ zero_extendqisi2
	ldr	lr, [lr, #-8]
	.loc 3 348 0
	add	r4, r4, fp
.LVL823:
	.loc 3 345 0
	ldrb	lr, [lr, r6]	@ zero_extendqisi2
	mov	r6, #126
	smlabb	lr, r9, lr, r6
	ldr	r6, [sp, #4]
	.loc 3 348 0
	cmp	r4, r0
	.loc 3 345 0
	ldrh	lr, [r6, lr]
	.loc 3 346 0
	add	r3, r3, #1
.LVL824:
	.loc 3 345 0
	strh	lr, [r5, #-8]	@ movhi
	.loc 3 348 0
	rsbge	r4, r0, r4
.LVL825:
	add	r5, r5, #8
.LVL826:
.L868:
	.loc 3 345 0
	and	lr, r3, #3
	.loc 3 339 0
	cmp	r3, r7
	.loc 3 345 0
	add	lr, r1, lr, asl #2
	.loc 3 339 0
	bne	.L871
.LBE163:
.LBE165:
.LBE173:
	.loc 3 357 0
	add	sp, sp, #52
	.cfi_remember_state
	.cfi_def_cfa_offset 36
	@ sp needed
	ldmfd	sp!, {r4, r5, r6, r7, r8, r9, r10, fp, pc}
.LVL827:
.L867:
	.cfi_restore_state
.LBB174:
.LBB166:
.LBB164:
	.loc 3 326 0 discriminator 1
	adds	r4, r0, r4
.LVL828:
	bpl	.L866
.LVL829:
	.loc 3 326 0 is_stmt 0
	adds	r4, r0, r4
.LVL830:
	bmi	.L867
	b	.L866
.LVL831:
.L916:
.LBE164:
.LBE166:
.LBE174:
	.loc 3 216 0 is_stmt 1 discriminator 1
	ldr	r3, [r7, #12]
	ldr	r1, [r6]
	add	r3, r2, r3
	cmp	r3, r1
	bne	.L848
	b	.L850
.L915:
.LBB175:
	.loc 3 197 0
	mvn	r0, r8
	mov	r1, fp
	uxth	r0, r0
	b	.L908
.LVL832:
.L917:
	ldr	r0, .L918+32
	and	r1, r1, #3
.LVL833:
	str	r0, [sp, #36]
	ldr	lr, .L918+36
	b	.L872
.L919:
	.align	2
.L918:
	.word	centery
	.word	.LANCHOR0
	.word	.LANCHOR0+1220
	.word	.LANCHOR2
	.word	.LANCHOR1
	.word	R_FlushWhole15
	.word	R_FlushHT15
	.word	R_FlushQuad15
	.word	V_Palette15
	.word	filter_ditherMatrix
	.word	viewheight
.LBE175:
	.cfi_endproc
.LFE57:
	.size	R_DrawColumn15_PointUV_LinearZ, .-R_DrawColumn15_PointUV_LinearZ
	.align	2
	.type	R_DrawColumn16_PointUV, %function
R_DrawColumn16_PointUV:
.LFB64:
	.loc 3 113 0
	.cfi_startproc
	@ args = 0, pretend = 0, frame = 16
	@ frame_needed = 0, uses_anonymous_args = 0
.LVL834:
	stmfd	sp!, {r4, r5, r6, r7, r8, r9, r10, fp, lr}
	.cfi_def_cfa_offset 36
	.cfi_offset 4, -36
	.cfi_offset 5, -32
	.cfi_offset 6, -28
	.cfi_offset 7, -24
	.cfi_offset 8, -20
	.cfi_offset 9, -16
	.cfi_offset 10, -12
	.cfi_offset 11, -8
	.cfi_offset 14, -4
	.loc 3 149 0
	ldmib	r0, {r8, r9}
	.loc 3 157 0
	subs	r5, r9, r8
	.loc 3 113 0
	sub	sp, sp, #20
	.cfi_def_cfa_offset 56
	.loc 3 117 0
	ldr	r6, [r0, #16]
.LVL835:
	.loc 3 121 0
	ldr	r10, [r0, #28]
.LVL836:
	.loc 3 157 0
	bmi	.L920
	.loc 3 171 0
	ldr	r3, .L993
	.loc 3 174 0
	ldr	r2, [r0, #60]
	.loc 3 171 0
	ldr	r3, [r3]
	ldr	r4, [r0, #20]
	rsb	r3, r3, r8
	.loc 3 174 0
	cmp	r2, #0
	mov	r7, r0
	.loc 3 171 0
	mla	r4, r6, r3, r4
.LVL837:
	.loc 3 174 0
	bne	.L988
.LVL838:
.L923:
	.loc 3 215 0
	ldr	r8, .L993+4
	ldr	r2, [r8]
	cmp	r2, #4
	beq	.L929
	.loc 3 215 0 is_stmt 0 discriminator 1
	cmp	r2, #0
	bne	.L989
.L930:
	.loc 3 224 0 is_stmt 1
	mov	fp, #1
	ldr	r0, .L993+8
	.loc 3 230 0
	ldr	r2, .L993+12
	ldr	lr, .L993+16
	.loc 3 231 0
	ldr	ip, .L993+20
	.loc 3 224 0
	str	fp, [r0, #-1204]
	.loc 3 232 0
	ldr	r0, .L993+24
	.loc 3 230 0
	str	lr, [r2]
	.loc 3 231 0
	str	ip, [r2, #4]
	.loc 3 232 0
	str	r0, [r2, #8]
	mov	r2, #0
	.loc 3 222 0
	ldr	r3, [r7, #4]
	.loc 3 221 0
	ldr	r10, [r7]
.LVL839:
	.loc 3 223 0
	ldr	r1, [r7, #8]
	.loc 3 233 0
	ldr	r9, .L993+28
	.loc 3 222 0
	str	r3, [r8, #4]
	str	r3, [r8, #16]
	.loc 3 221 0
	str	r10, [r8, #12]
	.loc 3 233 0
	add	r3, r9, r3, asl #3
.LVL840:
	.loc 3 223 0
	str	r1, [r8, #8]
	str	r1, [r8, #32]
.L932:
.LBB176:
	.loc 3 286 0
	ldr	r1, [r7, #24]
.LBE176:
	.loc 3 245 0
	add	r2, r2, #1
.LBB183:
	.loc 3 286 0
	cmp	r1, #128
.LBE183:
	.loc 3 245 0
	str	r2, [r8]
.LBB184:
	.loc 3 278 0
	add	ip, r5, #1
	.loc 3 251 0
	ldr	r2, [r7, #32]
.LVL841:
	.loc 3 286 0
	beq	.L990
	.loc 3 294 0
	cmp	r1, #0
	bne	.L936
.LVL842:
	.loc 3 297 0
	mov	lr, #128
	mov	ip, #126
	ldr	r1, .L993+32
	add	r3, r3, #8
.LVL843:
	ldr	r0, [r1]
.LVL844:
.L937:
	ldrb	r1, [r2, r4, asr #16]	@ zero_extendqisi2
	.loc 3 296 0
	sub	r5, r5, #1
.LVL845:
	.loc 3 297 0
	smlabb	r1, lr, r1, ip
	ldrh	r1, [r0, r1]
	.loc 3 296 0
	cmn	r5, #1
	.loc 3 297 0
	strh	r1, [r3, #-8]	@ movhi
.LVL846:
	.loc 3 300 0
	add	r4, r4, r6
.LVL847:
	add	r3, r3, #8
.LVL848:
	.loc 3 296 0
	bne	.L937
.LVL849:
.L920:
.LBE184:
	.loc 3 357 0
	add	sp, sp, #20
	.cfi_remember_state
	.cfi_def_cfa_offset 36
	@ sp needed
	ldmfd	sp!, {r4, r5, r6, r7, r8, r9, r10, fp, pc}
.LVL850:
.L988:
	.cfi_restore_state
	.loc 3 174 0 discriminator 1
	ldr	r3, [r0, #64]
	cmp	r3, #1
	bne	.L923
	.loc 3 178 0
	cmp	r8, #0
	beq	.L924
	.loc 3 179 0
	ldr	r3, [r0, #56]
	tst	r3, #1
.LBB185:
	.loc 3 181 0
	mvnne	fp, r10
	uxthne	fp, fp
.LBE185:
	.loc 3 179 0
	bne	.L985
	.loc 3 186 0
	tst	r3, #2
	beq	.L924
.LBB186:
	.loc 3 188 0
	uxth	fp, r10
.L985:
	mov	r0, fp
.LVL851:
	mov	r1, r6
	bl	__aeabi_idiv
.LVL852:
	.loc 3 189 0
	add	r8, r8, r0
	.loc 3 191 0
	add	r4, r4, fp
.LVL853:
	.loc 3 189 0
	str	r8, [r7, #4]
	.loc 3 190 0
	rsb	r5, r0, r5
.LVL854:
.L924:
.LBE186:
	.loc 3 194 0
	ldr	r3, .L993+36
	ldr	r3, [r3]
	sub	r3, r3, #1
	cmp	r9, r3
	beq	.L926
	.loc 3 195 0
	ldr	r3, [r7, #56]
	tst	r3, #4
	bne	.L991
	.loc 3 201 0
	tst	r3, #8
	beq	.L926
.LBB187:
	.loc 3 203 0
	uxth	r0, r10
	mov	r1, r6
	bl	__aeabi_idiv
.LVL855:
	.loc 3 204 0
	rsb	r9, r0, r9
	str	r9, [r7, #8]
	.loc 3 205 0
	rsb	r5, r0, r5
.LVL856:
.L926:
.LBE187:
	.loc 3 208 0
	cmp	r5, #0
	bgt	.L923
	b	.L920
.L989:
	.loc 3 216 0
	ldr	r3, .L993+8
	ldr	r3, [r3, #-1204]
	cmp	r3, #1
	beq	.L992
.L929:
	.loc 3 217 0
	bl	R_FlushColumns
.LVL857:
	.loc 3 219 0
	ldr	r2, [r8]
	cmp	r2, #0
	beq	.L930
.L931:
	.loc 3 235 0
	ldr	r3, [r7, #4]
	.loc 3 238 0
	ldr	r0, [r8, #4]
	.loc 3 236 0
	ldr	r1, [r7, #8]
	.loc 3 238 0
	cmp	r3, r0
	.loc 3 235 0
	add	r0, r8, r2, asl #2
	str	r3, [r0, #16]
	.loc 3 236 0
	str	r1, [r0, #32]
	.loc 3 235 0
	ldr	r0, .L993+4
	.loc 3 240 0
	ldr	ip, .L993+4
	.loc 3 239 0
	strgt	r3, [r0, #4]
	.loc 3 240 0
	ldr	r0, [r8, #8]
	.loc 3 243 0
	add	r2, r2, r3, asl #2
	.loc 3 240 0
	cmp	r1, r0
	.loc 3 241 0
	strlt	r1, [ip, #8]
	.loc 3 243 0
	ldr	r1, .L993+28
	add	r3, r1, r2, asl #1
.LVL858:
	ldr	r2, [r8]
	b	.L932
.LVL859:
.L936:
.LBB188:
.LBB177:
	.loc 3 303 0
	sub	r0, r1, #1
.LVL860:
	.loc 3 304 0
	tst	r0, r1
	bne	.L938
.LBB178:
	.loc 3 305 0
	mov	lr, r0, asl #16
	mvn	lr, lr, lsr #16
	.loc 3 306 0
	sub	r1, r5, #1
	cmn	r1, #1
	str	r1, [sp]
	mov	r7, r1
.LVL861:
	ldreq	r1, .L993+32
	.loc 3 305 0
	mvn	lr, lr, asl #16
.LVL862:
	streq	r1, [sp, #12]
	.loc 3 306 0
	beq	.L951
	ldr	r1, .L993+32
	mov	r0, r4
.LVL863:
	mov	ip, r1
	ldr	r8, [ip]
	mov	ip, r6, asl #1
	.loc 3 307 0
	mov	r10, #128
	mov	r9, #126
	mov	fp, ip
	str	r1, [sp, #12]
	str	ip, [sp, #4]
	add	r1, r3, #16
	str	r5, [sp, #8]
.LVL864:
.L940:
	and	ip, r0, lr
	ldrb	ip, [r2, ip, asr #16]	@ zero_extendqisi2
	.loc 3 306 0
	subs	r7, r7, #2
.LVL865:
	.loc 3 307 0
	smlabb	ip, r10, ip, r9
	ldrh	r5, [r8, ip]
	add	ip, r6, r0
	strh	r5, [r1, #-16]	@ movhi
.LVL866:
	.loc 3 311 0
	and	ip, ip, lr
.LVL867:
	ldrb	ip, [r2, ip, asr #16]	@ zero_extendqisi2
	add	r0, fp, r0
.LVL868:
	smlabb	ip, r10, ip, r9
	ldrh	ip, [r8, ip]
	add	r1, r1, #16
.LVL869:
	strh	ip, [r1, #-24]	@ movhi
.LVL870:
	.loc 3 306 0
	bpl	.L940
	ldr	r1, [sp]
	ldr	r5, [sp, #8]
	mov	r1, r1, lsr #1
	ldr	ip, [sp, #4]
	add	r4, r4, r6, asl #1
	add	r0, r1, #1
.LVL871:
	.loc 3 316 0
	tst	r5, #1
	mla	r4, ip, r1, r4
	add	r3, r3, r0, asl #4
	bne	.L920
.L951:
	.loc 3 317 0
	mov	r1, #126
	and	r4, r4, lr
	ldr	r0, [sp, #12]
	ldrb	r2, [r2, r4, asr #16]	@ zero_extendqisi2
.LVL872:
	ldr	r0, [r0]
	add	r2, r1, r2, asl #7
	ldrh	r2, [r0, r2]
	strh	r2, [r3]	@ movhi
	b	.L920
.LVL873:
.L990:
.LBE178:
.LBE177:
	.loc 3 289 0
	mov	lr, #126
	ldr	r0, .L993+32
	add	r3, r3, #8
.LVL874:
	ldr	ip, [r0]
.LVL875:
.L935:
	bic	r0, r4, #-16777216
	bic	r0, r0, #8388608
	ldrb	r0, [r2, r0, asr #16]	@ zero_extendqisi2
	.loc 3 288 0
	sub	r5, r5, #1
.LVL876:
	.loc 3 289 0
	smlabb	r0, r1, r0, lr
	ldrh	r0, [ip, r0]
	.loc 3 288 0
	cmn	r5, #1
	.loc 3 289 0
	strh	r0, [r3, #-8]	@ movhi
.LVL877:
	.loc 3 292 0
	add	r4, r4, r6
.LVL878:
	add	r3, r3, #8
.LVL879:
	.loc 3 288 0
	bne	.L935
.LBE188:
	.loc 3 357 0
	add	sp, sp, #20
	.cfi_remember_state
	.cfi_def_cfa_offset 36
	@ sp needed
	ldmfd	sp!, {r4, r5, r6, r7, r8, r9, r10, fp, pc}
.LVL880:
.L938:
	.cfi_restore_state
.LBB189:
.LBB181:
.LBB179:
	.loc 3 325 0
	cmp	r4, #0
	.loc 3 323 0
	mov	r1, r1, asl #16
.LVL881:
	.loc 3 325 0
	blt	.L944
	.loc 3 328 0
	cmp	r4, r1
	blt	.L943
.L946:
	rsb	r4, r1, r4
.LVL882:
	cmp	r1, r4
	ble	.L946
.L943:
	.loc 3 345 0
	ldr	r0, .L993+32
	add	r3, r3, #8
.LVL883:
	ldr	r7, [r0]
.LVL884:
	mov	r5, #128
	mov	lr, #126
	b	.L945
.LVL885:
.L948:
	ldrb	r0, [r2, r4, asr #16]	@ zero_extendqisi2
	.loc 3 348 0
	add	r4, r4, r6
.LVL886:
	.loc 3 345 0
	smlabb	r0, r5, r0, lr
	ldrh	r0, [r7, r0]
	.loc 3 348 0
	cmp	r4, r1
	.loc 3 345 0
	strh	r0, [r3, #-8]	@ movhi
.LVL887:
	.loc 3 348 0
	rsbge	r4, r1, r4
.LVL888:
	add	r3, r3, #8
.LVL889:
.L945:
	.loc 3 339 0
	subs	ip, ip, #1
.LVL890:
	bcs	.L948
.LBE179:
.LBE181:
.LBE189:
	.loc 3 357 0
	add	sp, sp, #20
	.cfi_remember_state
	.cfi_def_cfa_offset 36
	@ sp needed
	ldmfd	sp!, {r4, r5, r6, r7, r8, r9, r10, fp, pc}
.LVL891:
.L944:
	.cfi_restore_state
.LBB190:
.LBB182:
.LBB180:
	.loc 3 326 0 discriminator 1
	adds	r4, r1, r4
.LVL892:
	bpl	.L943
.LVL893:
	.loc 3 326 0 is_stmt 0
	adds	r4, r1, r4
.LVL894:
	bmi	.L944
	b	.L943
.LVL895:
.L992:
.LBE180:
.LBE182:
.LBE190:
	.loc 3 216 0 is_stmt 1 discriminator 1
	ldr	r3, [r8, #12]
	ldr	r1, [r7]
	add	r3, r2, r3
	cmp	r3, r1
	bne	.L929
	b	.L931
.L991:
.LBB191:
	.loc 3 197 0
	mvn	r0, r10
	mov	r1, r6
	uxth	r0, r0
	bl	__aeabi_idiv
.LVL896:
	.loc 3 198 0
	rsb	r9, r0, r9
	str	r9, [r7, #8]
	.loc 3 199 0
	rsb	r5, r0, r5
.LVL897:
.LBE191:
	b	.L926
.L994:
	.align	2
.L993:
	.word	centery
	.word	.LANCHOR0
	.word	.LANCHOR2
	.word	.LANCHOR1
	.word	R_FlushWhole16
	.word	R_FlushHT16
	.word	R_FlushQuad16
	.word	.LANCHOR0+1220
	.word	V_Palette16
	.word	viewheight
	.cfi_endproc
.LFE64:
	.size	R_DrawColumn16_PointUV, .-R_DrawColumn16_PointUV
	.align	2
	.type	R_DrawColumn16_PointUV_PointZ, %function
R_DrawColumn16_PointUV_PointZ:
.LFB65:
	.loc 3 113 0
	.cfi_startproc
	@ args = 0, pretend = 0, frame = 24
	@ frame_needed = 0, uses_anonymous_args = 0
.LVL898:
	stmfd	sp!, {r4, r5, r6, r7, r8, r9, r10, fp, lr}
	.cfi_def_cfa_offset 36
	.cfi_offset 4, -36
	.cfi_offset 5, -32
	.cfi_offset 6, -28
	.cfi_offset 7, -24
	.cfi_offset 8, -20
	.cfi_offset 9, -16
	.cfi_offset 10, -12
	.cfi_offset 11, -8
	.cfi_offset 14, -4
	.loc 3 149 0
	ldmib	r0, {r8, r9}
	.loc 3 157 0
	subs	r5, r9, r8
	.loc 3 113 0
	sub	sp, sp, #28
	.cfi_def_cfa_offset 64
	.loc 3 117 0
	ldr	r6, [r0, #16]
.LVL899:
	.loc 3 121 0
	ldr	r10, [r0, #28]
.LVL900:
	.loc 3 157 0
	bmi	.L995
	.loc 3 171 0
	ldr	r3, .L1068
	.loc 3 174 0
	ldr	r2, [r0, #60]
	.loc 3 171 0
	ldr	r3, [r3]
	ldr	r4, [r0, #20]
	rsb	r3, r3, r8
	.loc 3 174 0
	cmp	r2, #0
	mov	r7, r0
	.loc 3 171 0
	mla	r4, r6, r3, r4
.LVL901:
	.loc 3 174 0
	bne	.L1063
.LVL902:
.L998:
	.loc 3 215 0
	ldr	r8, .L1068+4
	ldr	r2, [r8]
	cmp	r2, #4
	beq	.L1004
	.loc 3 215 0 is_stmt 0 discriminator 1
	cmp	r2, #0
	bne	.L1064
.L1005:
	.loc 3 224 0 is_stmt 1
	mov	fp, #1
	ldr	r0, .L1068+8
	.loc 3 230 0
	ldr	r2, .L1068+12
	ldr	lr, .L1068+16
	.loc 3 231 0
	ldr	ip, .L1068+20
	.loc 3 224 0
	str	fp, [r0, #-1204]
	.loc 3 232 0
	ldr	r0, .L1068+24
	.loc 3 230 0
	str	lr, [r2]
	.loc 3 231 0
	str	ip, [r2, #4]
	.loc 3 232 0
	str	r0, [r2, #8]
	mov	r2, #0
	.loc 3 222 0
	ldr	r3, [r7, #4]
	.loc 3 233 0
	ldr	r9, .L1068+28
	.loc 3 221 0
	ldr	r10, [r7]
.LVL903:
	.loc 3 223 0
	ldr	r1, [r7, #8]
	.loc 3 222 0
	str	r3, [r8, #4]
	str	r3, [r8, #16]
	.loc 3 233 0
	add	r3, r9, r3, asl #3
	.loc 3 221 0
	str	r10, [r8, #12]
	.loc 3 233 0
	str	r3, [sp, #4]
.LVL904:
	.loc 3 223 0
	str	r1, [r8, #8]
	str	r1, [r8, #32]
.L1007:
.LVL905:
.LBB192:
	.loc 3 286 0
	ldr	r1, [r7, #24]
.LBE192:
	.loc 3 245 0
	add	r2, r2, #1
.LBB199:
	.loc 3 286 0
	cmp	r1, #128
.LBE199:
	.loc 3 245 0
	str	r2, [r8]
.LBB200:
	.loc 3 252 0
	ldr	r0, [r7, #44]
	.loc 3 251 0
	ldr	r2, [r7, #32]
.LVL906:
	.loc 3 278 0
	add	lr, r5, #1
.LVL907:
	.loc 3 286 0
	beq	.L1065
	.loc 3 294 0
	cmp	r1, #0
	bne	.L1011
.LVL908:
	.loc 3 297 0
	mov	r7, #128
.LVL909:
	mov	lr, #126
	ldr	r1, .L1068+32
	ldr	r3, [sp, #4]
	ldr	ip, [r1]
	add	r3, r3, #8
.LVL910:
.L1012:
	ldrb	r1, [r2, r4, asr #16]	@ zero_extendqisi2
	.loc 3 296 0
	sub	r5, r5, #1
.LVL911:
	.loc 3 297 0
	ldrb	r1, [r0, r1]	@ zero_extendqisi2
	.loc 3 296 0
	cmn	r5, #1
	.loc 3 297 0
	smlabb	r1, r7, r1, lr
	ldrh	r1, [ip, r1]
	.loc 3 300 0
	add	r4, r4, r6
.LVL912:
	.loc 3 297 0
	strh	r1, [r3, #-8]	@ movhi
.LVL913:
	add	r3, r3, #8
.LVL914:
	.loc 3 296 0
	bne	.L1012
.LVL915:
.L995:
.LBE200:
	.loc 3 357 0
	add	sp, sp, #28
	.cfi_remember_state
	.cfi_def_cfa_offset 36
	@ sp needed
	ldmfd	sp!, {r4, r5, r6, r7, r8, r9, r10, fp, pc}
.LVL916:
.L1063:
	.cfi_restore_state
	.loc 3 174 0 discriminator 1
	ldr	r3, [r0, #64]
	cmp	r3, #1
	bne	.L998
	.loc 3 178 0
	cmp	r8, #0
	beq	.L999
	.loc 3 179 0
	ldr	r3, [r0, #56]
	tst	r3, #1
.LBB201:
	.loc 3 181 0
	mvnne	fp, r10
	uxthne	fp, fp
.LBE201:
	.loc 3 179 0
	bne	.L1060
	.loc 3 186 0
	tst	r3, #2
	beq	.L999
.LBB202:
	.loc 3 188 0
	uxth	fp, r10
.L1060:
	mov	r0, fp
.LVL917:
	mov	r1, r6
	bl	__aeabi_idiv
.LVL918:
	.loc 3 189 0
	add	r8, r8, r0
	.loc 3 191 0
	add	r4, r4, fp
.LVL919:
	.loc 3 189 0
	str	r8, [r7, #4]
	.loc 3 190 0
	rsb	r5, r0, r5
.LVL920:
.L999:
.LBE202:
	.loc 3 194 0
	ldr	r3, .L1068+36
	ldr	r3, [r3]
	sub	r3, r3, #1
	cmp	r9, r3
	beq	.L1001
	.loc 3 195 0
	ldr	r3, [r7, #56]
	tst	r3, #4
	bne	.L1066
	.loc 3 201 0
	tst	r3, #8
	beq	.L1001
.LBB203:
	.loc 3 203 0
	uxth	r0, r10
	mov	r1, r6
	bl	__aeabi_idiv
.LVL921:
	.loc 3 204 0
	rsb	r9, r0, r9
	str	r9, [r7, #8]
	.loc 3 205 0
	rsb	r5, r0, r5
.LVL922:
.L1001:
.LBE203:
	.loc 3 208 0
	cmp	r5, #0
	bgt	.L998
	b	.L995
.L1064:
	.loc 3 216 0
	ldr	r3, .L1068+8
	ldr	r3, [r3, #-1204]
	cmp	r3, #1
	beq	.L1067
.L1004:
	.loc 3 217 0
	bl	R_FlushColumns
.LVL923:
	.loc 3 219 0
	ldr	r2, [r8]
	cmp	r2, #0
	beq	.L1005
.L1006:
	.loc 3 235 0
	ldr	r3, [r7, #4]
	.loc 3 238 0
	ldr	r0, [r8, #4]
	.loc 3 236 0
	ldr	r1, [r7, #8]
	.loc 3 238 0
	cmp	r3, r0
	.loc 3 235 0
	add	r0, r8, r2, asl #2
	str	r3, [r0, #16]
	.loc 3 236 0
	str	r1, [r0, #32]
	.loc 3 235 0
	ldr	r0, .L1068+4
	.loc 3 240 0
	ldr	ip, .L1068+4
	.loc 3 239 0
	strgt	r3, [r0, #4]
	.loc 3 240 0
	ldr	r0, [r8, #8]
	.loc 3 243 0
	add	r2, r2, r3, asl #2
	.loc 3 240 0
	cmp	r1, r0
	.loc 3 241 0
	strlt	r1, [ip, #8]
	.loc 3 243 0
	ldr	r1, .L1068+28
	add	r3, r1, r2, asl #1
	str	r3, [sp, #4]
.LVL924:
	ldr	r2, [r8]
	b	.L1007
.LVL925:
.L1011:
.LBB204:
.LBB193:
	.loc 3 303 0
	sub	ip, r1, #1
.LVL926:
	.loc 3 304 0
	tst	ip, r1
	bne	.L1013
.LBB194:
	.loc 3 305 0
	mov	r7, ip, asl #16
.LVL927:
	mvn	r7, r7, lsr #16
	.loc 3 306 0
	sub	r3, r5, #1
	cmn	r3, #1
	str	r3, [sp, #8]
	ldreq	r3, .L1068+32
	.loc 3 305 0
	mvn	r7, r7, asl #16
.LVL928:
	streq	r3, [sp, #20]
	.loc 3 306 0
	beq	.L1026
	ldr	r1, .L1068+32
	mov	ip, r4
.LVL929:
	mov	lr, r1
	ldr	r8, [lr]
	mov	lr, r6, asl #1
	.loc 3 307 0
	mov	r10, #128
	mov	r9, #126
	mov	fp, lr
	str	r1, [sp, #20]
	ldr	r1, [sp, #4]
	str	lr, [sp, #12]
	add	r1, r1, #16
	str	r5, [sp, #16]
.LVL930:
.L1015:
	and	lr, ip, r7
	ldrb	lr, [r2, lr, asr #16]	@ zero_extendqisi2
	.loc 3 306 0
	subs	r3, r3, #2
.LVL931:
	.loc 3 307 0
	ldrb	r5, [r0, lr]	@ zero_extendqisi2
	add	lr, r6, ip
	smlabb	r5, r10, r5, r9
	ldrh	r5, [r8, r5]
	.loc 3 311 0
	and	lr, lr, r7
	.loc 3 307 0
	strh	r5, [r1, #-16]	@ movhi
.LVL932:
	.loc 3 311 0
	ldrb	lr, [r2, lr, asr #16]	@ zero_extendqisi2
	add	ip, fp, ip
.LVL933:
	ldrb	lr, [r0, lr]	@ zero_extendqisi2
	add	r1, r1, #16
.LVL934:
	smlabb	lr, r10, lr, r9
	ldrh	lr, [r8, lr]
	strh	lr, [r1, #-24]	@ movhi
.LVL935:
	.loc 3 306 0
	bpl	.L1015
	ldr	r3, [sp, #8]
	add	r4, r4, r6, asl #1
	mov	r1, r3, lsr #1
	ldr	r3, [sp, #12]
	ldr	r5, [sp, #16]
	mla	r4, r3, r1, r4
	ldr	r3, [sp, #4]
	add	ip, r1, #1
.LVL936:
	add	r3, r3, ip, asl #4
	.loc 3 316 0
	tst	r5, #1
	str	r3, [sp, #4]
	bne	.L995
.L1026:
	.loc 3 317 0
	mov	r1, #126
	and	r4, r4, r7
	ldrb	r2, [r2, r4, asr #16]	@ zero_extendqisi2
.LVL937:
	ldr	r3, [sp, #20]
	ldrb	r2, [r0, r2]	@ zero_extendqisi2
	ldr	ip, [r3]
	add	r2, r1, r2, asl #7
	ldrh	r2, [ip, r2]
	ldr	r3, [sp, #4]
	strh	r2, [r3]	@ movhi
	b	.L995
.LVL938:
.L1065:
.LBE194:
.LBE193:
	.loc 3 289 0
	mov	lr, #126
	ldr	ip, .L1068+32
	ldr	r3, [sp, #4]
	ldr	r7, [ip]
.LVL939:
	add	r3, r3, #8
.LVL940:
.L1010:
	bic	ip, r4, #-16777216
	bic	ip, ip, #8388608
	ldrb	ip, [r2, ip, asr #16]	@ zero_extendqisi2
	.loc 3 288 0
	sub	r5, r5, #1
.LVL941:
	.loc 3 289 0
	ldrb	ip, [r0, ip]	@ zero_extendqisi2
	.loc 3 288 0
	cmn	r5, #1
	.loc 3 289 0
	smlabb	ip, r1, ip, lr
	ldrh	ip, [r7, ip]
	.loc 3 292 0
	add	r4, r4, r6
.LVL942:
	.loc 3 289 0
	strh	ip, [r3, #-8]	@ movhi
.LVL943:
	add	r3, r3, #8
.LVL944:
	.loc 3 288 0
	bne	.L1010
.LBE204:
	.loc 3 357 0
	add	sp, sp, #28
	.cfi_remember_state
	.cfi_def_cfa_offset 36
	@ sp needed
	ldmfd	sp!, {r4, r5, r6, r7, r8, r9, r10, fp, pc}
.LVL945:
.L1013:
	.cfi_restore_state
.LBB205:
.LBB197:
.LBB195:
	.loc 3 325 0
	cmp	r4, #0
	.loc 3 323 0
	mov	r1, r1, asl #16
.LVL946:
	.loc 3 325 0
	blt	.L1019
	.loc 3 328 0
	cmp	r4, r1
	blt	.L1018
.L1021:
	rsb	r4, r1, r4
.LVL947:
	cmp	r1, r4
	ble	.L1021
.L1018:
	.loc 3 345 0
	ldr	ip, .L1068+32
	ldr	r3, [sp, #4]
	ldr	r8, [ip]
	add	r3, r3, #8
	mov	r7, #128
.LVL948:
	mov	r5, #126
	b	.L1020
.LVL949:
.L1023:
	ldrb	ip, [r2, r4, asr #16]	@ zero_extendqisi2
	.loc 3 348 0
	add	r4, r4, r6
.LVL950:
	.loc 3 345 0
	ldrb	ip, [r0, ip]	@ zero_extendqisi2
	.loc 3 348 0
	cmp	r4, r1
	.loc 3 345 0
	smlabb	ip, r7, ip, r5
	ldrh	ip, [r8, ip]
	.loc 3 348 0
	rsbge	r4, r1, r4
	.loc 3 345 0
	strh	ip, [r3, #-8]	@ movhi
.LVL951:
	add	r3, r3, #8
.LVL952:
.L1020:
	.loc 3 339 0
	subs	lr, lr, #1
.LVL953:
	bcs	.L1023
.LBE195:
.LBE197:
.LBE205:
	.loc 3 357 0
	add	sp, sp, #28
	.cfi_remember_state
	.cfi_def_cfa_offset 36
	@ sp needed
	ldmfd	sp!, {r4, r5, r6, r7, r8, r9, r10, fp, pc}
.LVL954:
.L1019:
	.cfi_restore_state
.LBB206:
.LBB198:
.LBB196:
	.loc 3 326 0 discriminator 1
	adds	r4, r1, r4
.LVL955:
	bpl	.L1018
.LVL956:
	.loc 3 326 0 is_stmt 0
	adds	r4, r1, r4
.LVL957:
	bmi	.L1019
	b	.L1018
.LVL958:
.L1067:
.LBE196:
.LBE198:
.LBE206:
	.loc 3 216 0 is_stmt 1 discriminator 1
	ldr	r3, [r8, #12]
	ldr	r1, [r7]
	add	r3, r2, r3
	cmp	r3, r1
	bne	.L1004
	b	.L1006
.L1066:
.LBB207:
	.loc 3 197 0
	mvn	r0, r10
	mov	r1, r6
	uxth	r0, r0
	bl	__aeabi_idiv
.LVL959:
	.loc 3 198 0
	rsb	r9, r0, r9
	str	r9, [r7, #8]
	.loc 3 199 0
	rsb	r5, r0, r5
.LVL960:
.LBE207:
	b	.L1001
.L1069:
	.align	2
.L1068:
	.word	centery
	.word	.LANCHOR0
	.word	.LANCHOR2
	.word	.LANCHOR1
	.word	R_FlushWhole16
	.word	R_FlushHT16
	.word	R_FlushQuad16
	.word	.LANCHOR0+1220
	.word	V_Palette16
	.word	viewheight
	.cfi_endproc
.LFE65:
	.size	R_DrawColumn16_PointUV_PointZ, .-R_DrawColumn16_PointUV_PointZ
	.align	2
	.type	R_DrawColumn16_PointUV_LinearZ, %function
R_DrawColumn16_PointUV_LinearZ:
.LFB66:
	.loc 3 113 0
	.cfi_startproc
	@ args = 0, pretend = 0, frame = 48
	@ frame_needed = 0, uses_anonymous_args = 0
.LVL961:
	stmfd	sp!, {r4, r5, r6, r7, r8, r9, r10, fp, lr}
	.cfi_def_cfa_offset 36
	.cfi_offset 4, -36
	.cfi_offset 5, -32
	.cfi_offset 6, -28
	.cfi_offset 7, -24
	.cfi_offset 8, -20
	.cfi_offset 9, -16
	.cfi_offset 10, -12
	.cfi_offset 11, -8
	.cfi_offset 14, -4
	.loc 3 149 0
	ldmib	r0, {r5, r7}
	.loc 3 113 0
	sub	sp, sp, #52
	.cfi_def_cfa_offset 88
	.loc 3 157 0
	subs	r3, r7, r5
	.loc 3 117 0
	ldr	fp, [r0, #16]
.LVL962:
	.loc 3 157 0
	str	r3, [sp, #8]
	.loc 3 121 0
	ldr	r8, [r0, #28]
.LVL963:
	.loc 3 157 0
	bmi	.L1070
	.loc 3 171 0
	ldr	r3, .L1149
.LVL964:
	.loc 3 174 0
	ldr	r2, [r0, #60]
	.loc 3 171 0
	ldr	r3, [r3]
	ldr	r4, [r0, #20]
	rsb	r3, r3, r5
	.loc 3 174 0
	cmp	r2, #0
	mov	r6, r0
	.loc 3 171 0
	mla	r4, fp, r3, r4
.LVL965:
	.loc 3 174 0
	bne	.L1143
.LVL966:
.L1073:
	.loc 3 215 0
	ldr	r7, .L1149+4
	ldr	r2, [r7]
	cmp	r2, #4
	beq	.L1079
	.loc 3 215 0 is_stmt 0 discriminator 1
	cmp	r2, #0
	bne	.L1144
.L1080:
	.loc 3 222 0 is_stmt 1
	ldmia	r6, {r1, r3}
	.loc 3 224 0
	mov	r9, #1
	.loc 3 233 0
	ldr	r5, .L1149+8
	.loc 3 224 0
	ldr	ip, .L1149+12
	.loc 3 233 0
	add	r5, r5, r3, asl #3
	str	r5, [sp, #12]
.LVL967:
	mov	r5, #0
.LVL968:
	.loc 3 230 0
	ldr	r2, .L1149+16
	ldr	r8, .L1149+20
.LVL969:
	.loc 3 231 0
	ldr	lr, .L1149+24
	.loc 3 223 0
	ldr	r0, [r6, #8]
	.loc 3 224 0
	str	r9, [ip, #-1204]
	.loc 3 231 0
	stmia	r2, {r8, lr}
	.loc 3 232 0
	ldr	ip, .L1149+28
	.loc 3 221 0
	str	r1, [r7, #12]
	.loc 3 222 0
	str	r3, [r7, #4]
	str	r3, [r7, #16]
	.loc 3 223 0
	str	r0, [r7, #8]
	str	r0, [r7, #32]
	.loc 3 232 0
	str	ip, [r2, #8]
.L1082:
.LBB208:
	.loc 3 259 0
	ldr	r2, [r6, #12]
	.loc 3 286 0
	ldr	r0, [r6, #24]
	.loc 3 260 0
	ldr	ip, [r6, #48]
	ldr	lr, [r6, #44]
.LBE208:
	.loc 3 245 0
	add	r5, r5, #1
.LBB215:
	.loc 3 259 0
	mov	r2, r2, asr #6
	.loc 3 286 0
	cmp	r0, #128
	.loc 3 260 0
	str	ip, [sp, #44]
.LBE215:
	.loc 3 245 0
	str	r5, [r7]
.LBB216:
	.loc 3 259 0
	uxtb	r2, r2
	.loc 3 260 0
	str	lr, [sp, #40]
	.loc 3 251 0
	ldr	ip, [r6, #32]
.LVL970:
	.loc 3 286 0
	beq	.L1145
	.loc 3 294 0
	cmp	r0, #0
	bne	.L1090
.LVL971:
	.loc 3 297 0
	mov	r8, #128
	ldr	r0, .L1149+32
	ldr	lr, [sp, #8]
	ldr	r9, [r0]
	ldr	r0, [sp, #12]
	add	r7, lr, #1
	ldr	lr, .L1149+36
	add	r7, r7, r3
	and	r1, r1, #3
.LVL972:
	add	r5, r0, #8
.LVL973:
.L1091:
	and	r0, r3, #3
	add	r0, r1, r0, asl #2
	ldrb	r0, [lr, r0]	@ zero_extendqisi2
	add	r6, sp, #48
	cmp	r0, r2
	movge	r0, #0
	movlt	r0, #1
	add	r0, r6, r0, asl #2
	mov	r6, #126
	ldrb	r10, [ip, r4, asr #16]	@ zero_extendqisi2
	ldr	r0, [r0, #-8]
	.loc 3 298 0
	add	r3, r3, #1
.LVL974:
	.loc 3 297 0
	ldrb	r0, [r0, r10]	@ zero_extendqisi2
	.loc 3 296 0
	cmp	r3, r7
	.loc 3 297 0
	smlabb	r0, r8, r0, r6
	ldrh	r0, [r9, r0]
	.loc 3 300 0
	add	r4, r4, fp
.LVL975:
	.loc 3 297 0
	strh	r0, [r5, #-8]	@ movhi
	add	r5, r5, #8
.LVL976:
	.loc 3 296 0
	bne	.L1091
.LVL977:
.L1070:
.LBE216:
	.loc 3 357 0
	add	sp, sp, #52
	.cfi_remember_state
	.cfi_def_cfa_offset 36
	@ sp needed
	ldmfd	sp!, {r4, r5, r6, r7, r8, r9, r10, fp, pc}
.LVL978:
.L1143:
	.cfi_restore_state
	.loc 3 174 0 discriminator 1
	ldr	r3, [r0, #64]
	cmp	r3, #1
	bne	.L1073
	.loc 3 178 0
	cmp	r5, #0
	beq	.L1074
	.loc 3 179 0
	ldr	r3, [r0, #56]
	tst	r3, #1
.LBB217:
	.loc 3 181 0
	mvnne	r9, r8
	uxthne	r9, r9
.LBE217:
	.loc 3 179 0
	bne	.L1138
	.loc 3 186 0
	tst	r3, #2
	beq	.L1074
.LBB218:
	.loc 3 188 0
	uxth	r9, r8
.L1138:
	mov	r0, r9
.LVL979:
	mov	r1, fp
	bl	__aeabi_idiv
.LVL980:
	.loc 3 190 0
	ldr	r3, [sp, #8]
	.loc 3 189 0
	add	r5, r5, r0
	.loc 3 190 0
	rsb	r3, r0, r3
	.loc 3 191 0
	add	r4, r4, r9
.LVL981:
	.loc 3 189 0
	str	r5, [r6, #4]
.LVL982:
	.loc 3 190 0
	str	r3, [sp, #8]
.LVL983:
.L1074:
.LBE218:
	.loc 3 194 0
	ldr	r3, .L1149+40
	ldr	r3, [r3]
	sub	r3, r3, #1
	cmp	r7, r3
	beq	.L1076
	.loc 3 195 0
	ldr	r3, [r6, #56]
	tst	r3, #4
	bne	.L1146
	.loc 3 201 0
	tst	r3, #8
	beq	.L1076
.LBB219:
	.loc 3 203 0
	mov	r1, fp
	uxth	r0, r8
.LVL984:
.L1139:
	bl	__aeabi_idiv
.LVL985:
	.loc 3 205 0
	ldr	r3, [sp, #8]
	.loc 3 204 0
	rsb	r7, r0, r7
	.loc 3 205 0
	rsb	r3, r0, r3
	.loc 3 204 0
	str	r7, [r6, #8]
.LVL986:
	.loc 3 205 0
	str	r3, [sp, #8]
.LVL987:
.L1076:
.LBE219:
	.loc 3 208 0
	ldr	r3, [sp, #8]
	cmp	r3, #0
	bgt	.L1073
	b	.L1070
.L1144:
	.loc 3 216 0
	ldr	r3, .L1149+12
	ldr	r3, [r3, #-1204]
	cmp	r3, #1
	beq	.L1147
.L1079:
	.loc 3 217 0
	bl	R_FlushColumns
.LVL988:
	.loc 3 219 0
	ldr	r2, [r7]
	cmp	r2, #0
	beq	.L1080
	ldr	r1, [r6]
.L1081:
	.loc 3 235 0
	ldr	r0, [r6, #4]
	.loc 3 238 0
	ldr	ip, [r7, #4]
	.loc 3 236 0
	ldr	r3, [r6, #8]
	.loc 3 238 0
	cmp	r0, ip
	.loc 3 235 0
	add	ip, r7, r2, asl #2
	.loc 3 236 0
	str	r3, [ip, #32]
	.loc 3 235 0
	str	r0, [ip, #16]
	ldr	ip, .L1149+4
	.loc 3 240 0
	ldr	lr, .L1149+4
	.loc 3 239 0
	strgt	r0, [ip, #4]
	.loc 3 240 0
	ldr	ip, [r7, #8]
	.loc 3 243 0
	add	r2, r2, r0, asl #2
	.loc 3 240 0
	cmp	r3, ip
	.loc 3 243 0
	ldr	ip, .L1149+8
	.loc 3 241 0
	strlt	r3, [lr, #8]
	.loc 3 243 0
	add	r2, ip, r2, asl #1
	.loc 3 235 0
	mov	r3, r0
	ldr	r5, [r7]
	.loc 3 243 0
	str	r2, [sp, #12]
.LVL989:
	b	.L1082
.LVL990:
.L1090:
.LBB220:
.LBB209:
	.loc 3 303 0
	sub	lr, r0, #1
.LVL991:
	.loc 3 304 0
	tst	lr, r0
	bne	.L1092
.LBB210:
	.loc 3 305 0
	mov	r0, lr, asl #16
	mvn	lr, r0, lsr #16
.LVL992:
	.loc 3 306 0
	ldr	r0, [sp, #8]
	.loc 3 305 0
	mvn	r9, lr, asl #16
.LVL993:
	.loc 3 306 0
	sub	r0, r0, #1
	cmn	r0, #1
	beq	.L1148
	ldr	lr, .L1149+32
	mov	r8, r4
	str	lr, [sp, #36]
	ldr	lr, [lr]
	str	r4, [sp, #28]
	mov	r5, lr
	mov	r6, r3
.LVL994:
	mov	r4, r5
.LVL995:
	mov	r0, r0, lsr #1
	str	r0, [sp, #20]
	mov	r0, r0, asl #1
	str	r0, [sp, #24]
	ldr	r7, [sp, #12]
	add	r0, r0, #2
	add	r0, r0, r3
	mov	r10, fp, asl #1
	ldr	lr, .L1149+36
	and	r1, r1, #3
.LVL996:
	add	r7, r7, #16
	str	r10, [sp, #4]
	str	r3, [sp, #32]
	str	r0, [sp, #16]
.LVL997:
.L1094:
	.loc 3 307 0
	and	r3, r6, #3
	add	r3, r1, r3, asl #2
	ldrb	r0, [lr, r3]	@ zero_extendqisi2
	add	r3, r6, #1
	.loc 3 311 0
	and	r3, r3, #3
	add	r3, r1, r3, asl #2
	.loc 3 307 0
	cmp	r0, r2
	.loc 3 311 0
	ldrb	r3, [lr, r3]	@ zero_extendqisi2
	.loc 3 307 0
	movge	r0, #0
	movlt	r0, #1
	.loc 3 311 0
	cmp	r3, r2
	movge	r3, #0
	movlt	r3, #1
	.loc 3 307 0
	add	r10, sp, #48
	and	r5, r8, r9
	add	r0, r10, r0, asl #2
	ldrb	r5, [ip, r5, asr #16]	@ zero_extendqisi2
	ldr	r0, [r0, #-8]
	.loc 3 311 0
	add	r3, r10, r3, asl #2
	.loc 3 307 0
	ldrb	r0, [r0, r5]	@ zero_extendqisi2
	mov	r10, #126
	.loc 3 311 0
	ldr	r5, [r3, #-8]
	.loc 3 307 0
	mov	r3, #128
	smlabb	r0, r3, r0, r10
	ldrh	r0, [r4, r0]
	.loc 3 312 0
	add	r6, r6, #2
.LVL998:
	.loc 3 307 0
	strh	r0, [r7, #-16]	@ movhi
.LVL999:
	.loc 3 306 0
	ldr	r0, [sp, #16]
	add	r3, fp, r8
.LVL1000:
	cmp	r6, r0
	.loc 3 311 0
	mov	r0, #128
	and	r3, r3, r9
.LVL1001:
	ldrb	r3, [ip, r3, asr #16]	@ zero_extendqisi2
	add	r7, r7, #16
.LVL1002:
	ldrb	r3, [r5, r3]	@ zero_extendqisi2
	smlabb	r3, r0, r3, r10
	ldr	r0, [sp, #4]
	ldrh	r3, [r4, r3]
	add	r8, r0, r8
.LVL1003:
	strh	r3, [r7, #-24]	@ movhi
	.loc 3 306 0
	bne	.L1094
	.loc 3 316 0
	ldr	r6, [sp, #8]
.LVL1004:
	ldr	r3, [sp, #32]
	tst	r6, #1
	ldr	r6, [sp, #24]
	ldr	r4, [sp, #28]
	add	r3, r3, #2
	ldr	r5, [sp, #20]
	add	r3, r3, r6
	ldr	r6, [sp, #4]
	add	r4, r4, fp, asl #1
	add	r0, r5, #1
	mla	r4, r6, r5, r4
	ldr	r5, [sp, #12]
	add	r0, r5, r0, asl #4
	str	r0, [sp, #12]
	bne	.L1070
.LVL1005:
.L1103:
	.loc 3 317 0
	and	r3, r3, #3
	add	r1, r1, r3, asl #2
	ldrb	r3, [lr, r1]	@ zero_extendqisi2
	mov	r1, #126
	cmp	r3, r2
	movge	r2, #0
.LVL1006:
	movlt	r2, #1
	add	r3, sp, #48
	add	r2, r3, r2, asl #2
	and	r4, r4, r9
	ldr	r0, [r2, #-8]
	ldrb	r3, [ip, r4, asr #16]	@ zero_extendqisi2
	ldr	r2, [sp, #36]
	ldrb	r3, [r0, r3]	@ zero_extendqisi2
	ldr	r2, [r2]
	add	r3, r1, r3, asl #7
	ldrh	r3, [r2, r3]
	ldr	r2, [sp, #12]
	strh	r3, [r2]	@ movhi
	b	.L1070
.LVL1007:
.L1145:
.LBE210:
.LBE209:
	.loc 3 289 0
	mov	r8, #126
	str	r0, [sp, #4]
	ldr	r0, [sp, #8]
	ldr	lr, .L1149+32
	add	r7, r0, #1
	ldr	r0, [sp, #12]
	ldr	r9, [lr]
	ldr	lr, .L1149+36
	add	r7, r7, r3
	and	r1, r1, #3
.LVL1008:
	add	r5, r0, #8
.LVL1009:
.L1088:
	and	r6, r3, #3
	add	r6, r1, r6, asl #2
	ldrb	r6, [lr, r6]	@ zero_extendqisi2
	bic	r10, r4, #-16777216
	cmp	r6, r2
	movge	r6, #0
	movlt	r6, #1
	add	r0, sp, #48
	add	r6, r0, r6, asl #2
	bic	r10, r10, #8388608
	ldrb	r10, [ip, r10, asr #16]	@ zero_extendqisi2
	ldr	r6, [r6, #-8]
	ldrh	r0, [sp, #4]
	ldrb	r6, [r6, r10]	@ zero_extendqisi2
	.loc 3 290 0
	add	r3, r3, #1
.LVL1010:
	.loc 3 289 0
	smlabb	r6, r0, r6, r8
	ldrh	r6, [r9, r6]
	.loc 3 288 0
	cmp	r3, r7
	.loc 3 289 0
	strh	r6, [r5, #-8]	@ movhi
	.loc 3 292 0
	add	r4, r4, fp
.LVL1011:
	add	r5, r5, #8
.LVL1012:
	.loc 3 288 0
	bne	.L1088
.LBE220:
	.loc 3 357 0
	add	sp, sp, #52
	.cfi_remember_state
	.cfi_def_cfa_offset 36
	@ sp needed
	ldmfd	sp!, {r4, r5, r6, r7, r8, r9, r10, fp, pc}
.LVL1013:
.L1092:
	.cfi_restore_state
.LBB221:
.LBB213:
.LBB211:
	.loc 3 325 0
	cmp	r4, #0
	.loc 3 323 0
	mov	r0, r0, asl #16
.LVL1014:
	.loc 3 325 0
	bge	.L1141
	b	.L1098
.L1100:
	rsb	r4, r0, r4
.LVL1015:
.L1141:
	.loc 3 328 0
	cmp	r4, r0
	bge	.L1100
.L1097:
	ldr	r5, [sp, #8]
	.loc 3 345 0
	ldr	lr, .L1149+32
	add	r7, r5, #1
	ldr	lr, [lr]
	ldr	r5, [sp, #12]
	add	r7, r7, r3
	add	r5, r5, #8
	and	r1, r1, #3
.LVL1016:
	str	lr, [sp, #4]
	ldr	r10, .L1149+36
	mov	r9, #128
	b	.L1099
.LVL1017:
.L1102:
	ldrb	lr, [r10, lr]	@ zero_extendqisi2
	add	r8, sp, #48
	cmp	lr, r2
	movge	lr, #0
	movlt	lr, #1
	add	lr, r8, lr, asl #2
	ldrb	r6, [ip, r4, asr #16]	@ zero_extendqisi2
	ldr	lr, [lr, #-8]
	.loc 3 348 0
	add	r4, r4, fp
.LVL1018:
	.loc 3 345 0
	ldrb	lr, [lr, r6]	@ zero_extendqisi2
	mov	r6, #126
	smlabb	lr, r9, lr, r6
	ldr	r6, [sp, #4]
	.loc 3 348 0
	cmp	r4, r0
	.loc 3 345 0
	ldrh	lr, [r6, lr]
	.loc 3 346 0
	add	r3, r3, #1
.LVL1019:
	.loc 3 345 0
	strh	lr, [r5, #-8]	@ movhi
	.loc 3 348 0
	rsbge	r4, r0, r4
.LVL1020:
	add	r5, r5, #8
.LVL1021:
.L1099:
	.loc 3 345 0
	and	lr, r3, #3
	.loc 3 339 0
	cmp	r3, r7
	.loc 3 345 0
	add	lr, r1, lr, asl #2
	.loc 3 339 0
	bne	.L1102
.LBE211:
.LBE213:
.LBE221:
	.loc 3 357 0
	add	sp, sp, #52
	.cfi_remember_state
	.cfi_def_cfa_offset 36
	@ sp needed
	ldmfd	sp!, {r4, r5, r6, r7, r8, r9, r10, fp, pc}
.LVL1022:
.L1098:
	.cfi_restore_state
.LBB222:
.LBB214:
.LBB212:
	.loc 3 326 0 discriminator 1
	adds	r4, r0, r4
.LVL1023:
	bpl	.L1097
.LVL1024:
	.loc 3 326 0 is_stmt 0
	adds	r4, r0, r4
.LVL1025:
	bmi	.L1098
	b	.L1097
.LVL1026:
.L1147:
.LBE212:
.LBE214:
.LBE222:
	.loc 3 216 0 is_stmt 1 discriminator 1
	ldr	r3, [r7, #12]
	ldr	r1, [r6]
	add	r3, r2, r3
	cmp	r3, r1
	bne	.L1079
	b	.L1081
.L1146:
.LBB223:
	.loc 3 197 0
	mvn	r0, r8
	mov	r1, fp
	uxth	r0, r0
	b	.L1139
.LVL1027:
.L1148:
	ldr	r0, .L1149+32
	and	r1, r1, #3
.LVL1028:
	str	r0, [sp, #36]
	ldr	lr, .L1149+36
	b	.L1103
.L1150:
	.align	2
.L1149:
	.word	centery
	.word	.LANCHOR0
	.word	.LANCHOR0+1220
	.word	.LANCHOR2
	.word	.LANCHOR1
	.word	R_FlushWhole16
	.word	R_FlushHT16
	.word	R_FlushQuad16
	.word	V_Palette16
	.word	filter_ditherMatrix
	.word	viewheight
.LBE223:
	.cfi_endproc
.LFE66:
	.size	R_DrawColumn16_PointUV_LinearZ, .-R_DrawColumn16_PointUV_LinearZ
	.align	2
	.type	R_DrawColumn32_PointUV, %function
R_DrawColumn32_PointUV:
.LFB73:
	.loc 3 113 0
	.cfi_startproc
	@ args = 0, pretend = 0, frame = 0
	@ frame_needed = 0, uses_anonymous_args = 0
.LVL1029:
	stmfd	sp!, {r3, r4, r5, r6, r7, r8, r9, r10, fp, lr}
	.cfi_def_cfa_offset 40
	.cfi_offset 3, -40
	.cfi_offset 4, -36
	.cfi_offset 5, -32
	.cfi_offset 6, -28
	.cfi_offset 7, -24
	.cfi_offset 8, -20
	.cfi_offset 9, -16
	.cfi_offset 10, -12
	.cfi_offset 11, -8
	.cfi_offset 14, -4
	.loc 3 149 0
	ldmib	r0, {r8, r9}
	.loc 3 157 0
	subs	r6, r9, r8
	.loc 3 117 0
	ldr	r5, [r0, #16]
.LVL1030:
	.loc 3 121 0
	ldr	r10, [r0, #28]
.LVL1031:
	.loc 3 157 0
	ldmmifd	sp!, {r3, r4, r5, r6, r7, r8, r9, r10, fp, pc}
	.loc 3 171 0
	ldr	r3, .L1226
	.loc 3 174 0
	ldr	r2, [r0, #60]
	.loc 3 171 0
	ldr	r3, [r3]
	ldr	r4, [r0, #20]
	rsb	r3, r3, r8
	.loc 3 174 0
	cmp	r2, #0
	mov	r7, r0
	.loc 3 171 0
	mla	r4, r5, r3, r4
.LVL1032:
	.loc 3 174 0
	bne	.L1221
.LVL1033:
.L1154:
	.loc 3 215 0
	ldr	r8, .L1226+4
	ldr	r3, [r8]
	cmp	r3, #4
	beq	.L1160
	.loc 3 215 0 is_stmt 0 discriminator 1
	cmp	r3, #0
	bne	.L1222
.L1161:
	.loc 3 224 0 is_stmt 1
	mov	fp, #1
	ldr	r0, .L1226+8
	.loc 3 230 0
	ldr	r3, .L1226+12
	ldr	lr, .L1226+16
	.loc 3 231 0
	ldr	ip, .L1226+20
	.loc 3 224 0
	str	fp, [r0, #-1204]
	.loc 3 232 0
	ldr	r0, .L1226+24
	.loc 3 230 0
	str	lr, [r3]
	.loc 3 231 0
	str	ip, [r3, #4]
	.loc 3 232 0
	str	r0, [r3, #8]
	mov	r3, #0
	.loc 3 222 0
	ldr	r2, [r7, #4]
	.loc 3 221 0
	ldr	r10, [r7]
.LVL1034:
	.loc 3 223 0
	ldr	r1, [r7, #8]
	.loc 3 233 0
	ldr	r9, .L1226+28
	.loc 3 222 0
	str	r2, [r8, #4]
	str	r2, [r8, #16]
	.loc 3 221 0
	str	r10, [r8, #12]
	.loc 3 233 0
	add	r2, r9, r2, asl #4
.LVL1035:
	.loc 3 223 0
	str	r1, [r8, #8]
	str	r1, [r8, #32]
.L1163:
.LBB224:
	.loc 3 286 0
	ldr	r1, [r7, #24]
.LBE224:
	.loc 3 245 0
	add	r3, r3, #1
.LBB229:
	.loc 3 286 0
	cmp	r1, #128
.LBE229:
	.loc 3 245 0
	str	r3, [r8]
.LBB230:
	.loc 3 251 0
	ldr	r3, [r7, #32]
.LVL1036:
	.loc 3 286 0
	beq	.L1223
	.loc 3 294 0
	cmp	r1, #0
	bne	.L1167
.LVL1037:
	ldr	r0, .L1226+32
	add	r6, r6, #1
.LVL1038:
	ldr	ip, [r0]
.LVL1039:
.L1168:
	.loc 3 297 0
	ldrb	r0, [r3, r4, asr #16]	@ zero_extendqisi2
	.loc 3 300 0
	add	r4, r4, r5
.LVL1040:
	.loc 3 297 0
	add	r0, ip, r0, asl #8
	ldr	r0, [r0, #252]
	str	r0, [r2, r1, asl #4]
.LVL1041:
	add	r1, r1, #1
.LVL1042:
	.loc 3 296 0
	cmp	r1, r6
	bne	.L1168
	ldmfd	sp!, {r3, r4, r5, r6, r7, r8, r9, r10, fp, pc}
.LVL1043:
.L1221:
.LBE230:
	.loc 3 174 0 discriminator 1
	ldr	r3, [r0, #64]
	cmp	r3, #1
	bne	.L1154
	.loc 3 178 0
	cmp	r8, #0
	beq	.L1155
	.loc 3 179 0
	ldr	r3, [r0, #56]
	tst	r3, #1
.LBB231:
	.loc 3 181 0
	mvnne	fp, r10
	uxthne	fp, fp
.LBE231:
	.loc 3 179 0
	bne	.L1216
	.loc 3 186 0
	tst	r3, #2
	beq	.L1155
.LBB232:
	.loc 3 188 0
	uxth	fp, r10
.L1216:
	mov	r0, fp
.LVL1044:
	mov	r1, r5
	bl	__aeabi_idiv
.LVL1045:
	.loc 3 189 0
	add	r8, r8, r0
	.loc 3 191 0
	add	r4, r4, fp
.LVL1046:
	.loc 3 189 0
	str	r8, [r7, #4]
.LVL1047:
	.loc 3 190 0
	rsb	r6, r0, r6
.LVL1048:
.L1155:
.LBE232:
	.loc 3 194 0
	ldr	r3, .L1226+36
	ldr	r3, [r3]
	sub	r3, r3, #1
	cmp	r9, r3
	beq	.L1157
	.loc 3 195 0
	ldr	r3, [r7, #56]
	tst	r3, #4
	bne	.L1224
	.loc 3 201 0
	tst	r3, #8
	beq	.L1157
.LBB233:
	.loc 3 203 0
	uxth	r0, r10
	mov	r1, r5
	bl	__aeabi_idiv
.LVL1049:
	.loc 3 204 0
	rsb	r9, r0, r9
	str	r9, [r7, #8]
.LVL1050:
	.loc 3 205 0
	rsb	r6, r0, r6
.LVL1051:
.L1157:
.LBE233:
	.loc 3 208 0
	cmp	r6, #0
	bgt	.L1154
	ldmfd	sp!, {r3, r4, r5, r6, r7, r8, r9, r10, fp, pc}
.L1222:
	.loc 3 216 0
	ldr	r2, .L1226+8
	ldr	r2, [r2, #-1204]
	cmp	r2, #1
	beq	.L1225
.L1160:
	.loc 3 217 0
	bl	R_FlushColumns
.LVL1052:
	.loc 3 219 0
	ldr	r3, [r8]
	cmp	r3, #0
	beq	.L1161
.L1162:
	.loc 3 235 0
	ldr	r2, [r7, #4]
	.loc 3 238 0
	ldr	r0, [r8, #4]
	.loc 3 236 0
	ldr	r1, [r7, #8]
	.loc 3 238 0
	cmp	r2, r0
	.loc 3 235 0
	add	r0, r8, r3, asl #2
	str	r2, [r0, #16]
	.loc 3 236 0
	str	r1, [r0, #32]
	.loc 3 235 0
	ldr	r0, .L1226+4
	.loc 3 240 0
	ldr	ip, .L1226+4
	.loc 3 239 0
	strgt	r2, [r0, #4]
	.loc 3 240 0
	ldr	r0, [r8, #8]
	.loc 3 243 0
	add	r3, r3, r2, asl #2
	.loc 3 240 0
	cmp	r1, r0
	.loc 3 241 0
	strlt	r1, [ip, #8]
	.loc 3 243 0
	ldr	r1, .L1226+28
	add	r2, r1, r3, asl #2
.LVL1053:
	ldr	r3, [r8]
	b	.L1163
.LVL1054:
.L1167:
.LBB234:
.LBB225:
	.loc 3 303 0
	sub	r0, r1, #1
.LVL1055:
	.loc 3 304 0
	tst	r0, r1
	bne	.L1169
.LBB226:
	.loc 3 305 0
	mov	lr, r0, asl #16
	mvn	lr, lr, lsr #16
	.loc 3 306 0
	sub	r10, r6, #1
	cmn	r10, #1
	.loc 3 305 0
	mvn	lr, lr, asl #16
.LVL1056:
	.loc 3 306 0
	mov	r7, r10
.LVL1057:
	ldreq	fp, .L1226+32
	beq	.L1181
	mov	r0, r4
.LVL1058:
	ldr	fp, .L1226+32
	add	r1, r2, #32
.LVL1059:
	ldr	r8, [fp]
	mov	r9, r5, asl #1
.LVL1060:
.L1171:
	.loc 3 307 0
	and	ip, r0, lr
	ldrb	ip, [r3, ip, asr #16]	@ zero_extendqisi2
	.loc 3 306 0
	subs	r7, r7, #2
.LVL1061:
	.loc 3 307 0
	add	ip, r8, ip, asl #8
	ldr	ip, [ip, #252]
	add	r1, r1, #32
.LVL1062:
	str	ip, [r1, #-64]
	add	ip, r5, r0
.LVL1063:
	.loc 3 311 0
	and	ip, ip, lr
.LVL1064:
	ldrb	ip, [r3, ip, asr #16]	@ zero_extendqisi2
	add	r0, r9, r0
.LVL1065:
	add	ip, r8, ip, asl #8
	ldr	ip, [ip, #252]
	str	ip, [r1, #-48]
.LVL1066:
	.loc 3 306 0
	bpl	.L1171
	mov	r10, r10, lsr #1
	add	r4, r4, r5, asl #1
	add	r1, r10, #1
	.loc 3 316 0
	tst	r6, #1
	mla	r4, r9, r10, r4
	add	r2, r2, r1, asl #5
	ldmnefd	sp!, {r3, r4, r5, r6, r7, r8, r9, r10, fp, pc}
.LVL1067:
.L1181:
	.loc 3 317 0
	and	r4, r4, lr
	ldrb	r1, [r3, r4, asr #16]	@ zero_extendqisi2
	ldr	r3, [fp]
.LVL1068:
	add	r3, r3, r1, asl #8
	ldr	r3, [r3, #252]
	str	r3, [r2]
	ldmfd	sp!, {r3, r4, r5, r6, r7, r8, r9, r10, fp, pc}
.LVL1069:
.L1223:
.LBE226:
.LBE225:
	.loc 3 286 0
	mov	r1, #0
	ldr	r0, .L1226+32
	add	r6, r6, #1
.LVL1070:
	ldr	ip, [r0]
.LVL1071:
.L1166:
	.loc 3 289 0
	bic	r0, r4, #-16777216
	bic	r0, r0, #8388608
	ldrb	r0, [r3, r0, asr #16]	@ zero_extendqisi2
	.loc 3 292 0
	add	r4, r4, r5
.LVL1072:
	.loc 3 289 0
	add	r0, ip, r0, asl #8
	ldr	r0, [r0, #252]
	str	r0, [r2, r1, asl #4]
.LVL1073:
	add	r1, r1, #1
.LVL1074:
	.loc 3 288 0
	cmp	r1, r6
	bne	.L1166
	ldmfd	sp!, {r3, r4, r5, r6, r7, r8, r9, r10, fp, pc}
.LVL1075:
.L1169:
.LBB228:
.LBB227:
	.loc 3 325 0
	cmp	r4, #0
	.loc 3 323 0
	mov	r1, r1, asl #16
.LVL1076:
	.loc 3 325 0
	bge	.L1218
	b	.L1175
.L1177:
	rsb	r4, r1, r4
.LVL1077:
.L1218:
	.loc 3 328 0
	cmp	r4, r1
	bge	.L1177
.L1174:
	.loc 3 345 0
	ldr	r0, .L1226+32
	add	r6, r6, #1
.LVL1078:
	ldr	lr, [r0]
	mov	r0, #0
.LVL1079:
.L1176:
	ldrb	ip, [r3, r4, asr #16]	@ zero_extendqisi2
	.loc 3 348 0
	add	r4, r4, r5
.LVL1080:
	.loc 3 345 0
	add	ip, lr, ip, asl #8
	ldr	ip, [ip, #252]
	.loc 3 348 0
	cmp	r4, r1
	.loc 3 345 0
	str	ip, [r2, r0, asl #4]
.LVL1081:
	add	r0, r0, #1
.LVL1082:
	.loc 3 348 0
	rsbge	r4, r1, r4
.LVL1083:
	.loc 3 339 0
	cmp	r0, r6
	bne	.L1176
	ldmfd	sp!, {r3, r4, r5, r6, r7, r8, r9, r10, fp, pc}
.LVL1084:
.L1175:
	.loc 3 326 0 discriminator 1
	adds	r4, r1, r4
.LVL1085:
	bpl	.L1174
.LVL1086:
	.loc 3 326 0 is_stmt 0
	adds	r4, r1, r4
.LVL1087:
	bmi	.L1175
	b	.L1174
.LVL1088:
.L1225:
.LBE227:
.LBE228:
.LBE234:
	.loc 3 216 0 is_stmt 1 discriminator 1
	ldr	r2, [r8, #12]
	ldr	r1, [r7]
	add	r2, r3, r2
	cmp	r2, r1
	bne	.L1160
	b	.L1162
.L1224:
.LBB235:
	.loc 3 197 0
	mvn	r0, r10
	mov	r1, r5
	uxth	r0, r0
	bl	__aeabi_idiv
.LVL1089:
	.loc 3 198 0
	rsb	r9, r0, r9
	str	r9, [r7, #8]
.LVL1090:
	.loc 3 199 0
	rsb	r6, r0, r6
.LVL1091:
.LBE235:
	b	.L1157
.L1227:
	.align	2
.L1226:
	.word	centery
	.word	.LANCHOR0
	.word	.LANCHOR2
	.word	.LANCHOR1
	.word	R_FlushWhole32
	.word	R_FlushHT32
	.word	R_FlushQuad32
	.word	.LANCHOR0+3140
	.word	V_Palette32
	.word	viewheight
	.cfi_endproc
.LFE73:
	.size	R_DrawColumn32_PointUV, .-R_DrawColumn32_PointUV
	.align	2
	.type	R_DrawColumn32_PointUV_PointZ, %function
R_DrawColumn32_PointUV_PointZ:
.LFB74:
	.loc 3 113 0
	.cfi_startproc
	@ args = 0, pretend = 0, frame = 8
	@ frame_needed = 0, uses_anonymous_args = 0
.LVL1092:
	stmfd	sp!, {r4, r5, r6, r7, r8, r9, r10, fp, lr}
	.cfi_def_cfa_offset 36
	.cfi_offset 4, -36
	.cfi_offset 5, -32
	.cfi_offset 6, -28
	.cfi_offset 7, -24
	.cfi_offset 8, -20
	.cfi_offset 9, -16
	.cfi_offset 10, -12
	.cfi_offset 11, -8
	.cfi_offset 14, -4
	.loc 3 149 0
	ldmib	r0, {r8, r9}
	.loc 3 157 0
	subs	r6, r9, r8
	.loc 3 113 0
	sub	sp, sp, #12
	.cfi_def_cfa_offset 48
	.loc 3 117 0
	ldr	r5, [r0, #16]
.LVL1093:
	.loc 3 121 0
	ldr	r10, [r0, #28]
.LVL1094:
	.loc 3 157 0
	bmi	.L1228
	.loc 3 171 0
	ldr	r3, .L1303
	.loc 3 174 0
	ldr	r2, [r0, #60]
	.loc 3 171 0
	ldr	r3, [r3]
	ldr	r4, [r0, #20]
	rsb	r3, r3, r8
	.loc 3 174 0
	cmp	r2, #0
	mov	r7, r0
	.loc 3 171 0
	mla	r4, r5, r3, r4
.LVL1095:
	.loc 3 174 0
	bne	.L1298
.LVL1096:
.L1231:
	.loc 3 215 0
	ldr	r8, .L1303+4
	ldr	r3, [r8]
	cmp	r3, #4
	beq	.L1237
	.loc 3 215 0 is_stmt 0 discriminator 1
	cmp	r3, #0
	bne	.L1299
.L1238:
	.loc 3 224 0 is_stmt 1
	mov	fp, #1
	ldr	ip, .L1303+8
	.loc 3 230 0
	ldr	r3, .L1303+12
	ldr	r9, .L1303+16
	.loc 3 231 0
	ldr	lr, .L1303+20
	.loc 3 224 0
	str	fp, [ip, #-1204]
	.loc 3 232 0
	ldr	ip, .L1303+24
	.loc 3 231 0
	stmia	r3, {r9, lr}
	.loc 3 232 0
	str	ip, [r3, #8]
	mov	r3, #0
	.loc 3 222 0
	ldr	r2, [r7, #4]
	.loc 3 221 0
	ldr	r10, [r7]
.LVL1097:
	.loc 3 223 0
	ldr	r0, [r7, #8]
	.loc 3 233 0
	ldr	r1, .L1303+28
	.loc 3 221 0
	str	r10, [r8, #12]
	.loc 3 222 0
	str	r2, [r8, #4]
	str	r2, [r8, #16]
	.loc 3 233 0
	add	r1, r1, r2, asl #4
.LVL1098:
	.loc 3 223 0
	str	r0, [r8, #8]
	str	r0, [r8, #32]
.L1240:
.LBB236:
	.loc 3 286 0
	ldr	r0, [r7, #24]
.LBE236:
	.loc 3 245 0
	add	r3, r3, #1
.LBB243:
	.loc 3 286 0
	cmp	r0, #128
.LBE243:
	.loc 3 245 0
	str	r3, [r8]
.LBB244:
	.loc 3 252 0
	ldr	r2, [r7, #44]
	.loc 3 251 0
	ldr	r3, [r7, #32]
.LVL1099:
	.loc 3 286 0
	beq	.L1300
	.loc 3 294 0
	cmp	r0, #0
	bne	.L1244
.LVL1100:
	ldr	ip, .L1303+32
	add	r6, r6, #1
.LVL1101:
	ldr	lr, [ip]
.LVL1102:
.L1245:
	.loc 3 297 0
	ldrb	ip, [r3, r4, asr #16]	@ zero_extendqisi2
	.loc 3 300 0
	add	r4, r4, r5
.LVL1103:
	.loc 3 297 0
	ldrb	ip, [r2, ip]	@ zero_extendqisi2
	add	ip, lr, ip, asl #8
	ldr	ip, [ip, #252]
	str	ip, [r1, r0, asl #4]
.LVL1104:
	add	r0, r0, #1
.LVL1105:
	.loc 3 296 0
	cmp	r0, r6
	bne	.L1245
.LVL1106:
.L1228:
.LBE244:
	.loc 3 357 0
	add	sp, sp, #12
	.cfi_remember_state
	.cfi_def_cfa_offset 36
	@ sp needed
	ldmfd	sp!, {r4, r5, r6, r7, r8, r9, r10, fp, pc}
.LVL1107:
.L1298:
	.cfi_restore_state
	.loc 3 174 0 discriminator 1
	ldr	r3, [r0, #64]
	cmp	r3, #1
	bne	.L1231
	.loc 3 178 0
	cmp	r8, #0
	beq	.L1232
	.loc 3 179 0
	ldr	r3, [r0, #56]
	tst	r3, #1
.LBB245:
	.loc 3 181 0
	mvnne	fp, r10
	uxthne	fp, fp
.LBE245:
	.loc 3 179 0
	bne	.L1293
	.loc 3 186 0
	tst	r3, #2
	beq	.L1232
.LBB246:
	.loc 3 188 0
	uxth	fp, r10
.L1293:
	mov	r0, fp
.LVL1108:
	mov	r1, r5
	bl	__aeabi_idiv
.LVL1109:
	.loc 3 189 0
	add	r8, r8, r0
	.loc 3 191 0
	add	r4, r4, fp
.LVL1110:
	.loc 3 189 0
	str	r8, [r7, #4]
.LVL1111:
	.loc 3 190 0
	rsb	r6, r0, r6
.LVL1112:
.L1232:
.LBE246:
	.loc 3 194 0
	ldr	r3, .L1303+36
	ldr	r3, [r3]
	sub	r3, r3, #1
	cmp	r9, r3
	beq	.L1234
	.loc 3 195 0
	ldr	r3, [r7, #56]
	tst	r3, #4
	bne	.L1301
	.loc 3 201 0
	tst	r3, #8
	beq	.L1234
.LBB247:
	.loc 3 203 0
	uxth	r0, r10
	mov	r1, r5
	bl	__aeabi_idiv
.LVL1113:
	.loc 3 204 0
	rsb	r9, r0, r9
	str	r9, [r7, #8]
.LVL1114:
	.loc 3 205 0
	rsb	r6, r0, r6
.LVL1115:
.L1234:
.LBE247:
	.loc 3 208 0
	cmp	r6, #0
	bgt	.L1231
	b	.L1228
.L1299:
	.loc 3 216 0
	ldr	r2, .L1303+8
	ldr	r2, [r2, #-1204]
	cmp	r2, #1
	beq	.L1302
.L1237:
	.loc 3 217 0
	bl	R_FlushColumns
.LVL1116:
	.loc 3 219 0
	ldr	r3, [r8]
	cmp	r3, #0
	beq	.L1238
.L1239:
	.loc 3 235 0
	ldr	r1, [r7, #4]
	.loc 3 238 0
	ldr	r0, [r8, #4]
	.loc 3 236 0
	ldr	r2, [r7, #8]
	.loc 3 238 0
	cmp	r1, r0
	.loc 3 235 0
	add	r0, r8, r3, asl #2
	str	r1, [r0, #16]
	.loc 3 236 0
	str	r2, [r0, #32]
	.loc 3 235 0
	ldr	r0, .L1303+4
	.loc 3 240 0
	ldr	ip, .L1303+4
	.loc 3 239 0
	strgt	r1, [r0, #4]
	.loc 3 240 0
	ldr	r0, [r8, #8]
	.loc 3 243 0
	add	r3, r3, r1, asl #2
	.loc 3 240 0
	cmp	r2, r0
	.loc 3 241 0
	strlt	r2, [ip, #8]
	.loc 3 243 0
	ldr	r2, .L1303+28
	add	r1, r2, r3, asl #2
.LVL1117:
	ldr	r3, [r8]
	b	.L1240
.LVL1118:
.L1244:
.LBB248:
.LBB237:
	.loc 3 303 0
	sub	ip, r0, #1
.LVL1119:
	.loc 3 304 0
	tst	ip, r0
	bne	.L1246
.LBB238:
	.loc 3 305 0
	mov	r8, ip, asl #16
	mvn	r8, r8, lsr #16
	.loc 3 306 0
	sub	r0, r6, #1
	cmn	r0, #1
	str	r0, [sp]
	mov	r9, r0
	ldreq	r0, .L1303+32
	.loc 3 305 0
	mvn	r8, r8, asl #16
.LVL1120:
	streq	r0, [sp, #4]
	.loc 3 306 0
	beq	.L1258
	ldr	r0, .L1303+32
	mov	ip, r4
.LVL1121:
	mov	lr, r0
	ldr	r10, [lr]
	str	r0, [sp, #4]
	mov	fp, r5, asl #1
	add	r0, r1, #32
.LVL1122:
.L1248:
	.loc 3 307 0
	and	lr, ip, r8
	ldrb	lr, [r3, lr, asr #16]	@ zero_extendqisi2
	.loc 3 306 0
	subs	r9, r9, #2
.LVL1123:
	.loc 3 307 0
	ldrb	r7, [r2, lr]	@ zero_extendqisi2
	add	lr, r5, ip
	add	r7, r10, r7, asl #8
	ldr	r7, [r7, #252]
	.loc 3 311 0
	and	lr, lr, r8
	.loc 3 307 0
	str	r7, [r0, #-32]
.LVL1124:
	.loc 3 311 0
	ldrb	lr, [r3, lr, asr #16]	@ zero_extendqisi2
	add	ip, fp, ip
.LVL1125:
	ldrb	lr, [r2, lr]	@ zero_extendqisi2
	add	r0, r0, #32
.LVL1126:
	add	lr, r10, lr, asl #8
	ldr	lr, [lr, #252]
	str	lr, [r0, #-48]
.LVL1127:
	.loc 3 306 0
	bpl	.L1248
	ldr	r0, [sp]
	add	r4, r4, r5, asl #1
	mov	r0, r0, lsr #1
	add	ip, r0, #1
.LVL1128:
	.loc 3 316 0
	tst	r6, #1
	mla	r4, fp, r0, r4
	add	r1, r1, ip, asl #5
	bne	.L1228
.L1258:
	.loc 3 317 0
	and	r4, r4, r8
	ldrb	r0, [r3, r4, asr #16]	@ zero_extendqisi2
	ldr	r3, [sp, #4]
.LVL1129:
	ldrb	r2, [r2, r0]	@ zero_extendqisi2
.LVL1130:
	ldr	r3, [r3]
	add	r3, r3, r2, asl #8
	ldr	r3, [r3, #252]
	str	r3, [r1]
	b	.L1228
.LVL1131:
.L1300:
.LBE238:
.LBE237:
	.loc 3 286 0
	mov	r0, #0
	ldr	ip, .L1303+32
	add	r6, r6, #1
.LVL1132:
	ldr	lr, [ip]
.LVL1133:
.L1243:
	.loc 3 289 0
	bic	ip, r4, #-16777216
	bic	ip, ip, #8388608
	ldrb	ip, [r3, ip, asr #16]	@ zero_extendqisi2
	.loc 3 292 0
	add	r4, r4, r5
.LVL1134:
	.loc 3 289 0
	ldrb	ip, [r2, ip]	@ zero_extendqisi2
	add	ip, lr, ip, asl #8
	ldr	ip, [ip, #252]
	str	ip, [r1, r0, asl #4]
.LVL1135:
	add	r0, r0, #1
.LVL1136:
	.loc 3 288 0
	cmp	r0, r6
	bne	.L1243
.LBE248:
	.loc 3 357 0
	add	sp, sp, #12
	.cfi_remember_state
	.cfi_def_cfa_offset 36
	@ sp needed
	ldmfd	sp!, {r4, r5, r6, r7, r8, r9, r10, fp, pc}
.LVL1137:
.L1246:
	.cfi_restore_state
.LBB249:
.LBB241:
.LBB239:
	.loc 3 325 0
	cmp	r4, #0
	.loc 3 323 0
	mov	r0, r0, asl #16
.LVL1138:
	.loc 3 325 0
	bge	.L1295
	b	.L1252
.L1254:
	rsb	r4, r0, r4
.LVL1139:
.L1295:
	.loc 3 328 0
	cmp	r4, r0
	bge	.L1254
.L1251:
	.loc 3 345 0
	ldr	ip, .L1303+32
	add	r6, r6, #1
.LVL1140:
	ldr	r7, [ip]
.LVL1141:
	mov	ip, #0
.LVL1142:
.L1253:
	ldrb	lr, [r3, r4, asr #16]	@ zero_extendqisi2
	.loc 3 348 0
	add	r4, r4, r5
.LVL1143:
	.loc 3 345 0
	ldrb	lr, [r2, lr]	@ zero_extendqisi2
	.loc 3 348 0
	cmp	r4, r0
	.loc 3 345 0
	add	lr, r7, lr, asl #8
	ldr	lr, [lr, #252]
	.loc 3 348 0
	rsbge	r4, r0, r4
	.loc 3 345 0
	str	lr, [r1, ip, asl #4]
.LVL1144:
	add	ip, ip, #1
.LVL1145:
	.loc 3 339 0
	cmp	ip, r6
	bne	.L1253
.LBE239:
.LBE241:
.LBE249:
	.loc 3 357 0
	add	sp, sp, #12
	.cfi_remember_state
	.cfi_def_cfa_offset 36
	@ sp needed
	ldmfd	sp!, {r4, r5, r6, r7, r8, r9, r10, fp, pc}
.LVL1146:
.L1252:
	.cfi_restore_state
.LBB250:
.LBB242:
.LBB240:
	.loc 3 326 0 discriminator 1
	adds	r4, r0, r4
.LVL1147:
	bpl	.L1251
.LVL1148:
	.loc 3 326 0 is_stmt 0
	adds	r4, r0, r4
.LVL1149:
	bmi	.L1252
	b	.L1251
.LVL1150:
.L1302:
.LBE240:
.LBE242:
.LBE250:
	.loc 3 216 0 is_stmt 1 discriminator 1
	ldr	r2, [r8, #12]
	ldr	r1, [r7]
	add	r2, r3, r2
	cmp	r2, r1
	bne	.L1237
	b	.L1239
.L1301:
.LBB251:
	.loc 3 197 0
	mvn	r0, r10
	mov	r1, r5
	uxth	r0, r0
	bl	__aeabi_idiv
.LVL1151:
	.loc 3 198 0
	rsb	r9, r0, r9
	str	r9, [r7, #8]
.LVL1152:
	.loc 3 199 0
	rsb	r6, r0, r6
.LVL1153:
.LBE251:
	b	.L1234
.L1304:
	.align	2
.L1303:
	.word	centery
	.word	.LANCHOR0
	.word	.LANCHOR2
	.word	.LANCHOR1
	.word	R_FlushWhole32
	.word	R_FlushHT32
	.word	R_FlushQuad32
	.word	.LANCHOR0+3140
	.word	V_Palette32
	.word	viewheight
	.cfi_endproc
.LFE74:
	.size	R_DrawColumn32_PointUV_PointZ, .-R_DrawColumn32_PointUV_PointZ
	.align	2
	.type	R_DrawColumn32_PointUV_LinearZ, %function
R_DrawColumn32_PointUV_LinearZ:
.LFB75:
	.loc 3 113 0
	.cfi_startproc
	@ args = 0, pretend = 0, frame = 48
	@ frame_needed = 0, uses_anonymous_args = 0
.LVL1154:
	stmfd	sp!, {r4, r5, r6, r7, r8, r9, r10, fp, lr}
	.cfi_def_cfa_offset 36
	.cfi_offset 4, -36
	.cfi_offset 5, -32
	.cfi_offset 6, -28
	.cfi_offset 7, -24
	.cfi_offset 8, -20
	.cfi_offset 9, -16
	.cfi_offset 10, -12
	.cfi_offset 11, -8
	.cfi_offset 14, -4
	.loc 3 149 0
	ldmib	r0, {r6, r8}
	.loc 3 113 0
	sub	sp, sp, #52
	.cfi_def_cfa_offset 88
	.loc 3 157 0
	subs	r3, r8, r6
	.loc 3 117 0
	ldr	r5, [r0, #16]
.LVL1155:
	.loc 3 157 0
	str	r3, [sp, #4]
	.loc 3 121 0
	ldr	r9, [r0, #28]
.LVL1156:
	.loc 3 157 0
	bmi	.L1305
	.loc 3 171 0
	ldr	r3, .L1384
.LVL1157:
	.loc 3 174 0
	ldr	r2, [r0, #60]
	.loc 3 171 0
	ldr	r3, [r3]
	ldr	r4, [r0, #20]
	rsb	r3, r3, r6
	.loc 3 174 0
	cmp	r2, #0
	mov	r7, r0
	.loc 3 171 0
	mla	r4, r5, r3, r4
.LVL1158:
	.loc 3 174 0
	bne	.L1378
.LVL1159:
.L1308:
	.loc 3 215 0
	ldr	r8, .L1384+4
	ldr	r2, [r8]
	cmp	r2, #4
	beq	.L1314
	.loc 3 215 0 is_stmt 0 discriminator 1
	cmp	r2, #0
	bne	.L1379
.L1315:
	.loc 3 224 0 is_stmt 1
	mov	r10, #1
	.loc 3 230 0
	ldr	r2, .L1384+8
	.loc 3 231 0
	ldr	ip, .L1384+12
	.loc 3 224 0
	ldr	r0, .L1384+16
	.loc 3 231 0
	str	ip, [r2, #4]
	mov	ip, #0
	.loc 3 222 0
	ldr	r3, [r7, #4]
	.loc 3 233 0
	ldr	r9, .L1384+20
.LVL1160:
	.loc 3 221 0
	ldr	r6, [r7]
	.loc 3 223 0
	ldr	r1, [r7, #8]
	.loc 3 230 0
	ldr	lr, .L1384+24
	.loc 3 224 0
	str	r10, [r0, #-1204]
	.loc 3 232 0
	ldr	r0, .L1384+28
	.loc 3 233 0
	add	r9, r9, r3, asl #4
	.loc 3 221 0
	str	r6, [r8, #12]
	.loc 3 222 0
	str	r3, [r8, #4]
	str	r3, [r8, #16]
	.loc 3 233 0
	str	r9, [sp, #8]
.LVL1161:
	.loc 3 223 0
	str	r1, [r8, #8]
	str	r1, [r8, #32]
	.loc 3 230 0
	str	lr, [r2]
	.loc 3 232 0
	str	r0, [r2, #8]
.LVL1162:
.L1317:
.LBB252:
	.loc 3 259 0
	ldr	r2, [r7, #12]
	.loc 3 286 0
	ldr	lr, [r7, #24]
	.loc 3 260 0
	ldr	r0, [r7, #44]
	ldr	r1, [r7, #48]
.LBE252:
	.loc 3 245 0
	add	ip, ip, #1
.LBB259:
	.loc 3 259 0
	mov	r2, r2, asr #6
	.loc 3 286 0
	cmp	lr, #128
.LBE259:
	.loc 3 245 0
	str	ip, [r8]
.LBB260:
	.loc 3 259 0
	uxtb	r2, r2
	.loc 3 260 0
	str	r0, [sp, #40]
	str	r1, [sp, #44]
	.loc 3 251 0
	ldr	ip, [r7, #32]
.LVL1163:
	.loc 3 286 0
	beq	.L1380
	.loc 3 294 0
	cmp	lr, #0
	bne	.L1325
.LVL1164:
	ldr	r1, .L1384+32
	ldr	r0, [sp, #4]
	ldr	lr, [sp, #8]
	add	r7, r0, #1
.LVL1165:
	ldr	r8, [r1]
	ldr	r1, .L1384+36
	and	r0, r6, #3
	add	r7, r7, r3
	sub	r6, lr, r3, asl #4
.LVL1166:
.L1326:
	.loc 3 297 0
	and	lr, r3, #3
	add	lr, r0, lr, asl #2
	ldrb	lr, [r1, lr]	@ zero_extendqisi2
	add	r10, sp, #48
	cmp	lr, r2
	movge	lr, #0
	movlt	lr, #1
	add	lr, r10, lr, asl #2
	ldrb	r9, [ip, r4, asr #16]	@ zero_extendqisi2
	ldr	lr, [lr, #-8]
	.loc 3 300 0
	add	r4, r4, r5
.LVL1167:
	.loc 3 297 0
	ldrb	lr, [lr, r9]	@ zero_extendqisi2
	add	lr, r8, lr, asl #8
	ldr	lr, [lr, #252]
	str	lr, [r6, r3, asl #4]
	.loc 3 298 0
	add	r3, r3, #1
.LVL1168:
	.loc 3 296 0
	cmp	r3, r7
	bne	.L1326
.LVL1169:
.L1305:
.LBE260:
	.loc 3 357 0
	add	sp, sp, #52
	.cfi_remember_state
	.cfi_def_cfa_offset 36
	@ sp needed
	ldmfd	sp!, {r4, r5, r6, r7, r8, r9, r10, fp, pc}
.LVL1170:
.L1378:
	.cfi_restore_state
	.loc 3 174 0 discriminator 1
	ldr	r3, [r0, #64]
	cmp	r3, #1
	bne	.L1308
	.loc 3 178 0
	cmp	r6, #0
	beq	.L1309
	.loc 3 179 0
	ldr	r3, [r0, #56]
	tst	r3, #1
.LBB261:
	.loc 3 181 0
	mvnne	r10, r9
	uxthne	r10, r10
.LBE261:
	.loc 3 179 0
	bne	.L1373
	.loc 3 186 0
	tst	r3, #2
	beq	.L1309
.LBB262:
	.loc 3 188 0
	uxth	r10, r9
.L1373:
	mov	r0, r10
.LVL1171:
	mov	r1, r5
	bl	__aeabi_idiv
.LVL1172:
	.loc 3 190 0
	ldr	r3, [sp, #4]
	.loc 3 189 0
	add	r6, r6, r0
	.loc 3 190 0
	rsb	r3, r0, r3
	.loc 3 191 0
	add	r4, r4, r10
.LVL1173:
	.loc 3 189 0
	str	r6, [r7, #4]
.LVL1174:
	.loc 3 190 0
	str	r3, [sp, #4]
.LVL1175:
.L1309:
.LBE262:
	.loc 3 194 0
	ldr	r3, .L1384+40
	ldr	r3, [r3]
	sub	r3, r3, #1
	cmp	r8, r3
	beq	.L1311
	.loc 3 195 0
	ldr	r3, [r7, #56]
	tst	r3, #4
	bne	.L1381
	.loc 3 201 0
	tst	r3, #8
	beq	.L1311
.LBB263:
	.loc 3 203 0
	mov	r1, r5
	uxth	r0, r9
.LVL1176:
.L1374:
	bl	__aeabi_idiv
.LVL1177:
	.loc 3 205 0
	ldr	r3, [sp, #4]
	.loc 3 204 0
	rsb	r8, r0, r8
	.loc 3 205 0
	rsb	r3, r0, r3
	.loc 3 204 0
	str	r8, [r7, #8]
.LVL1178:
	.loc 3 205 0
	str	r3, [sp, #4]
.LVL1179:
.L1311:
.LBE263:
	.loc 3 208 0
	ldr	r3, [sp, #4]
	cmp	r3, #0
	bgt	.L1308
	b	.L1305
.L1379:
	.loc 3 216 0
	ldr	r3, .L1384+16
	ldr	r3, [r3, #-1204]
	cmp	r3, #1
	beq	.L1382
.L1314:
	.loc 3 217 0
	bl	R_FlushColumns
.LVL1180:
	.loc 3 219 0
	ldr	r2, [r8]
	cmp	r2, #0
	beq	.L1315
	ldr	r0, [r7]
.L1316:
	.loc 3 235 0
	ldr	r1, [r7, #4]
	.loc 3 238 0
	ldr	ip, [r8, #4]
	.loc 3 236 0
	ldr	r3, [r7, #8]
	.loc 3 238 0
	cmp	r1, ip
	.loc 3 235 0
	add	ip, r8, r2, asl #2
	.loc 3 236 0
	str	r3, [ip, #32]
	.loc 3 235 0
	str	r1, [ip, #16]
	ldr	ip, .L1384+4
	mov	r6, r0
	.loc 3 239 0
	strgt	r1, [ip, #4]
	.loc 3 243 0
	ldr	r0, .L1384+20
	.loc 3 240 0
	ldr	ip, [r8, #8]
	ldr	lr, .L1384+4
	.loc 3 243 0
	add	r2, r2, r1, asl #2
	.loc 3 240 0
	cmp	r3, ip
	.loc 3 243 0
	add	r2, r0, r2, asl #2
	.loc 3 241 0
	strlt	r3, [lr, #8]
	ldr	ip, [r8]
	.loc 3 235 0
	mov	r3, r1
	.loc 3 243 0
	str	r2, [sp, #8]
	b	.L1317
.LVL1181:
.L1325:
.LBB264:
.LBB253:
	.loc 3 303 0
	sub	r1, lr, #1
.LVL1182:
	.loc 3 304 0
	tst	r1, lr
	bne	.L1327
.LBB254:
	.loc 3 305 0
	mov	r10, r1, asl #16
	mvn	r10, r10, lsr #16
	.loc 3 306 0
	ldr	r1, [sp, #4]
.LVL1183:
	.loc 3 305 0
	mvn	r10, r10, asl #16
.LVL1184:
	.loc 3 306 0
	sub	r1, r1, #1
	cmn	r1, #1
	beq	.L1383
	ldr	r0, .L1384+32
	mov	r1, r1, lsr #1
	str	r1, [sp, #20]
	mov	r1, r1, asl #1
	add	lr, r1, #2
.LVL1185:
	str	r1, [sp, #24]
	ldr	r1, [r0]
	mov	r9, r4
	mov	fp, r1
	str	r4, [sp, #28]
	mov	r7, r3
.LVL1186:
	mov	r4, fp
.LVL1187:
	str	r0, [sp, #36]
	and	r0, r6, #3
	ldr	r6, [sp, #8]
.LVL1188:
	add	lr, lr, r3
	add	r8, r6, #32
	ldr	r1, .L1384+36
	mov	r6, r5, asl #1
	str	r6, [sp, #12]
	str	r3, [sp, #32]
	str	lr, [sp, #16]
.LVL1189:
.L1329:
	.loc 3 307 0
	and	r3, r7, #3
	add	r3, r0, r3, asl #2
	ldrb	lr, [r1, r3]	@ zero_extendqisi2
	add	r3, r7, #1
	cmp	lr, r2
	movge	lr, #0
	movlt	lr, #1
	.loc 3 311 0
	and	r3, r3, #3
	add	r3, r0, r3, asl #2
	ldrb	r3, [r1, r3]	@ zero_extendqisi2
	.loc 3 307 0
	add	fp, sp, #48
	.loc 3 311 0
	cmp	r3, r2
	movge	r3, #0
	movlt	r3, #1
	.loc 3 307 0
	and	r6, r9, r10
	add	lr, fp, lr, asl #2
	ldrb	r6, [ip, r6, asr #16]	@ zero_extendqisi2
	ldr	lr, [lr, #-8]
	.loc 3 311 0
	add	r3, fp, r3, asl #2
	.loc 3 307 0
	ldrb	lr, [lr, r6]	@ zero_extendqisi2
	.loc 3 311 0
	ldr	r3, [r3, #-8]
	.loc 3 307 0
	add	lr, r4, lr, asl #8
	ldr	r6, [lr, #252]
	add	lr, r5, r9
	str	r6, [r8, #-32]
.LVL1190:
	.loc 3 311 0
	and	lr, lr, r10
.LVL1191:
	ldrb	lr, [ip, lr, asr #16]	@ zero_extendqisi2
	.loc 3 312 0
	add	r7, r7, #2
.LVL1192:
	.loc 3 311 0
	ldrb	r3, [r3, lr]	@ zero_extendqisi2
	.loc 3 306 0
	ldr	lr, [sp, #16]
	.loc 3 311 0
	add	r3, r4, r3, asl #8
	.loc 3 306 0
	cmp	r7, lr
	.loc 3 311 0
	ldr	r3, [r3, #252]
	ldr	lr, [sp, #12]
	str	r3, [r8, #-16]
	add	r9, lr, r9
.LVL1193:
	add	r8, r8, #32
.LVL1194:
	.loc 3 306 0
	bne	.L1329
	.loc 3 316 0
	ldr	r6, [sp, #4]
	ldr	r3, [sp, #32]
	ldr	r4, [sp, #28]
	tst	r6, #1
	ldr	r6, [sp, #24]
	add	r3, r3, #2
	add	r4, r4, r5, asl #1
	add	r3, r3, r6
	ldr	r5, [sp, #20]
.LVL1195:
	ldr	r6, [sp, #12]
	add	lr, r5, #1
	mla	r4, r6, r5, r4
	ldr	r5, [sp, #8]
	add	lr, r5, lr, asl #5
	str	lr, [sp, #8]
	bne	.L1305
.LVL1196:
.L1338:
	.loc 3 317 0
	and	r3, r3, #3
	add	r0, r0, r3, asl #2
	ldrb	r3, [r1, r0]	@ zero_extendqisi2
	and	r4, r4, r10
	cmp	r3, r2
	movge	r2, #0
.LVL1197:
	movlt	r2, #1
	add	r3, sp, #48
	add	r2, r3, r2, asl #2
	ldr	r1, [r2, #-8]
	ldr	r3, [sp, #36]
	ldrb	r2, [ip, r4, asr #16]	@ zero_extendqisi2
	ldr	r3, [r3]
	ldrb	r2, [r1, r2]	@ zero_extendqisi2
	add	r3, r3, r2, asl #8
	ldr	r3, [r3, #252]
	ldr	r2, [sp, #8]
	str	r3, [r2]
	b	.L1305
.LVL1198:
.L1380:
	ldr	r1, .L1384+32
	ldr	r0, [sp, #4]
	ldr	lr, [sp, #8]
	add	r7, r0, #1
.LVL1199:
	ldr	r8, [r1]
	ldr	r1, .L1384+36
	and	r0, r6, #3
	add	r7, r7, r3
	sub	r6, lr, r3, asl #4
.LVL1200:
.L1323:
.LBE254:
.LBE253:
	.loc 3 289 0
	and	lr, r3, #3
	add	lr, r0, lr, asl #2
	ldrb	lr, [r1, lr]	@ zero_extendqisi2
	bic	r9, r4, #-16777216
	cmp	lr, r2
	movge	lr, #0
	movlt	lr, #1
	add	r10, sp, #48
	add	lr, r10, lr, asl #2
	bic	r9, r9, #8388608
	ldr	r10, [lr, #-8]
	ldrb	lr, [ip, r9, asr #16]	@ zero_extendqisi2
	.loc 3 292 0
	add	r4, r4, r5
.LVL1201:
	.loc 3 289 0
	ldrb	lr, [r10, lr]	@ zero_extendqisi2
	add	lr, r8, lr, asl #8
	ldr	lr, [lr, #252]
	str	lr, [r6, r3, asl #4]
	.loc 3 290 0
	add	r3, r3, #1
.LVL1202:
	.loc 3 288 0
	cmp	r3, r7
	bne	.L1323
.LBE264:
	.loc 3 357 0
	add	sp, sp, #52
	.cfi_remember_state
	.cfi_def_cfa_offset 36
	@ sp needed
	ldmfd	sp!, {r4, r5, r6, r7, r8, r9, r10, fp, pc}
.LVL1203:
.L1327:
	.cfi_restore_state
.LBB265:
.LBB257:
.LBB255:
	.loc 3 325 0
	cmp	r4, #0
	.loc 3 323 0
	mov	lr, lr, asl #16
.LVL1204:
	.loc 3 325 0
	bge	.L1376
	b	.L1333
.L1335:
	rsb	r4, lr, r4
.LVL1205:
.L1376:
	.loc 3 328 0
	cmp	r4, lr
	bge	.L1335
.L1332:
	ldr	r0, [sp, #4]
	.loc 3 345 0
	ldr	r1, .L1384+32
	add	r8, r0, #1
	ldr	r0, [sp, #8]
	add	r8, r8, r3
	sub	r9, r0, r3, asl #4
	ldr	r10, [r1]
	and	r0, r6, #3
	ldr	r6, .L1384+36
.LVL1206:
	b	.L1334
.LVL1207:
.L1337:
	ldrb	r1, [r6, r1]	@ zero_extendqisi2
	add	fp, sp, #48
	cmp	r1, r2
	movge	r1, #0
	movlt	r1, #1
	add	r1, fp, r1, asl #2
	ldrb	r7, [ip, r4, asr #16]	@ zero_extendqisi2
	ldr	r1, [r1, #-8]
	.loc 3 348 0
	add	r4, r4, r5
.LVL1208:
	.loc 3 345 0
	ldrb	r1, [r1, r7]	@ zero_extendqisi2
	.loc 3 348 0
	cmp	r4, lr
	.loc 3 345 0
	add	r1, r10, r1, asl #8
	ldr	r1, [r1, #252]
	.loc 3 348 0
	rsbge	r4, lr, r4
	.loc 3 345 0
	str	r1, [r9, r3, asl #4]
	.loc 3 346 0
	add	r3, r3, #1
.LVL1209:
.L1334:
	.loc 3 345 0
	and	r1, r3, #3
	.loc 3 339 0
	cmp	r3, r8
	.loc 3 345 0
	add	r1, r0, r1, asl #2
	.loc 3 339 0
	bne	.L1337
.LBE255:
.LBE257:
.LBE265:
	.loc 3 357 0
	add	sp, sp, #52
	.cfi_remember_state
	.cfi_def_cfa_offset 36
	@ sp needed
	ldmfd	sp!, {r4, r5, r6, r7, r8, r9, r10, fp, pc}
.LVL1210:
.L1333:
	.cfi_restore_state
.LBB266:
.LBB258:
.LBB256:
	.loc 3 326 0 discriminator 1
	adds	r4, lr, r4
.LVL1211:
	bpl	.L1332
.LVL1212:
	.loc 3 326 0 is_stmt 0
	adds	r4, lr, r4
.LVL1213:
	bmi	.L1333
	b	.L1332
.LVL1214:
.L1382:
.LBE256:
.LBE258:
.LBE266:
	.loc 3 216 0 is_stmt 1 discriminator 1
	ldr	r3, [r8, #12]
	ldr	r0, [r7]
	add	r3, r2, r3
	cmp	r3, r0
	bne	.L1314
	b	.L1316
.L1381:
.LBB267:
	.loc 3 197 0
	mvn	r0, r9
	mov	r1, r5
	uxth	r0, r0
	b	.L1374
.LVL1215:
.L1383:
	ldr	r1, .L1384+32
	and	r0, r6, #3
	str	r1, [sp, #36]
	ldr	r1, .L1384+36
	b	.L1338
.L1385:
	.align	2
.L1384:
	.word	centery
	.word	.LANCHOR0
	.word	.LANCHOR1
	.word	R_FlushHT32
	.word	.LANCHOR2
	.word	.LANCHOR0+3140
	.word	R_FlushWhole32
	.word	R_FlushQuad32
	.word	V_Palette32
	.word	filter_ditherMatrix
	.word	viewheight
.LBE267:
	.cfi_endproc
.LFE75:
	.size	R_DrawColumn32_PointUV_LinearZ, .-R_DrawColumn32_PointUV_LinearZ
	.align	2
	.type	R_DrawTLColumn8_PointUV, %function
R_DrawTLColumn8_PointUV:
.LFB82:
	.loc 3 113 0
	.cfi_startproc
	@ args = 0, pretend = 0, frame = 0
	@ frame_needed = 0, uses_anonymous_args = 0
.LVL1216:
	stmfd	sp!, {r3, r4, r5, r6, r7, r8, r9, r10, fp, lr}
	.cfi_def_cfa_offset 40
	.cfi_offset 3, -40
	.cfi_offset 4, -36
	.cfi_offset 5, -32
	.cfi_offset 6, -28
	.cfi_offset 7, -24
	.cfi_offset 8, -20
	.cfi_offset 9, -16
	.cfi_offset 10, -12
	.cfi_offset 11, -8
	.cfi_offset 14, -4
	.loc 3 149 0
	ldmib	r0, {r8, r9}
	.loc 3 157 0
	subs	r7, r9, r8
	.loc 3 117 0
	ldr	r6, [r0, #16]
.LVL1217:
	.loc 3 121 0
	ldr	r10, [r0, #28]
.LVL1218:
	.loc 3 157 0
	ldmmifd	sp!, {r3, r4, r5, r6, r7, r8, r9, r10, fp, pc}
	.loc 3 171 0
	ldr	r3, .L1459
	.loc 3 174 0
	ldr	r2, [r0, #60]
	.loc 3 171 0
	ldr	r3, [r3]
	ldr	r4, [r0, #20]
	rsb	r3, r3, r8
	.loc 3 174 0
	cmp	r2, #0
	mov	r5, r0
	.loc 3 171 0
	mla	r4, r6, r3, r4
.LVL1219:
	.loc 3 174 0
	bne	.L1454
.LVL1220:
.L1389:
	.loc 3 215 0
	ldr	r8, .L1459+4
	ldr	r3, [r8]
	cmp	r3, #4
	beq	.L1395
	.loc 3 215 0 is_stmt 0 discriminator 1
	cmp	r3, #0
	bne	.L1455
.L1396:
	.loc 3 224 0 is_stmt 1
	mov	fp, #2
	.loc 3 223 0
	ldr	r1, [r5, #8]
	.loc 3 222 0
	ldr	r2, [r5, #4]
	.loc 3 221 0
	ldr	r10, [r5]
.LVL1221:
	.loc 3 223 0
	str	r1, [r8, #8]
	str	r1, [r8, #32]
	mov	r1, #0
	.loc 3 226 0
	ldr	r3, .L1459+8
	.loc 3 224 0
	ldr	r0, .L1459+12
	.loc 3 226 0
	ldr	ip, [r3]
	.loc 3 233 0
	ldr	r9, .L1459+16
	.loc 3 230 0
	ldr	r3, .L1459+20
	ldr	lr, .L1459+24
	.loc 3 226 0
	str	ip, [r8, #1008]
	.loc 3 224 0
	str	fp, [r0, #-1204]
	.loc 3 231 0
	ldr	ip, .L1459+28
	.loc 3 232 0
	ldr	r0, .L1459+32
	.loc 3 222 0
	str	r2, [r8, #4]
	str	r2, [r8, #16]
	.loc 3 221 0
	str	r10, [r8, #12]
	.loc 3 233 0
	add	r2, r9, r2, asl #2
.LVL1222:
	.loc 3 230 0
	str	lr, [r3]
	.loc 3 231 0
	str	ip, [r3, #4]
	.loc 3 232 0
	str	r0, [r3, #8]
.L1398:
.LBB268:
	.loc 3 286 0
	ldr	r3, [r5, #24]
.LBE268:
	.loc 3 245 0
	add	r1, r1, #1
.LBB275:
	.loc 3 286 0
	cmp	r3, #128
.LBE275:
	.loc 3 245 0
	str	r1, [r8]
.LBB276:
	.loc 3 251 0
	ldr	r0, [r5, #32]
.LVL1223:
	.loc 3 286 0
	beq	.L1456
	.loc 3 294 0
	cmp	r3, #0
	bne	.L1402
.LVL1224:
	add	r7, r7, #1
.LVL1225:
.L1403:
	.loc 3 297 0
	ldrb	r1, [r0, r4, asr #16]	@ zero_extendqisi2
	.loc 3 300 0
	add	r4, r4, r6
.LVL1226:
	.loc 3 297 0
	strb	r1, [r2, r3, asl #2]
.LVL1227:
	add	r3, r3, #1
.LVL1228:
	.loc 3 296 0
	cmp	r3, r7
	bne	.L1403
	ldmfd	sp!, {r3, r4, r5, r6, r7, r8, r9, r10, fp, pc}
.LVL1229:
.L1454:
.LBE276:
	.loc 3 174 0 discriminator 1
	ldr	r3, [r0, #64]
	cmp	r3, #1
	bne	.L1389
	.loc 3 178 0
	cmp	r8, #0
	beq	.L1390
	.loc 3 179 0
	ldr	r3, [r0, #56]
	tst	r3, #1
.LBB277:
	.loc 3 181 0
	mvnne	fp, r10
	uxthne	fp, fp
.LBE277:
	.loc 3 179 0
	bne	.L1449
	.loc 3 186 0
	tst	r3, #2
	beq	.L1390
.LBB278:
	.loc 3 188 0
	uxth	fp, r10
.L1449:
	mov	r0, fp
.LVL1230:
	mov	r1, r6
	bl	__aeabi_idiv
.LVL1231:
	.loc 3 189 0
	add	r8, r8, r0
	.loc 3 191 0
	add	r4, r4, fp
.LVL1232:
	.loc 3 189 0
	str	r8, [r5, #4]
.LVL1233:
	.loc 3 190 0
	rsb	r7, r0, r7
.LVL1234:
.L1390:
.LBE278:
	.loc 3 194 0
	ldr	r3, .L1459+36
	ldr	r3, [r3]
	sub	r3, r3, #1
	cmp	r9, r3
	beq	.L1392
	.loc 3 195 0
	ldr	r3, [r5, #56]
	tst	r3, #4
	bne	.L1457
	.loc 3 201 0
	tst	r3, #8
	beq	.L1392
.LBB279:
	.loc 3 203 0
	uxth	r0, r10
	mov	r1, r6
	bl	__aeabi_idiv
.LVL1235:
	.loc 3 204 0
	rsb	r9, r0, r9
	str	r9, [r5, #8]
.LVL1236:
	.loc 3 205 0
	rsb	r7, r0, r7
.LVL1237:
.L1392:
.LBE279:
	.loc 3 208 0
	cmp	r7, #0
	bgt	.L1389
	ldmfd	sp!, {r3, r4, r5, r6, r7, r8, r9, r10, fp, pc}
.L1455:
	.loc 3 216 0
	ldr	r2, .L1459+12
	ldr	r2, [r2, #-1204]
	cmp	r2, #2
	beq	.L1458
.L1395:
	.loc 3 217 0
	bl	R_FlushColumns
.LVL1238:
	.loc 3 219 0
	ldr	r3, [r8]
	cmp	r3, #0
	beq	.L1396
.L1397:
	.loc 3 235 0
	ldr	r2, [r5, #4]
	.loc 3 238 0
	ldr	r0, [r8, #4]
	.loc 3 236 0
	ldr	r1, [r5, #8]
	.loc 3 238 0
	cmp	r2, r0
	.loc 3 235 0
	add	r0, r8, r3, asl #2
	str	r2, [r0, #16]
	.loc 3 236 0
	str	r1, [r0, #32]
	.loc 3 235 0
	ldr	r0, .L1459+4
	.loc 3 240 0
	ldr	ip, .L1459+4
	.loc 3 239 0
	strgt	r2, [r0, #4]
	.loc 3 240 0
	ldr	r0, [r8, #8]
	.loc 3 243 0
	add	r3, r3, r2, asl #2
	.loc 3 240 0
	cmp	r1, r0
	.loc 3 241 0
	strlt	r1, [ip, #8]
	.loc 3 243 0
	ldr	r1, .L1459+16
	add	r2, r1, r3
.LVL1239:
	ldr	r1, [r8]
	b	.L1398
.LVL1240:
.L1402:
.LBB280:
.LBB269:
	.loc 3 303 0
	sub	r1, r3, #1
.LVL1241:
	.loc 3 304 0
	tst	r1, r3
	bne	.L1404
.LBB270:
	.loc 3 305 0
	mov	lr, r1, asl #16
	mvn	lr, lr, lsr #16
	.loc 3 306 0
	sub	r9, r7, #1
	cmn	r9, #1
	.loc 3 305 0
	mvn	lr, lr, asl #16
.LVL1242:
	.loc 3 306 0
	mov	r5, r9
.LVL1243:
	beq	.L1416
	mov	r1, r4
.LVL1244:
	add	r3, r2, #8
.LVL1245:
	mov	r8, r6, asl #1
.LVL1246:
.L1406:
	.loc 3 307 0
	and	ip, r1, lr
	ldrb	r10, [r0, ip, asr #16]	@ zero_extendqisi2
	add	ip, r6, r1
	strb	r10, [r3, #-8]
.LVL1247:
	.loc 3 311 0
	and	ip, ip, lr
.LVL1248:
	ldrb	ip, [r0, ip, asr #16]	@ zero_extendqisi2
	.loc 3 306 0
	subs	r5, r5, #2
.LVL1249:
	.loc 3 311 0
	strb	ip, [r3, #-4]
.LVL1250:
	add	r1, r8, r1
.LVL1251:
	add	r3, r3, #8
.LVL1252:
	.loc 3 306 0
	bpl	.L1406
	mov	r9, r9, lsr #1
	add	r4, r4, r6, asl #1
	add	r3, r9, #1
.LVL1253:
	.loc 3 316 0
	tst	r7, #1
	mla	r4, r9, r8, r4
	add	r2, r2, r3, asl #3
	ldmnefd	sp!, {r3, r4, r5, r6, r7, r8, r9, r10, fp, pc}
.LVL1254:
.L1416:
	.loc 3 317 0
	and	r4, r4, lr
	ldrb	r3, [r0, r4, asr #16]	@ zero_extendqisi2
	strb	r3, [r2]
	ldmfd	sp!, {r3, r4, r5, r6, r7, r8, r9, r10, fp, pc}
.LVL1255:
.L1456:
.LBE270:
.LBE269:
	.loc 3 286 0
	mov	r3, #0
	add	r7, r7, #1
.LVL1256:
.L1401:
	.loc 3 289 0
	bic	r1, r4, #-16777216
	bic	r1, r1, #8388608
	ldrb	r1, [r0, r1, asr #16]	@ zero_extendqisi2
	.loc 3 292 0
	add	r4, r4, r6
.LVL1257:
	.loc 3 289 0
	strb	r1, [r2, r3, asl #2]
.LVL1258:
	add	r3, r3, #1
.LVL1259:
	.loc 3 288 0
	cmp	r3, r7
	bne	.L1401
	ldmfd	sp!, {r3, r4, r5, r6, r7, r8, r9, r10, fp, pc}
.LVL1260:
.L1404:
.LBB274:
.LBB271:
	.loc 3 325 0
	cmp	r4, #0
	.loc 3 323 0
	mov	r3, r3, asl #16
.LVL1261:
	.loc 3 325 0
	bge	.L1451
	b	.L1410
.L1412:
	rsb	r4, r3, r4
.LVL1262:
.L1451:
	.loc 3 328 0
	cmp	r4, r3
	bge	.L1412
.L1409:
.LBE271:
.LBB272:
	.loc 3 306 0
	mov	r1, #0
	add	r7, r7, #1
.LVL1263:
.L1411:
.LBE272:
.LBB273:
	.loc 3 345 0
	ldrb	ip, [r0, r4, asr #16]	@ zero_extendqisi2
	.loc 3 348 0
	add	r4, r4, r6
.LVL1264:
	cmp	r4, r3
	.loc 3 345 0
	strb	ip, [r2, r1, asl #2]
.LVL1265:
	add	r1, r1, #1
.LVL1266:
	.loc 3 348 0
	rsbge	r4, r3, r4
.LVL1267:
	.loc 3 339 0
	cmp	r7, r1
	bne	.L1411
	ldmfd	sp!, {r3, r4, r5, r6, r7, r8, r9, r10, fp, pc}
.LVL1268:
.L1410:
	.loc 3 326 0 discriminator 1
	adds	r4, r3, r4
.LVL1269:
	bpl	.L1409
.LVL1270:
	.loc 3 326 0 is_stmt 0
	adds	r4, r3, r4
.LVL1271:
	bmi	.L1410
	b	.L1409
.LVL1272:
.L1458:
.LBE273:
.LBE274:
.LBE280:
	.loc 3 216 0 is_stmt 1 discriminator 1
	ldr	r2, [r8, #12]
	ldr	r1, [r5]
	add	r2, r3, r2
	cmp	r2, r1
	bne	.L1395
	b	.L1397
.L1457:
.LBB281:
	.loc 3 197 0
	mvn	r0, r10
	mov	r1, r6
	uxth	r0, r0
	bl	__aeabi_idiv
.LVL1273:
	.loc 3 198 0
	rsb	r9, r0, r9
	str	r9, [r5, #8]
.LVL1274:
	.loc 3 199 0
	rsb	r7, r0, r7
.LVL1275:
.LBE281:
	b	.L1392
.L1460:
	.align	2
.L1459:
	.word	centery
	.word	.LANCHOR0
	.word	tranmap
	.word	.LANCHOR2
	.word	.LANCHOR0+48
	.word	.LANCHOR1
	.word	R_FlushWholeTL8
	.word	R_FlushHTTL8
	.word	R_FlushQuadTL8
	.word	viewheight
	.cfi_endproc
.LFE82:
	.size	R_DrawTLColumn8_PointUV, .-R_DrawTLColumn8_PointUV
	.align	2
	.type	R_DrawTLColumn8_PointUV_PointZ, %function
R_DrawTLColumn8_PointUV_PointZ:
.LFB83:
	.loc 3 113 0
	.cfi_startproc
	@ args = 0, pretend = 0, frame = 0
	@ frame_needed = 0, uses_anonymous_args = 0
.LVL1276:
	stmfd	sp!, {r3, r4, r5, r6, r7, r8, r9, r10, fp, lr}
	.cfi_def_cfa_offset 40
	.cfi_offset 3, -40
	.cfi_offset 4, -36
	.cfi_offset 5, -32
	.cfi_offset 6, -28
	.cfi_offset 7, -24
	.cfi_offset 8, -20
	.cfi_offset 9, -16
	.cfi_offset 10, -12
	.cfi_offset 11, -8
	.cfi_offset 14, -4
	.loc 3 149 0
	ldmib	r0, {r8, r9}
	.loc 3 157 0
	subs	r7, r9, r8
	.loc 3 117 0
	ldr	r6, [r0, #16]
.LVL1277:
	.loc 3 121 0
	ldr	r10, [r0, #28]
.LVL1278:
	.loc 3 157 0
	ldmmifd	sp!, {r3, r4, r5, r6, r7, r8, r9, r10, fp, pc}
	.loc 3 171 0
	ldr	r3, .L1534
	.loc 3 174 0
	ldr	r2, [r0, #60]
	.loc 3 171 0
	ldr	r3, [r3]
	ldr	r4, [r0, #20]
	rsb	r3, r3, r8
	.loc 3 174 0
	cmp	r2, #0
	mov	r5, r0
	.loc 3 171 0
	mla	r4, r6, r3, r4
.LVL1279:
	.loc 3 174 0
	bne	.L1529
.LVL1280:
.L1464:
	.loc 3 215 0
	ldr	r8, .L1534+4
	ldr	r3, [r8]
	cmp	r3, #4
	beq	.L1470
	.loc 3 215 0 is_stmt 0 discriminator 1
	cmp	r3, #0
	bne	.L1530
.L1471:
	.loc 3 224 0 is_stmt 1
	mov	fp, #2
	.loc 3 222 0
	ldr	r2, [r5, #4]
	.loc 3 233 0
	ldr	r1, .L1534+8
	.loc 3 221 0
	ldr	r10, [r5]
.LVL1281:
	.loc 3 223 0
	ldr	r0, [r5, #8]
	.loc 3 222 0
	str	r2, [r8, #4]
	str	r2, [r8, #16]
	.loc 3 233 0
	add	r1, r1, r2, asl #2
.LVL1282:
	mov	r2, #0
	.loc 3 226 0
	ldr	r3, .L1534+12
	.loc 3 224 0
	ldr	ip, .L1534+16
	.loc 3 226 0
	ldr	lr, [r3]
	.loc 3 230 0
	ldr	r9, .L1534+20
	ldr	r3, .L1534+24
	.loc 3 226 0
	str	lr, [r8, #1008]
	.loc 3 231 0
	ldr	lr, .L1534+28
	.loc 3 224 0
	str	fp, [ip, #-1204]
	.loc 3 231 0
	stmia	r3, {r9, lr}
	.loc 3 232 0
	ldr	ip, .L1534+32
	.loc 3 221 0
	str	r10, [r8, #12]
	.loc 3 223 0
	str	r0, [r8, #8]
	str	r0, [r8, #32]
	.loc 3 232 0
	str	ip, [r3, #8]
.L1473:
.LBB282:
	.loc 3 286 0
	ldr	r3, [r5, #24]
.LBE282:
	.loc 3 245 0
	add	r2, r2, #1
.LBB289:
	.loc 3 286 0
	cmp	r3, #128
.LBE289:
	.loc 3 245 0
	str	r2, [r8]
.LBB290:
	.loc 3 251 0
	ldr	r0, [r5, #32]
.LVL1283:
	.loc 3 252 0
	ldr	r2, [r5, #44]
.LVL1284:
	.loc 3 286 0
	beq	.L1531
	.loc 3 294 0
	cmp	r3, #0
	bne	.L1477
.LVL1285:
	add	r7, r7, #1
.LVL1286:
.L1478:
	.loc 3 297 0
	ldrb	ip, [r0, r4, asr #16]	@ zero_extendqisi2
	.loc 3 300 0
	add	r4, r4, r6
.LVL1287:
	.loc 3 297 0
	ldrb	ip, [r2, ip]	@ zero_extendqisi2
	strb	ip, [r1, r3, asl #2]
.LVL1288:
	add	r3, r3, #1
.LVL1289:
	.loc 3 296 0
	cmp	r3, r7
	bne	.L1478
	ldmfd	sp!, {r3, r4, r5, r6, r7, r8, r9, r10, fp, pc}
.LVL1290:
.L1529:
.LBE290:
	.loc 3 174 0 discriminator 1
	ldr	r3, [r0, #64]
	cmp	r3, #1
	bne	.L1464
	.loc 3 178 0
	cmp	r8, #0
	beq	.L1465
	.loc 3 179 0
	ldr	r3, [r0, #56]
	tst	r3, #1
.LBB291:
	.loc 3 181 0
	mvnne	fp, r10
	uxthne	fp, fp
.LBE291:
	.loc 3 179 0
	bne	.L1524
	.loc 3 186 0
	tst	r3, #2
	beq	.L1465
.LBB292:
	.loc 3 188 0
	uxth	fp, r10
.L1524:
	mov	r0, fp
.LVL1291:
	mov	r1, r6
	bl	__aeabi_idiv
.LVL1292:
	.loc 3 189 0
	add	r8, r8, r0
	.loc 3 191 0
	add	r4, r4, fp
.LVL1293:
	.loc 3 189 0
	str	r8, [r5, #4]
.LVL1294:
	.loc 3 190 0
	rsb	r7, r0, r7
.LVL1295:
.L1465:
.LBE292:
	.loc 3 194 0
	ldr	r3, .L1534+36
	ldr	r3, [r3]
	sub	r3, r3, #1
	cmp	r9, r3
	beq	.L1467
	.loc 3 195 0
	ldr	r3, [r5, #56]
	tst	r3, #4
	bne	.L1532
	.loc 3 201 0
	tst	r3, #8
	beq	.L1467
.LBB293:
	.loc 3 203 0
	uxth	r0, r10
	mov	r1, r6
	bl	__aeabi_idiv
.LVL1296:
	.loc 3 204 0
	rsb	r9, r0, r9
	str	r9, [r5, #8]
.LVL1297:
	.loc 3 205 0
	rsb	r7, r0, r7
.LVL1298:
.L1467:
.LBE293:
	.loc 3 208 0
	cmp	r7, #0
	bgt	.L1464
	ldmfd	sp!, {r3, r4, r5, r6, r7, r8, r9, r10, fp, pc}
.L1530:
	.loc 3 216 0
	ldr	r2, .L1534+16
	ldr	r2, [r2, #-1204]
	cmp	r2, #2
	beq	.L1533
.L1470:
	.loc 3 217 0
	bl	R_FlushColumns
.LVL1299:
	.loc 3 219 0
	ldr	r3, [r8]
	cmp	r3, #0
	beq	.L1471
.L1472:
	.loc 3 235 0
	ldr	r1, [r5, #4]
	.loc 3 238 0
	ldr	r0, [r8, #4]
	.loc 3 236 0
	ldr	r2, [r5, #8]
	.loc 3 238 0
	cmp	r1, r0
	.loc 3 235 0
	add	r0, r8, r3, asl #2
	str	r1, [r0, #16]
	.loc 3 236 0
	str	r2, [r0, #32]
	.loc 3 235 0
	ldr	r0, .L1534+4
	.loc 3 240 0
	ldr	ip, .L1534+4
	.loc 3 239 0
	strgt	r1, [r0, #4]
	.loc 3 240 0
	ldr	r0, [r8, #8]
	.loc 3 243 0
	add	r3, r3, r1, asl #2
	.loc 3 240 0
	cmp	r2, r0
	.loc 3 241 0
	strlt	r2, [ip, #8]
	.loc 3 243 0
	ldr	r2, .L1534+8
	add	r1, r2, r3
.LVL1300:
	ldr	r2, [r8]
	b	.L1473
.LVL1301:
.L1477:
.LBB294:
.LBB283:
	.loc 3 303 0
	sub	ip, r3, #1
.LVL1302:
	.loc 3 304 0
	tst	ip, r3
	bne	.L1479
.LBB284:
	.loc 3 305 0
	mov	r5, ip, asl #16
.LVL1303:
	mvn	r5, r5, lsr #16
	.loc 3 306 0
	sub	r10, r7, #1
	cmn	r10, #1
	.loc 3 305 0
	mvn	r5, r5, asl #16
.LVL1304:
	.loc 3 306 0
	mov	r8, r10
.LVL1305:
	beq	.L1491
	mov	ip, r4
.LVL1306:
	add	r3, r1, #8
.LVL1307:
	mov	r9, r6, asl #1
.LVL1308:
.L1481:
	.loc 3 307 0
	and	lr, ip, r5
	ldrb	lr, [r0, lr, asr #16]	@ zero_extendqisi2
	.loc 3 306 0
	subs	r8, r8, #2
.LVL1309:
	.loc 3 307 0
	ldrb	fp, [r2, lr]	@ zero_extendqisi2
	add	lr, r6, ip
	strb	fp, [r3, #-8]
.LVL1310:
	.loc 3 311 0
	and	lr, lr, r5
.LVL1311:
	ldrb	lr, [r0, lr, asr #16]	@ zero_extendqisi2
	add	ip, r9, ip
.LVL1312:
	ldrb	lr, [r2, lr]	@ zero_extendqisi2
	add	r3, r3, #8
.LVL1313:
	strb	lr, [r3, #-12]
.LVL1314:
	.loc 3 306 0
	bpl	.L1481
	mov	r10, r10, lsr #1
	add	r4, r4, r6, asl #1
	add	r3, r10, #1
	.loc 3 316 0
	tst	r7, #1
	mla	r4, r10, r9, r4
	add	r1, r1, r3, asl #3
	ldmnefd	sp!, {r3, r4, r5, r6, r7, r8, r9, r10, fp, pc}
.LVL1315:
.L1491:
	.loc 3 317 0
	and	r4, r4, r5
	ldrb	r3, [r0, r4, asr #16]	@ zero_extendqisi2
	ldrb	r3, [r2, r3]	@ zero_extendqisi2
	strb	r3, [r1]
	ldmfd	sp!, {r3, r4, r5, r6, r7, r8, r9, r10, fp, pc}
.LVL1316:
.L1531:
.LBE284:
.LBE283:
	.loc 3 286 0
	mov	r3, #0
	add	r7, r7, #1
.LVL1317:
.L1476:
	.loc 3 289 0
	bic	ip, r4, #-16777216
	bic	ip, ip, #8388608
	ldrb	ip, [r0, ip, asr #16]	@ zero_extendqisi2
	.loc 3 292 0
	add	r4, r4, r6
.LVL1318:
	.loc 3 289 0
	ldrb	ip, [r2, ip]	@ zero_extendqisi2
	strb	ip, [r1, r3, asl #2]
.LVL1319:
	add	r3, r3, #1
.LVL1320:
	.loc 3 288 0
	cmp	r3, r7
	bne	.L1476
	ldmfd	sp!, {r3, r4, r5, r6, r7, r8, r9, r10, fp, pc}
.LVL1321:
.L1479:
.LBB288:
.LBB285:
	.loc 3 325 0
	cmp	r4, #0
	.loc 3 323 0
	mov	r3, r3, asl #16
.LVL1322:
	.loc 3 325 0
	bge	.L1526
	b	.L1485
.L1487:
	rsb	r4, r3, r4
.LVL1323:
.L1526:
	.loc 3 328 0
	cmp	r4, r3
	bge	.L1487
.L1484:
.LBE285:
.LBB286:
	.loc 3 306 0
	mov	ip, #0
	add	r7, r7, #1
.LVL1324:
.L1486:
.LBE286:
.LBB287:
	.loc 3 345 0
	ldrb	lr, [r0, r4, asr #16]	@ zero_extendqisi2
	.loc 3 348 0
	add	r4, r4, r6
.LVL1325:
	.loc 3 345 0
	ldrb	lr, [r2, lr]	@ zero_extendqisi2
	.loc 3 348 0
	cmp	r4, r3
	.loc 3 345 0
	strb	lr, [r1, ip, asl #2]
.LVL1326:
	add	ip, ip, #1
.LVL1327:
	.loc 3 348 0
	rsbge	r4, r3, r4
.LVL1328:
	.loc 3 339 0
	cmp	r7, ip
	bne	.L1486
	ldmfd	sp!, {r3, r4, r5, r6, r7, r8, r9, r10, fp, pc}
.LVL1329:
.L1485:
	.loc 3 326 0 discriminator 1
	adds	r4, r3, r4
.LVL1330:
	bpl	.L1484
.LVL1331:
	.loc 3 326 0 is_stmt 0
	adds	r4, r3, r4
.LVL1332:
	bmi	.L1485
	b	.L1484
.LVL1333:
.L1533:
.LBE287:
.LBE288:
.LBE294:
	.loc 3 216 0 is_stmt 1 discriminator 1
	ldr	r2, [r8, #12]
	ldr	r1, [r5]
	add	r2, r3, r2
	cmp	r2, r1
	bne	.L1470
	b	.L1472
.L1532:
.LBB295:
	.loc 3 197 0
	mvn	r0, r10
	mov	r1, r6
	uxth	r0, r0
	bl	__aeabi_idiv
.LVL1334:
	.loc 3 198 0
	rsb	r9, r0, r9
	str	r9, [r5, #8]
.LVL1335:
	.loc 3 199 0
	rsb	r7, r0, r7
.LVL1336:
.LBE295:
	b	.L1467
.L1535:
	.align	2
.L1534:
	.word	centery
	.word	.LANCHOR0
	.word	.LANCHOR0+48
	.word	tranmap
	.word	.LANCHOR2
	.word	R_FlushWholeTL8
	.word	.LANCHOR1
	.word	R_FlushHTTL8
	.word	R_FlushQuadTL8
	.word	viewheight
	.cfi_endproc
.LFE83:
	.size	R_DrawTLColumn8_PointUV_PointZ, .-R_DrawTLColumn8_PointUV_PointZ
	.align	2
	.type	R_DrawTLColumn8_PointUV_LinearZ, %function
R_DrawTLColumn8_PointUV_LinearZ:
.LFB84:
	.loc 3 113 0
	.cfi_startproc
	@ args = 0, pretend = 0, frame = 40
	@ frame_needed = 0, uses_anonymous_args = 0
.LVL1337:
	stmfd	sp!, {r4, r5, r6, r7, r8, r9, r10, fp, lr}
	.cfi_def_cfa_offset 36
	.cfi_offset 4, -36
	.cfi_offset 5, -32
	.cfi_offset 6, -28
	.cfi_offset 7, -24
	.cfi_offset 8, -20
	.cfi_offset 9, -16
	.cfi_offset 10, -12
	.cfi_offset 11, -8
	.cfi_offset 14, -4
	.loc 3 149 0
	ldmib	r0, {r6, r8}
	.loc 3 113 0
	sub	sp, sp, #44
	.cfi_def_cfa_offset 80
	.loc 3 157 0
	subs	r3, r8, r6
	.loc 3 117 0
	ldr	r5, [r0, #16]
.LVL1338:
	.loc 3 157 0
	str	r3, [sp]
	.loc 3 121 0
	ldr	r9, [r0, #28]
.LVL1339:
	.loc 3 157 0
	bmi	.L1536
	.loc 3 171 0
	ldr	r3, .L1614
.LVL1340:
	.loc 3 174 0
	ldr	r2, [r0, #60]
	.loc 3 171 0
	ldr	r3, [r3]
	ldr	r4, [r0, #20]
	rsb	r3, r3, r6
	.loc 3 174 0
	cmp	r2, #0
	mov	r7, r0
	.loc 3 171 0
	mla	r4, r5, r3, r4
.LVL1341:
	.loc 3 174 0
	bne	.L1609
.LVL1342:
.L1539:
	.loc 3 215 0
	ldr	r8, .L1614+4
	ldr	r2, [r8]
	cmp	r2, #4
	beq	.L1545
	.loc 3 215 0 is_stmt 0 discriminator 1
	cmp	r2, #0
	bne	.L1610
.L1546:
	.loc 3 226 0 is_stmt 1
	ldr	r3, .L1614+8
	.loc 3 224 0
	mov	r10, #2
	.loc 3 226 0
	ldr	ip, [r3]
	.loc 3 230 0
	ldr	r2, .L1614+12
	.loc 3 226 0
	str	ip, [r8, #1008]
	.loc 3 231 0
	ldr	ip, .L1614+16
	.loc 3 224 0
	ldr	r0, .L1614+20
	.loc 3 231 0
	str	ip, [r2, #4]
	mov	ip, #0
	.loc 3 222 0
	ldr	r3, [r7, #4]
	.loc 3 233 0
	ldr	r9, .L1614+24
.LVL1343:
	.loc 3 221 0
	ldr	r6, [r7]
	.loc 3 223 0
	ldr	r1, [r7, #8]
	.loc 3 230 0
	ldr	lr, .L1614+28
	.loc 3 224 0
	str	r10, [r0, #-1204]
	.loc 3 232 0
	ldr	r0, .L1614+32
	.loc 3 233 0
	add	r9, r9, r3, asl #2
	.loc 3 221 0
	str	r6, [r8, #12]
	.loc 3 222 0
	str	r3, [r8, #4]
	str	r3, [r8, #16]
	.loc 3 233 0
	str	r9, [sp, #4]
.LVL1344:
	.loc 3 223 0
	str	r1, [r8, #8]
	str	r1, [r8, #32]
	.loc 3 230 0
	str	lr, [r2]
	.loc 3 232 0
	str	r0, [r2, #8]
.LVL1345:
.L1548:
.LBB296:
	.loc 3 259 0
	ldr	r2, [r7, #12]
	.loc 3 286 0
	ldr	lr, [r7, #24]
	.loc 3 260 0
	ldr	r0, [r7, #44]
	ldr	r1, [r7, #48]
.LBE296:
	.loc 3 245 0
	add	ip, ip, #1
.LBB303:
	.loc 3 259 0
	mov	r2, r2, asr #6
	.loc 3 286 0
	cmp	lr, #128
.LBE303:
	.loc 3 245 0
	str	ip, [r8]
.LBB304:
	.loc 3 259 0
	uxtb	r2, r2
	.loc 3 260 0
	str	r0, [sp, #32]
	str	r1, [sp, #36]
	.loc 3 251 0
	ldr	ip, [r7, #32]
.LVL1346:
	.loc 3 286 0
	beq	.L1611
	.loc 3 294 0
	cmp	lr, #0
	bne	.L1556
.LVL1347:
	ldr	r1, [sp]
	ldr	lr, [sp, #4]
	add	r7, r1, #1
.LVL1348:
	ldr	r1, .L1614+36
	and	r0, r6, #3
	add	r7, r7, r3
	sub	r6, lr, r3, asl #2
.LVL1349:
.L1557:
	.loc 3 297 0
	and	lr, r3, #3
	add	lr, r0, lr, asl #2
	ldrb	lr, [r1, lr]	@ zero_extendqisi2
	add	r9, sp, #40
	cmp	lr, r2
	movge	lr, #0
	movlt	lr, #1
	add	lr, r9, lr, asl #2
	ldrb	r8, [ip, r4, asr #16]	@ zero_extendqisi2
	ldr	lr, [lr, #-8]
	.loc 3 300 0
	add	r4, r4, r5
.LVL1350:
	.loc 3 297 0
	ldrb	lr, [lr, r8]	@ zero_extendqisi2
	strb	lr, [r6, r3, asl #2]
	.loc 3 298 0
	add	r3, r3, #1
.LVL1351:
	.loc 3 296 0
	cmp	r3, r7
	bne	.L1557
.LVL1352:
.L1536:
.LBE304:
	.loc 3 357 0
	add	sp, sp, #44
	.cfi_remember_state
	.cfi_def_cfa_offset 36
	@ sp needed
	ldmfd	sp!, {r4, r5, r6, r7, r8, r9, r10, fp, pc}
.LVL1353:
.L1609:
	.cfi_restore_state
	.loc 3 174 0 discriminator 1
	ldr	r3, [r0, #64]
	cmp	r3, #1
	bne	.L1539
	.loc 3 178 0
	cmp	r6, #0
	beq	.L1540
	.loc 3 179 0
	ldr	r3, [r0, #56]
	tst	r3, #1
.LBB305:
	.loc 3 181 0
	mvnne	r10, r9
	uxthne	r10, r10
.LBE305:
	.loc 3 179 0
	bne	.L1604
	.loc 3 186 0
	tst	r3, #2
	beq	.L1540
.LBB306:
	.loc 3 188 0
	uxth	r10, r9
.L1604:
	mov	r0, r10
.LVL1354:
	mov	r1, r5
	bl	__aeabi_idiv
.LVL1355:
	.loc 3 190 0
	ldr	r3, [sp]
	.loc 3 189 0
	add	r6, r6, r0
	.loc 3 190 0
	rsb	r3, r0, r3
	.loc 3 191 0
	add	r4, r4, r10
.LVL1356:
	.loc 3 189 0
	str	r6, [r7, #4]
.LVL1357:
	.loc 3 190 0
	str	r3, [sp]
.LVL1358:
.L1540:
.LBE306:
	.loc 3 194 0
	ldr	r3, .L1614+40
	ldr	r3, [r3]
	sub	r3, r3, #1
	cmp	r8, r3
	beq	.L1542
	.loc 3 195 0
	ldr	r3, [r7, #56]
	tst	r3, #4
	bne	.L1612
	.loc 3 201 0
	tst	r3, #8
	beq	.L1542
.LBB307:
	.loc 3 203 0
	mov	r1, r5
	uxth	r0, r9
.LVL1359:
.L1605:
	bl	__aeabi_idiv
.LVL1360:
	.loc 3 205 0
	ldr	r3, [sp]
	.loc 3 204 0
	rsb	r8, r0, r8
	.loc 3 205 0
	rsb	r3, r0, r3
	.loc 3 204 0
	str	r8, [r7, #8]
.LVL1361:
	.loc 3 205 0
	str	r3, [sp]
.LVL1362:
.L1542:
.LBE307:
	.loc 3 208 0
	ldr	r3, [sp]
	cmp	r3, #0
	bgt	.L1539
	b	.L1536
.L1610:
	.loc 3 216 0
	ldr	r3, .L1614+20
	ldr	r3, [r3, #-1204]
	cmp	r3, #2
	beq	.L1613
.L1545:
	.loc 3 217 0
	bl	R_FlushColumns
.LVL1363:
	.loc 3 219 0
	ldr	r2, [r8]
	cmp	r2, #0
	beq	.L1546
	ldr	r0, [r7]
.L1547:
	.loc 3 235 0
	ldr	r1, [r7, #4]
	.loc 3 238 0
	ldr	ip, [r8, #4]
	.loc 3 236 0
	ldr	r3, [r7, #8]
	.loc 3 238 0
	cmp	r1, ip
	.loc 3 235 0
	add	ip, r8, r2, asl #2
	.loc 3 236 0
	str	r3, [ip, #32]
	.loc 3 235 0
	str	r1, [ip, #16]
	ldr	ip, .L1614+4
	mov	r6, r0
	.loc 3 239 0
	strgt	r1, [ip, #4]
	.loc 3 243 0
	ldr	r0, .L1614+24
	.loc 3 240 0
	ldr	ip, [r8, #8]
	ldr	lr, .L1614+4
	.loc 3 243 0
	add	r2, r2, r1, asl #2
	.loc 3 240 0
	cmp	r3, ip
	.loc 3 243 0
	add	r2, r0, r2
	.loc 3 241 0
	strlt	r3, [lr, #8]
	ldr	ip, [r8]
	.loc 3 235 0
	mov	r3, r1
	.loc 3 243 0
	str	r2, [sp, #4]
.LVL1364:
	b	.L1548
.LVL1365:
.L1556:
.LBB308:
.LBB297:
	.loc 3 303 0
	sub	r1, lr, #1
.LVL1366:
	.loc 3 304 0
	tst	r1, lr
	bne	.L1558
.LBB298:
	.loc 3 305 0
	mov	r10, r1, asl #16
	mvn	r10, r10, lsr #16
	.loc 3 306 0
	ldr	r1, [sp]
.LVL1367:
	.loc 3 305 0
	mvn	r10, r10, asl #16
.LVL1368:
	.loc 3 306 0
	sub	r1, r1, #1
	cmn	r1, #1
	andeq	r0, r6, #3
	ldreq	r1, .L1614+36
	beq	.L1569
	mov	r1, r1, lsr #1
	str	r1, [sp, #12]
	mov	r1, r1, asl #1
	add	lr, r1, #2
.LVL1369:
	add	lr, lr, r3
	and	r0, r6, #3
	mov	r6, lr
.LVL1370:
	ldr	lr, [sp, #4]
	mov	r7, r3
.LVL1371:
	add	r8, lr, #8
	mov	lr, r5, asl #1
	mov	r9, r4
	mov	fp, lr
	str	r1, [sp, #16]
	ldr	r1, .L1614+36
	str	lr, [sp, #20]
	str	r4, [sp, #24]
	str	r3, [sp, #28]
	str	r6, [sp, #8]
.LVL1372:
.L1560:
	.loc 3 307 0
	and	r3, r7, #3
	add	r3, r0, r3, asl #2
	ldrb	lr, [r1, r3]	@ zero_extendqisi2
	add	r3, r7, #1
	cmp	lr, r2
	movge	lr, #0
	movlt	lr, #1
	.loc 3 311 0
	and	r3, r3, #3
	add	r3, r0, r3, asl #2
	ldrb	r3, [r1, r3]	@ zero_extendqisi2
	.loc 3 307 0
	add	r4, sp, #40
	.loc 3 311 0
	cmp	r3, r2
	movge	r3, #0
	movlt	r3, #1
	.loc 3 307 0
	add	lr, r4, lr, asl #2
	and	r4, r9, r10
	ldrb	r4, [ip, r4, asr #16]	@ zero_extendqisi2
	ldr	lr, [lr, #-8]
	.loc 3 311 0
	add	r6, sp, #40
	.loc 3 307 0
	ldrb	r4, [lr, r4]	@ zero_extendqisi2
	add	lr, r5, r9
	strb	r4, [r8, #-8]
.LVL1373:
	.loc 3 311 0
	add	r3, r6, r3, asl #2
	and	lr, lr, r10
.LVL1374:
	ldrb	lr, [ip, lr, asr #16]	@ zero_extendqisi2
	ldr	r3, [r3, #-8]
	.loc 3 312 0
	add	r7, r7, #2
.LVL1375:
	.loc 3 311 0
	ldrb	r3, [r3, lr]	@ zero_extendqisi2
	.loc 3 306 0
	ldr	lr, [sp, #8]
	.loc 3 311 0
	strb	r3, [r8, #-4]
	.loc 3 306 0
	cmp	r7, lr
	add	r9, fp, r9
.LVL1376:
	add	r8, r8, #8
.LVL1377:
	bne	.L1560
	.loc 3 316 0
	ldr	r6, [sp]
	ldr	r3, [sp, #28]
	ldr	r4, [sp, #24]
	tst	r6, #1
	ldr	r6, [sp, #16]
	add	r3, r3, #2
	add	r4, r4, r5, asl #1
	add	r3, r3, r6
	ldr	r5, [sp, #12]
.LVL1378:
	ldr	r6, [sp, #20]
	add	lr, r5, #1
	mla	r4, r6, r5, r4
	ldr	r5, [sp, #4]
	add	lr, r5, lr, asl #3
	str	lr, [sp, #4]
	bne	.L1536
.LVL1379:
.L1569:
	.loc 3 317 0
	and	r3, r3, #3
	add	r0, r0, r3, asl #2
	ldrb	r3, [r1, r0]	@ zero_extendqisi2
	and	r4, r4, r10
	cmp	r3, r2
	movge	r2, #0
.LVL1380:
	movlt	r2, #1
	add	r3, sp, #40
	add	r2, r3, r2, asl #2
	ldr	r2, [r2, #-8]
	ldrb	r3, [ip, r4, asr #16]	@ zero_extendqisi2
	ldrb	r3, [r2, r3]	@ zero_extendqisi2
	ldr	r2, [sp, #4]
	strb	r3, [r2]
	b	.L1536
.LVL1381:
.L1611:
	ldr	r1, [sp]
	ldr	lr, [sp, #4]
	add	r8, r1, #1
	ldr	r1, .L1614+36
	and	r0, r6, #3
	add	r8, r8, r3
	sub	r6, lr, r3, asl #2
.LVL1382:
.L1554:
.LBE298:
.LBE297:
	.loc 3 289 0
	and	lr, r3, #3
	add	lr, r0, lr, asl #2
	ldrb	lr, [r1, lr]	@ zero_extendqisi2
	bic	r7, r4, #-16777216
	cmp	lr, r2
	movge	lr, #0
	movlt	lr, #1
	add	r9, sp, #40
	add	lr, r9, lr, asl #2
	bic	r7, r7, #8388608
	ldr	r9, [lr, #-8]
	ldrb	lr, [ip, r7, asr #16]	@ zero_extendqisi2
	.loc 3 292 0
	add	r4, r4, r5
.LVL1383:
	.loc 3 289 0
	ldrb	lr, [r9, lr]	@ zero_extendqisi2
	strb	lr, [r6, r3, asl #2]
	.loc 3 290 0
	add	r3, r3, #1
.LVL1384:
	.loc 3 288 0
	cmp	r3, r8
	bne	.L1554
.LBE308:
	.loc 3 357 0
	add	sp, sp, #44
	.cfi_remember_state
	.cfi_def_cfa_offset 36
.LVL1385:
	@ sp needed
	ldmfd	sp!, {r4, r5, r6, r7, r8, r9, r10, fp, pc}
.LVL1386:
.L1558:
	.cfi_restore_state
.LBB309:
.LBB301:
.LBB299:
	.loc 3 325 0
	cmp	r4, #0
	.loc 3 323 0
	mov	lr, lr, asl #16
.LVL1387:
	.loc 3 325 0
	bge	.L1607
	b	.L1564
.L1566:
	rsb	r4, lr, r4
.LVL1388:
.L1607:
	.loc 3 328 0
	cmp	r4, lr
	bge	.L1566
.L1563:
	ldr	r1, [sp]
	.loc 3 345 0
	and	r0, r6, #3
	add	r7, r1, #1
.LVL1389:
	ldr	r1, [sp, #4]
	add	r7, r7, r3
	sub	r8, r1, r3, asl #2
	ldr	r6, .L1614+36
.LVL1390:
	b	.L1565
.LVL1391:
.L1568:
	ldrb	r1, [r6, r1]	@ zero_extendqisi2
	add	r10, sp, #40
	cmp	r1, r2
	movge	r1, #0
	movlt	r1, #1
	add	r1, r10, r1, asl #2
	ldrb	r9, [ip, r4, asr #16]	@ zero_extendqisi2
	ldr	r1, [r1, #-8]
	.loc 3 348 0
	add	r4, r4, r5
.LVL1392:
	.loc 3 345 0
	ldrb	r1, [r1, r9]	@ zero_extendqisi2
	.loc 3 348 0
	cmp	r4, lr
	.loc 3 345 0
	strb	r1, [r8, r3, asl #2]
	.loc 3 348 0
	rsbge	r4, lr, r4
	.loc 3 346 0
	add	r3, r3, #1
.LVL1393:
.L1565:
	.loc 3 345 0
	and	r1, r3, #3
	.loc 3 339 0
	cmp	r3, r7
	.loc 3 345 0
	add	r1, r0, r1, asl #2
	.loc 3 339 0
	bne	.L1568
.LBE299:
.LBE301:
.LBE309:
	.loc 3 357 0
	add	sp, sp, #44
	.cfi_remember_state
	.cfi_def_cfa_offset 36
.LVL1394:
	@ sp needed
	ldmfd	sp!, {r4, r5, r6, r7, r8, r9, r10, fp, pc}
.LVL1395:
.L1564:
	.cfi_restore_state
.LBB310:
.LBB302:
.LBB300:
	.loc 3 326 0 discriminator 1
	adds	r4, lr, r4
.LVL1396:
	bpl	.L1563
.LVL1397:
	.loc 3 326 0 is_stmt 0
	adds	r4, lr, r4
.LVL1398:
	bmi	.L1564
	b	.L1563
.LVL1399:
.L1613:
.LBE300:
.LBE302:
.LBE310:
	.loc 3 216 0 is_stmt 1 discriminator 1
	ldr	r3, [r8, #12]
	ldr	r0, [r7]
	add	r3, r2, r3
	cmp	r3, r0
	bne	.L1545
	b	.L1547
.L1612:
.LBB311:
	.loc 3 197 0
	mvn	r0, r9
	mov	r1, r5
	uxth	r0, r0
	b	.L1605
.L1615:
	.align	2
.L1614:
	.word	centery
	.word	.LANCHOR0
	.word	tranmap
	.word	.LANCHOR1
	.word	R_FlushHTTL8
	.word	.LANCHOR2
	.word	.LANCHOR0+48
	.word	R_FlushWholeTL8
	.word	R_FlushQuadTL8
	.word	filter_ditherMatrix
	.word	viewheight
.LBE311:
	.cfi_endproc
.LFE84:
	.size	R_DrawTLColumn8_PointUV_LinearZ, .-R_DrawTLColumn8_PointUV_LinearZ
	.align	2
	.type	R_DrawTLColumn15_PointUV, %function
R_DrawTLColumn15_PointUV:
.LFB91:
	.loc 3 113 0
	.cfi_startproc
	@ args = 0, pretend = 0, frame = 16
	@ frame_needed = 0, uses_anonymous_args = 0
.LVL1400:
	stmfd	sp!, {r4, r5, r6, r7, r8, r9, r10, fp, lr}
	.cfi_def_cfa_offset 36
	.cfi_offset 4, -36
	.cfi_offset 5, -32
	.cfi_offset 6, -28
	.cfi_offset 7, -24
	.cfi_offset 8, -20
	.cfi_offset 9, -16
	.cfi_offset 10, -12
	.cfi_offset 11, -8
	.cfi_offset 14, -4
	.loc 3 149 0
	ldmib	r0, {r8, r9}
	.loc 3 157 0
	subs	r5, r9, r8
	.loc 3 113 0
	sub	sp, sp, #20
	.cfi_def_cfa_offset 56
	.loc 3 117 0
	ldr	r6, [r0, #16]
.LVL1401:
	.loc 3 121 0
	ldr	r10, [r0, #28]
.LVL1402:
	.loc 3 157 0
	bmi	.L1616
	.loc 3 171 0
	ldr	r3, .L1689
	.loc 3 174 0
	ldr	r2, [r0, #60]
	.loc 3 171 0
	ldr	r3, [r3]
	ldr	r4, [r0, #20]
	rsb	r3, r3, r8
	.loc 3 174 0
	cmp	r2, #0
	mov	r7, r0
	.loc 3 171 0
	mla	r4, r6, r3, r4
.LVL1403:
	.loc 3 174 0
	bne	.L1684
.LVL1404:
.L1619:
	.loc 3 215 0
	ldr	r8, .L1689+4
	ldr	r2, [r8]
	cmp	r2, #4
	beq	.L1625
	.loc 3 215 0 is_stmt 0 discriminator 1
	cmp	r2, #0
	bne	.L1685
.L1626:
	.loc 3 224 0 is_stmt 1
	mov	fp, #2
	.loc 3 226 0
	ldr	r3, .L1689+8
	.loc 3 224 0
	ldr	r0, .L1689+12
	.loc 3 226 0
	ldr	ip, [r3]
	.loc 3 230 0
	ldr	r2, .L1689+16
	ldr	lr, .L1689+20
	.loc 3 226 0
	str	ip, [r8, #1008]
	.loc 3 224 0
	str	fp, [r0, #-1204]
	.loc 3 231 0
	ldr	ip, .L1689+24
	.loc 3 232 0
	ldr	r0, .L1689+28
	.loc 3 230 0
	str	lr, [r2]
	.loc 3 231 0
	str	ip, [r2, #4]
	.loc 3 232 0
	str	r0, [r2, #8]
	mov	r2, #0
	.loc 3 222 0
	ldr	r3, [r7, #4]
	.loc 3 221 0
	ldr	r10, [r7]
.LVL1405:
	.loc 3 223 0
	ldr	r1, [r7, #8]
	.loc 3 233 0
	ldr	r9, .L1689+32
	.loc 3 222 0
	str	r3, [r8, #4]
	str	r3, [r8, #16]
	.loc 3 221 0
	str	r10, [r8, #12]
	.loc 3 233 0
	add	r3, r9, r3, asl #3
.LVL1406:
	.loc 3 223 0
	str	r1, [r8, #8]
	str	r1, [r8, #32]
.L1628:
.LBB312:
	.loc 3 286 0
	ldr	r1, [r7, #24]
.LBE312:
	.loc 3 245 0
	add	r2, r2, #1
.LBB319:
	.loc 3 286 0
	cmp	r1, #128
.LBE319:
	.loc 3 245 0
	str	r2, [r8]
.LBB320:
	.loc 3 278 0
	add	ip, r5, #1
	.loc 3 251 0
	ldr	r2, [r7, #32]
.LVL1407:
	.loc 3 286 0
	beq	.L1686
	.loc 3 294 0
	cmp	r1, #0
	bne	.L1632
.LVL1408:
	.loc 3 297 0
	mov	lr, #128
	mov	ip, #126
	ldr	r1, .L1689+36
	add	r3, r3, #8
.LVL1409:
	ldr	r0, [r1]
.LVL1410:
.L1633:
	ldrb	r1, [r2, r4, asr #16]	@ zero_extendqisi2
	.loc 3 296 0
	sub	r5, r5, #1
.LVL1411:
	.loc 3 297 0
	smlabb	r1, lr, r1, ip
	ldrh	r1, [r0, r1]
	.loc 3 296 0
	cmn	r5, #1
	.loc 3 297 0
	strh	r1, [r3, #-8]	@ movhi
.LVL1412:
	.loc 3 300 0
	add	r4, r4, r6
.LVL1413:
	add	r3, r3, #8
.LVL1414:
	.loc 3 296 0
	bne	.L1633
.LVL1415:
.L1616:
.LBE320:
	.loc 3 357 0
	add	sp, sp, #20
	.cfi_remember_state
	.cfi_def_cfa_offset 36
	@ sp needed
	ldmfd	sp!, {r4, r5, r6, r7, r8, r9, r10, fp, pc}
.LVL1416:
.L1684:
	.cfi_restore_state
	.loc 3 174 0 discriminator 1
	ldr	r3, [r0, #64]
	cmp	r3, #1
	bne	.L1619
	.loc 3 178 0
	cmp	r8, #0
	beq	.L1620
	.loc 3 179 0
	ldr	r3, [r0, #56]
	tst	r3, #1
.LBB321:
	.loc 3 181 0
	mvnne	fp, r10
	uxthne	fp, fp
.LBE321:
	.loc 3 179 0
	bne	.L1681
	.loc 3 186 0
	tst	r3, #2
	beq	.L1620
.LBB322:
	.loc 3 188 0
	uxth	fp, r10
.L1681:
	mov	r0, fp
.LVL1417:
	mov	r1, r6
	bl	__aeabi_idiv
.LVL1418:
	.loc 3 189 0
	add	r8, r8, r0
	.loc 3 191 0
	add	r4, r4, fp
.LVL1419:
	.loc 3 189 0
	str	r8, [r7, #4]
	.loc 3 190 0
	rsb	r5, r0, r5
.LVL1420:
.L1620:
.LBE322:
	.loc 3 194 0
	ldr	r3, .L1689+40
	ldr	r3, [r3]
	sub	r3, r3, #1
	cmp	r9, r3
	beq	.L1622
	.loc 3 195 0
	ldr	r3, [r7, #56]
	tst	r3, #4
	bne	.L1687
	.loc 3 201 0
	tst	r3, #8
	beq	.L1622
.LBB323:
	.loc 3 203 0
	uxth	r0, r10
	mov	r1, r6
	bl	__aeabi_idiv
.LVL1421:
	.loc 3 204 0
	rsb	r9, r0, r9
	str	r9, [r7, #8]
	.loc 3 205 0
	rsb	r5, r0, r5
.LVL1422:
.L1622:
.LBE323:
	.loc 3 208 0
	cmp	r5, #0
	bgt	.L1619
	b	.L1616
.L1685:
	.loc 3 216 0
	ldr	r3, .L1689+12
	ldr	r3, [r3, #-1204]
	cmp	r3, #2
	beq	.L1688
.L1625:
	.loc 3 217 0
	bl	R_FlushColumns
.LVL1423:
	.loc 3 219 0
	ldr	r2, [r8]
	cmp	r2, #0
	beq	.L1626
.L1627:
	.loc 3 235 0
	ldr	r3, [r7, #4]
	.loc 3 238 0
	ldr	r0, [r8, #4]
	.loc 3 236 0
	ldr	r1, [r7, #8]
	.loc 3 238 0
	cmp	r3, r0
	.loc 3 235 0
	add	r0, r8, r2, asl #2
	str	r3, [r0, #16]
	.loc 3 236 0
	str	r1, [r0, #32]
	.loc 3 235 0
	ldr	r0, .L1689+4
	.loc 3 240 0
	ldr	ip, .L1689+4
	.loc 3 239 0
	strgt	r3, [r0, #4]
	.loc 3 240 0
	ldr	r0, [r8, #8]
	.loc 3 243 0
	add	r2, r2, r3, asl #2
	.loc 3 240 0
	cmp	r1, r0
	.loc 3 241 0
	strlt	r1, [ip, #8]
	.loc 3 243 0
	ldr	r1, .L1689+32
	add	r3, r1, r2, asl #1
.LVL1424:
	ldr	r2, [r8]
	b	.L1628
.LVL1425:
.L1632:
.LBB324:
.LBB313:
	.loc 3 303 0
	sub	r0, r1, #1
.LVL1426:
	.loc 3 304 0
	tst	r0, r1
	bne	.L1634
.LBB314:
	.loc 3 305 0
	mov	lr, r0, asl #16
	mvn	lr, lr, lsr #16
	.loc 3 306 0
	sub	r1, r5, #1
	cmn	r1, #1
	str	r1, [sp]
	mov	r7, r1
.LVL1427:
	ldreq	r1, .L1689+36
	.loc 3 305 0
	mvn	lr, lr, asl #16
.LVL1428:
	streq	r1, [sp, #12]
	.loc 3 306 0
	beq	.L1647
	ldr	r1, .L1689+36
	mov	r0, r4
.LVL1429:
	mov	ip, r1
	ldr	r8, [ip]
	mov	ip, r6, asl #1
	.loc 3 307 0
	mov	r10, #128
	mov	r9, #126
	mov	fp, ip
	str	r1, [sp, #12]
	str	ip, [sp, #4]
	add	r1, r3, #16
	str	r5, [sp, #8]
.LVL1430:
.L1636:
	and	ip, r0, lr
	ldrb	ip, [r2, ip, asr #16]	@ zero_extendqisi2
	.loc 3 306 0
	subs	r7, r7, #2
.LVL1431:
	.loc 3 307 0
	smlabb	ip, r10, ip, r9
	ldrh	r5, [r8, ip]
	add	ip, r6, r0
	strh	r5, [r1, #-16]	@ movhi
.LVL1432:
	.loc 3 311 0
	and	ip, ip, lr
.LVL1433:
	ldrb	ip, [r2, ip, asr #16]	@ zero_extendqisi2
	add	r0, fp, r0
.LVL1434:
	smlabb	ip, r10, ip, r9
	ldrh	ip, [r8, ip]
	add	r1, r1, #16
.LVL1435:
	strh	ip, [r1, #-24]	@ movhi
.LVL1436:
	.loc 3 306 0
	bpl	.L1636
	ldr	r1, [sp]
	ldr	r5, [sp, #8]
	mov	r1, r1, lsr #1
	ldr	ip, [sp, #4]
	add	r4, r4, r6, asl #1
	add	r0, r1, #1
.LVL1437:
	.loc 3 316 0
	tst	r5, #1
	mla	r4, ip, r1, r4
	add	r3, r3, r0, asl #4
	bne	.L1616
.L1647:
	.loc 3 317 0
	mov	r1, #126
	and	r4, r4, lr
	ldr	r0, [sp, #12]
	ldrb	r2, [r2, r4, asr #16]	@ zero_extendqisi2
.LVL1438:
	ldr	r0, [r0]
	add	r2, r1, r2, asl #7
	ldrh	r2, [r0, r2]
	strh	r2, [r3]	@ movhi
	b	.L1616
.LVL1439:
.L1686:
.LBE314:
.LBE313:
	.loc 3 289 0
	mov	lr, #126
	ldr	r0, .L1689+36
	add	r3, r3, #8
.LVL1440:
	ldr	ip, [r0]
.LVL1441:
.L1631:
	bic	r0, r4, #-16777216
	bic	r0, r0, #8388608
	ldrb	r0, [r2, r0, asr #16]	@ zero_extendqisi2
	.loc 3 288 0
	sub	r5, r5, #1
.LVL1442:
	.loc 3 289 0
	smlabb	r0, r1, r0, lr
	ldrh	r0, [ip, r0]
	.loc 3 288 0
	cmn	r5, #1
	.loc 3 289 0
	strh	r0, [r3, #-8]	@ movhi
.LVL1443:
	.loc 3 292 0
	add	r4, r4, r6
.LVL1444:
	add	r3, r3, #8
.LVL1445:
	.loc 3 288 0
	bne	.L1631
.LBE324:
	.loc 3 357 0
	add	sp, sp, #20
	.cfi_remember_state
	.cfi_def_cfa_offset 36
	@ sp needed
	ldmfd	sp!, {r4, r5, r6, r7, r8, r9, r10, fp, pc}
.LVL1446:
.L1634:
	.cfi_restore_state
.LBB325:
.LBB317:
.LBB315:
	.loc 3 325 0
	cmp	r4, #0
	.loc 3 323 0
	mov	r1, r1, asl #16
.LVL1447:
	.loc 3 325 0
	blt	.L1640
	.loc 3 328 0
	cmp	r4, r1
	blt	.L1639
.L1642:
	rsb	r4, r1, r4
.LVL1448:
	cmp	r1, r4
	ble	.L1642
.L1639:
	.loc 3 345 0
	ldr	r0, .L1689+36
	add	r3, r3, #8
.LVL1449:
	ldr	r7, [r0]
.LVL1450:
	mov	r5, #128
	mov	lr, #126
	b	.L1641
.LVL1451:
.L1644:
	ldrb	r0, [r2, r4, asr #16]	@ zero_extendqisi2
	.loc 3 348 0
	add	r4, r4, r6
.LVL1452:
	.loc 3 345 0
	smlabb	r0, r5, r0, lr
	ldrh	r0, [r7, r0]
	.loc 3 348 0
	cmp	r4, r1
	.loc 3 345 0
	strh	r0, [r3, #-8]	@ movhi
.LVL1453:
	.loc 3 348 0
	rsbge	r4, r1, r4
.LVL1454:
	add	r3, r3, #8
.LVL1455:
.L1641:
	.loc 3 339 0
	subs	ip, ip, #1
.LVL1456:
	bcs	.L1644
.LBE315:
.LBE317:
.LBE325:
	.loc 3 357 0
	add	sp, sp, #20
	.cfi_remember_state
	.cfi_def_cfa_offset 36
	@ sp needed
	ldmfd	sp!, {r4, r5, r6, r7, r8, r9, r10, fp, pc}
.LVL1457:
.L1640:
	.cfi_restore_state
.LBB326:
.LBB318:
.LBB316:
	.loc 3 326 0 discriminator 1
	adds	r4, r1, r4
.LVL1458:
	bpl	.L1639
.LVL1459:
	.loc 3 326 0 is_stmt 0
	adds	r4, r1, r4
.LVL1460:
	bmi	.L1640
	b	.L1639
.LVL1461:
.L1688:
.LBE316:
.LBE318:
.LBE326:
	.loc 3 216 0 is_stmt 1 discriminator 1
	ldr	r3, [r8, #12]
	ldr	r1, [r7]
	add	r3, r2, r3
	cmp	r3, r1
	bne	.L1625
	b	.L1627
.L1687:
.LBB327:
	.loc 3 197 0
	mvn	r0, r10
	mov	r1, r6
	uxth	r0, r0
	bl	__aeabi_idiv
.LVL1462:
	.loc 3 198 0
	rsb	r9, r0, r9
	str	r9, [r7, #8]
	.loc 3 199 0
	rsb	r5, r0, r5
.LVL1463:
.LBE327:
	b	.L1622
.L1690:
	.align	2
.L1689:
	.word	centery
	.word	.LANCHOR0
	.word	tranmap
	.word	.LANCHOR2
	.word	.LANCHOR1
	.word	R_FlushWholeTL15
	.word	R_FlushHTTL15
	.word	R_FlushQuadTL15
	.word	.LANCHOR0+1220
	.word	V_Palette15
	.word	viewheight
	.cfi_endproc
.LFE91:
	.size	R_DrawTLColumn15_PointUV, .-R_DrawTLColumn15_PointUV
	.align	2
	.type	R_DrawTLColumn15_PointUV_PointZ, %function
R_DrawTLColumn15_PointUV_PointZ:
.LFB92:
	.loc 3 113 0
	.cfi_startproc
	@ args = 0, pretend = 0, frame = 24
	@ frame_needed = 0, uses_anonymous_args = 0
.LVL1464:
	stmfd	sp!, {r4, r5, r6, r7, r8, r9, r10, fp, lr}
	.cfi_def_cfa_offset 36
	.cfi_offset 4, -36
	.cfi_offset 5, -32
	.cfi_offset 6, -28
	.cfi_offset 7, -24
	.cfi_offset 8, -20
	.cfi_offset 9, -16
	.cfi_offset 10, -12
	.cfi_offset 11, -8
	.cfi_offset 14, -4
	.loc 3 149 0
	ldmib	r0, {r8, r9}
	.loc 3 157 0
	subs	r5, r9, r8
	.loc 3 113 0
	sub	sp, sp, #28
	.cfi_def_cfa_offset 64
	.loc 3 117 0
	ldr	r6, [r0, #16]
.LVL1465:
	.loc 3 121 0
	ldr	r10, [r0, #28]
.LVL1466:
	.loc 3 157 0
	bmi	.L1691
	.loc 3 171 0
	ldr	r3, .L1764
	.loc 3 174 0
	ldr	r2, [r0, #60]
	.loc 3 171 0
	ldr	r3, [r3]
	ldr	r4, [r0, #20]
	rsb	r3, r3, r8
	.loc 3 174 0
	cmp	r2, #0
	mov	r7, r0
	.loc 3 171 0
	mla	r4, r6, r3, r4
.LVL1467:
	.loc 3 174 0
	bne	.L1759
.LVL1468:
.L1694:
	.loc 3 215 0
	ldr	r8, .L1764+4
	ldr	r2, [r8]
	cmp	r2, #4
	beq	.L1700
	.loc 3 215 0 is_stmt 0 discriminator 1
	cmp	r2, #0
	bne	.L1760
.L1701:
	.loc 3 224 0 is_stmt 1
	mov	fp, #2
	.loc 3 226 0
	ldr	r3, .L1764+8
	.loc 3 224 0
	ldr	r0, .L1764+12
	.loc 3 226 0
	ldr	ip, [r3]
	.loc 3 230 0
	ldr	r2, .L1764+16
	ldr	lr, .L1764+20
	.loc 3 226 0
	str	ip, [r8, #1008]
	.loc 3 224 0
	str	fp, [r0, #-1204]
	.loc 3 231 0
	ldr	ip, .L1764+24
	.loc 3 232 0
	ldr	r0, .L1764+28
	.loc 3 230 0
	str	lr, [r2]
	.loc 3 231 0
	str	ip, [r2, #4]
	.loc 3 232 0
	str	r0, [r2, #8]
	mov	r2, #0
	.loc 3 222 0
	ldr	r3, [r7, #4]
	.loc 3 233 0
	ldr	r9, .L1764+32
	.loc 3 221 0
	ldr	r10, [r7]
.LVL1469:
	.loc 3 223 0
	ldr	r1, [r7, #8]
	.loc 3 222 0
	str	r3, [r8, #4]
	str	r3, [r8, #16]
	.loc 3 233 0
	add	r3, r9, r3, asl #3
	.loc 3 221 0
	str	r10, [r8, #12]
	.loc 3 233 0
	str	r3, [sp, #4]
.LVL1470:
	.loc 3 223 0
	str	r1, [r8, #8]
	str	r1, [r8, #32]
.L1703:
.LVL1471:
.LBB328:
	.loc 3 286 0
	ldr	r1, [r7, #24]
.LBE328:
	.loc 3 245 0
	add	r2, r2, #1
.LBB335:
	.loc 3 286 0
	cmp	r1, #128
.LBE335:
	.loc 3 245 0
	str	r2, [r8]
.LBB336:
	.loc 3 252 0
	ldr	r0, [r7, #44]
	.loc 3 251 0
	ldr	r2, [r7, #32]
.LVL1472:
	.loc 3 278 0
	add	lr, r5, #1
.LVL1473:
	.loc 3 286 0
	beq	.L1761
	.loc 3 294 0
	cmp	r1, #0
	bne	.L1707
.LVL1474:
	.loc 3 297 0
	mov	r7, #128
.LVL1475:
	mov	lr, #126
	ldr	r1, .L1764+36
	ldr	r3, [sp, #4]
	ldr	ip, [r1]
	add	r3, r3, #8
.LVL1476:
.L1708:
	ldrb	r1, [r2, r4, asr #16]	@ zero_extendqisi2
	.loc 3 296 0
	sub	r5, r5, #1
.LVL1477:
	.loc 3 297 0
	ldrb	r1, [r0, r1]	@ zero_extendqisi2
	.loc 3 296 0
	cmn	r5, #1
	.loc 3 297 0
	smlabb	r1, r7, r1, lr
	ldrh	r1, [ip, r1]
	.loc 3 300 0
	add	r4, r4, r6
.LVL1478:
	.loc 3 297 0
	strh	r1, [r3, #-8]	@ movhi
.LVL1479:
	add	r3, r3, #8
.LVL1480:
	.loc 3 296 0
	bne	.L1708
.LVL1481:
.L1691:
.LBE336:
	.loc 3 357 0
	add	sp, sp, #28
	.cfi_remember_state
	.cfi_def_cfa_offset 36
	@ sp needed
	ldmfd	sp!, {r4, r5, r6, r7, r8, r9, r10, fp, pc}
.LVL1482:
.L1759:
	.cfi_restore_state
	.loc 3 174 0 discriminator 1
	ldr	r3, [r0, #64]
	cmp	r3, #1
	bne	.L1694
	.loc 3 178 0
	cmp	r8, #0
	beq	.L1695
	.loc 3 179 0
	ldr	r3, [r0, #56]
	tst	r3, #1
.LBB337:
	.loc 3 181 0
	mvnne	fp, r10
	uxthne	fp, fp
.LBE337:
	.loc 3 179 0
	bne	.L1756
	.loc 3 186 0
	tst	r3, #2
	beq	.L1695
.LBB338:
	.loc 3 188 0
	uxth	fp, r10
.L1756:
	mov	r0, fp
.LVL1483:
	mov	r1, r6
	bl	__aeabi_idiv
.LVL1484:
	.loc 3 189 0
	add	r8, r8, r0
	.loc 3 191 0
	add	r4, r4, fp
.LVL1485:
	.loc 3 189 0
	str	r8, [r7, #4]
	.loc 3 190 0
	rsb	r5, r0, r5
.LVL1486:
.L1695:
.LBE338:
	.loc 3 194 0
	ldr	r3, .L1764+40
	ldr	r3, [r3]
	sub	r3, r3, #1
	cmp	r9, r3
	beq	.L1697
	.loc 3 195 0
	ldr	r3, [r7, #56]
	tst	r3, #4
	bne	.L1762
	.loc 3 201 0
	tst	r3, #8
	beq	.L1697
.LBB339:
	.loc 3 203 0
	uxth	r0, r10
	mov	r1, r6
	bl	__aeabi_idiv
.LVL1487:
	.loc 3 204 0
	rsb	r9, r0, r9
	str	r9, [r7, #8]
	.loc 3 205 0
	rsb	r5, r0, r5
.LVL1488:
.L1697:
.LBE339:
	.loc 3 208 0
	cmp	r5, #0
	bgt	.L1694
	b	.L1691
.L1760:
	.loc 3 216 0
	ldr	r3, .L1764+12
	ldr	r3, [r3, #-1204]
	cmp	r3, #2
	beq	.L1763
.L1700:
	.loc 3 217 0
	bl	R_FlushColumns
.LVL1489:
	.loc 3 219 0
	ldr	r2, [r8]
	cmp	r2, #0
	beq	.L1701
.L1702:
	.loc 3 235 0
	ldr	r3, [r7, #4]
	.loc 3 238 0
	ldr	r0, [r8, #4]
	.loc 3 236 0
	ldr	r1, [r7, #8]
	.loc 3 238 0
	cmp	r3, r0
	.loc 3 235 0
	add	r0, r8, r2, asl #2
	str	r3, [r0, #16]
	.loc 3 236 0
	str	r1, [r0, #32]
	.loc 3 235 0
	ldr	r0, .L1764+4
	.loc 3 240 0
	ldr	ip, .L1764+4
	.loc 3 239 0
	strgt	r3, [r0, #4]
	.loc 3 240 0
	ldr	r0, [r8, #8]
	.loc 3 243 0
	add	r2, r2, r3, asl #2
	.loc 3 240 0
	cmp	r1, r0
	.loc 3 241 0
	strlt	r1, [ip, #8]
	.loc 3 243 0
	ldr	r1, .L1764+32
	add	r3, r1, r2, asl #1
	str	r3, [sp, #4]
.LVL1490:
	ldr	r2, [r8]
	b	.L1703
.LVL1491:
.L1707:
.LBB340:
.LBB329:
	.loc 3 303 0
	sub	ip, r1, #1
.LVL1492:
	.loc 3 304 0
	tst	ip, r1
	bne	.L1709
.LBB330:
	.loc 3 305 0
	mov	r7, ip, asl #16
.LVL1493:
	mvn	r7, r7, lsr #16
	.loc 3 306 0
	sub	r3, r5, #1
	cmn	r3, #1
	str	r3, [sp, #8]
	ldreq	r3, .L1764+36
	.loc 3 305 0
	mvn	r7, r7, asl #16
.LVL1494:
	streq	r3, [sp, #20]
	.loc 3 306 0
	beq	.L1722
	ldr	r1, .L1764+36
	mov	ip, r4
.LVL1495:
	mov	lr, r1
	ldr	r8, [lr]
	mov	lr, r6, asl #1
	.loc 3 307 0
	mov	r10, #128
	mov	r9, #126
	mov	fp, lr
	str	r1, [sp, #20]
	ldr	r1, [sp, #4]
	str	lr, [sp, #12]
	add	r1, r1, #16
	str	r5, [sp, #16]
.LVL1496:
.L1711:
	and	lr, ip, r7
	ldrb	lr, [r2, lr, asr #16]	@ zero_extendqisi2
	.loc 3 306 0
	subs	r3, r3, #2
.LVL1497:
	.loc 3 307 0
	ldrb	r5, [r0, lr]	@ zero_extendqisi2
	add	lr, r6, ip
	smlabb	r5, r10, r5, r9
	ldrh	r5, [r8, r5]
	.loc 3 311 0
	and	lr, lr, r7
	.loc 3 307 0
	strh	r5, [r1, #-16]	@ movhi
.LVL1498:
	.loc 3 311 0
	ldrb	lr, [r2, lr, asr #16]	@ zero_extendqisi2
	add	ip, fp, ip
.LVL1499:
	ldrb	lr, [r0, lr]	@ zero_extendqisi2
	add	r1, r1, #16
.LVL1500:
	smlabb	lr, r10, lr, r9
	ldrh	lr, [r8, lr]
	strh	lr, [r1, #-24]	@ movhi
.LVL1501:
	.loc 3 306 0
	bpl	.L1711
	ldr	r3, [sp, #8]
	add	r4, r4, r6, asl #1
	mov	r1, r3, lsr #1
	ldr	r3, [sp, #12]
	ldr	r5, [sp, #16]
	mla	r4, r3, r1, r4
	ldr	r3, [sp, #4]
	add	ip, r1, #1
.LVL1502:
	add	r3, r3, ip, asl #4
	.loc 3 316 0
	tst	r5, #1
	str	r3, [sp, #4]
	bne	.L1691
.L1722:
	.loc 3 317 0
	mov	r1, #126
	and	r4, r4, r7
	ldrb	r2, [r2, r4, asr #16]	@ zero_extendqisi2
.LVL1503:
	ldr	r3, [sp, #20]
	ldrb	r2, [r0, r2]	@ zero_extendqisi2
	ldr	ip, [r3]
	add	r2, r1, r2, asl #7
	ldrh	r2, [ip, r2]
	ldr	r3, [sp, #4]
	strh	r2, [r3]	@ movhi
	b	.L1691
.LVL1504:
.L1761:
.LBE330:
.LBE329:
	.loc 3 289 0
	mov	lr, #126
	ldr	ip, .L1764+36
	ldr	r3, [sp, #4]
	ldr	r7, [ip]
.LVL1505:
	add	r3, r3, #8
.LVL1506:
.L1706:
	bic	ip, r4, #-16777216
	bic	ip, ip, #8388608
	ldrb	ip, [r2, ip, asr #16]	@ zero_extendqisi2
	.loc 3 288 0
	sub	r5, r5, #1
.LVL1507:
	.loc 3 289 0
	ldrb	ip, [r0, ip]	@ zero_extendqisi2
	.loc 3 288 0
	cmn	r5, #1
	.loc 3 289 0
	smlabb	ip, r1, ip, lr
	ldrh	ip, [r7, ip]
	.loc 3 292 0
	add	r4, r4, r6
.LVL1508:
	.loc 3 289 0
	strh	ip, [r3, #-8]	@ movhi
.LVL1509:
	add	r3, r3, #8
.LVL1510:
	.loc 3 288 0
	bne	.L1706
.LBE340:
	.loc 3 357 0
	add	sp, sp, #28
	.cfi_remember_state
	.cfi_def_cfa_offset 36
	@ sp needed
	ldmfd	sp!, {r4, r5, r6, r7, r8, r9, r10, fp, pc}
.LVL1511:
.L1709:
	.cfi_restore_state
.LBB341:
.LBB333:
.LBB331:
	.loc 3 325 0
	cmp	r4, #0
	.loc 3 323 0
	mov	r1, r1, asl #16
.LVL1512:
	.loc 3 325 0
	blt	.L1715
	.loc 3 328 0
	cmp	r4, r1
	blt	.L1714
.L1717:
	rsb	r4, r1, r4
.LVL1513:
	cmp	r1, r4
	ble	.L1717
.L1714:
	.loc 3 345 0
	ldr	ip, .L1764+36
	ldr	r3, [sp, #4]
	ldr	r8, [ip]
	add	r3, r3, #8
	mov	r7, #128
.LVL1514:
	mov	r5, #126
	b	.L1716
.LVL1515:
.L1719:
	ldrb	ip, [r2, r4, asr #16]	@ zero_extendqisi2
	.loc 3 348 0
	add	r4, r4, r6
.LVL1516:
	.loc 3 345 0
	ldrb	ip, [r0, ip]	@ zero_extendqisi2
	.loc 3 348 0
	cmp	r4, r1
	.loc 3 345 0
	smlabb	ip, r7, ip, r5
	ldrh	ip, [r8, ip]
	.loc 3 348 0
	rsbge	r4, r1, r4
	.loc 3 345 0
	strh	ip, [r3, #-8]	@ movhi
.LVL1517:
	add	r3, r3, #8
.LVL1518:
.L1716:
	.loc 3 339 0
	subs	lr, lr, #1
.LVL1519:
	bcs	.L1719
.LBE331:
.LBE333:
.LBE341:
	.loc 3 357 0
	add	sp, sp, #28
	.cfi_remember_state
	.cfi_def_cfa_offset 36
	@ sp needed
	ldmfd	sp!, {r4, r5, r6, r7, r8, r9, r10, fp, pc}
.LVL1520:
.L1715:
	.cfi_restore_state
.LBB342:
.LBB334:
.LBB332:
	.loc 3 326 0 discriminator 1
	adds	r4, r1, r4
.LVL1521:
	bpl	.L1714
.LVL1522:
	.loc 3 326 0 is_stmt 0
	adds	r4, r1, r4
.LVL1523:
	bmi	.L1715
	b	.L1714
.LVL1524:
.L1763:
.LBE332:
.LBE334:
.LBE342:
	.loc 3 216 0 is_stmt 1 discriminator 1
	ldr	r3, [r8, #12]
	ldr	r1, [r7]
	add	r3, r2, r3
	cmp	r3, r1
	bne	.L1700
	b	.L1702
.L1762:
.LBB343:
	.loc 3 197 0
	mvn	r0, r10
	mov	r1, r6
	uxth	r0, r0
	bl	__aeabi_idiv
.LVL1525:
	.loc 3 198 0
	rsb	r9, r0, r9
	str	r9, [r7, #8]
	.loc 3 199 0
	rsb	r5, r0, r5
.LVL1526:
.LBE343:
	b	.L1697
.L1765:
	.align	2
.L1764:
	.word	centery
	.word	.LANCHOR0
	.word	tranmap
	.word	.LANCHOR2
	.word	.LANCHOR1
	.word	R_FlushWholeTL15
	.word	R_FlushHTTL15
	.word	R_FlushQuadTL15
	.word	.LANCHOR0+1220
	.word	V_Palette15
	.word	viewheight
	.cfi_endproc
.LFE92:
	.size	R_DrawTLColumn15_PointUV_PointZ, .-R_DrawTLColumn15_PointUV_PointZ
	.align	2
	.type	R_DrawTLColumn15_PointUV_LinearZ, %function
R_DrawTLColumn15_PointUV_LinearZ:
.LFB93:
	.loc 3 113 0
	.cfi_startproc
	@ args = 0, pretend = 0, frame = 48
	@ frame_needed = 0, uses_anonymous_args = 0
.LVL1527:
	stmfd	sp!, {r4, r5, r6, r7, r8, r9, r10, fp, lr}
	.cfi_def_cfa_offset 36
	.cfi_offset 4, -36
	.cfi_offset 5, -32
	.cfi_offset 6, -28
	.cfi_offset 7, -24
	.cfi_offset 8, -20
	.cfi_offset 9, -16
	.cfi_offset 10, -12
	.cfi_offset 11, -8
	.cfi_offset 14, -4
	.loc 3 149 0
	ldmib	r0, {r5, r7}
	.loc 3 113 0
	sub	sp, sp, #52
	.cfi_def_cfa_offset 88
	.loc 3 157 0
	subs	r3, r7, r5
	.loc 3 117 0
	ldr	fp, [r0, #16]
.LVL1528:
	.loc 3 157 0
	str	r3, [sp, #8]
	.loc 3 121 0
	ldr	r8, [r0, #28]
.LVL1529:
	.loc 3 157 0
	bmi	.L1766
	.loc 3 171 0
	ldr	r3, .L1845
.LVL1530:
	.loc 3 174 0
	ldr	r2, [r0, #60]
	.loc 3 171 0
	ldr	r3, [r3]
	ldr	r4, [r0, #20]
	rsb	r3, r3, r5
	.loc 3 174 0
	cmp	r2, #0
	mov	r6, r0
	.loc 3 171 0
	mla	r4, fp, r3, r4
.LVL1531:
	.loc 3 174 0
	bne	.L1839
.LVL1532:
.L1769:
	.loc 3 215 0
	ldr	r7, .L1845+4
	ldr	r2, [r7]
	cmp	r2, #4
	beq	.L1775
	.loc 3 215 0 is_stmt 0 discriminator 1
	cmp	r2, #0
	bne	.L1840
.L1776:
	.loc 3 226 0 is_stmt 1
	ldr	r3, .L1845+8
	.loc 3 224 0
	mov	r9, #2
	.loc 3 233 0
	ldr	r5, .L1845+12
	.loc 3 226 0
	ldr	lr, [r3]
	.loc 3 222 0
	ldmia	r6, {r1, r3}
	.loc 3 233 0
	add	r5, r5, r3, asl #3
	str	r5, [sp, #12]
.LVL1533:
	mov	r5, #0
.LVL1534:
	.loc 3 224 0
	ldr	ip, .L1845+16
	.loc 3 230 0
	ldr	r2, .L1845+20
	ldr	r8, .L1845+24
.LVL1535:
	.loc 3 226 0
	str	lr, [r7, #1008]
	.loc 3 231 0
	ldr	lr, .L1845+28
	.loc 3 223 0
	ldr	r0, [r6, #8]
	.loc 3 224 0
	str	r9, [ip, #-1204]
	.loc 3 231 0
	stmia	r2, {r8, lr}
	.loc 3 232 0
	ldr	ip, .L1845+32
	.loc 3 221 0
	str	r1, [r7, #12]
	.loc 3 222 0
	str	r3, [r7, #4]
	str	r3, [r7, #16]
	.loc 3 223 0
	str	r0, [r7, #8]
	str	r0, [r7, #32]
	.loc 3 232 0
	str	ip, [r2, #8]
.L1778:
.LBB344:
	.loc 3 259 0
	ldr	r2, [r6, #12]
	.loc 3 286 0
	ldr	r0, [r6, #24]
	.loc 3 260 0
	ldr	ip, [r6, #48]
	ldr	lr, [r6, #44]
.LBE344:
	.loc 3 245 0
	add	r5, r5, #1
.LBB351:
	.loc 3 259 0
	mov	r2, r2, asr #6
	.loc 3 286 0
	cmp	r0, #128
	.loc 3 260 0
	str	ip, [sp, #44]
.LBE351:
	.loc 3 245 0
	str	r5, [r7]
.LBB352:
	.loc 3 259 0
	uxtb	r2, r2
	.loc 3 260 0
	str	lr, [sp, #40]
	.loc 3 251 0
	ldr	ip, [r6, #32]
.LVL1536:
	.loc 3 286 0
	beq	.L1841
	.loc 3 294 0
	cmp	r0, #0
	bne	.L1786
.LVL1537:
	.loc 3 297 0
	mov	r8, #128
	ldr	r0, .L1845+36
	ldr	lr, [sp, #8]
	ldr	r9, [r0]
	ldr	r0, [sp, #12]
	add	r7, lr, #1
	ldr	lr, .L1845+40
	add	r7, r7, r3
	and	r1, r1, #3
.LVL1538:
	add	r5, r0, #8
.LVL1539:
.L1787:
	and	r0, r3, #3
	add	r0, r1, r0, asl #2
	ldrb	r0, [lr, r0]	@ zero_extendqisi2
	add	r6, sp, #48
	cmp	r0, r2
	movge	r0, #0
	movlt	r0, #1
	add	r0, r6, r0, asl #2
	mov	r6, #126
	ldrb	r10, [ip, r4, asr #16]	@ zero_extendqisi2
	ldr	r0, [r0, #-8]
	.loc 3 298 0
	add	r3, r3, #1
.LVL1540:
	.loc 3 297 0
	ldrb	r0, [r0, r10]	@ zero_extendqisi2
	.loc 3 296 0
	cmp	r3, r7
	.loc 3 297 0
	smlabb	r0, r8, r0, r6
	ldrh	r0, [r9, r0]
	.loc 3 300 0
	add	r4, r4, fp
.LVL1541:
	.loc 3 297 0
	strh	r0, [r5, #-8]	@ movhi
	add	r5, r5, #8
.LVL1542:
	.loc 3 296 0
	bne	.L1787
.LVL1543:
.L1766:
.LBE352:
	.loc 3 357 0
	add	sp, sp, #52
	.cfi_remember_state
	.cfi_def_cfa_offset 36
	@ sp needed
	ldmfd	sp!, {r4, r5, r6, r7, r8, r9, r10, fp, pc}
.LVL1544:
.L1839:
	.cfi_restore_state
	.loc 3 174 0 discriminator 1
	ldr	r3, [r0, #64]
	cmp	r3, #1
	bne	.L1769
	.loc 3 178 0
	cmp	r5, #0
	beq	.L1770
	.loc 3 179 0
	ldr	r3, [r0, #56]
	tst	r3, #1
.LBB353:
	.loc 3 181 0
	mvnne	r9, r8
	uxthne	r9, r9
.LBE353:
	.loc 3 179 0
	bne	.L1834
	.loc 3 186 0
	tst	r3, #2
	beq	.L1770
.LBB354:
	.loc 3 188 0
	uxth	r9, r8
.L1834:
	mov	r0, r9
.LVL1545:
	mov	r1, fp
	bl	__aeabi_idiv
.LVL1546:
	.loc 3 190 0
	ldr	r3, [sp, #8]
	.loc 3 189 0
	add	r5, r5, r0
	.loc 3 190 0
	rsb	r3, r0, r3
	.loc 3 191 0
	add	r4, r4, r9
.LVL1547:
	.loc 3 189 0
	str	r5, [r6, #4]
.LVL1548:
	.loc 3 190 0
	str	r3, [sp, #8]
.LVL1549:
.L1770:
.LBE354:
	.loc 3 194 0
	ldr	r3, .L1845+44
	ldr	r3, [r3]
	sub	r3, r3, #1
	cmp	r7, r3
	beq	.L1772
	.loc 3 195 0
	ldr	r3, [r6, #56]
	tst	r3, #4
	bne	.L1842
	.loc 3 201 0
	tst	r3, #8
	beq	.L1772
.LBB355:
	.loc 3 203 0
	mov	r1, fp
	uxth	r0, r8
.LVL1550:
.L1835:
	bl	__aeabi_idiv
.LVL1551:
	.loc 3 205 0
	ldr	r3, [sp, #8]
	.loc 3 204 0
	rsb	r7, r0, r7
	.loc 3 205 0
	rsb	r3, r0, r3
	.loc 3 204 0
	str	r7, [r6, #8]
.LVL1552:
	.loc 3 205 0
	str	r3, [sp, #8]
.LVL1553:
.L1772:
.LBE355:
	.loc 3 208 0
	ldr	r3, [sp, #8]
	cmp	r3, #0
	bgt	.L1769
	b	.L1766
.L1840:
	.loc 3 216 0
	ldr	r3, .L1845+16
	ldr	r3, [r3, #-1204]
	cmp	r3, #2
	beq	.L1843
.L1775:
	.loc 3 217 0
	bl	R_FlushColumns
.LVL1554:
	.loc 3 219 0
	ldr	r2, [r7]
	cmp	r2, #0
	beq	.L1776
	ldr	r1, [r6]
.L1777:
	.loc 3 235 0
	ldr	r0, [r6, #4]
	.loc 3 238 0
	ldr	ip, [r7, #4]
	.loc 3 236 0
	ldr	r3, [r6, #8]
	.loc 3 238 0
	cmp	r0, ip
	.loc 3 235 0
	add	ip, r7, r2, asl #2
	.loc 3 236 0
	str	r3, [ip, #32]
	.loc 3 235 0
	str	r0, [ip, #16]
	ldr	ip, .L1845+4
	.loc 3 240 0
	ldr	lr, .L1845+4
	.loc 3 239 0
	strgt	r0, [ip, #4]
	.loc 3 240 0
	ldr	ip, [r7, #8]
	.loc 3 243 0
	add	r2, r2, r0, asl #2
	.loc 3 240 0
	cmp	r3, ip
	.loc 3 243 0
	ldr	ip, .L1845+12
	.loc 3 241 0
	strlt	r3, [lr, #8]
	.loc 3 243 0
	add	r2, ip, r2, asl #1
	.loc 3 235 0
	mov	r3, r0
	ldr	r5, [r7]
	.loc 3 243 0
	str	r2, [sp, #12]
.LVL1555:
	b	.L1778
.LVL1556:
.L1786:
.LBB356:
.LBB345:
	.loc 3 303 0
	sub	lr, r0, #1
.LVL1557:
	.loc 3 304 0
	tst	lr, r0
	bne	.L1788
.LBB346:
	.loc 3 305 0
	mov	r0, lr, asl #16
	mvn	lr, r0, lsr #16
.LVL1558:
	.loc 3 306 0
	ldr	r0, [sp, #8]
	.loc 3 305 0
	mvn	r9, lr, asl #16
.LVL1559:
	.loc 3 306 0
	sub	r0, r0, #1
	cmn	r0, #1
	beq	.L1844
	ldr	lr, .L1845+36
	mov	r8, r4
	str	lr, [sp, #36]
	ldr	lr, [lr]
	str	r4, [sp, #28]
	mov	r5, lr
	mov	r6, r3
.LVL1560:
	mov	r4, r5
.LVL1561:
	mov	r0, r0, lsr #1
	str	r0, [sp, #20]
	mov	r0, r0, asl #1
	str	r0, [sp, #24]
	ldr	r7, [sp, #12]
	add	r0, r0, #2
	add	r0, r0, r3
	mov	r10, fp, asl #1
	ldr	lr, .L1845+40
	and	r1, r1, #3
.LVL1562:
	add	r7, r7, #16
	str	r10, [sp, #4]
	str	r3, [sp, #32]
	str	r0, [sp, #16]
.LVL1563:
.L1790:
	.loc 3 307 0
	and	r3, r6, #3
	add	r3, r1, r3, asl #2
	ldrb	r0, [lr, r3]	@ zero_extendqisi2
	add	r3, r6, #1
	.loc 3 311 0
	and	r3, r3, #3
	add	r3, r1, r3, asl #2
	.loc 3 307 0
	cmp	r0, r2
	.loc 3 311 0
	ldrb	r3, [lr, r3]	@ zero_extendqisi2
	.loc 3 307 0
	movge	r0, #0
	movlt	r0, #1
	.loc 3 311 0
	cmp	r3, r2
	movge	r3, #0
	movlt	r3, #1
	.loc 3 307 0
	add	r10, sp, #48
	and	r5, r8, r9
	add	r0, r10, r0, asl #2
	ldrb	r5, [ip, r5, asr #16]	@ zero_extendqisi2
	ldr	r0, [r0, #-8]
	.loc 3 311 0
	add	r3, r10, r3, asl #2
	.loc 3 307 0
	ldrb	r0, [r0, r5]	@ zero_extendqisi2
	mov	r10, #126
	.loc 3 311 0
	ldr	r5, [r3, #-8]
	.loc 3 307 0
	mov	r3, #128
	smlabb	r0, r3, r0, r10
	ldrh	r0, [r4, r0]
	.loc 3 312 0
	add	r6, r6, #2
.LVL1564:
	.loc 3 307 0
	strh	r0, [r7, #-16]	@ movhi
.LVL1565:
	.loc 3 306 0
	ldr	r0, [sp, #16]
	add	r3, fp, r8
.LVL1566:
	cmp	r6, r0
	.loc 3 311 0
	mov	r0, #128
	and	r3, r3, r9
.LVL1567:
	ldrb	r3, [ip, r3, asr #16]	@ zero_extendqisi2
	add	r7, r7, #16
.LVL1568:
	ldrb	r3, [r5, r3]	@ zero_extendqisi2
	smlabb	r3, r0, r3, r10
	ldr	r0, [sp, #4]
	ldrh	r3, [r4, r3]
	add	r8, r0, r8
.LVL1569:
	strh	r3, [r7, #-24]	@ movhi
	.loc 3 306 0
	bne	.L1790
	.loc 3 316 0
	ldr	r6, [sp, #8]
.LVL1570:
	ldr	r3, [sp, #32]
	tst	r6, #1
