	.arch armv6k
	.fpu softvfp
	.eabi_attribute 23, 1
	.eabi_attribute 24, 1
	.eabi_attribute 25, 1
	.eabi_attribute 26, 1
	.eabi_attribute 30, 2
	.eabi_attribute 34, 1
	.eabi_attribute 18, 4
	.file	"r_filter.c"
	.text
.Ltext0:
	.cfi_sections	.debug_frame
	.align	2
	.global	R_FilterInit
	.type	R_FilterInit, %function
R_FilterInit:
.LFB0:
	.file 1 "c:/devl/prboom3ds/src/r_filter.c"
	.loc 1 43 0
	.cfi_startproc
	@ args = 0, pretend = 0, frame = 0
	@ frame_needed = 0, uses_anonymous_args = 0
.LVL0:
	.loc 1 66 0
	mov	r3, #0
	.loc 1 43 0
	stmfd	sp!, {r4, r5, r6, r7, r8, r9, lr}
	.cfi_def_cfa_offset 28
	.cfi_offset 4, -28
	.cfi_offset 5, -24
	.cfi_offset 6, -20
	.cfi_offset 7, -16
	.cfi_offset 8, -12
	.cfi_offset 9, -8
	.cfi_offset 14, -4
	ldr	r2, .L29
.LVL1:
.L4:
	.loc 1 68 0
	bic	lr, r3, #2
	.loc 1 70 0
	bic	ip, r3, #4
	.loc 1 68 0
	subs	lr, lr, #8
	sub	r0, r3, #4
	movne	lr, #1
	.loc 1 70 0
	cmp	ip, #1
	.loc 1 74 0
	bic	r1, r3, #8
	.loc 1 70 0
	moveq	ip, #2
	movne	ip, #1
	.loc 1 72 0
	cmp	r0, #1
	movls	r0, #0
	movhi	r0, #1
	.loc 1 74 0
	cmp	r1, #2
	moveq	r1, #2
	movne	r1, #1
	.loc 1 66 0
	add	r3, r3, #1
.LVL2:
	cmp	r3, #16
	.loc 1 68 0
	strb	lr, [r2]
	.loc 1 70 0
	strb	ip, [r2, #16]
	.loc 1 72 0
	strb	r0, [r2, #32]
	.loc 1 74 0
	strb	r1, [r2, #48]
	add	r2, r2, #1
	.loc 1 66 0
	bne	.L4
	mov	r2, #0
	mov	ip, #32
	.loc 1 91 0
	mov	r5, #4
	ldr	r7, .L29+4
.LVL3:
.L5:
	mvn	lr, ip
	add	r6, r2, #64
	add	r8, r7, r6
	add	r2, r7, r2
	mov	lr, lr, lsr #31
	.loc 1 74 0
	mov	r3, #32
	b	.L15
.LVL4:
.L28:
	.loc 1 87 0 discriminator 1
	cmp	r1, #32
	movle	r1, #4
	movgt	r1, #0
	strb	r1, [r2]
.L8:
	add	r2, r2, #1
	.loc 1 84 0 discriminator 2
	cmp	r8, r2
	sub	r3, r3, #1
.LVL5:
	beq	.L27
.LVL6:
.L15:
	.loc 1 87 0
	mvn	r0, r3
	mov	r0, r0, lsr #31
	tst	r0, lr
	add	r1, r3, ip
	bne	.L28
	.loc 1 88 0
	cmp	r3, #0
	movgt	r4, #0
	movle	r4, #1
	tst	r4, lr
	rsb	r1, r3, ip
	beq	.L9
	.loc 1 88 0 is_stmt 0 discriminator 1
	cmp	r1, #32
	movgt	r1, #2
	movle	r1, #4
	add	r2, r2, #1
	strb	r1, [r2, #-1]
	.loc 1 84 0 is_stmt 1 discriminator 1
	cmp	r8, r2
	sub	r3, r3, #1
.LVL7:
	bne	.L15
.LVL8:
.L27:
	.loc 1 83 0 discriminator 2
	cmp	r6, #4096
	sub	ip, ip, #1
.LVL9:
	mov	r2, r6
	bne	.L5
	ldmfd	sp!, {r4, r5, r6, r7, r8, r9, pc}
.LVL10:
.L9:
	.loc 1 89 0
	cmp	ip, #0
	movgt	r1, #0
	movle	r1, #1
	tst	r0, r1
	rsb	r9, ip, r3
	beq	.L11
	.loc 1 89 0 is_stmt 0 discriminator 1
	cmp	r9, #32
	movgt	r9, #1
	movle	r9, #4
	strb	r9, [r2]
	b	.L8
.L11:
	add	r0, ip, r3
	.loc 1 90 0 is_stmt 1
	tst	r4, r1
	rsb	r0, r0, #0
	.loc 1 91 0
	streqb	r5, [r2]
	.loc 1 90 0
	beq	.L8
	.loc 1 90 0 is_stmt 0 discriminator 1
	cmp	r0, #32
	movgt	r0, #3
	movle	r0, #4
	strb	r0, [r2]
	b	.L8
.L30:
	.align	2
.L29:
	.word	filter_roundedRowMap
	.word	filter_roundedUVMap
	.cfi_endproc
.LFE0:
	.size	R_FilterInit, .-R_FilterInit
	.align	2
	.global	filter_getScale2xQuadColors
	.type	filter_getScale2xQuadColors, %function
filter_getScale2xQuadColors:
.LFB1:
	.loc 1 96 0 is_stmt 1
	.cfi_startproc
	@ args = 4, pretend = 0, frame = 0
	@ frame_needed = 0, uses_anonymous_args = 0
.LVL11:
	.loc 1 111 0
	cmp	r2, r3
	moveq	ip, #2
	movne	ip, #0
	.loc 1 96 0
	stmfd	sp!, {r4, r5, r6, lr}
	.cfi_def_cfa_offset 16
	.cfi_offset 4, -16
	.cfi_offset 5, -12
	.cfi_offset 6, -8
	.cfi_offset 14, -4
	.loc 1 96 0
	ldrb	lr, [sp, #16]	@ zero_extendqisi2
	.loc 1 111 0
	cmp	r1, r2
	orreq	ip, ip, #1
	cmp	r3, lr
	moveq	r3, #4
.LVL12:
	movne	r3, #0
	cmp	lr, r1
	moveq	r1, #8
.LVL13:
	movne	r1, #0
	orr	r3, ip, r3
	.loc 1 112 0
	ldr	ip, .L39
	.loc 1 111 0
	orr	r3, r3, r1
.LVL14:
	.loc 1 112 0
	ldrb	r6, [ip, r3]!	@ zero_extendqisi2
	.loc 1 105 0
	ldr	r3, .L39+4
.LVL15:
	.loc 1 114 0
	ldrb	r1, [ip, #32]	@ zero_extendqisi2
	.loc 1 115 0
	ldrb	r4, [ip, #48]	@ zero_extendqisi2
	.loc 1 113 0
	ldrb	r5, [ip, #16]	@ zero_extendqisi2
	.loc 1 106 0
	strb	r0, [r3, #1]
	.loc 1 105 0
	strb	lr, [r3]
	.loc 1 107 0
	strb	r2, [r3, #2]
	.loc 1 112 0
	ldrb	lr, [r3, r6]	@ zero_extendqisi2
	.loc 1 113 0
	ldrb	ip, [r3, r5]	@ zero_extendqisi2
	.loc 1 114 0
	ldrb	r1, [r3, r1]	@ zero_extendqisi2
	.loc 1 115 0
	ldrb	r2, [r3, r4]	@ zero_extendqisi2
.LVL16:
	.loc 1 116 0
	strb	r0, [r3, #8]
	.loc 1 112 0
	strb	lr, [r3, #4]
	.loc 1 113 0
	strb	ip, [r3, #5]
	.loc 1 114 0
	strb	r1, [r3, #6]
	.loc 1 115 0
	strb	r2, [r3, #7]
	.loc 1 119 0
	add	r0, r3, #4
.LVL17:
	ldmfd	sp!, {r4, r5, r6, pc}
.L40:
	.align	2
.L39:
	.word	filter_roundedRowMap
	.word	.LANCHOR0
	.cfi_endproc
.LFE1:
	.size	filter_getScale2xQuadColors, .-filter_getScale2xQuadColors
	.comm	filter_roundedRowMap,64,4
	.comm	filter_roundedUVMap,4096,4
	.global	filter_ditherMatrix
	.data
	.align	2
	.type	filter_ditherMatrix, %object
	.size	filter_ditherMatrix, 16
filter_ditherMatrix:
	.byte	0
	.byte	-32
	.byte	48
	.byte	-48
	.byte	-80
	.byte	80
	.byte	-128
	.byte	96
	.byte	-64
	.byte	32
	.byte	-16
	.byte	16
	.byte	112
	.byte	-112
	.byte	64
	.byte	-96
	.bss
	.align	2
	.set	.LANCHOR0,. + 0
	.type	rowColors.4218, %object
	.size	rowColors.4218, 3
rowColors.4218:
	.space	3
	.space	1
	.type	quad.4217, %object
	.size	quad.4217, 5
quad.4217:
	.space	5
	.text
.Letext0:
	.file 2 "c:/devl/prboom3ds/src/doomtype.h"