	.arch armv6k
	.fpu softvfp
	.eabi_attribute 23, 1
	.eabi_attribute 24, 1
	.eabi_attribute 25, 1
	.eabi_attribute 26, 1
	.eabi_attribute 30, 2
	.eabi_attribute 34, 1
	.eabi_attribute 18, 4
	.file	"r_segs.c"
	.text
.Ltext0:
	.cfi_sections	.debug_frame
	.global	__aeabi_ldivmod
	.align	2
	.type	R_ScaleFromGlobalAngle, %function
R_ScaleFromGlobalAngle:
.LFB5:
	.file 1 "c:/devl/prboom3ds/src/r_segs.c"
	.loc 1 104 0
	.cfi_startproc
	@ args = 0, pretend = 0, frame = 0
	@ frame_needed = 0, uses_anonymous_args = 0
.LVL0:
	stmfd	sp!, {r3, r4, r5, r6, r7, lr}
	.cfi_def_cfa_offset 24
	.cfi_offset 3, -24
	.cfi_offset 4, -20
	.cfi_offset 5, -16
	.cfi_offset 6, -12
	.cfi_offset 7, -8
	.cfi_offset 14, -4
	.loc 1 105 0
	ldr	r2, .L10
.LVL1:
	.loc 1 106 0
	ldr	r3, .L10+4
.LVL2:
	ldr	r2, [r2]
.LVL3:
	ldr	r3, [r3]
.LVL4:
	rsb	r2, r2, #1073741824
.LVL5:
	rsb	r3, r3, #1073741824
.LVL6:
	.loc 1 105 0
	add	r2, r2, r0
	.loc 1 107 0
	ldr	r1, .L10+8
	.loc 1 106 0
	add	r0, r3, r0
.LVL7:
	.loc 1 107 0
	ldr	lr, .L10+12
	.loc 1 109 0
	ldr	ip, .L10+16
	.loc 1 107 0
	mov	r3, r2, asr #19
	.loc 1 109 0
	mov	r0, r0, asr #19
	.loc 1 107 0
	ldr	r6, [r1, r3, asl #2]
	.loc 1 109 0
	ldr	r4, [r1, r0, asl #2]
	.loc 1 107 0
	ldr	r2, [lr]
.LVL8:
	.loc 1 109 0
	ldr	r3, [ip]
.LBB77:
.LBB78:
	.file 2 "c:/devl/prboom3ds/src/m_fixed.h"
	.loc 2 72 0
	smull	r6, r7, r2, r6
.LVL9:
.LBE78:
.LBE77:
.LBB81:
.LBB82:
	smull	r4, r5, r3, r4
.LBE82:
.LBE81:
.LBB85:
.LBB79:
	mov	r2, r6, lsr #16
.LVL10:
.LBE79:
.LBE85:
.LBB86:
.LBB83:
	mov	r0, r4, lsr #16
.LBE83:
.LBE86:
.LBB87:
.LBB80:
	orr	r2, r2, r7, asl #16
.LVL11:
.LBE80:
.LBE87:
.LBB88:
.LBB84:
	orr	r0, r0, r5, asl #16
.LBE84:
.LBE88:
	.loc 1 111 0
	cmp	r2, r0, asr #16
	bgt	.L8
	mov	r0, #4194304
	.loc 1 112 0
	ldmfd	sp!, {r3, r4, r5, r6, r7, pc}
.L8:
.LVL12:
.LBB89:
.LBB90:
.LBB91:
.LBB92:
	.loc 2 59 0
	mov	r1, r0, asr #31
.LVL13:
.LBE92:
.LBE91:
.LBB95:
.LBB96:
	mov	r3, r2, asr #31
.LVL14:
.LBE96:
.LBE95:
.LBB99:
.LBB93:
	.loc 2 60 0
	eor	lr, r1, r0
.LBE93:
.LBE99:
.LBB100:
.LBB97:
	eor	ip, r3, r2
.LVL15:
.LBE97:
.LBE100:
.LBB101:
.LBB94:
	rsb	r1, r1, lr
.LBE94:
.LBE101:
.LBB102:
.LBB98:
	rsb	r3, r3, ip
.LBE98:
.LBE102:
	.loc 2 84 0
	cmp	r3, r1, asr #14
	ble	.L9
	.loc 2 85 0
	mov	r5, r0, asr #31
	mov	r1, r5, asl #16
	mov	r4, r0
	orr	r1, r1, r0, lsr #16
	mov	r3, r2, asr #31
	mov	r0, r0, asl #16
.LVL16:
	bl	__aeabi_ldivmod
.LVL17:
.L4:
.LBE90:
.LBE89:
	.loc 1 111 0
	cmp	r0, #256
	movlt	r0, #256
	cmp	r0, #4194304
	movge	r0, #4194304
	ldmfd	sp!, {r3, r4, r5, r6, r7, pc}
.LVL18:
.L9:
.LBB104:
.LBB103:
	.loc 2 84 0
	eor	r0, r0, r2
.LVL19:
	mov	r0, r0, asr #31
	eor	r0, r0, #-2147483648
	mvn	r0, r0
	b	.L4
.L11:
	.align	2
.L10:
	.word	viewangle
	.word	rw_normalangle
	.word	finesine
	.word	rw_distance
	.word	projectiony
.LBE103:
.LBE104:
	.cfi_endproc
.LFE5:
	.size	R_ScaleFromGlobalAngle, .-R_ScaleFromGlobalAngle
	.global	__aeabi_uidiv
	.align	2
	.global	R_RenderMaskedSegRange
	.type	R_RenderMaskedSegRange, %function
R_RenderMaskedSegRange:
.LFB6:
	.loc 1 119 0
	.cfi_startproc
	@ args = 0, pretend = 0, frame = 288
	@ frame_needed = 0, uses_anonymous_args = 0
.LVL20:
	stmfd	sp!, {r4, r5, r6, r7, r8, r9, r10, fp, lr}
	.cfi_def_cfa_offset 36
	.cfi_offset 4, -36
	.cfi_offset 5, -32
	.cfi_offset 6, -28
	.cfi_offset 7, -24
	.cfi_offset 8, -20
	.cfi_offset 9, -16
	.cfi_offset 10, -12
	.cfi_offset 11, -8
	.cfi_offset 14, -4
	mov	r10, r0
	sub	sp, sp, #300
	.cfi_def_cfa_offset 336
	.loc 1 127 0
	add	r0, sp, #32
.LVL21:
	.loc 1 119 0
	mov	r7, r1
	mov	fp, r2
	.loc 1 127 0
	bl	R_SetDefaultDrawColumnVars
.LVL22:
	.loc 1 137 0
	ldr	r2, .L43
	.loc 1 133 0
	ldr	r3, [r10]
	ldr	ip, .L43+4
	.loc 1 137 0
	ldr	r1, [r2, #24]
	mov	r0, #0
	ldr	r2, [r2, #36]
	.loc 1 133 0
	str	r3, [ip]
	.loc 1 137 0
	bl	R_GetDrawColumnFunc
.LVL23:
	.loc 1 138 0
	ldr	r3, .L43+4
	.loc 1 137 0
	str	r0, [sp, #24]
.LVL24:
	.loc 1 138 0
	ldr	r3, [r3]
	ldr	r2, [r3, #20]
	ldr	r2, [r2, #68]
	cmp	r2, #0
	blt	.L13
	.loc 1 138 0 is_stmt 0 discriminator 1
	ldr	r2, .L43+8
	ldr	r2, [r2]
	cmp	r2, #0
	bne	.L41
.LVL25:
.L13:
	.loc 1 152 0 is_stmt 1
	ldr	r2, .L43+12
	.loc 1 147 0
	ldr	r0, [r3, #36]
	.loc 1 152 0
	ldr	r1, [r2, #96]
	.loc 1 148 0
	ldr	r2, [r3, #40]
	.loc 1 152 0
	cmp	r1, #0
	.loc 1 147 0
	ldr	r1, .L43+16
	.loc 1 151 0
	ldr	r3, [r3, #16]
	.loc 1 147 0
	str	r0, [r1]
	.loc 1 148 0
	ldr	r1, .L43+20
	.loc 1 151 0
	ldrh	r3, [r3, #12]
.LVL26:
	.loc 1 148 0
	str	r2, [r1]
	.loc 1 153 0
	ldreq	r2, .L43+24
	sxtheq	r3, r3
.LVL27:
	ldreq	r2, [r2]
	.loc 1 151 0
	sxthne	r3, r3
	.loc 1 153 0
	ldreq	r3, [r2, r3, asl #2]
	.loc 1 156 0
	mov	r2, #0
	.loc 1 153 0
	str	r3, [sp, #12]
.LVL28:
	.loc 1 156 0
	str	r2, [sp]
	mov	r3, r2
.LVL29:
	add	r1, sp, #100
	bl	R_FakeFlat
.LVL30:
	.loc 1 166 0
	ldr	r2, .L43+4
	.loc 1 161 0
	ldr	r3, [r10, #4]
	.loc 1 166 0
	ldr	r1, [r2]
	.loc 1 161 0
	ldr	ip, [r10, #12]
	.loc 1 160 0
	ldr	r2, [r10, #20]
	.loc 1 161 0
	rsb	r3, r3, r7
	mla	r3, r3, r2, ip
	.loc 1 156 0
	ldr	r4, .L43+28
	ldrsh	r0, [r0, #188]
	.loc 1 166 0
	ldr	ip, [r1, #20]
	.loc 1 156 0
	str	r0, [r4]
	.loc 1 166 0
	ldrh	ip, [ip, #20]
	.loc 1 161 0
	ldr	r5, .L43+32
	.loc 1 162 0
	ldr	r0, .L43+36
	.loc 1 160 0
	str	r2, [r4, #8]
	.loc 1 162 0
	ldr	r2, [r10, #52]
	.loc 1 166 0
	tst	ip, #16
	.loc 1 161 0
	str	r3, [r5]
	.loc 1 158 0
	ldr	ip, [r10, #56]
	.loc 1 163 0
	ldr	r3, .L43+40
	.loc 1 162 0
	str	r2, [r0]
	.loc 1 163 0
	ldr	r2, [r10, #48]
	.loc 1 158 0
	str	ip, [r4, #4]
	.loc 1 163 0
	str	r2, [r3]
	.loc 1 169 0
	ldr	r3, .L43+16
	.loc 1 166 0
	beq	.L16
	.loc 1 169 0
	ldr	r2, [r3]
	ldr	r3, .L43+20
	ldr	r2, [r2, #12]
	ldr	r3, [r3]
	.loc 1 170 0
	ldr	ip, [sp, #12]
	.loc 1 169 0
	ldr	r0, [r3, #12]
	.loc 1 170 0
	ldr	r3, .L43+44
	.loc 1 169 0
	cmp	r2, r0
	movlt	r2, r0
	.loc 1 170 0
	ldr	r3, [r3]
	.loc 1 168 0
	str	r2, [sp, #52]
	.loc 1 170 0
	ldr	r0, .L43+48
	ldr	r3, [r3, ip, asl #2]
	ldr	r0, [r0]
	add	r2, r2, r3
	rsb	r3, r0, r2
.L17:
	.loc 1 179 0
	ldr	r2, [r1, #16]
	.loc 1 181 0
	ldr	r1, .L43+52
	.loc 1 179 0
	ldr	r2, [r2, #4]
	.loc 1 181 0
	ldr	r1, [r1]
	.loc 1 179 0
	add	r3, r2, r3
	.loc 1 181 0
	cmp	r1, #0
	.loc 1 186 0
	ldr	r0, [sp, #12]
	.loc 1 182 0
	strne	r1, [sp, #76]
	.loc 1 183 0
	strne	r1, [sp, #80]
	.loc 1 179 0
	str	r3, [sp, #52]
	.loc 1 186 0
	bl	R_CacheTextureCompositePatchNum
.LVL31:
	.loc 1 189 0
	cmp	r7, fp
	.loc 1 186 0
	str	r0, [sp, #28]
.LVL32:
	.loc 1 189 0
	str	r7, [sp, #32]
	bgt	.L26
.LBB105:
	.loc 1 216 0
	ldr	r2, [sp, #12]
	mov	r3, r7
	mov	r2, r2, asl #2
	ldr	ip, [r5]
	str	r2, [sp, #8]
	b	.L25
.LVL33:
.L22:
.LBE105:
	.loc 1 189 0 discriminator 2
	ldr	r3, [sp, #32]
	ldr	r2, [r4, #8]
	add	r3, r3, #1
	add	ip, ip, r2
	cmp	fp, r3
	str	r3, [sp, #32]
	str	ip, [r5]
	blt	.L26
.L25:
.LVL34:
	.loc 1 190 0
	ldr	r2, [r4, #4]
	ldr	r2, [r2, r3, asl #2]
	cmn	r2, #-2147483647
	beq	.L22
	.loc 1 193 0
	ldr	r2, .L43+56
	ldr	r0, [r10, #44]
	ldr	r3, [r2, r3, asl #2]
.LVL35:
	.loc 1 194 0
	ldr	r2, [r10, #40]
	.loc 1 193 0
	add	r3, r3, r0
	.loc 1 194 0
	ldr	r0, .L43+60
	.loc 1 193 0
	mov	r3, r3, lsr #19
	.loc 1 194 0
	ldr	r3, [r0, r3, asl #2]
.LVL36:
	.loc 1 195 0
	ldr	lr, .L43
.LBB106:
.LBB107:
	.loc 2 72 0
	smull	r2, r3, r3, r2
.LVL37:
	mov	r2, r2, lsr #16
.LBE107:
.LBE106:
	.loc 1 195 0
	ldr	lr, [lr, #24]
.LBB109:
.LBB108:
	.loc 2 72 0
	orr	r2, r2, r3, asl #16
.LBE108:
.LBE109:
	.loc 1 198 0
	ldr	r0, .L43+52
	.loc 1 194 0
	ldr	r3, [r10, #36]
.LVL38:
	.loc 1 195 0
	cmp	lr, #2
	.loc 1 194 0
	rsb	r2, r2, r3
	.loc 1 198 0
	ldr	r0, [r0]
	.loc 1 194 0
	str	r2, [sp, #60]
	.loc 1 196 0
	subeq	r2, r2, #32768
	.loc 1 200 0
	mov	r1, ip
	.loc 1 196 0
	streq	r2, [sp, #60]
	.loc 1 198 0
	cmp	r0, #0
	.loc 1 200 0
	ldr	r0, [r4]
	.loc 1 199 0
	streq	ip, [sp, #44]
	.loc 1 200 0
	bl	R_ColourMap
.LVL39:
	.loc 1 201 0
	ldr	r3, [r4]
	.loc 1 200 0
	str	r0, [sp, #76]
	.loc 1 201 0
	ldr	r1, [r5]
	add	r0, r3, #1
	bl	R_ColourMap
.LVL40:
.LBB110:
	.loc 1 214 0
	ldr	r3, .L43+64
	.loc 1 215 0
	ldr	lr, [sp, #52]
	.loc 1 214 0
	ldr	r1, [r3]
	.loc 1 215 0
	ldr	ip, [r5]
	.loc 1 214 0
	mov	r3, r1, asr #31
	mov	r9, r3, asl #16
	.loc 1 215 0
	smull	r2, r3, lr, ip
	.loc 1 214 0
	mov	r8, r1, asl #16
	subs	r2, r8, r2
	orr	r9, r9, r1, lsr #16
	sbc	r3, r9, r3
.LVL41:
	.loc 1 216 0
	mov	r6, r2
	mov	r7, r3
	cmp	r2, #1
	sbcs	r1, r3, #240
	ldr	r1, .L43+44
.LBE110:
	.loc 1 201 0
	str	r0, [sp, #80]
.LBB111:
	.loc 1 216 0
	ldr	r1, [r1]
	ldr	r0, [sp, #8]
	movge	lr, #1
	ldr	r1, [r1, r0]
	movlt	lr, #0
	smlal	r6, r7, r1, ip
	mov	r1, r7
	orrs	r1, lr, r1, lsr #31
	bne	.L22
	.loc 1 219 0
	ldr	lr, .L43+68
	mov	r2, r2, lsr #16
.LVL42:
	orr	r2, r2, r3, asl #16
	str	r2, [lr]
.LBE111:
	.loc 1 222 0
	mov	r1, ip
	mvn	r0, #0
	bl	__aeabi_uidiv
.LVL43:
	.loc 1 233 0
	ldr	r3, .L43+28
	ldr	r6, [sp, #28]
	.loc 1 237 0
	ldr	r2, [sp, #32]
	.loc 1 233 0
	ldr	r3, [r3, #4]
	.loc 1 222 0
	str	r0, [sp, #48]
	.loc 1 233 0
	ldr	r1, [r3, r2, asl #2]
	mov	r0, r6
	bl	R_GetPatchColumnWrapped
.LVL44:
	.loc 1 238 0
	ldr	r3, .L43+28
	ldr	r1, [sp, #32]
	ldr	r2, [r3, #4]
	.loc 1 233 0
	str	r0, [sp, #20]
	ldr	r1, [r2, r1, asl #2]
	mov	r0, r6
	sub	r1, r1, #1
	bl	R_GetPatchColumnWrapped
.LVL45:
	.loc 1 239 0
	ldr	r3, .L43+28
	ldr	ip, [sp, #32]
	ldr	r1, [r3, #4]
	.loc 1 233 0
	str	r0, [sp, #16]
	ldr	r1, [r1, ip, asl #2]
	mov	r0, r6
	add	r1, r1, #1
	bl	R_GetPatchColumnWrapped
.LVL46:
	ldr	r2, [sp, #16]
	str	r0, [sp, #4]
	str	r2, [sp]
	ldr	r3, [sp, #20]
	ldr	r1, [sp, #24]
	add	r2, sp, #32
	mov	r0, r6
	bl	R_DrawMaskedColumn
.LVL47:
	.loc 1 242 0
	mvn	r1, #-2147483648
	ldr	r3, .L43+28
	ldr	r2, [sp, #32]
	ldr	r3, [r3, #4]
	str	r1, [r3, r2, asl #2]
	ldr	r3, .L43+32
	ldr	ip, [r3]
	b	.L22
.L26:
	.loc 1 246 0
	ldr	r3, .L43+4
	ldr	r3, [r3]
	ldr	r3, [r3, #20]
	ldr	r0, [r3, #68]
	cmp	r0, #0
	ble	.L21
	.loc 1 246 0 is_stmt 0 discriminator 1
	ldr	r3, .L43+8
	ldr	r3, [r3]
	cmp	r3, #0
	bne	.L42
.L21:
	.loc 1 249 0 is_stmt 1
	ldr	r0, [sp, #12]
	bl	R_UnlockTextureCompositePatchNum
.LVL48:
	.loc 1 251 0
	mov	r3, #0
	ldr	r2, .L43+4
	str	r3, [r2]
	.loc 1 252 0
	add	sp, sp, #300
	.cfi_remember_state
	.cfi_def_cfa_offset 36
	@ sp needed
	ldmfd	sp!, {r4, r5, r6, r7, r8, r9, r10, fp, pc}
.LVL49:
.L16:
	.cfi_restore_state
	.loc 1 175 0
	ldr	r0, [r3]
	ldr	r3, .L43+20
	.loc 1 176 0
	ldr	r2, .L43+48
	.loc 1 175 0
	ldr	r3, [r3]
	ldr	r0, [r0, #16]
	ldr	r3, [r3, #16]
	.loc 1 176 0
	ldr	r2, [r2]
	cmp	r0, r3
	rsble	r3, r2, r0
	rsbgt	r3, r2, r3
	b	.L17
.LVL50:
.L42:
	.loc 1 247 0
	sub	r0, r0, #1
	bl	W_UnlockLumpNum
.LVL51:
	b	.L21
.LVL52:
.L41:
	.loc 1 140 0
	ldr	r3, .L43
	mov	r0, #1
.LVL53:
	ldr	r1, [r3, #24]
	ldr	r2, [r3, #36]
	bl	R_GetDrawColumnFunc
.LVL54:
	.loc 1 142 0
	ldr	r3, .L43+4
	.loc 1 141 0
	ldr	r2, .L43+72
	.loc 1 142 0
	ldr	r3, [r3]
	.loc 1 140 0
	str	r0, [sp, #24]
.LVL55:
	.loc 1 142 0
	ldr	r1, [r3, #20]
	.loc 1 141 0
	ldr	r2, [r2]
	.loc 1 142 0
	ldr	r0, [r1, #68]
.LVL56:
	.loc 1 141 0
	ldr	r4, .L43+76
	.loc 1 142 0
	cmp	r0, #0
	.loc 1 141 0
	str	r2, [r4]
	.loc 1 142 0
	ble	.L13
	.loc 1 143 0
	sub	r0, r0, #1
	bl	W_CacheLumpNum
.LVL57:
	ldr	r3, .L43+4
	str	r0, [r4]
	ldr	r3, [r3]
	b	.L13
.L44:
	.align	2
.L43:
	.word	drawvars
	.word	curline
	.word	general_translucency
	.word	comp
	.word	frontsector
	.word	backsector
	.word	texturetranslation
	.word	.LANCHOR0
	.word	spryscale
	.word	mfloorclip
	.word	mceilingclip
	.word	textureheight
	.word	viewz
	.word	fixedcolormap
	.word	xtoviewangle
	.word	finetangent
	.word	centeryfrac
	.word	sprtopscreen
	.word	main_tranmap
	.word	tranmap
	.cfi_endproc
.LFE6:
	.size	R_RenderMaskedSegRange, .-R_RenderMaskedSegRange
	.global	__aeabi_idiv
	.global	__aeabi_idivmod
	.align	2
	.global	R_StoreWallRange
	.type	R_StoreWallRange, %function
R_StoreWallRange:
.LFB9:
	.loc 1 476 0
	.cfi_startproc
	@ args = 0, pretend = 0, frame = 120
	@ frame_needed = 0, uses_anonymous_args = 0
.LVL58:
	stmfd	sp!, {r4, r5, r6, r7, r8, r9, r10, fp, lr}
	.cfi_def_cfa_offset 36
	.cfi_offset 4, -36
	.cfi_offset 5, -32
	.cfi_offset 6, -28
	.cfi_offset 7, -24
	.cfi_offset 8, -20
	.cfi_offset 9, -16
	.cfi_offset 10, -12
	.cfi_offset 11, -8
	.cfi_offset 14, -4
	.loc 1 480 0
	ldr	r6, .L242
	ldr	r10, .L242+4
	ldr	r3, [r6]
	ldr	ip, .L242+8
	rsb	r4, r3, r3, asl #4
	ldr	r2, [r10]
	ldr	r5, [ip]
	mov	r4, r4, asl #2
	add	ip, r2, r4
	.loc 1 476 0
	sub	sp, sp, #124
	.cfi_def_cfa_offset 160
	.loc 1 480 0
	cmp	r5, ip
	.loc 1 476 0
	str	r0, [sp, #12]
	str	r1, [sp]
	.loc 1 480 0
	beq	.L225
.LVL59:
.L46:
	.loc 1 489 0
	ldr	r3, .L242+12
	ldr	r4, [r3]
	ldr	r3, [r4, #32]
	.loc 1 516 0
	ldr	r1, [r4, #12]
	.loc 1 489 0
	cmp	r3, #0
	.loc 1 518 0
	ldr	r3, .L242+16
	.loc 1 490 0
	ldr	r0, [r4, #20]
	.loc 1 518 0
	ldr	r3, [r3]
	.loc 1 516 0
	add	r1, r1, #1073741824
	.loc 1 518 0
	rsb	r3, r3, r1
.LVL60:
	.loc 1 490 0
	ldrh	r2, [r0, #20]
.LBB172:
.LBB173:
	.loc 2 59 0
	mov	lr, r3, asr #31
.LVL61:
	.loc 2 60 0
	eor	r6, lr, r3
.LBE173:
.LBE172:
	.loc 1 490 0
	orreq	r2, r2, #256
.LBB175:
.LBB174:
	.loc 2 60 0
	rsb	lr, lr, r6
.LVL62:
.LBE174:
.LBE175:
	.loc 1 490 0
	streqh	r2, [r0, #20]	@ movhi
	.loc 1 520 0
	cmp	lr, #1073741824
	movgt	r3, #2048
.LVL63:
	.loc 1 513 0
	orr	r2, r2, #256
	.loc 1 509 0
	ldr	ip, [r4, #16]
	.loc 1 513 0
	strh	r2, [r0, #20]	@ movhi
	.loc 1 509 0
	ldr	r2, .L242+112
	movle	r3, r3, lsr #19
	str	ip, [r2]
	.loc 1 516 0
	ldr	r2, .L242+20
	addle	r7, r3, #2048
	str	r1, [r2]
	.loc 1 510 0
	ldr	r2, .L242+120
	strle	r3, [sp, #40]
	str	r0, [r2]
	strgt	r3, [sp, #40]
.LVL64:
	.loc 1 523 0
	ldr	r2, .L242+24
	ldr	r3, [r4]
	ldr	r2, [r2]
	ldr	r6, [r3]
	ldr	r1, .L242+28
.LVL65:
	movle	r7, r7, asl #2
	movgt	r7, #16384
	.loc 1 524 0
	cmp	r6, r2
	ldr	r0, [r3, #4]
	ldr	r3, [r1]
	beq	.L226
.L52:
.LVL66:
.LBB176:
.LBB177:
	.loc 1 456 0 discriminator 1
	rsb	r6, r2, r6
.LVL67:
	.loc 1 457 0 discriminator 1
	rsb	r3, r3, r0
.LBB178:
.LBB179:
	.loc 2 59 0 discriminator 1
	mov	r1, r6, asr #31
.LVL68:
.LBE179:
.LBE178:
.LBB181:
.LBB182:
	mov	r0, r3, asr #31
.LVL69:
	.loc 2 60 0 discriminator 1
	eor	r3, r3, r0
.LBE182:
.LBE181:
.LBB184:
.LBB180:
	eor	r2, r1, r6
	rsb	r6, r1, r2
.LVL70:
.LBE180:
.LBE184:
.LBB185:
.LBB183:
	rsb	r0, r0, r3
.LVL71:
.LBE183:
.LBE185:
	.loc 1 459 0 discriminator 1
	cmp	r6, r0
	movlt	r3, r6
	movlt	r6, r0
	movlt	r0, r3
.LVL72:
.LBB186:
.LBB187:
.LBB188:
.LBB189:
	.loc 2 59 0 discriminator 1
	mov	r9, r6, asr #31
.LBE189:
.LBE188:
.LBB192:
.LBB193:
	mov	r3, r0, asr #31
.LVL73:
	.loc 2 60 0 discriminator 1
	eor	r1, r3, r0
.LVL74:
.LBE193:
.LBE192:
.LBB195:
.LBB190:
	eor	r2, r9, r6
.LBE190:
.LBE195:
.LBB196:
.LBB194:
	rsb	r3, r3, r1
.LBE194:
.LBE196:
.LBB197:
.LBB191:
	rsb	r9, r9, r2
.LVL75:
.LBE191:
.LBE197:
	.loc 2 84 0 discriminator 1
	cmp	r9, r3, asr #14
	ble	.L227
	.loc 2 85 0
	mov	r3, r0, asr #31
	mov	r1, r3, asl #16
	orr	r1, r1, r0, lsr #16
	mov	r2, r6
	mov	r0, r0, asl #16
.LVL76:
	mov	r3, r6, asr #31
.LVL77:
	bl	__aeabi_ldivmod
.LVL78:
.L56:
.LBE187:
.LBE186:
	.loc 1 466 0
	ldr	r3, .L242+32
	mov	r0, r0, asr #5
	.loc 1 467 0
	ldr	r3, [r3, r0, asl #2]
	.loc 1 466 0
	ldr	r2, .L242+36
	.loc 1 467 0
	add	r3, r3, #1073741824
	mov	r3, r3, lsr #19
	.loc 1 466 0
	str	r2, [sp, #28]
	ldr	r2, [r2, r3, asl #2]
.LVL79:
.LBB199:
.LBB200:
.LBB201:
.LBB202:
	.loc 2 59 0
	mov	r1, r2, asr #31
.LVL80:
	.loc 2 60 0
	eor	r3, r1, r2
	rsb	r3, r1, r3
.LBE202:
.LBE201:
	.loc 2 84 0
	cmp	r3, r9, asr #14
	ble	.L228
	.loc 2 85 0
	mov	r1, r6, asr #31
.LVL81:
	mov	r1, r1, asl #16
	mov	r3, r2, asr #31
.LVL82:
	orr	r1, r1, r6, lsr #16
	mov	r0, r6, asl #16
	bl	__aeabi_ldivmod
.LVL83:
	mov	r2, r0
	mov	r3, r0, asr #31
	strd	r2, [sp, #16]
.LVL84:
.L53:
.LBE200:
.LBE199:
.LBE177:
.LBE176:
.LBB208:
.LBB209:
	.loc 2 72 0
	ldrd	r8, [sp, #16]
	ldr	r3, [sp, #28]
.LBE209:
.LBE208:
.LBB217:
	.loc 1 535 0
	ldr	r0, .L242+144
.LBE217:
.LBB219:
.LBB210:
	.loc 2 72 0
	ldr	r2, [r3, r7]
.LBE210:
.LBE219:
.LBB220:
	.loc 1 535 0
	ldr	fp, .L242+40
.LBE220:
.LBB221:
.LBB211:
	.loc 2 72 0
	mul	r1, r2, r9
	mov	r7, r2, asr #31
.LVL85:
	mla	r1, r8, r7, r1
	umull	r2, r3, r2, r8
.LBE211:
.LBE221:
.LBB222:
	.loc 1 535 0
	ldr	r7, [r0]
.LBE222:
	.loc 1 530 0
	ldr	r8, [sp]
.LBB223:
	.loc 1 535 0
	ldr	r6, [fp]
	.loc 1 536 0
	ldr	lr, [sp, #12]
.LBE223:
	.loc 1 530 0
	add	r0, r8, #1
.LBB224:
.LBB212:
	.loc 2 72 0
	add	r3, r1, r3
.LBE212:
.LBE224:
.LBB225:
	.loc 1 537 0
	ldr	ip, .L242+44
.LBE225:
.LBB226:
.LBB213:
	.loc 2 72 0
	mov	r1, r2, lsr #16
.LBE213:
.LBE226:
.LBB227:
	.loc 1 535 0
	rsb	r9, r6, r7
.LVL86:
.LBE227:
.LBB228:
.LBB214:
	.loc 2 72 0
	orr	r1, r1, r3, asl #16
.LBE214:
.LBE228:
.LBB229:
	.loc 1 536 0
	rsb	r2, lr, r0
	.loc 1 535 0
	mov	r3, r9, asr #2
.LBE229:
	.loc 1 528 0
	str	r8, [r5, #8]
.LBB230:
.LBB215:
	.loc 2 72 0
	ldr	r8, .L242+48
.LBE215:
.LBE230:
.LBB231:
	.loc 1 536 0
	add	r2, r3, r2, asl #2
.LVL87:
	.loc 1 537 0
	ldr	r3, [ip]
.LBE231:
.LBB232:
.LBB216:
	.loc 2 72 0
	str	r1, [r8]
.LBE216:
.LBE232:
	.loc 1 529 0
	str	r4, [r5]
	.loc 1 527 0
	ldr	r4, .L242+52
.LBB233:
	.loc 1 537 0
	cmp	r2, r3
.LBE233:
	.loc 1 527 0
	str	lr, [r5, #4]
	.loc 1 530 0
	str	r0, [r4, #16]
	.loc 1 527 0
	str	lr, [r4, #12]
.LBB234:
	.loc 1 537 0
	bls	.L58
	ldr	r8, [sp]
.L60:
.LBB218:
	.loc 1 544 0
	cmp	r3, #0
	moveq	r3, #16384
	movne	r3, r3, asl #1
	.loc 1 545 0
	cmp	r3, r2
	bcc	.L60
	.loc 1 546 0
	mov	r1, r3, asl #2
	mov	r2, #1
.LVL88:
	str	r3, [ip]
	mov	r0, r6
.LVL89:
	mov	r3, #0
	str	r8, [sp]
.LVL90:
	bl	Z_Realloc
.LVL91:
	.loc 1 552 0
	ldr	r3, .L242+8
	ldr	r2, [r10]
.LVL92:
	ldr	r5, [r3]
	.loc 1 547 0
	ldr	r3, .L242+144
	add	r9, r0, r9
.LVL93:
	.loc 1 552 0
	cmp	r2, r5
	.loc 1 547 0
	str	r9, [r3]
	.loc 1 546 0
	str	r0, [fp]
	.loc 1 552 0
	bcs	.L58
.L64:
	.loc 1 556 0
	ldr	r3, [r2, #4]
	ldr	r1, [r2, #56]
	mov	r3, r3, asl #2
	add	ip, r1, r3
	cmp	r6, ip
	movhi	lr, #0
	movls	lr, #1
	cmp	r7, ip
	movcc	lr, #0
	cmp	lr, #0
	rsbne	r1, r6, r1
	addne	r1, r0, r1
	strne	r1, [r2, #56]
	.loc 1 557 0
	ldr	r1, [r2, #48]
	.loc 1 552 0
	add	r2, r2, #60
.LVL94:
	.loc 1 557 0
	add	ip, r1, r3
	cmp	r6, ip
	movhi	lr, #0
	movls	lr, #1
	cmp	r7, ip
	movcc	lr, #0
	cmp	lr, #0
	rsbne	r1, r6, r1
	addne	r1, r0, r1
	strne	r1, [r2, #-12]
	.loc 1 558 0
	ldr	r1, [r2, #-8]
	add	r3, r1, r3
	cmp	r6, r3
	movhi	ip, #0
	movls	ip, #1
	cmp	r7, r3
	movcc	ip, #0
	cmp	ip, #0
	rsbne	r1, r6, r1
	addne	r1, r0, r1
	strne	r1, [r2, #-8]
.LVL95:
	.loc 1 552 0
	cmp	r2, r5
	bcc	.L64
	str	r8, [sp]
.LVL96:
.L58:
.LBE218:
.LBE234:
	.loc 1 567 0
	ldr	r2, .L242+56
	ldr	r3, .L242+60
	ldr	r10, [sp, #12]
	ldr	r9, [r3]
	ldr	r0, [r2, r10, asl #2]
	.loc 1 566 0
	ldr	r6, .L242+52
.LVL97:
	.loc 1 567 0
	add	r0, r9, r0
	bl	R_ScaleFromGlobalAngle
.LVL98:
	.loc 1 569 0
	ldr	r2, [sp]
	.loc 1 567 0
	mov	r7, r0
	.loc 1 569 0
	cmp	r10, r2
	.loc 1 566 0
	str	r0, [r4, #20]
	str	r0, [r5, #12]
	.loc 1 575 0
	strge	r0, [r5, #16]
	.loc 1 569 0
	bge	.L66
	.loc 1 571 0
	ldr	r3, .L242+56
	mov	r8, r2
	ldr	r0, [r3, r2, asl #2]
	add	r0, r9, r0
	bl	R_ScaleFromGlobalAngle
.LVL99:
	.loc 1 572 0
	ldr	r3, [sp, #12]
	.loc 1 571 0
	str	r0, [r5, #16]
	.loc 1 572 0
	rsb	r1, r3, r8
	rsb	r0, r7, r0
	bl	__aeabi_idiv
.LVL100:
	str	r0, [r6, #8]
	str	r0, [r5, #20]
.L66:
	.loc 1 583 0
	mov	r1, #0
	.loc 1 580 0
	ldr	r3, .L242+64
	ldr	r2, .L242+68
	ldr	r6, [r3]
	.loc 1 586 0
	ldr	ip, .L242+72
	.loc 1 580 0
	ldr	r3, [r6, #16]
	.loc 1 581 0
	ldr	r0, [r6, #12]
	.loc 1 580 0
	ldr	r2, [r2]
	.loc 1 586 0
	ldr	fp, [ip]
	.loc 1 580 0
	rsb	r10, r2, r3
	str	r3, [sp, #32]
	.loc 1 586 0
	cmp	fp, r1
	.loc 1 581 0
	rsb	r3, r2, r0
	str	r3, [sp]
	str	r3, [r4, #28]
	str	r0, [sp, #24]
	.loc 1 580 0
	str	r10, [r4, #24]
	.loc 1 583 0
	str	r1, [r4, #32]
	str	r1, [r4, #36]
	str	r1, [r4, #40]
	str	r1, [r4, #44]
	.loc 1 584 0
	str	r1, [r5, #56]
	.loc 1 580 0
	ldr	r3, .L242+52
	.loc 1 586 0
	beq	.L229
	.loc 1 617 0
	ldr	r3, .L242+120
	.loc 1 614 0
	str	r1, [r5, #52]
	.loc 1 617 0
	ldr	r3, [r3]
	ldrb	r3, [r3, #84]	@ zero_extendqisi2
	.loc 1 614 0
	str	r1, [r5, #48]
	.loc 1 617 0
	tst	r3, #16
	.loc 1 615 0
	str	r1, [r5, #24]
	.loc 1 617 0
	beq	.L74
	.loc 1 628 0
	mvn	r3, #-2147483648
	.loc 1 626 0
	mov	r1, #3
	.loc 1 630 0
	mov	r0, #-2147483648
	.loc 1 628 0
	str	r3, [r5, #28]
	.loc 1 629 0
	ldr	r3, .L242+128
	.loc 1 626 0
	str	r1, [r5, #24]
	.loc 1 627 0
	ldr	r1, .L242+132
	.loc 1 630 0
	str	r0, [r5, #32]
	.loc 1 629 0
	str	r3, [r5, #48]
	ldr	r0, [fp, #12]
	ldr	r3, [fp, #16]
	.loc 1 627 0
	str	r1, [r5, #52]
.L75:
	.loc 1 663 0
	ldr	r1, .L242+76
	ldrsh	ip, [r6, #186]
	ldr	r8, [r1]
	.loc 1 660 0
	rsb	r7, r2, r0
	.loc 1 659 0
	rsb	r1, r2, r3
	.loc 1 663 0
	cmp	ip, r8
	.loc 1 659 0
	str	r1, [r4, #64]
	.loc 1 660 0
	str	r7, [r4, #68]
	.loc 1 659 0
	ldr	lr, .L242+52
	.loc 1 663 0
	beq	.L79
.L81:
	ldr	r10, [r4, #24]
.L80:
	.loc 1 680 0
	ldr	lr, [sp]
	cmp	lr, r7
	beq	.L230
.L222:
	ldr	lr, [r6, #128]
	str	lr, [sp, #36]
	mov	lr, #1
.L83:
	.loc 1 697 0
	cmp	r1, r10
	.loc 1 667 0
	str	lr, [r4, #56]
	.loc 1 697 0
	beq	.L231
.L171:
	mov	ip, #1
.L88:
	.loc 1 700 0
	ldr	lr, [sp, #24]
	.loc 1 683 0
	str	ip, [r4, #52]
	.loc 1 700 0
	cmp	lr, r3
	bge	.L89
	.loc 1 701 0
	ldr	ip, [sp, #32]
	cmp	ip, r0
	bgt	.L90
.L89:
	.loc 1 702 0
	mov	r0, #1
	str	r0, [r4, #56]
	str	r0, [r4, #52]
.L90:
	.loc 1 704 0
	cmp	r1, r10
	blt	.L91
	ldr	r3, .L242+112
	ldr	r8, [r3]
.L92:
	.loc 1 713 0
	ldr	r3, [sp]
	cmp	r3, r7
	bge	.L98
	.loc 1 716 0
	ldr	r3, .L242+120
	.loc 1 715 0
	ldr	r2, .L242+116
	.loc 1 716 0
	ldr	r3, [r3]
	.loc 1 715 0
	ldrsh	r0, [r8, #10]
	.loc 1 716 0
	ldrb	r1, [r3, #84]	@ zero_extendqisi2
	.loc 1 715 0
	ldr	r2, [r2]
	.loc 1 716 0
	tst	r1, #4
	movne	r1, #0
	.loc 1 715 0
	ldr	r2, [r2, r0, asl #2]
	.loc 1 716 0
	ldreq	r1, .L242+124
	ldrne	r0, .L242+124
	ldreq	r1, [r1]
	ldrne	r0, [r0]
	ldreq	r9, [r1, r2, asl #2]
	ldrne	r9, [r0, r2, asl #2]
	.loc 1 715 0
	str	r2, [r4, #36]
	.loc 1 717 0
	ldrh	r2, [r3, #20]
	.loc 1 716 0
	moveq	r1, r9, asr #16
.LBB235:
.LBB236:
	.loc 2 95 0
	sub	r3, r9, #1
.LBE236:
.LBE235:
	tst	r2, #16
	.loc 1 719 0
	ldr	r0, [r8, #4]
.LVL101:
	movne	r7, r10
.LBB240:
.LBB238:
	.loc 2 95 0
	tst	r3, r9
.LBE238:
.LBE240:
	.loc 1 716 0
	str	r1, [r4, #80]
.LBB241:
.LBB239:
	.loc 2 99 0
	andeq	r1, r3, r0
	.loc 2 95 0
	beq	.L103
.LBB237:
	.loc 2 96 0
	mov	r1, r9
	bl	__aeabi_idivmod
.LVL102:
	.loc 2 97 0
	cmp	r1, #0
	addlt	r1, r1, r9
.LVL103:
.L103:
.LBE237:
.LBE239:
.LBE241:
	.loc 1 719 0
	add	r7, r7, r1
	str	r7, [r4, #84]
.LVL104:
.L98:
	.loc 1 723 0
	ldrsh	r3, [r8, #12]
	cmp	r3, #0
	bne	.L104
	ldr	r7, [r4, #44]
	ldr	r0, [r4, #40]
	ldr	r2, [r4, #36]
	ldr	r3, [r4, #32]
.L73:
	.loc 1 732 0
	orr	r7, r0, r7
	orr	r7, r7, r2
	orr	r3, r7, r3
	.loc 1 734 0
	cmp	r3, #0
	.loc 1 732 0
	str	r3, [r4, #88]
	ldr	ip, .L242+52
	.loc 1 734 0
	bne	.L105
	ldr	r0, [ip, #92]
	ldr	r1, [ip, #96]
.L106:
	.loc 1 748 0
	ldr	r3, .L242+48
	.loc 1 755 0
	ldr	r2, [sp, #36]
	.loc 1 748 0
	ldr	r3, [r3]
	.loc 1 755 0
	cmn	r2, #1
	.loc 1 747 0
	str	r0, [r5, #36]
	.loc 1 749 0
	str	r1, [r5, #44]
	.loc 1 748 0
	str	r3, [r5, #40]
	.loc 1 755 0
	beq	.L232
.L111:
	ldr	lr, [r4, #52]
.L108:
	.loc 1 768 0
	ldr	r2, [r4, #8]
.LVL105:
	.loc 1 765 0
	mov	r10, r10, asr #4
.LVL106:
.LBB242:
.LBB243:
	.loc 2 72 0
	smull	r6, r7, r2, r10
.LBE243:
.LBE242:
	.loc 1 766 0
	ldr	r3, [sp]
	.loc 1 769 0
	ldr	ip, [r4, #20]
.LVL107:
	.loc 1 766 0
	mov	r3, r3, asr #4
.LBB245:
.LBB246:
	.loc 2 72 0
	smull	r8, r9, r2, r3
.LBE246:
.LBE245:
.LBB250:
.LBB251:
	smull	r0, r1, r10, ip
.LBE251:
.LBE250:
.LBB254:
.LBB244:
	mov	r5, r6, lsr #16
	orr	r5, r5, r7, asl #16
.LBE244:
.LBE254:
	.loc 1 769 0
	ldr	r7, .L242+80
	.loc 1 768 0
	rsb	r6, r5, #0
.LBB255:
.LBB247:
	.loc 2 72 0
	strd	r8, [sp]
.LBE247:
.LBE255:
	.loc 1 769 0
	ldr	r5, [r7]
.LBB256:
.LBB257:
	.loc 2 72 0
	smull	r8, r9, ip, r3
.LBE257:
.LBE256:
.LBB260:
.LBB252:
	mov	r0, r0, lsr #16
.LBE252:
.LBE260:
	.loc 1 769 0
	mov	r5, r5, asr #4
.LBB261:
.LBB253:
	.loc 2 72 0
	orr	r0, r0, r1, asl #16
.LBE253:
.LBE261:
	.loc 1 769 0
	rsb	r0, r0, r5
	.loc 1 768 0
	str	r6, [r4, #100]
	.loc 1 769 0
	str	r0, [r4, #104]
.LVL108:
.LBB262:
.LBB248:
	.loc 2 72 0
	ldrd	r6, [sp]
.LBE248:
.LBE262:
.LBB263:
.LBB258:
	mov	r0, r8, lsr #16
.LBE258:
.LBE263:
.LBB264:
.LBB249:
	mov	r1, r6, lsr #16
	orr	r1, r1, r7, asl #16
.LBE249:
.LBE264:
.LBB265:
.LBB259:
	orr	r0, r0, r9, asl #16
.LBE259:
.LBE265:
	.loc 1 771 0
	rsb	r1, r1, #0
	.loc 1 772 0
	rsb	r0, r0, r5
	.loc 1 774 0
	cmp	fp, #0
	.loc 1 765 0
	str	r10, [r4, #24]
	.loc 1 766 0
	str	r3, [r4, #28]
	.loc 1 771 0
	str	r1, [r4, #108]
.LVL109:
	.loc 1 772 0
	str	r0, [r4, #112]
	.loc 1 765 0
	ldr	r8, .L242+52
	.loc 1 774 0
	beq	.L113
	.loc 1 776 0
	ldr	r0, [r8, #64]
	.loc 1 777 0
	ldr	r9, [r8, #68]
	.loc 1 776 0
	mov	r0, r0, asr #4
	.loc 1 777 0
	mov	r9, r9, asr #4
	.loc 1 779 0
	cmp	r10, r0
	.loc 1 776 0
	str	r0, [r8, #64]
	.loc 1 777 0
	str	r9, [r8, #68]
	.loc 1 779 0
	ble	.L114
.LVL110:
.LBB266:
.LBB267:
	.loc 2 72 0
	smull	r6, r7, ip, r0
.LBE267:
.LBE266:
.LBB270:
.LBB271:
	smull	r0, r1, r2, r0
.LVL111:
.LBE271:
.LBE270:
.LBB274:
.LBB268:
	mov	r6, r6, lsr #16
.LBE268:
.LBE274:
.LBB275:
.LBB272:
	mov	r0, r0, lsr #16
.LBE272:
.LBE275:
.LBB276:
.LBB269:
	orr	r6, r6, r7, asl #16
.LBE269:
.LBE276:
.LBB277:
.LBB273:
	orr	r0, r0, r1, asl #16
.LBE273:
.LBE277:
	.loc 1 781 0
	rsb	r6, r6, r5
	.loc 1 782 0
	rsb	r0, r0, #0
	.loc 1 781 0
	str	r6, [r8, #116]
.LVL112:
	.loc 1 782 0
	str	r0, [r8, #120]
.LVL113:
.L114:
	.loc 1 784 0
	cmp	r3, r9
	bge	.L113
.LVL114:
.LBB278:
.LBB279:
	.loc 2 72 0
	smull	r0, r1, ip, r9
.LBE279:
.LBE278:
.LBB282:
.LBB283:
	smull	r2, r3, r2, r9
.LVL115:
.LBE283:
.LBE282:
.LBB286:
.LBB280:
	mov	r0, r0, lsr #16
.LBE280:
.LBE286:
.LBB287:
.LBB284:
	mov	r2, r2, lsr #16
.LBE284:
.LBE287:
.LBB288:
.LBB281:
	orr	r0, r0, r1, asl #16
.LBE281:
.LBE288:
.LBB289:
.LBB285:
	orr	r2, r2, r3, asl #16
.LBE285:
.LBE289:
	.loc 1 786 0
	rsb	r5, r0, r5
	.loc 1 787 0
	rsb	r2, r2, #0
	.loc 1 786 0
	str	r5, [r4, #124]
.LVL116:
	.loc 1 787 0
	str	r2, [r4, #128]
.LVL117:
.L113:
	.loc 1 792 0
	cmp	lr, #0
	beq	.L116
	.loc 1 793 0
	ldr	r5, .L242+84
	ldr	r0, [r5]
	cmp	r0, #0
	.loc 1 796 0
	streq	r0, [r4, #52]
	.loc 1 793 0
	beq	.L116
	.loc 1 794 0
	ldr	r2, [r4, #16]
	ldr	r1, [r4, #12]
	sub	r2, r2, #1
	bl	R_CheckPlane
.LVL118:
	str	r0, [r5]
.L116:
	.loc 1 799 0
	ldr	r3, [r4, #56]
	ldr	r1, .L242+52
	cmp	r3, #0
	beq	.L118
	.loc 1 800 0
	ldr	r5, .L242+88
	ldr	r0, [r5]
	cmp	r0, #0
	.loc 1 812 0
	streq	r0, [r1, #56]
	.loc 1 800 0
	beq	.L118
	.loc 1 807 0
	ldr	r3, [r1, #52]
	cmp	r3, #0
	beq	.L120
	.loc 1 807 0 is_stmt 0 discriminator 1
	ldr	r3, .L242+84
	ldr	r3, [r3]
	cmp	r0, r3
	beq	.L233
.L120:
	.loc 1 810 0 is_stmt 1
	ldr	r2, [r4, #16]
	ldr	r1, [r4, #12]
	sub	r2, r2, #1
	bl	R_CheckPlane
.LVL119:
	str	r0, [r5]
.L118:
	.loc 1 815 0
	mov	r5, #0
.LBB290:
.LBB291:
	.loc 1 268 0
	ldr	r7, .L242+92
	mov	r0, r5
	ldr	r1, [r7, #24]
	ldr	r2, [r7, #36]
.LBE291:
.LBE290:
	.loc 1 815 0
	str	r5, [r4, #132]
.LBB307:
.LBB304:
	.loc 1 268 0
	bl	R_GetDrawColumnFunc
.LVL120:
	str	r0, [sp]
.LVL121:
	.loc 1 272 0
	add	r0, sp, #52
.LVL122:
	bl	R_SetDefaultDrawColumnVars
.LVL123:
	.loc 1 274 0
	ldr	r1, .L242+96
	.loc 1 275 0
	ldr	r3, [r4, #12]
	.loc 1 274 0
	ldr	r2, [r1]
	.loc 1 275 0
	ldr	r10, [r4, #16]
.LVL124:
	.loc 1 274 0
	add	r2, r2, #1
	.loc 1 275 0
	cmp	r3, r10
	.loc 1 274 0
	str	r2, [r1]
.LBE304:
.LBE307:
	.loc 1 815 0
	ldr	r1, .L242+52
.LBB308:
.LBB305:
	.loc 1 275 0
	bge	.L121
.LBB292:
	.loc 1 326 0
	mov	r6, r1
	ldr	r2, [r1, #112]
	ldr	r8, .L242+140
	ldr	r1, [r1, #104]
	ldr	r9, .L242+136
	b	.L144
.LVL125:
.L237:
.LBB293:
	.loc 1 373 0
	ldr	r3, [r6, #12]
	.loc 1 370 0
	ldr	r1, [r6, #116]
	.loc 1 373 0
	ldr	ip, [r9, r3, asl #2]
	.loc 1 370 0
	mov	r2, r1, asr #12
.LVL126:
	.loc 1 373 0
	cmp	r2, ip
	.loc 1 371 0
	ldr	lr, [r6, #120]
	.loc 1 374 0
	subge	r2, ip, #1
.LVL127:
	.loc 1 371 0
	add	r1, r1, lr
	.loc 1 376 0
	cmp	r2, r10
	.loc 1 371 0
	str	r1, [r6, #116]
	.loc 1 376 0
	bge	.L234
.LVL128:
.L136:
.LBE293:
	.loc 1 398 0
	sub	r10, r10, #1
.LVL129:
	str	r10, [r8, r3, asl #2]
.LVL130:
.L135:
	.loc 1 401 0
	ldr	r0, [r4, #36]
	cmp	r0, #0
	beq	.L137
.L238:
.LBB294:
	.loc 1 403 0
	ldr	r1, [r6, #124]
	.loc 1 407 0
	ldr	ip, [r8, r3, asl #2]
	.loc 1 403 0
	add	r2, r1, #4080
	add	r2, r2, #15
	mov	r2, r2, asr #12
.LVL131:
	.loc 1 407 0
	cmp	r2, ip
	.loc 1 404 0
	ldr	lr, [r6, #128]
	.loc 1 408 0
	addle	r2, ip, #1
.LVL132:
	.loc 1 404 0
	add	r1, r1, lr
	.loc 1 410 0
	cmp	r2, fp
	.loc 1 404 0
	str	r1, [r6, #124]
	.loc 1 410 0
	ble	.L235
.LVL133:
.L223:
.LBE294:
	.loc 1 431 0
	add	fp, fp, #1
.LVL134:
	str	fp, [r9, r3, asl #2]
.LVL135:
.L140:
	.loc 1 436 0
	ldr	r2, [r4, #52]
	cmp	r2, #0
	bne	.L142
	ldr	r2, [r6, #56]
	cmp	r2, #0
	beq	.L143
.L142:
	.loc 1 437 0
	ldr	r2, [r8, r3, asl #2]
	.loc 1 436 0
	ldr	r1, [r9, r3, asl #2]
	.loc 1 437 0
	add	r2, r2, #1
	.loc 1 436 0
	cmp	r1, r2
	.loc 1 438 0
	movle	r2, #1
	ldrle	r1, .L242+100
	strle	r2, [r4, #132]
	strleb	r2, [r1, r3]
.L143:
	.loc 1 442 0
	ldr	r2, [r4, #32]
	cmp	r2, #0
	.loc 1 443 0
	ldrne	r2, [r6, #4]
	strne	r5, [r2, r3, asl #2]
.L131:
	.loc 1 446 0
	ldr	ip, [r4, #20]
	.loc 1 447 0
	ldr	r1, [r4, #104]
	ldr	r2, [r4, #100]
	.loc 1 446 0
	ldr	r0, [r4, #8]
	.loc 1 447 0
	add	r1, r1, r2
	.loc 1 446 0
	add	r0, ip, r0
	.loc 1 448 0
	ldr	r2, [r4, #108]
	ldr	ip, [r4, #112]
.LBE292:
	.loc 1 275 0
	ldr	r10, [r4, #16]
	add	r3, r3, #1
.LBB300:
	.loc 1 448 0
	add	r2, ip, r2
.LBE300:
	.loc 1 275 0
	cmp	r3, r10
	str	r3, [r4, #12]
.LBB301:
	.loc 1 446 0
	str	r0, [r4, #20]
	.loc 1 447 0
	str	r1, [r4, #104]
	.loc 1 448 0
	str	r2, [r4, #112]
.LBE301:
	.loc 1 275 0
	bge	.L121
.LVL136:
.L144:
.LBB302:
	.loc 1 281 0
	add	r0, r1, #4080
	.loc 1 284 0
	ldr	r1, [r8, r3, asl #2]
	.loc 1 281 0
	add	r0, r0, #15
	mov	r0, r0, asr #12
	.loc 1 284 0
	add	r1, r1, #1
	.loc 1 289 0
	ldr	ip, [r4, #52]
	cmp	r1, r0
	movge	r10, r1
	movlt	r10, r0
	cmp	ip, #0
	.loc 1 280 0
	mov	r2, r2, asr #12
.LVL137:
	.loc 1 293 0
	ldr	ip, [r9, r3, asl #2]
	.loc 1 289 0
	beq	.L123
	.loc 1 291 0
	sub	r0, r10, #1
.LVL138:
	.loc 1 293 0
	cmp	r0, ip
	.loc 1 294 0
	subge	r0, ip, #1
.LVL139:
	.loc 1 296 0
	cmp	r1, r0
	bgt	.L125
	.loc 1 298 0
	ldr	ip, .L242+84
	.loc 1 299 0
	ldr	fp, [r4, #12]
	.loc 1 298 0
	ldr	ip, [ip]
	add	lr, ip, r3, asl #2
	.loc 1 299 0
	add	ip, ip, fp, asl #2
	.loc 1 298 0
	str	r1, [lr, #36]
	.loc 1 299 0
	str	r0, [ip, #1644]
	ldr	ip, [r9, r3, asl #2]
.L125:
	.loc 1 302 0
	str	r0, [r8, r3, asl #2]
.LVL140:
.L123:
	.loc 1 307 0
	sub	r1, ip, #1
.LVL141:
	.loc 1 311 0
	ldr	r0, [r4, #56]
	cmp	r1, r2
	movlt	fp, r1
	movge	fp, r2
.LVL142:
	cmp	r0, #0
	beq	.L126
	.loc 1 314 0
	ldr	r2, [r8, r3, asl #2]
	cmp	fp, r2
	movge	r2, fp
.LVL143:
	.loc 1 316 0
	add	r2, r2, #1
.LVL144:
	cmp	r1, r2
	ldrge	r0, .L242+88
	ldrge	r0, [r0]
	addge	r0, r0, r3, asl #2
	.loc 1 318 0
	strge	r2, [r0, #36]
	.loc 1 319 0
	strge	r1, [r0, #1644]
	.loc 1 322 0
	str	r2, [r9, r3, asl #2]
.LVL145:
.L126:
	.loc 1 326 0
	ldr	r2, [r4, #88]
	cmp	r2, #0
	beq	.L128
.LVL146:
.LBB295:
	.loc 1 329 0
	ldr	r2, .L242+56
	ldr	r1, [r6, #96]
.LVL147:
	ldr	r3, [r2, r3, asl #2]
.LVL148:
	.loc 1 331 0
	ldr	r2, .L242+48
	.loc 1 329 0
	add	r3, r3, r1
	.loc 1 331 0
	ldr	r1, .L242+104
	.loc 1 329 0
	mov	r3, r3, lsr #19
	.loc 1 331 0
	ldr	r3, [r1, r3, asl #2]
.LVL149:
	ldr	r2, [r2]
.LVL150:
	.loc 1 332 0
	ldr	r1, [r7, #24]
.LBB296:
.LBB297:
	.loc 2 72 0
	smull	r2, r3, r3, r2
.LVL151:
	mov	r5, r2, lsr #16
.LVL152:
	orr	r5, r5, r3, asl #16
.LBE297:
.LBE296:
	.loc 1 331 0
	ldr	r3, [r6, #92]
.LVL153:
	.loc 1 332 0
	cmp	r1, #2
	.loc 1 331 0
	rsb	r5, r5, r3
.LVL154:
	.loc 1 333 0
	subeq	r5, r5, #32768
.LVL155:
	.loc 1 337 0
	ldr	r1, [r4, #20]
	ldr	r0, [r4]
	.loc 1 334 0
	str	r5, [sp, #80]
	.loc 1 337 0
	bl	R_ColourMap
.LVL156:
	.loc 1 338 0
	ldr	r3, [r4]
	.loc 1 337 0
	str	r0, [sp, #96]
	.loc 1 338 0
	ldr	r1, [r4, #20]
	add	r0, r3, #1
	bl	R_ColourMap
.LVL157:
	.loc 1 339 0
	ldr	r3, [r4, #20]
	.loc 1 341 0
	ldr	r2, [r4, #12]
	.loc 1 338 0
	str	r0, [sp, #100]
	.loc 1 342 0
	mov	r1, r3
	mvn	r0, #0
	.loc 1 339 0
	str	r3, [sp, #64]
	.loc 1 341 0
	str	r2, [sp, #52]
	.loc 1 342 0
	bl	__aeabi_uidiv
.LVL158:
	.loc 1 335 0
	mov	r5, r5, asr #16
.LVL159:
	.loc 1 342 0
	str	r0, [sp, #68]
.L128:
.LBE295:
	.loc 1 346 0
	ldr	r0, [r4, #44]
	cmp	r0, #0
	bne	.L236
	.loc 1 367 0
	ldr	r0, [r6, #40]
	cmp	r0, #0
	bne	.L237
	.loc 1 397 0
	ldr	r3, [r6, #52]
	cmp	r3, #0
	.loc 1 398 0
	ldr	r3, [r6, #12]
	.loc 1 397 0
	bne	.L136
	.loc 1 401 0
	ldr	r0, [r4, #36]
	cmp	r0, #0
	bne	.L238
.LVL160:
.L137:
	.loc 1 430 0
	ldr	r2, [r6, #56]
	cmp	r2, #0
	bne	.L223
	.loc 1 436 0
	ldr	r2, [r6, #52]
	cmp	r2, #0
	bne	.L142
	b	.L143
.LVL161:
.L227:
.LBE302:
.LBE305:
.LBE308:
.LBB309:
.LBB206:
.LBB204:
.LBB198:
	.loc 2 84 0
	eor	r0, r0, r6
.LVL162:
	mov	r0, r0, asr #31
	eor	r0, r0, #-2147483648
	mvn	r0, r0
	b	.L56
.LVL163:
.L236:
.LBE198:
.LBE204:
.LBE206:
.LBE309:
.LBB310:
.LBB306:
.LBB303:
	.loc 1 351 0
	ldr	r3, [r6, #60]
	.loc 1 349 0
	str	r10, [sp, #56]
	.loc 1 351 0
	str	r3, [sp, #72]
	.loc 1 350 0
	str	fp, [sp, #60]
	.loc 1 352 0
	bl	R_CacheTextureCompositePatchNum
.LVL164:
	.loc 1 353 0
	mov	r1, r5
	.loc 1 352 0
	mov	r10, r0
.LVL165:
	.loc 1 353 0
	bl	R_GetTextureColumn
.LVL166:
	.loc 1 354 0
	sub	r1, r5, #1
	.loc 1 353 0
	str	r0, [sp, #84]
	.loc 1 354 0
	mov	r0, r10
	bl	R_GetTextureColumn
.LVL167:
	.loc 1 355 0
	add	r1, r5, #1
	.loc 1 354 0
	str	r0, [sp, #88]
	.loc 1 355 0
	mov	r0, r10
	bl	R_GetTextureColumn
.LVL168:
	.loc 1 356 0
	ldr	r3, [r6, #48]
	.loc 1 355 0
	str	r0, [sp, #92]
	.loc 1 356 0
	str	r3, [sp, #76]
	.loc 1 357 0
	add	r0, sp, #52
	ldr	r3, [sp]
	blx	r3
.LVL169:
	.loc 1 358 0
	ldr	r0, [r6, #44]
	bl	R_UnlockTextureCompositePatchNum
.LVL170:
	.loc 1 361 0
	mvn	r1, #0
	.loc 1 360 0
	ldr	r2, .L242+108
	ldr	r3, [r6, #12]
	ldr	r2, [r2]
	.loc 1 361 0
	str	r1, [r9, r3, asl #2]
	.loc 1 360 0
	str	r2, [r8, r3, asl #2]
	b	.L131
.LVL171:
.L235:
.LBB298:
	.loc 1 414 0
	ldr	r3, [r4, #84]
	.loc 1 412 0
	str	r2, [sp, #56]
	str	r2, [sp, #24]
	.loc 1 414 0
	str	r3, [sp, #72]
	.loc 1 413 0
	str	fp, [sp, #60]
	.loc 1 415 0
	bl	R_CacheTextureCompositePatchNum
.LVL172:
	.loc 1 416 0
	mov	r1, r5
	.loc 1 415 0
	mov	r10, r0
.LVL173:
	.loc 1 416 0
	bl	R_GetTextureColumn
.LVL174:
	.loc 1 417 0
	sub	r1, r5, #1
	.loc 1 416 0
	str	r0, [sp, #84]
	.loc 1 417 0
	mov	r0, r10
	bl	R_GetTextureColumn
.LVL175:
	.loc 1 418 0
	add	r1, r5, #1
	.loc 1 417 0
	str	r0, [sp, #88]
	.loc 1 418 0
	mov	r0, r10
	bl	R_GetTextureColumn
.LVL176:
	.loc 1 419 0
	ldr	r3, [r4, #80]
	.loc 1 418 0
	str	r0, [sp, #92]
	.loc 1 419 0
	str	r3, [sp, #76]
	.loc 1 420 0
	add	r0, sp, #52
	ldr	r3, [sp]
	blx	r3
.LVL177:
	.loc 1 421 0
	ldr	r0, [r4, #36]
	bl	R_UnlockTextureCompositePatchNum
.LVL178:
	.loc 1 423 0
	ldr	r3, [r4, #12]
	ldr	r2, [sp, #24]
	str	r2, [r9, r3, asl #2]
	b	.L140
.LVL179:
.L234:
.LBE298:
.LBB299:
	.loc 1 380 0
	ldr	r3, [r4, #76]
	.loc 1 379 0
	str	r2, [sp, #60]
	str	r2, [sp, #24]
	.loc 1 380 0
	str	r3, [sp, #72]
	.loc 1 378 0
	str	r10, [sp, #56]
	.loc 1 381 0
	bl	R_CacheTextureCompositePatchNum
.LVL180:
	.loc 1 382 0
	mov	r1, r5
	.loc 1 381 0
	mov	r10, r0
.LVL181:
	.loc 1 382 0
	bl	R_GetTextureColumn
.LVL182:
	.loc 1 383 0
	sub	r1, r5, #1
	.loc 1 382 0
	str	r0, [sp, #84]
	.loc 1 383 0
	mov	r0, r10
	bl	R_GetTextureColumn
.LVL183:
	.loc 1 384 0
	add	r1, r5, #1
	.loc 1 383 0
	str	r0, [sp, #88]
	.loc 1 384 0
	mov	r0, r10
	bl	R_GetTextureColumn
.LVL184:
	.loc 1 385 0
	ldr	r3, [r4, #72]
	.loc 1 384 0
	str	r0, [sp, #92]
	.loc 1 385 0
	str	r3, [sp, #76]
	.loc 1 386 0
	add	r0, sp, #52
	ldr	r3, [sp]
	blx	r3
.LVL185:
	.loc 1 387 0
	ldr	r0, [r4, #40]
	bl	R_UnlockTextureCompositePatchNum
.LVL186:
	.loc 1 389 0
	ldr	r3, [r4, #12]
	ldr	r2, [sp, #24]
	str	r2, [r8, r3, asl #2]
	b	.L135
.LVL187:
.L121:
.LBE299:
.LBE303:
.LBE306:
.LBE310:
	.loc 1 819 0
	ldr	r3, .L242+72
	ldr	r1, [r3]
	cmp	r1, #0
	beq	.L147
	.loc 1 819 0 is_stmt 0 discriminator 1
	ldr	r3, [r4, #132]
	cmp	r3, #0
	beq	.L147
	.loc 1 820 0 is_stmt 1
	ldr	r3, .L242+8
	ldr	r3, [r3]
	ldr	r2, [r3, #24]
	tst	r2, #1
	.loc 1 822 0
	ldreq	r0, [r1, #12]
	.loc 1 821 0
	orreq	r2, r2, #1
	streq	r2, [r3, #24]
	.loc 1 822 0
	streq	r0, [r3, #28]
	.loc 1 824 0
	tst	r2, #2
	.loc 1 825 0
	orreq	r0, r2, #2
	.loc 1 826 0
	moveq	r2, r0
	ldreq	r1, [r1, #16]
	.loc 1 825 0
	streq	r0, [r3, #24]
	.loc 1 826 0
	streq	r1, [r3, #32]
.L149:
	ldr	r4, [r4, #32]
.L151:
	.loc 1 831 0 discriminator 3
	ldr	r1, [r3, #48]
	cmp	r1, #0
	beq	.L239
.L153:
	.loc 1 837 0
	tst	r2, #1
	bne	.L154
	.loc 1 837 0 is_stmt 0 discriminator 2
	cmp	r4, #0
	beq	.L155
.L154:
	.loc 1 837 0 discriminator 3
	ldr	r2, [r3, #52]
	cmp	r2, #0
	beq	.L240
.L156:
	.loc 1 843 0 is_stmt 1
	cmp	r4, #0
	beq	.L155
	.loc 1 843 0 is_stmt 0 discriminator 1
	ldr	r2, [r3, #24]
	tst	r2, #2
	.loc 1 846 0 is_stmt 1
	moveq	r1, #-2147483648
	.loc 1 845 0
	orreq	r2, r2, #2
	streq	r2, [r3, #24]
	.loc 1 846 0
	streq	r1, [r3, #32]
.L157:
	.loc 1 848 0
	tst	r2, #1
	.loc 1 851 0
	mvneq	r1, #-2147483648
	.loc 1 850 0
	orreq	r2, r2, #1
	streq	r2, [r3, #24]
	.loc 1 851 0
	streq	r1, [r3, #28]
.L155:
	.loc 1 853 0
	ldr	r2, .L242+8
	add	r3, r3, #60
	str	r3, [r2]
	.loc 1 854 0
	add	sp, sp, #124
	.cfi_remember_state
	.cfi_def_cfa_offset 36
.LVL188:
	@ sp needed
	ldmfd	sp!, {r4, r5, r6, r7, r8, r9, r10, fp, pc}
.LVL189:
.L147:
	.cfi_restore_state
	ldr	r3, .L242+8
	ldr	r3, [r3]
	ldr	r2, [r3, #24]
	.loc 1 831 0
	tst	r2, #2
	bne	.L149
	.loc 1 831 0 is_stmt 0 discriminator 2
	ldr	r4, [r4, #32]
	cmp	r4, #0
	bne	.L151
	.loc 1 837 0 is_stmt 1
	tst	r2, #1
	bne	.L154
	b	.L155
.LVL190:
.L105:
	.loc 1 736 0
	ldr	r3, [sp, #28]
	ldr	r2, [sp, #40]
.LBB311:
.LBB312:
	.loc 2 72 0
	ldrd	r8, [sp, #16]
.LBE312:
.LBE311:
	.loc 1 736 0
	ldr	r2, [r3, r2, asl #2]
	.loc 1 738 0
	ldr	r3, .L242+112
	.loc 1 736 0
	rsb	r2, r2, #0
.LBB317:
.LBB313:
	.loc 2 72 0
	mul	lr, r2, r9
	mov	r1, r2, asr #31
	mla	lr, r8, r1, lr
.LBE313:
.LBE317:
	.loc 1 738 0
	ldr	r1, .L242+12
	ldr	r7, [r3]
.LBB318:
.LBB314:
	.loc 2 72 0
	umull	r2, r3, r2, r8
.LBE314:
.LBE318:
	.loc 1 738 0
	ldr	r1, [r1]
.LBB319:
.LBB315:
	.loc 2 72 0
	add	r3, lr, r3
.LBE315:
.LBE319:
	.loc 1 738 0
	ldr	r0, [r1, #8]
	ldr	r1, .L242+60
	.loc 1 740 0
	ldr	lr, .L242+20
	.loc 1 738 0
	ldr	r7, [r7]
	ldr	r1, [r1]
	.loc 1 740 0
	ldr	lr, [lr]
.LBB320:
.LBB316:
	.loc 2 72 0
	mov	r2, r2, lsr #16
	orr	r2, r2, r3, asl #16
.LBE316:
.LBE320:
	.loc 1 738 0
	add	r0, r7, r0
	add	r1, r1, #1073741824
	.loc 1 742 0
	ldrsh	r3, [r6, #188]
	.loc 1 740 0
	rsb	r1, lr, r1
	.loc 1 738 0
	add	r0, r0, r2
	.loc 1 740 0
	str	r1, [ip, #96]
	.loc 1 738 0
	str	r0, [ip, #92]
	.loc 1 742 0
	str	r3, [ip]
	b	.L106
.LVL191:
.L104:
	.loc 1 725 0
	mov	r1, #1
	.loc 1 726 0
	ldr	ip, .L242+144
	ldr	r2, [r4, #12]
	.loc 1 727 0
	ldr	r0, [r4, #16]
	.loc 1 726 0
	ldr	ip, [ip]
	.loc 1 727 0
	rsb	r0, r2, r0
	add	r0, ip, r0, asl #2
	.loc 1 726 0
	sub	r2, ip, r2, asl #2
	.loc 1 727 0
	ldr	ip, .L242+144
	.loc 1 726 0
	str	r2, [r4, #4]
	.loc 1 727 0
	str	r0, [ip]
	.loc 1 726 0
	str	r2, [r5, #56]
	.loc 1 727 0
	mov	r3, r1
	ldr	r7, [r4, #44]
	ldr	r0, [r4, #40]
	ldr	r2, [r4, #36]
	.loc 1 725 0
	str	r1, [r4, #32]
	b	.L73
.L91:
	.loc 1 706 0
	ldr	r1, .L242+112
	ldr	r0, .L242+116
	ldr	r8, [r1]
	.loc 1 707 0
	ldr	r1, .L242+120
	.loc 1 706 0
	ldr	lr, [r0]
	.loc 1 707 0
	ldr	r1, [r1]
	.loc 1 706 0
	ldrsh	ip, [r8, #8]
	.loc 1 707 0
	ldrb	r0, [r1, #84]	@ zero_extendqisi2
	.loc 1 706 0
	ldr	r9, [lr, ip, asl #2]
	.loc 1 707 0
	tst	r0, #1
	movne	lr, #0
	ldr	r0, .L242+124
	.loc 1 708 0
	ldrh	r1, [r1, #20]
	.loc 1 707 0
	ldreq	r0, [r0]
	ldrne	r0, [r0]
	.loc 1 706 0
	str	r9, [r4, #40]
	.loc 1 707 0
	ldreq	r9, [r0, r9, asl #2]
	ldrne	r9, [r0, r9, asl #2]
	moveq	lr, r9, asr #16
	.loc 1 708 0
	tst	r1, #8
	.loc 1 709 0
	ldreq	r1, [r0, ip, asl #2]
	.loc 1 710 0
	ldr	r0, [r8, #4]
.LVL192:
	.loc 1 709 0
	addeq	r3, r3, r1
.LBB321:
.LBB322:
	.loc 2 95 0
	sub	r1, r9, #1
.LBE322:
.LBE321:
	.loc 1 708 0
	rsbeq	r2, r2, r3
	movne	r2, r10
.LBB326:
.LBB324:
	.loc 2 95 0
	tst	r1, r9
.LBE324:
.LBE326:
	.loc 1 707 0
	str	lr, [r4, #72]
.LBB327:
.LBB325:
	.loc 2 99 0
	andeq	r1, r1, r0
	.loc 2 95 0
	beq	.L97
.LBB323:
	.loc 2 96 0
	mov	r1, r9
	str	r2, [sp, #44]
	bl	__aeabi_idivmod
.LVL193:
	.loc 2 97 0
	ldr	r2, [sp, #44]
	cmp	r1, #0
	addlt	r1, r1, r9
.LVL194:
.L97:
.LBE323:
.LBE325:
.LBE327:
	.loc 1 710 0
	add	r2, r2, r1
	str	r2, [r4, #76]
	b	.L92
.LVL195:
.L74:
	.loc 1 634 0
	ldr	r0, [fp, #12]
	ldr	r3, [sp, #24]
	cmp	r3, r0
	ble	.L76
	.loc 1 636 0
	mov	r3, #1
	.loc 1 637 0
	ldr	r1, [sp, #24]
	.loc 1 636 0
	str	r3, [r5, #24]
	.loc 1 637 0
	str	r1, [r5, #28]
.L77:
	.loc 1 646 0
	ldr	r3, [fp, #16]
	ldr	r1, [sp, #32]
	cmp	r1, r3
	bge	.L78
	.loc 1 648 0
	ldr	r1, [r5, #24]
	.loc 1 649 0
	ldr	ip, [sp, #32]
	.loc 1 648 0
	orr	r1, r1, #2
	.loc 1 649 0
	str	ip, [r5, #32]
	.loc 1 648 0
	str	r1, [r5, #24]
	b	.L75
.LVL196:
.L228:
.LBB328:
.LBB207:
.LBB205:
.LBB203:
	.loc 2 84 0
	eor	r2, r2, r6
.LVL197:
	mov	r2, r2, asr #31
	eor	r2, r2, #-2147483648
	mvn	r2, r2
	mov	r0, r2
.LVL198:
	mov	r1, r2, asr #31
.LVL199:
	strd	r0, [sp, #16]
	b	.L53
.LVL200:
.L232:
.LBE203:
.LBE205:
.LBE207:
.LBE328:
	.loc 1 757 0
	ldr	r3, .L242+68
	ldr	r2, [sp, #24]
	ldr	r3, [r3]
	cmp	r2, r3
	.loc 1 758 0
	movge	r2, #0
	strge	r2, [r4, #56]
	.loc 1 759 0
	ldr	r2, [sp, #32]
	cmp	r3, r2
	blt	.L111
	.loc 1 760 0 discriminator 1
	ldr	r3, .L242+76
	ldrsh	r2, [r6, #186]
	.loc 1 759 0 discriminator 1
	ldr	r3, [r3]
	cmp	r2, r3
	beq	.L111
	.loc 1 761 0
	mov	r3, #0
	mov	lr, r3
	str	r3, [r4, #52]
	b	.L108
.LVL201:
.L226:
	.loc 1 523 0
	cmp	r0, r3
	bne	.L52
	mov	r3, #0
	mov	r2, #0
	strd	r2, [sp, #16]
	ldr	r3, .L242+36
	str	r3, [sp, #28]
	b	.L53
.LVL202:
.L231:
	.loc 1 684 0
	ldrsh	lr, [fp, #186]
	cmp	lr, ip
	bne	.L171
	.loc 1 685 0
	ldrsh	r9, [fp, #188]
	ldrsh	lr, [r6, #188]
	cmp	r9, lr
	bne	.L171
	.loc 1 688 0
	ldr	r9, [fp, #168]
	ldr	lr, [r6, #168]
	cmp	r9, lr
	bne	.L171
	.loc 1 689 0
	ldr	r9, [fp, #172]
	ldr	lr, [r6, #172]
	cmp	r9, lr
	bne	.L171
	.loc 1 693 0
	ldr	lr, [sp, #36]
	cmp	ip, r8
	cmnne	lr, #1
	bne	.L171
	.loc 1 697 0 discriminator 2
	ldr	ip, [fp, #180]
	ldr	lr, [r6, #180]
	subs	ip, ip, lr
	movne	ip, #1
	b	.L88
.L230:
	.loc 1 668 0
	ldrsh	r9, [fp, #184]
	ldrsh	lr, [r6, #184]
	cmp	r9, lr
	bne	.L222
	.loc 1 669 0
	ldrsh	r9, [fp, #188]
	ldrsh	lr, [r6, #188]
	cmp	r9, lr
	bne	.L222
	.loc 1 672 0
	ldr	r9, [fp, #160]
	ldr	lr, [r6, #160]
	cmp	r9, lr
	bne	.L222
	.loc 1 673 0
	ldr	lr, [r6, #164]
	ldr	r9, [fp, #164]
	cmp	r9, lr
	ldr	lr, [r6, #128]
	str	lr, [sp, #36]
	beq	.L241
.L165:
	.loc 1 680 0
	mov	lr, #1
	b	.L83
.L79:
	.loc 1 664 0
	ldrsh	r9, [fp, #186]
	cmp	ip, r9
	bne	.L81
	.loc 1 659 0
	mov	r10, r1
	.loc 1 665 0
	str	r1, [lr, #24]
	b	.L80
.L78:
	.loc 1 652 0
	cmp	r2, r3
	.loc 1 655 0
	movgt	ip, #-2147483648
	.loc 1 654 0
	ldrgt	r1, [r5, #24]
	.loc 1 655 0
	strgt	ip, [r5, #32]
	.loc 1 654 0
	orrgt	r1, r1, #2
	strgt	r1, [r5, #24]
	b	.L75
.L243:
	.align	2
.L242:
	.word	maxdrawsegs
	.word	drawsegs
	.word	ds_p
	.word	curline
	.word	rw_angle1
	.word	rw_normalangle
	.word	viewx
	.word	viewy
	.word	tantoangle
	.word	finesine
	.word	openings
	.word	maxopenings
	.word	rw_distance
	.word	.LANCHOR0
	.word	xtoviewangle
	.word	viewangle
	.word	frontsector
	.word	viewz
	.word	backsector
	.word	skyflatnum
	.word	centeryfrac
	.word	ceilingplane
	.word	floorplane
	.word	drawvars
	.word	rendered_segs
	.word	solidcol
	.word	finetangent
	.word	viewheight
	.word	sidedef
	.word	texturetranslation
	.word	linedef
	.word	textureheight
	.word	screenheightarray
	.word	negonearray
	.word	floorclip
	.word	ceilingclip
	.word	lastopening
	.word	ds_p
.L76:
	.loc 1 640 0
	cmp	r2, r0
	.loc 1 642 0
	movlt	r1, #1
	.loc 1 643 0
	mvnlt	r3, #-2147483648
	.loc 1 642 0
	strlt	r1, [r5, #24]
	.loc 1 643 0
	strlt	r3, [r5, #28]
	b	.L77
.L229:
	.loc 1 589 0
	ldr	r1, .L242+112
	ldr	ip, .L242+116
	ldr	r9, [r1]
	.loc 1 590 0
	ldr	r1, .L242+120
	.loc 1 589 0
	ldr	lr, [ip]
	ldrsh	r0, [r9, #12]
	.loc 1 590 0
	ldr	r1, [r1]
	.loc 1 589 0
	ldr	r7, [lr, r0, asl #2]
	.loc 1 590 0
	ldrb	ip, [r1, #84]	@ zero_extendqisi2
	.loc 1 589 0
	str	r7, [r3, #44]
	.loc 1 590 0
	ldr	r3, .L242+124
	tst	ip, #2
	ldrne	ip, [r3]
	ldreq	ip, [r3]
	.loc 1 593 0
	mov	r3, #1
	.loc 1 590 0
	movne	lr, fp
	ldreq	r8, [ip, r7, asl #2]
	.loc 1 595 0
	ldrh	r1, [r1, #20]
	ldrne	r8, [ip, r7, asl #2]
	.loc 1 590 0
	moveq	lr, r8, asr #16
	.loc 1 595 0
	tst	r1, #16
	.loc 1 593 0
	str	r3, [r4, #52]
	str	r3, [r4, #56]
.LVL203:
.LBB329:
	.loc 1 597 0
	ldrne	r1, [sp, #24]
	ldrne	r3, [ip, r0, asl #2]
.LBE329:
	.loc 1 604 0
	ldr	r0, [r9, #4]
.LVL204:
.LBB330:
	.loc 1 597 0
	addne	r3, r1, r3
	.loc 1 599 0
	rsbne	r3, r2, r3
	strne	r3, [sp, #36]
.LBE330:
.LBB331:
.LBB332:
	.loc 2 95 0
	sub	r3, r8, #1
.LBE332:
.LBE331:
	streq	r10, [sp, #36]
.LBB336:
.LBB334:
	tst	r3, r8
.LBE334:
.LBE336:
	.loc 1 590 0
	str	lr, [r4, #48]
.LBB337:
.LBB335:
	.loc 2 99 0
	andeq	r1, r3, r0
	.loc 2 95 0
	beq	.L72
.LBB333:
	.loc 2 96 0
	mov	r1, r8
	bl	__aeabi_idivmod
.LVL205:
	.loc 2 97 0
	cmp	r1, #0
	addlt	r1, r1, r8
.LVL206:
.L72:
.LBE333:
.LBE335:
.LBE337:
	.loc 1 606 0
	mov	ip, #3
	.loc 1 609 0
	mvn	r0, #-2147483648
	.loc 1 610 0
	mov	r2, #-2147483648
	mov	r3, #0
	.loc 1 604 0
	ldr	lr, [sp, #36]
	.loc 1 606 0
	str	ip, [r5, #24]
	.loc 1 604 0
	add	r1, r1, lr
	str	r1, [r4, #60]
	.loc 1 607 0
	ldr	r1, .L242+128
	.loc 1 608 0
	ldr	ip, .L242+132
	.loc 1 607 0
	str	r1, [r5, #48]
	ldr	r1, [r6, #128]
	.loc 1 609 0
	str	r0, [r5, #28]
	.loc 1 610 0
	str	r2, [r5, #32]
	mov	r0, r3
	mov	r2, r3
	.loc 1 608 0
	str	ip, [r5, #52]
	str	r1, [sp, #36]
	b	.L73
.LVL207:
.L225:
.LBB338:
	.loc 1 483 0
	cmp	r3, #0
	movne	r7, r3, asl #1
	rsbne	r3, r7, r3, asl #5
	movne	r1, r3, asl #2
.LVL208:
	.loc 1 484 0
	mov	r0, r2
.LVL209:
	mov	r3, #0
	moveq	r1, #7680
	mov	r2, #1
	.loc 1 483 0
	moveq	r7, #128
.LVL210:
	.loc 1 484 0
	bl	Z_Realloc
.LVL211:
	.loc 1 485 0
	ldr	r3, .L242+148
	add	r5, r0, r4
	str	r5, [r3]
	.loc 1 484 0
	str	r0, [r10]
	.loc 1 486 0
	str	r7, [r6]
	b	.L46
.LVL212:
.L240:
.LBE338:
	.loc 1 839 0
	ldr	r3, [sp, #12]
	ldr	r1, .L242+136
	mov	r6, r3, asl #2
	rsb	r5, r3, r10
	ldr	r3, .L242+144
	mov	r5, r5, asl #2
	mov	r2, r5
	add	r1, r1, r6
	ldr	r0, [r3]
	bl	memcpy
.LVL213:
	.loc 1 840 0
	ldr	r3, .L242+144
	.loc 1 841 0
	ldr	r1, .L242+144
	.loc 1 840 0
	ldr	r2, [r3]
	ldr	r3, .L242+148
	.loc 1 841 0
	add	r5, r2, r5
	.loc 1 840 0
	ldr	r3, [r3]
	rsb	r2, r6, r2
	.loc 1 841 0
	str	r5, [r1]
	.loc 1 840 0
	str	r2, [r3, #52]
	b	.L156
.L239:
	.loc 1 833 0
	ldr	r2, [sp, #12]
	ldr	r3, .L242+140
	mov	r1, r2, asl #2
	mov	r6, r1
	rsb	r5, r2, r10
	add	r1, r3, r1
	ldr	r3, .L242+144
	mov	r5, r5, asl #2
	mov	r2, r5
	ldr	r0, [r3]
	bl	memcpy
.LVL214:
	.loc 1 834 0
	ldr	r3, .L242+144
	.loc 1 835 0
	ldr	r0, .L242+144
	.loc 1 834 0
	ldr	r2, [r3]
	ldr	r3, .L242+148
	.loc 1 835 0
	add	r5, r2, r5
	.loc 1 834 0
	ldr	r3, [r3]
	rsb	r1, r6, r2
	.loc 1 835 0
	str	r5, [r0]
	ldr	r2, [r3, #24]
	.loc 1 834 0
	str	r1, [r3, #48]
	b	.L153
.LVL215:
.L233:
	.loc 1 808 0
	ldr	r2, [r1, #16]
	ldr	r1, [r1, #12]
	sub	r2, r2, #1
	bl	R_DupPlane
.LVL216:
	str	r0, [r5]
	b	.L118
.LVL217:
.L241:
	.loc 1 677 0
	cmn	lr, #1
	bne	.L165
	.loc 1 680 0 discriminator 2
	ldr	lr, [fp, #176]
	ldr	r9, [r6, #176]
	subs	lr, lr, r9
	movne	lr, #1
	b	.L83
	.cfi_endproc
.LFE9:
	.size	R_StoreWallRange, .-R_StoreWallRange
	.comm	rw_distance,4,4
	.comm	rw_angle1,4,4
	.comm	rw_normalangle,4,4
	.bss
	.align	2
	.set	.LANCHOR0,. + 0
	.type	rw_lightlevel, %object
	.size	rw_lightlevel, 4
rw_lightlevel:
	.space	4
	.type	maskedtexturecol, %object
	.size	maskedtexturecol, 4
maskedtexturecol:
	.space	4
	.type	rw_scalestep, %object
	.size	rw_scalestep, 4
rw_scalestep:
	.space	4
	.type	rw_x, %object
	.size	rw_x, 4
rw_x:
	.space	4
	.type	rw_stopx, %object
	.size	rw_stopx, 4
rw_stopx:
	.space	4
	.type	rw_scale, %object
	.size	rw_scale, 4
rw_scale:
	.space	4
	.type	worldtop, %object
	.size	worldtop, 4
worldtop:
	.space	4
	.type	worldbottom, %object
	.size	worldbottom, 4
worldbottom:
	.space	4
	.type	maskedtexture, %object
	.size	maskedtexture, 4
maskedtexture:
	.space	4
	.type	bottomtexture, %object
	.size	bottomtexture, 4
bottomtexture:
	.space	4
	.type	toptexture, %object
	.size	toptexture, 4
toptexture:
	.space	4
	.type	midtexture, %object
	.size	midtexture, 4
midtexture:
	.space	4
	.type	midtexheight, %object
	.size	midtexheight, 4
midtexheight:
	.space	4
	.type	markceiling, %object
	.size	markceiling, 4
markceiling:
	.space	4
	.type	markfloor, %object
	.size	markfloor, 4
markfloor:
	.space	4
	.type	rw_midtexturemid, %object
	.size	rw_midtexturemid, 4
rw_midtexturemid:
	.space	4
	.type	worldhigh, %object
	.size	worldhigh, 4
worldhigh:
	.space	4
	.type	worldlow, %object
	.size	worldlow, 4
worldlow:
	.space	4
	.type	toptexheight, %object
	.size	toptexheight, 4
toptexheight:
	.space	4
	.type	rw_toptexturemid, %object
	.size	rw_toptexturemid, 4
rw_toptexturemid:
	.space	4
	.type	bottomtexheight, %object
	.size	bottomtexheight, 4
bottomtexheight:
	.space	4
	.type	rw_bottomtexturemid, %object
	.size	rw_bottomtexturemid, 4
rw_bottomtexturemid:
	.space	4
	.type	segtextured, %object
	.size	segtextured, 4
segtextured:
	.space	4
	.type	rw_offset, %object
	.size	rw_offset, 4
rw_offset:
	.space	4
	.type	rw_centerangle, %object
	.size	rw_centerangle, 4
rw_centerangle:
	.space	4
	.type	topstep, %object
	.size	topstep, 4
topstep:
	.space	4
	.type	topfrac, %object
	.size	topfrac, 4
topfrac:
	.space	4
	.type	bottomstep, %object
	.size	bottomstep, 4
bottomstep:
	.space	4
	.type	bottomfrac, %object
	.size	bottomfrac, 4
bottomfrac:
	.space	4
	.type	pixhigh, %object
	.size	pixhigh, 4
pixhigh:
	.space	4
	.type	pixhighstep, %object
	.size	pixhighstep, 4
pixhighstep:
	.space	4
	.type	pixlow, %object
	.size	pixlow, 4
pixlow:
	.space	4
	.type	pixlowstep, %object
	.size	pixlowstep, 4
pixlowstep:
	.space	4
	.type	didsolidcol, %object
	.size	didsolidcol, 4
didsolidcol:
	.space	4
	.text
.Letext0:
	.file 3 "c:/devl/prboom3ds/src/z_zone.h"
	.file 4 "c:/devl/prboom3ds/src/doomdef.h"
	.file 5 "c:\\devkitpro\\devkitarm\\lib\\gcc\\arm-none-eabi\\4.9.2\\include\\stddef.h"
	.file 6 "c:/devl/prboom3ds/src/doomtype.h"
	.file 7 "c:/devl/prboom3ds/src/tables.h"
	.file 8 "c:/devl/prboom3ds/src/d_think.h"
	.file 9 "c:/devl/prboom3ds/src/info.h"
	.file 10 "c:/devl/prboom3ds/src/p_pspr.h"
	.file 11 "c:/devl/prboom3ds/src/doomdata.h"
	.file 12 "c:/devl/prboom3ds/src/p_mobj.h"
	.file 13 "c:/devl/prboom3ds/src/r_defs.h"
	.file 14 "c:/devl/prboom3ds/src/d_player.h"
	.file 15 "c:/devl/prboom3ds/src/d_ticcmd.h"
	.file 16 "c:/devl/prboom3ds/src/doomstat.h"
	.file 17 "c:/devl/prboom3ds/src/r_patch.h"
	.file 18 "c:/devl/prboom3ds/src/r_draw.h"
	.file 19 "c:/devl/prboom3ds/src/r_state.h"
	.file 20 "c:/devl/prboom3ds/src/r_data.h"
	.file 21 "c:/devl/prboom3ds/src/r_main.h"
	.file 22 "c:/devl/prboom3ds/src/r_bsp.h"
	.file 23 "c:/devl/prboom3ds/src/r_plane.h"
	.file 24 "c:/devl/prboom3ds/src/r_things.h"
	.file 25 "c:/devl/prboom3ds/src/w_wad.h"