	.arch armv6k
	.fpu softvfp
	.eabi_attribute 23, 1
	.eabi_attribute 24, 1
	.eabi_attribute 25, 1
	.eabi_attribute 26, 1
	.eabi_attribute 30, 2
	.eabi_attribute 34, 1
	.eabi_attribute 18, 4
	.file	"tables.c"
	.text
.Ltext0:
	.cfi_sections	.debug_frame
	.global	__aeabi_uidiv
	.align	2
	.global	SlopeDiv
	.type	SlopeDiv, %function
SlopeDiv:
.LFB5:
	.file 1 "c:/devl/prboom3ds/src/tables.c"
	.loc 1 59 0
	.cfi_startproc
	@ args = 0, pretend = 0, frame = 0
	@ frame_needed = 0, uses_anonymous_args = 0
.LVL0:
	.loc 1 62 0
	cmp	r1, #512
	bcs	.L7
	.loc 1 63 0
	mov	r0, #2048
.LVL1:
	bx	lr
.LVL2:
.L7:
	.loc 1 59 0
	stmfd	sp!, {r3, lr}
	.cfi_def_cfa_offset 8
	.cfi_offset 3, -8
	.cfi_offset 14, -4
	.loc 1 64 0
	mov	r1, r1, lsr #8
.LVL3:
	mov	r0, r0, asl #3
.LVL4:
	bl	__aeabi_uidiv
.LVL5:
	.loc 1 65 0
	cmp	r0, #2048
	movcs	r0, #2048
	ldmfd	sp!, {r3, pc}
	.cfi_endproc
.LFE5:
	.size	SlopeDiv, .-SlopeDiv
	.align	2
	.global	R_LoadTrigTables
	.type	R_LoadTrigTables, %function
R_LoadTrigTables:
.LFB6:
	.loc 1 84 0
	.cfi_startproc
	@ args = 0, pretend = 0, frame = 0
	@ frame_needed = 0, uses_anonymous_args = 0
.LVL6:
	stmfd	sp!, {r4, lr}
	.cfi_def_cfa_offset 8
	.cfi_offset 4, -8
	.cfi_offset 14, -4
.LBB9:
.LBB10:
	.file 2 "c:/devl/prboom3ds/src/w_wad.h"
	.loc 2 132 0
	ldr	r0, .L33
	mov	r1, #5
	mvn	r2, #0
	bl	W_FindNumFromName
.LVL7:
.LBE10:
.LBE9:
	.loc 1 88 0
	cmn	r0, #1
.LBB12:
.LBB11:
	.loc 2 132 0
	mov	r4, r0
.LBE11:
.LBE12:
	.loc 1 88 0
	beq	.L29
.L9:
	.loc 1 89 0
	mov	r0, r4
	bl	W_LumpLength
.LVL8:
	cmp	r0, #40960
	beq	.L10
	.loc 1 90 0
	ldr	r0, .L33+4
	bl	I_Error
.LVL9:
.L10:
	.loc 1 91 0
	mov	r0, r4
	ldr	r1, .L33+8
	bl	W_ReadLump
.LVL10:
.LBB13:
.LBB14:
	.loc 2 132 0
	ldr	r0, .L33+12
	mov	r1, #5
	mvn	r2, #0
	bl	W_FindNumFromName
.LVL11:
.LBE14:
.LBE13:
	.loc 1 95 0
	cmn	r0, #1
.LBB16:
.LBB15:
	.loc 2 132 0
	mov	r4, r0
.LBE15:
.LBE16:
	.loc 1 95 0
	beq	.L30
.L11:
	.loc 1 96 0
	mov	r0, r4
	bl	W_LumpLength
.LVL12:
	cmp	r0, #16384
	beq	.L12
	.loc 1 97 0
	ldr	r0, .L33+16
	bl	I_Error
.LVL13:
.L12:
	.loc 1 98 0
	mov	r0, r4
	ldr	r1, .L33+20
	bl	W_ReadLump
.LVL14:
.LBB17:
.LBB18:
	.loc 2 132 0
	ldr	r0, .L33+24
	mov	r1, #5
	mvn	r2, #0
	bl	W_FindNumFromName
.LVL15:
.LBE18:
.LBE17:
	.loc 1 102 0
	cmn	r0, #1
.LBB20:
.LBB19:
	.loc 2 132 0
	mov	r4, r0
.LBE19:
.LBE20:
	.loc 1 102 0
	beq	.L31
.L13:
	.loc 1 103 0
	mov	r0, r4
	bl	W_LumpLength
.LVL16:
	ldr	r3, .L33+28
	cmp	r0, r3
	beq	.L14
	.loc 1 104 0
	ldr	r0, .L33+32
	bl	I_Error
.LVL17:
.L14:
	.loc 1 105 0
	mov	r0, r4
	ldr	r1, .L33+36
	bl	W_ReadLump
.LVL18:
.LBB21:
	.loc 1 110 0
	mov	r0, #1
	ldr	r1, .L33+40
	bl	lprintf
.LVL19:
	.loc 1 114 0
	ldr	r3, .L33+8
	ldr	r2, [r3, #4]
	sub	r2, r2, #11
	cmp	r2, #88
	bls	.L32
	ldr	r1, .L33+44
	sub	r3, r3, #4
.L16:
	ldr	r2, [r3, #4]!
	rev	r2, r2
	.loc 1 123 0 discriminator 3
	cmp	r3, r1
	str	r2, [r3]
.LVL20:
	bne	.L16
	ldr	r3, .L33+48
	add	r1, r3, #16384
.L17:
	ldr	r2, [r3, #4]!
	rev	r2, r2
	.loc 1 124 0 discriminator 3
	cmp	r3, r1
	str	r2, [r3]
	bne	.L17
	ldr	r3, .L33+52
	ldr	r1, .L33+56
.L18:
	ldr	r2, [r3, #4]!
	rev	r2, r2
	.loc 1 125 0 discriminator 3
	cmp	r3, r1
	str	r2, [r3]
	bne	.L18
	.loc 1 126 0
	mov	r0, #1
.LBE21:
	.loc 1 128 0
	ldmfd	sp!, {r4, lr}
	.cfi_remember_state
	.cfi_restore 14
	.cfi_restore 4
	.cfi_def_cfa_offset 0
.LBB22:
	.loc 1 126 0
	ldr	r1, .L33+60
	b	lprintf
.LVL21:
.L32:
	.cfi_restore_state
	.loc 1 115 0
	mov	r0, #1
.LBE22:
	.loc 1 128 0
	ldmfd	sp!, {r4, lr}
	.cfi_remember_state
	.cfi_restore 14
	.cfi_restore 4
	.cfi_def_cfa_offset 0
.LBB23:
	.loc 1 115 0
	ldr	r1, .L33+64
	b	lprintf
.LVL22:
.L31:
	.cfi_restore_state
.LBE23:
	.loc 1 102 0 discriminator 1
	ldr	r0, .L33+68
	bl	I_Error
.LVL23:
	b	.L13
.LVL24:
.L29:
	.loc 1 88 0 discriminator 1
	ldr	r0, .L33+68
	bl	I_Error
.LVL25:
	b	.L9
.LVL26:
.L30:
	.loc 1 95 0 discriminator 1
	ldr	r0, .L33+68
	bl	I_Error
.LVL27:
	b	.L11
.L34:
	.align	2
.L33:
	.word	.LC0
	.word	.LC2
	.word	finesine
	.word	.LC3
	.word	.LC4
	.word	finetangent
	.word	.LC5
	.word	8196
	.word	.LC6
	.word	tantoangle
	.word	.LC7
	.word	finesine+40956
	.word	finetangent-4
	.word	tantoangle-4
	.word	tantoangle+8192
	.word	.LC9
	.word	.LC8
	.word	.LC1
	.cfi_endproc
.LFE6:
	.size	R_LoadTrigTables, .-R_LoadTrigTables
	.comm	tantoangle,8196,4
	.comm	finesine,40960,4
	.comm	finetangent,16384,4
	.section	.rodata.str1.4,"aMS",%progbits,1
	.align	2
.LC0:
	.ascii	"SINETABL\000"
	.space	3
.LC1:
	.ascii	"Failed to locate trig tables\000"
	.space	3
.LC2:
	.ascii	"R_LoadTrigTables: Invalid SINETABL\000"
	.space	1
.LC3:
	.ascii	"TANGTABL\000"
	.space	3
.LC4:
	.ascii	"R_LoadTrigTables: Invalid TANGTABL\000"
	.space	1
.LC5:
	.ascii	"TANTOANG\000"
	.space	3
.LC6:
	.ascii	"R_LoadTrigTables: Invalid TANTOANG\000"
	.space	1
.LC7:
	.ascii	"Endianness...\000"
	.space	2
.LC8:
	.ascii	"ok.\000"
.LC9:
	.ascii	"corrected.\000"
	.text
.Letext0:
	.file 3 "c:\\devkitpro\\devkitarm\\lib\\gcc\\arm-none-eabi\\4.9.2\\include\\stddef.h"
	.file 4 "c:/devl/prboom3ds/src/m_fixed.h"
	.file 5 "c:/devl/prboom3ds/src/tables.h"
	.file 6 "c:/devl/prboom3ds/src/lprintf.h"