	.arch armv6k
	.fpu softvfp
	.eabi_attribute 23, 1
	.eabi_attribute 24, 1
	.eabi_attribute 25, 1
	.eabi_attribute 26, 1
	.eabi_attribute 30, 2
	.eabi_attribute 34, 1
	.eabi_attribute 18, 4
	.file	"wi_stuff.c"
	.text
.Ltext0:
	.cfi_sections	.debug_frame
	.align	2
	.type	WI_slamBackground, %function
WI_slamBackground:
.LFB6:
	.file 1 "c:/devl/prboom3ds/src/wi_stuff.c"
	.loc 1 413 0
	.cfi_startproc
	@ args = 0, pretend = 0, frame = 16
	@ frame_needed = 0, uses_anonymous_args = 0
	stmfd	sp!, {r4, lr}
	.cfi_def_cfa_offset 8
	.cfi_offset 4, -8
	.cfi_offset 14, -4
	.loc 1 416 0
	ldr	r3, .L12
	.loc 1 413 0
	sub	sp, sp, #24
	.cfi_def_cfa_offset 32
	.loc 1 416 0
	ldrb	r3, [r3]	@ zero_extendqisi2
	cmp	r3, #2
	beq	.L2
	.loc 1 416 0 is_stmt 0 discriminator 1
	cmp	r3, #3
	ldr	r3, .L12+4
	ldr	r3, [r3]
	ldr	r2, [r3]
	beq	.L11
.L4:
	.loc 1 419 0 is_stmt 1
	add	r4, sp, #12
	mov	r0, r4
	ldr	r1, .L12+8
	bl	sprintf
.LVL0:
.L5:
	.loc 1 422 0
	ldr	r3, .L12+12
	mov	r0, r4
	ldr	r4, [r3]
	bl	W_GetNumForName
.LVL1:
	mov	r1, #6
	mov	r3, r0
	mov	r2, #4
	mov	r0, #0
	stmia	sp, {r1, r2}
	mov	r1, r0
	mov	r2, r0
	blx	r4
.LVL2:
	.loc 1 423 0
	add	sp, sp, #24
	.cfi_remember_state
	.cfi_def_cfa_offset 8
	@ sp needed
	ldmfd	sp!, {r4, pc}
.L11:
	.cfi_restore_state
	.loc 1 416 0 discriminator 2
	cmp	r2, #3
	bne	.L4
.L2:
	.loc 1 417 0
	add	r4, sp, #12
	mov	r3, r4
	ldr	r2, .L12+16
	ldmia	r2, {r0, r1, r2}
	stmia	r3!, {r0, r1}
	strb	r2, [r3]
	b	.L5
.L13:
	.align	2
.L12:
	.word	gamemode
	.word	.LANCHOR0
	.word	.LC1
	.word	V_DrawNumPatch
	.word	.LC0
	.cfi_endproc
.LFE6:
	.size	WI_slamBackground, .-WI_slamBackground
	.align	2
	.type	WI_drawNum, %function
WI_drawNum:
.LFB14:
	.loc 1 692 0
	.cfi_startproc
	@ args = 0, pretend = 0, frame = 16
	@ frame_needed = 0, uses_anonymous_args = 0
.LVL3:
	stmfd	sp!, {r4, r5, r6, r7, r8, r9, r10, fp, lr}
	.cfi_def_cfa_offset 36
	.cfi_offset 4, -36
	.cfi_offset 5, -32
	.cfi_offset 6, -28
	.cfi_offset 7, -24
	.cfi_offset 8, -20
	.cfi_offset 9, -16
	.cfi_offset 10, -12
	.cfi_offset 11, -8
	.cfi_offset 14, -4
	.loc 1 693 0
	ldr	r8, .L41
	.loc 1 692 0
	sub	sp, sp, #28
	.cfi_def_cfa_offset 64
	.loc 1 697 0
	cmp	r3, #0
	.loc 1 692 0
	str	r0, [sp, #12]
	mov	r9, r1
	.loc 1 693 0
	ldr	r7, [r8, #4]
.LVL4:
	.loc 1 697 0
	blt	.L39
.LVL5:
	mov	r1, r2, lsr #31
.LVL6:
	mov	r0, r1
.LVL7:
	str	r1, [sp, #20]
	eor	r2, r2, r2, asr #31
.LVL8:
	.loc 1 723 0
	ldr	r1, .L41+4
	add	r2, r2, r0
.LVL9:
	cmp	r2, r1
	.loc 1 724 0
	moveq	r0, #0
	.loc 1 723 0
	beq	.L33
	.loc 1 727 0
	cmp	r3, #0
	sub	r3, r3, #1
.LVL10:
	beq	.L20
.LVL11:
.L37:
	str	r3, [sp, #16]
.L16:
.LVL12:
	.loc 1 731 0
	mov	r10, #6
	.loc 1 727 0
	ldr	r6, [sp, #16]
	ldr	r5, [sp, #12]
	ldr	fp, .L41+8
.LVL13:
.L21:
	.loc 1 731 0
	ldr	r3, .L41+12
	.loc 1 729 0
	rsb	r5, r7, r5
.LVL14:
	.loc 1 731 0
	smull	r3, r4, r3, r2
	mov	r3, r2, asr #31
	rsb	r4, r3, r4, asr #2
	add	r3, r4, r4, asl #2
	sub	r2, r2, r3, asl #1
.LVL15:
	add	r2, r2, r2, asl #2
	add	r2, r8, r2, asl #2
	ldr	r3, [r2, #20]
	mov	r2, #4
	str	r10, [sp]
	str	r2, [sp, #4]
	.loc 1 727 0
	sub	r6, r6, #1
.LVL16:
	.loc 1 731 0
	mov	r2, #0
	mov	r0, r5
	ldr	ip, [fp]
	mov	r1, r9
	blx	ip
.LVL17:
	.loc 1 727 0
	cmn	r6, #1
	.loc 1 732 0
	mov	r2, r4
.LVL18:
	.loc 1 727 0
	bne	.L21
	ldr	r3, [sp, #12]
	rsb	r0, r7, r3
	ldr	r3, [sp, #16]
	rsb	r7, r7, #0
.LVL19:
	mla	r3, r3, r7, r0
	str	r3, [sp, #12]
.LVL20:
.L20:
	.loc 1 736 0
	ldr	r3, [sp, #20]
	cmp	r3, #0
	ldreq	r0, [sp, #12]
	bne	.L40
.L33:
	.loc 1 741 0
	add	sp, sp, #28
	.cfi_remember_state
	.cfi_def_cfa_offset 36
	@ sp needed
	ldmfd	sp!, {r4, r5, r6, r7, r8, r9, r10, fp, pc}
.LVL21:
.L39:
	.cfi_restore_state
	.loc 1 699 0
	cmp	r2, #0
	beq	.L23
	mov	r0, r2
.LVL22:
	mov	r3, #0
.LVL23:
	.loc 1 712 0
	ldr	ip, .L41+12
.LVL24:
.L17:
	smull	lr, r1, ip, r0
	mov	r0, r0, asr #31
.LVL25:
	.loc 1 710 0
	rsbs	r0, r0, r1, asr #2
.LVL26:
	.loc 1 713 0
	add	r3, r3, #1
.LVL27:
	.loc 1 710 0
	bne	.L17
.LVL28:
	mov	r1, r2, lsr #31
	mov	ip, r1
	str	r1, [sp, #20]
	eor	r2, r2, r2, asr #31
.LVL29:
	.loc 1 723 0
	ldr	r1, .L41+4
	add	r2, r2, ip
.LVL30:
	cmp	r2, r1
	subne	r3, r3, #1
.LVL31:
	bne	.L37
	b	.L33
.LVL32:
.L40:
	.loc 1 738 0
	ldr	r3, .L41+8
	ldr	r0, .L41+16
	ldr	r4, [r3]
	bl	W_GetNumForName
.LVL33:
	mov	ip, #6
	mov	r2, #4
	ldr	r1, [sp, #12]
	mov	r3, r0
	sub	r7, r1, #8
.LVL34:
	mov	r0, r7
	str	r2, [sp, #4]
	mov	r1, r9
	str	ip, [sp]
	mov	r2, #0
	blx	r4
.LVL35:
	mov	r0, r7
	.loc 1 741 0
	add	sp, sp, #28
	.cfi_remember_state
	.cfi_def_cfa_offset 36
	@ sp needed
	ldmfd	sp!, {r4, r5, r6, r7, r8, r9, r10, fp, pc}
.LVL36:
.L23:
	.cfi_restore_state
	str	r2, [sp, #20]
	str	r2, [sp, #16]
	b	.L16
.L42:
	.align	2
.L41:
	.word	.LANCHOR0
	.word	1994
	.word	V_DrawNumPatch
	.word	1717986919
	.word	.LANCHOR1
	.cfi_endproc
.LFE14:
	.size	WI_drawNum, .-WI_drawNum
	.align	2
	.type	WI_endNetgameStats, %function
WI_endNetgameStats:
.LFB30:
	.loc 1 1297 0
	.cfi_startproc
	@ args = 0, pretend = 0, frame = 0
	@ frame_needed = 0, uses_anonymous_args = 0
	stmfd	sp!, {r3, r4, r5, lr}
	.cfi_def_cfa_offset 16
	.cfi_offset 3, -16
	.cfi_offset 4, -12
	.cfi_offset 5, -8
	.cfi_offset 14, -4
	.loc 1 1298 0
	mov	r5, #0
	ldr	r4, .L45
	ldr	r0, [r4, #204]
	bl	Z_Free
.LVL37:
	.loc 1 1299 0
	ldr	r0, [r4, #208]
	.loc 1 1298 0
	str	r5, [r4, #204]
	.loc 1 1299 0
	bl	Z_Free
.LVL38:
	.loc 1 1300 0
	ldr	r0, [r4, #212]
	.loc 1 1299 0
	str	r5, [r4, #208]
	.loc 1 1300 0
	bl	Z_Free
.LVL39:
	.loc 1 1301 0
	ldr	r0, [r4, #216]
	.loc 1 1300 0
	str	r5, [r4, #212]
	.loc 1 1301 0
	bl	Z_Free
.LVL40:
	str	r5, [r4, #216]
	ldmfd	sp!, {r3, r4, r5, pc}
.L46:
	.align	2
.L45:
	.word	.LANCHOR0
	.cfi_endproc
.LFE30:
	.size	WI_endNetgameStats, .-WI_endNetgameStats
	.align	2
	.type	WI_drawPercent.part.0, %function
WI_drawPercent.part.0:
.LFB43:
	.loc 1 752 0
	.cfi_startproc
	@ args = 0, pretend = 0, frame = 0
	@ frame_needed = 0, uses_anonymous_args = 0
.LVL41:
	stmfd	sp!, {r4, r5, r6, r7, lr}
	.cfi_def_cfa_offset 20
	.cfi_offset 4, -20
	.cfi_offset 5, -16
	.cfi_offset 6, -12
	.cfi_offset 7, -8
	.cfi_offset 14, -4
	.loc 1 758 0
	ldr	r3, .L49
	.loc 1 752 0
	sub	sp, sp, #12
	.cfi_def_cfa_offset 32
	.loc 1 752 0
	mov	r5, r0
	.loc 1 758 0
	ldr	r0, .L49+4
.LVL42:
	.loc 1 752 0
	mov	r4, r1
	mov	r6, r2
	.loc 1 758 0
	ldr	r7, [r3]
	bl	W_GetNumForName
.LVL43:
	mov	ip, #6
	mov	r2, #4
	mov	r3, r0
	mov	r1, r4
	mov	r0, r5
	str	r2, [sp, #4]
	str	ip, [sp]
	mov	r2, #0
	blx	r7
.LVL44:
	.loc 1 759 0
	mov	r0, r5
	mov	r1, r4
	mov	r2, r6
	mvn	r3, #0
	.loc 1 760 0
	add	sp, sp, #12
	.cfi_def_cfa_offset 20
	@ sp needed
	ldmfd	sp!, {r4, r5, r6, r7, lr}
	.cfi_restore 14
	.cfi_restore 7
	.cfi_restore 6
	.cfi_restore 5
	.cfi_restore 4
	.cfi_def_cfa_offset 0
.LVL45:
	.loc 1 759 0
	b	WI_drawNum
.LVL46:
.L50:
	.align	2
.L49:
	.word	V_DrawNumPatch
	.word	.LANCHOR1+8
	.cfi_endproc
.LFE43:
	.size	WI_drawPercent.part.0, .-WI_drawPercent.part.0
	.align	2
	.type	WI_drawTime, %function
WI_drawTime:
.LFB16:
	.loc 1 775 0
	.cfi_startproc
	@ args = 0, pretend = 0, frame = 0
	@ frame_needed = 0, uses_anonymous_args = 0
.LVL47:
	.loc 1 778 0
	subs	ip, r2, #0
	bxlt	lr
	.loc 1 775 0
	stmfd	sp!, {r4, r5, r6, r7, r8, r9, r10, fp, lr}
	.cfi_def_cfa_offset 36
	.cfi_offset 4, -36
	.cfi_offset 5, -32
	.cfi_offset 6, -28
	.cfi_offset 7, -24
	.cfi_offset 8, -20
	.cfi_offset 9, -16
	.cfi_offset 10, -12
	.cfi_offset 11, -8
	.cfi_offset 14, -4
	.loc 1 781 0
	ldr	r3, .L67
	.loc 1 775 0
	sub	sp, sp, #12
	.cfi_def_cfa_offset 48
	.loc 1 781 0
	cmp	ip, r3
	mov	r4, r0
	mov	r5, r1
	bgt	.L54
.LVL48:
.LBB33:
.LBB34:
	.loc 1 783 0
	ldr	r6, .L67+4
	mov	r3, ip, asr #31
	smull	r1, r2, r6, ip
.LVL49:
	add	r2, r2, ip
	rsb	r2, r3, r2, asr #5
	mov	r10, r2
	rsb	r3, r2, r2, asl #4
	sub	r2, ip, r3, asl #2
.LVL50:
	.loc 1 785 0
	cmp	r2, #9
	cmple	r10, #0
	beq	.L55
	.loc 1 790 0
	mov	r9, #6
	mov	r8, #4
	ldr	r7, .L67+8
.LVL51:
.L57:
	.loc 1 785 0
	mov	r1, r5
	mov	r3, #2
	mov	r0, r4
	bl	WI_drawNum
.LVL52:
	mov	r4, r0
.LVL53:
	ldr	r0, .L67+12
	bl	W_GetNumForName
.LVL54:
	bl	R_NumPatchWidth
.LVL55:
	.loc 1 788 0
	cmp	r10, #0
	.loc 1 785 0
	rsb	r4, r0, r4
.LVL56:
	.loc 1 790 0
	ldr	r0, .L67+12
	.loc 1 788 0
	beq	.L51
	.loc 1 790 0
	ldr	fp, [r7]
	bl	W_GetNumForName
.LVL57:
	mov	r2, #0
	mov	r3, r0
	str	r9, [sp]
	str	r8, [sp, #4]
	mov	r0, r4
	mov	r1, r5
	blx	fp
.LVL58:
	.loc 1 783 0
	smull	r3, r2, r6, r10
	mov	r3, r10, asr #31
	add	r2, r2, r10
	rsb	r2, r3, r2, asr #5
	mov	r3, r2
	rsb	r2, r2, r2, asl #4
	sub	r2, r10, r2, asl #2
.LVL59:
	.loc 1 785 0
	cmp	r2, #9
	cmple	r3, #0
	mov	r10, r3
	bne	.L57
.LVL60:
.L55:
	mov	r1, r5
	mov	r3, #1
	mov	r0, r4
	bl	WI_drawNum
.LVL61:
	ldr	r0, .L67+12
	bl	W_GetNumForName
.LVL62:
.LBE34:
.LBE33:
	.loc 1 796 0
	add	sp, sp, #12
	.cfi_remember_state
	.cfi_def_cfa_offset 36
	@ sp needed
	ldmfd	sp!, {r4, r5, r6, r7, r8, r9, r10, fp, lr}
	.cfi_restore 14
	.cfi_restore 11
	.cfi_restore 10
	.cfi_restore 9
	.cfi_restore 8
	.cfi_restore 7
	.cfi_restore 6
	.cfi_restore 5
	.cfi_restore 4
	.cfi_def_cfa_offset 0
.LVL63:
.LBB36:
.LBB35:
	.loc 1 785 0
	b	R_NumPatchWidth
.LVL64:
.L54:
	.cfi_restore_state
.LBE35:
.LBE36:
	.loc 1 794 0
	ldr	r3, .L67+8
	ldr	r0, .L67+16
.LVL65:
	ldr	r6, [r3]
	bl	W_GetNumForName
.LVL66:
	bl	R_NumPatchWidth
.LVL67:
	rsb	r4, r0, r4
.LVL68:
	ldr	r0, .L67+16
	bl	W_GetNumForName
.LVL69:
	mov	r2, #4
	mov	ip, #6
	mov	r3, r0
	str	r2, [sp, #4]
	mov	r0, r4
	mov	r1, r5
	str	ip, [sp]
	mov	r2, #0
	blx	r6
.LVL70:
.L51:
	.loc 1 796 0
	add	sp, sp, #12
	.cfi_def_cfa_offset 36
	@ sp needed
	ldmfd	sp!, {r4, r5, r6, r7, r8, r9, r10, fp, pc}
.LVL71:
.L68:
	.align	2
.L67:
	.word	359999
	.word	-2004318071
	.word	V_DrawNumPatch
	.word	.LANCHOR1+16
	.word	.LANCHOR1+24
	.cfi_endproc
.LFE16:
	.size	WI_drawTime, .-WI_drawTime
	.align	2
	.type	WI_drawTimeStats, %function
WI_drawTimeStats:
.LFB19:
	.loc 1 839 0
	.cfi_startproc
	@ args = 0, pretend = 0, frame = 0
	@ frame_needed = 0, uses_anonymous_args = 0
.LVL72:
	stmfd	sp!, {r4, r5, r6, r7, r8, r9, r10, lr}
	.cfi_def_cfa_offset 32
	.cfi_offset 4, -32
	.cfi_offset 5, -28
	.cfi_offset 6, -24
	.cfi_offset 7, -20
	.cfi_offset 8, -16
	.cfi_offset 9, -12
	.cfi_offset 10, -8
	.cfi_offset 14, -4
	.loc 1 840 0
	ldr	r4, .L80
	.loc 1 839 0
	sub	sp, sp, #8
	.cfi_def_cfa_offset 40
	.loc 1 839 0
	mov	r8, r0
	.loc 1 840 0
	ldr	r0, .L80+4
.LVL73:
	.loc 1 839 0
	mov	r7, r1
	mov	r9, r2
	.loc 1 840 0
	ldr	r10, [r4]
	mov	r6, #6
	bl	W_GetNumForName
.LVL74:
	mov	r5, #4
	mov	r3, r0
	mov	r1, #160
	mov	r0, #8
	mov	r2, #0
	str	r6, [sp]
	str	r5, [sp, #4]
	blx	r10
.LVL75:
	.loc 1 841 0
	mov	r2, r8
	mov	r1, #160
	mov	r0, #152
	bl	WI_drawTime
.LVL76:
	.loc 1 843 0
	ldr	r0, .L80+8
	ldr	r8, [r4]
.LVL77:
	bl	W_GetNumForName
.LVL78:
	mov	r1, #180
	mov	r3, r0
	mov	r2, #0
	mov	r0, #8
	str	r6, [sp]
	str	r5, [sp, #4]
	blx	r8
.LVL79:
	.loc 1 844 0
	mov	r2, r7
	mov	r0, #152
	mov	r1, #180
	bl	WI_drawTime
.LVL80:
	.loc 1 851 0
	ldr	r3, .L80+12
	ldr	r3, [r3]
	cmp	r3, #0
	beq	.L70
	.loc 1 851 0 is_stmt 0 discriminator 1
	ldr	r3, .L80+16
	ldr	r3, [r3]
	cmp	r3, #0
	beq	.L69
.L70:
	.loc 1 853 0 is_stmt 1
	ldr	r3, .L80+20
	ldr	r3, [r3]
	ldr	r3, [r3]
	cmp	r3, #2
	ble	.L79
.L69:
	.loc 1 859 0
	add	sp, sp, #8
	.cfi_remember_state
	.cfi_def_cfa_offset 32
	@ sp needed
	ldmfd	sp!, {r4, r5, r6, r7, r8, r9, r10, pc}
.LVL81:
.L79:
	.cfi_restore_state
	.loc 1 855 0
	ldr	r0, .L80+24
	ldr	r4, [r4]
	bl	W_GetNumForName
.LVL82:
	mov	r1, #6
	mov	r2, #4
	mov	r3, r0
	stmia	sp, {r1, r2}
	mov	r0, #168
	mov	r1, #160
	mov	r2, #0
	blx	r4
.LVL83:
	.loc 1 856 0
	mov	r2, r9
	mov	r0, #312
	mov	r1, #160
	.loc 1 859 0
	add	sp, sp, #8
	.cfi_def_cfa_offset 32
	@ sp needed
	ldmfd	sp!, {r4, r5, r6, r7, r8, r9, r10, lr}
	.cfi_restore 14
	.cfi_restore 10
	.cfi_restore 9
	.cfi_restore 8
	.cfi_restore 7
	.cfi_restore 6
	.cfi_restore 5
	.cfi_restore 4
	.cfi_def_cfa_offset 0
.LVL84:
	.loc 1 856 0
	b	WI_drawTime
.LVL85:
.L81:
	.align	2
.L80:
	.word	V_DrawNumPatch
	.word	.LANCHOR1+32
	.word	.LANCHOR1+40
	.word	modifiedgame
	.word	deh_pars
	.word	.LANCHOR0
	.word	.LANCHOR1+48
	.cfi_endproc
.LFE19:
	.size	WI_drawTimeStats, .-WI_drawTimeStats
	.align	2
	.global	WI_levelNameLump
	.type	WI_levelNameLump, %function
WI_levelNameLump:
.LFB5:
	.loc 1 398 0
	.cfi_startproc
	@ args = 0, pretend = 0, frame = 0
	@ frame_needed = 0, uses_anonymous_args = 0
.LVL86:
	.loc 1 399 0
	ldr	r3, .L86
	ldrb	ip, [r3]	@ zero_extendqisi2
	cmp	ip, #2
	beq	.L85
	.loc 1 398 0
	str	lr, [sp, #-4]!
	.cfi_def_cfa_offset 4
	.cfi_offset 14, -4
	mov	lr, r0
	.loc 1 402 0
	mov	r3, r1
	mov	r0, r2
.LVL87:
	ldr	r1, .L86+4
.LVL88:
	mov	r2, lr
.LVL89:
	.loc 1 404 0
	ldr	lr, [sp], #4
	.cfi_restore 14
	.cfi_def_cfa_offset 0
.LVL90:
	.loc 1 402 0
	b	sprintf
.LVL91:
.L85:
	.loc 1 400 0
	mov	r0, r2
.LVL92:
	mov	r2, r1
.LVL93:
	ldr	r1, .L86+8
.LVL94:
	b	sprintf
.LVL95:
.L87:
	.align	2
.L86:
	.word	gamemode
	.word	.LC3
	.word	.LC2
	.cfi_endproc
.LFE5:
	.size	WI_levelNameLump, .-WI_levelNameLump
	.align	2
	.global	WI_Responder
	.type	WI_Responder, %function
WI_Responder:
.LFB7:
	.loc 1 435 0
	.cfi_startproc
	@ args = 0, pretend = 0, frame = 0
	@ frame_needed = 0, uses_anonymous_args = 0
	@ link register save eliminated.
.LVL96:
	.loc 1 437 0
	mov	r0, #0
.LVL97:
	bx	lr
	.cfi_endproc
.LFE7:
	.size	WI_Responder, .-WI_Responder
	.align	2
	.global	WI_drawLF
	.type	WI_drawLF, %function
WI_drawLF:
.LFB8:
	.loc 1 447 0
	.cfi_startproc
	@ args = 0, pretend = 0, frame = 16
	@ frame_needed = 0, uses_anonymous_args = 0
.LVL98:
	stmfd	sp!, {r4, r5, r6, lr}
	.cfi_def_cfa_offset 16
	.cfi_offset 4, -16
	.cfi_offset 5, -12
	.cfi_offset 6, -8
	.cfi_offset 14, -4
	.loc 1 453 0
	ldr	r3, .L93
	.loc 1 447 0
	sub	sp, sp, #24
	.cfi_def_cfa_offset 40
	.loc 1 453 0
	ldr	r3, [r3]
	add	r2, sp, #12
	ldr	r0, [r3]
	ldr	r1, [r3, #8]
	bl	WI_levelNameLump
.LVL99:
.LBB37:
.LBB38:
	.file 2 "c:/devl/prboom3ds/src/w_wad.h"
	.loc 2 132 0
	add	r0, sp, #12
.LVL100:
	mov	r1, #0
	mvn	r2, #0
	bl	W_FindNumFromName
.LVL101:
.LBE38:
.LBE37:
	.loc 1 455 0
	cmp	r0, #0
	blt	.L91
	.loc 1 458 0
	ldr	r5, .L93+4
	add	r0, sp, #12
.LVL102:
	ldr	r6, [r5]
	bl	W_GetNumForName
.LVL103:
	bl	R_NumPatchWidth
.LVL104:
	mov	r4, r0
	add	r0, sp, #12
.LVL105:
	bl	W_GetNumForName
.LVL106:
	mov	ip, #6
	mov	r1, #4
	rsb	r2, r4, #320
	mov	r3, r0
	add	r0, r2, r2, lsr #31
	str	ip, [sp]
	mov	r2, #0
	mov	r0, r0, asr #1
	str	r1, [sp, #4]
	mov	r1, #2
	blx	r6
.LVL107:
	.loc 1 462 0
	add	r0, sp, #12
.LVL108:
	bl	W_GetNumForName
.LVL109:
	bl	R_NumPatchHeight
.LVL110:
	add	r0, r0, r0, asl #2
	add	r4, r0, #3
	cmp	r0, #0
	movlt	r0, r4
	mov	r4, r0, asr #2
	add	r4, r4, #2
.LVL111:
.L90:
	.loc 1 466 0
	ldr	r0, .L93+8
	ldr	r6, [r5]
	bl	W_GetNumForName
.LVL112:
	bl	R_NumPatchWidth
.LVL113:
	mov	r5, r0
	ldr	r0, .L93+8
	bl	W_GetNumForName
.LVL114:
	mov	lr, #6
	mov	ip, #4
	rsb	r2, r5, #320
	mov	r3, r0
	add	r0, r2, r2, lsr #31
	mov	r0, r0, asr #1
	mov	r1, r4
	str	lr, [sp]
	str	ip, [sp, #4]
	mov	r2, #0
	blx	r6
.LVL115:
	.loc 1 468 0
	add	sp, sp, #24
	.cfi_remember_state
	.cfi_def_cfa_offset 16
	@ sp needed
	ldmfd	sp!, {r4, r5, r6, pc}
.LVL116:
.L91:
	.cfi_restore_state
	.loc 1 448 0
	mov	r4, #2
	ldr	r5, .L93+4
	b	.L90
.L94:
	.align	2
.L93:
	.word	.LANCHOR0
	.word	V_DrawNumPatch
	.word	.LANCHOR1+56
	.cfi_endproc
.LFE8:
	.size	WI_drawLF, .-WI_drawLF
	.align	2
	.global	WI_drawEL
	.type	WI_drawEL, %function
WI_drawEL:
.LFB9:
	.loc 1 478 0
	.cfi_startproc
	@ args = 0, pretend = 0, frame = 16
	@ frame_needed = 0, uses_anonymous_args = 0
.LVL117:
	stmfd	sp!, {r4, r5, r6, r7, r8, lr}
	.cfi_def_cfa_offset 24
	.cfi_offset 4, -24
	.cfi_offset 5, -20
	.cfi_offset 6, -16
	.cfi_offset 7, -12
	.cfi_offset 8, -8
	.cfi_offset 14, -4
	.loc 1 483 0
	ldr	r3, .L99
	.loc 1 478 0
	sub	sp, sp, #24
	.cfi_def_cfa_offset 48
	.loc 1 483 0
	ldr	r3, [r3]
	add	r2, sp, #12
	ldr	r0, [r3]
	ldr	r1, [r3, #12]
	.loc 1 487 0
	ldr	r7, .L99+4
	.loc 1 483 0
	bl	WI_levelNameLump
.LVL118:
	.loc 1 487 0
	ldr	r0, .L99+8
	ldr	r8, [r7]
	bl	W_GetNumForName
.LVL119:
	bl	R_NumPatchWidth
.LVL120:
	mov	r4, r0
	ldr	r0, .L99+8
	bl	W_GetNumForName
.LVL121:
	mov	r6, #6
	mov	r5, #4
	rsb	r2, r4, #320
	mov	r3, r0
	add	r0, r2, r2, lsr #31
	mov	r0, r0, asr #1
	mov	r1, #2
	mov	r2, #0
	str	r6, [sp]
	str	r5, [sp, #4]
	blx	r8
.LVL122:
.LBB39:
.LBB40:
	.loc 2 132 0
	add	r0, sp, #12
.LVL123:
	mov	r1, #0
	mvn	r2, #0
	bl	W_FindNumFromName
.LVL124:
.LBE40:
.LBE39:
	.loc 1 490 0
	cmp	r0, #0
	blt	.L95
	.loc 1 494 0
	add	r0, sp, #12
.LVL125:
	bl	W_GetNumForName
.LVL126:
	bl	R_NumPatchHeight
.LVL127:
	mov	r4, r0
.LVL128:
	.loc 1 497 0
	add	r0, sp, #12
.LVL129:
	ldr	r8, [r7]
	bl	W_GetNumForName
.LVL130:
	bl	R_NumPatchWidth
.LVL131:
	mov	r7, r0
	add	r0, sp, #12
.LVL132:
	bl	W_GetNumForName
.LVL133:
	.loc 1 494 0
	add	r1, r4, r4, asl #2
	add	r2, r1, #3
	cmp	r1, #0
	movlt	r1, r2
	.loc 1 497 0
	rsb	r2, r7, #320
	mov	r3, r0
	.loc 1 494 0
	mov	r1, r1, asr #2
	.loc 1 497 0
	add	r0, r2, r2, lsr #31
	mov	r0, r0, asr #1
	str	r6, [sp]
	str	r5, [sp, #4]
	add	r1, r1, #2
	mov	r2, #0
	blx	r8
.LVL134:
.L95:
	.loc 1 499 0
	add	sp, sp, #24
	.cfi_def_cfa_offset 24
	@ sp needed
	ldmfd	sp!, {r4, r5, r6, r7, r8, pc}
.L100:
	.align	2
.L99:
	.word	.LANCHOR0
	.word	V_DrawNumPatch
	.word	.LANCHOR1+60
	.cfi_endproc
.LFE9:
	.size	WI_drawEL, .-WI_drawEL
	.align	2
	.global	WI_drawOnLnode
	.type	WI_drawOnLnode, %function
WI_drawOnLnode:
.LFB10:
	.loc 1 513 0
	.cfi_startproc
	@ args = 0, pretend = 0, frame = 8
	@ frame_needed = 0, uses_anonymous_args = 0
.LVL135:
	.loc 1 517 0
	mov	r3, #0
	.loc 1 513 0
	stmfd	sp!, {r4, r5, r6, r7, r8, r9, r10, fp, lr}
	.cfi_def_cfa_offset 36
	.cfi_offset 4, -36
	.cfi_offset 5, -32
	.cfi_offset 6, -28
	.cfi_offset 7, -24
	.cfi_offset 8, -20
	.cfi_offset 9, -16
	.cfi_offset 10, -12
	.cfi_offset 11, -8
	.cfi_offset 14, -4
	mov	r10, r1
	sub	sp, sp, #20
	.cfi_def_cfa_offset 56
	ldr	r9, .L116
	.loc 1 513 0
	str	r0, [sp, #12]
	.loc 1 517 0
	str	r3, [sp, #8]
.LVL136:
.L104:
.LBB41:
	.loc 1 524 0
	mov	r4, r10
	ldr	r0, [r10], #4
	bl	W_GetNumForName
.LVL137:
	bl	R_CachePatchNum
.LVL138:
	.loc 1 526 0
	ldr	r3, [r9]
	.loc 1 524 0
	mov	r2, r0
.LVL139:
	.loc 1 526 0
	ldr	r3, [r3]
	ldr	r1, [r0, #16]
	.loc 1 528 0
	ldr	ip, [r0]
	.loc 1 526 0
	ldr	r0, [sp, #12]
.LVL140:
	add	r3, r3, r3, asl #3
	add	r3, r3, r0
	ldr	r0, .L116+4
	.loc 1 527 0
	ldr	r6, [r2, #20]
	.loc 1 526 0
	add	r3, r0, r3, asl #3
	ldr	fp, [r3, #68]
	.loc 1 530 0
	ldr	r0, [r4]
	.loc 1 526 0
	rsb	fp, r1, fp
.LVL141:
	.loc 1 528 0
	add	r7, fp, ip
	.loc 1 532 0
	mvn	fp, fp
.LVL142:
	.loc 1 527 0
	ldr	r5, [r3, #72]
.LVL143:
	.loc 1 529 0
	ldr	r8, [r2, #4]
.LVL144:
	.loc 1 530 0
	bl	W_GetNumForName
.LVL145:
	bl	R_UnlockPatchNum
.LVL146:
	.loc 1 532 0
	ldr	r1, .L116+8
	mov	fp, fp, lsr #31
.LVL147:
	cmp	r7, r1
	movgt	fp, #0
	.loc 1 527 0
	rsb	r3, r6, r5
.LVL148:
	.loc 1 532 0
	cmp	fp, #0
	.loc 1 529 0
	add	r2, r8, r3
	.loc 1 526 0
	ldr	r0, .L116
	ldr	r1, .L116+4
	.loc 1 532 0
	beq	.L102
	.loc 1 535 0
	mvn	r3, r3
.LVL149:
	cmp	r2, #199
	mov	r3, r3, lsr #31
.LVL150:
	movgt	r3, #0
	cmp	r3, #0
	beq	.L102
.LVL151:
.LBE41:
	.loc 1 548 0
	ldr	r3, [r0]
	ldr	ip, [sp, #12]
	ldr	r3, [r3]
	ldr	r2, .L116+12
	add	r3, r3, r3, asl #3
	add	r6, r3, ip
.LVL152:
	add	r1, r1, r6, asl #3
	ldr	r0, [r4]
	ldr	r6, [r1, #68]
	ldr	r4, [r2]
	ldr	r5, [r1, #72]
	bl	W_GetNumForName
.LVL153:
	mov	ip, #6
	mov	r2, #4
	mov	r3, r0
	str	r2, [sp, #4]
	mov	r0, r6
	mov	r1, r5
	str	ip, [sp]
	mov	r2, #0
	blx	r4
.LVL154:
	.loc 1 557 0
	add	sp, sp, #20
	.cfi_remember_state
	.cfi_def_cfa_offset 36
	@ sp needed
	ldmfd	sp!, {r4, r5, r6, r7, r8, r9, r10, fp, pc}
.LVL155:
.L102:
	.cfi_restore_state
	.loc 1 543 0
	ldr	r3, [sp, #8]
	cmp	r3, #1
	movne	r3, #1
	strne	r3, [sp, #8]
.LVL156:
	bne	.L104
.LVL157:
.L115:
	.loc 1 555 0
	mov	r0, #32
	ldr	r3, [sp, #12]
	ldr	r1, .L116+16
	add	r2, r3, #1
	.loc 1 557 0
	add	sp, sp, #20
	.cfi_def_cfa_offset 36
	@ sp needed
	ldmfd	sp!, {r4, r5, r6, r7, r8, r9, r10, fp, lr}
	.cfi_restore 14
	.cfi_restore 11
	.cfi_restore 10
	.cfi_restore 9
	.cfi_restore 8
	.cfi_restore 7
	.cfi_restore 6
	.cfi_restore 5
	.cfi_restore 4
	.cfi_def_cfa_offset 0
.LVL158:
	.loc 1 555 0
	b	lprintf
.LVL159:
.L117:
	.align	2
.L116:
	.word	.LANCHOR0
	.word	.LANCHOR1
	.word	319
	.word	V_DrawNumPatch
	.word	.LC4
	.cfi_endproc
.LFE10:
	.size	WI_drawOnLnode, .-WI_drawOnLnode
	.global	__aeabi_idivmod
	.align	2
	.global	WI_initAnimatedBack
	.type	WI_initAnimatedBack, %function
WI_initAnimatedBack:
.LFB11:
	.loc 1 567 0
	.cfi_startproc
	@ args = 0, pretend = 0, frame = 0
	@ frame_needed = 0, uses_anonymous_args = 0
	.loc 1 571 0
	ldr	r3, .L130
	ldrb	r3, [r3]	@ zero_extendqisi2
	cmp	r3, #2
	bxeq	lr
	.loc 1 567 0
	stmfd	sp!, {r4, r5, r6, r7, r8, r9, r10, lr}
	.cfi_def_cfa_offset 32
	.cfi_offset 4, -32
	.cfi_offset 5, -28
	.cfi_offset 6, -24
	.cfi_offset 7, -20
	.cfi_offset 8, -16
	.cfi_offset 9, -12
	.cfi_offset 10, -8
	.cfi_offset 14, -4
	.loc 1 574 0
	ldr	r8, .L130+4
	ldr	r3, [r8]
	ldr	r3, [r3]
	cmp	r3, #2
	ldmgtfd	sp!, {r4, r5, r6, r7, r8, r9, r10, pc}
.LVL160:
.LBB44:
.LBB45:
	.loc 1 577 0
	ldr	r7, .L130+8
	mov	r3, r3, asl #2
	add	r2, r7, r3
	ldr	r2, [r2, #356]
	cmp	r2, #0
	ldmlefd	sp!, {r4, r5, r6, r7, r8, r9, r10, pc}
	mov	r5, #0
	.loc 1 582 0
	mvn	r9, #0
	.loc 1 577 0
	mov	r6, r5
	b	.L124
.LVL161:
.L121:
	.loc 1 588 0
	cmp	r3, #1
	beq	.L128
	.loc 1 591 0
	cmp	r3, #2
	.loc 1 592 0
	ldreq	r3, [r8, #220]
	addeq	r3, r3, #1
	streq	r3, [r4, #88]
.L122:
	.loc 1 577 0
	ldr	r3, [r8]
	add	r6, r6, #1
.LVL162:
	ldr	r3, [r3]
	add	r5, r5, #104
	mov	r3, r3, asl #2
	add	r2, r7, r3
	ldr	r2, [r2, #356]
	cmp	r6, r2
	bge	.L129
.LVL163:
.L124:
	.loc 1 579 0
	add	r3, r7, r3
	ldr	r4, [r3, #372]
	.loc 1 585 0
	ldrb	r3, [r4, r5]	@ zero_extendqisi2
	.loc 1 579 0
	add	r4, r4, r5
.LVL164:
	.loc 1 585 0
	cmp	r3, #0
	.loc 1 582 0
	str	r9, [r4, #96]
	.loc 1 585 0
	bne	.L121
	.loc 1 586 0
	mov	r0, #48
	ldr	r10, [r8, #220]
	bl	P_Random
.LVL165:
	ldr	r1, [r4, #4]
	bl	__aeabi_idivmod
.LVL166:
	add	r10, r10, #1
	add	r1, r10, r1
	str	r1, [r4, #88]
	b	.L122
.L129:
	ldmfd	sp!, {r4, r5, r6, r7, r8, r9, r10, pc}
.L128:
	.loc 1 589 0
	ldr	r3, [r8, #220]
	ldr	r10, [r4, #24]
	add	r3, r3, #1
	mov	r0, #48
	add	r10, r3, r10
	bl	P_Random
.LVL167:
	ldr	r1, [r4, #20]
	bl	__aeabi_idivmod
.LVL168:
	add	r1, r10, r1
	str	r1, [r4, #88]
	b	.L122
.L131:
	.align	2
.L130:
	.word	gamemode
	.word	.LANCHOR0
	.word	.LANCHOR1
.LBE45:
.LBE44:
	.cfi_endproc
.LFE11:
	.size	WI_initAnimatedBack, .-WI_initAnimatedBack
	.align	2
	.global	WI_updateAnimatedBack
	.type	WI_updateAnimatedBack, %function
WI_updateAnimatedBack:
.LFB12:
	.loc 1 604 0
	.cfi_startproc
	@ args = 0, pretend = 0, frame = 8
	@ frame_needed = 0, uses_anonymous_args = 0
	.loc 1 608 0
	ldr	r3, .L150
	ldrb	r3, [r3]	@ zero_extendqisi2
	cmp	r3, #2
	bxeq	lr
	.loc 1 604 0
	stmfd	sp!, {r4, r5, r6, r7, r8, r9, r10, fp, lr}
	.cfi_def_cfa_offset 36
	.cfi_offset 4, -36
	.cfi_offset 5, -32
	.cfi_offset 6, -28
	.cfi_offset 7, -24
	.cfi_offset 8, -20
	.cfi_offset 9, -16
	.cfi_offset 10, -12
	.cfi_offset 11, -8
	.cfi_offset 14, -4
	.loc 1 611 0
	ldr	r7, .L150+4
	.loc 1 604 0
	sub	sp, sp, #12
	.cfi_def_cfa_offset 48
	.loc 1 611 0
	ldr	r2, [r7]
	ldr	r3, [r2]
	cmp	r3, #2
	bgt	.L132
.LVL169:
.LBB48:
.LBB49:
	.loc 1 614 0
	ldr	r8, .L150+8
	mov	r3, r3, asl #2
	add	r1, r8, r3
	ldr	r1, [r1, #356]
	cmp	r1, #0
	ble	.L132
	mov	r4, #0
	.loc 1 618 0
	mov	r9, r7
	.loc 1 614 0
	mov	r5, r4
	.loc 1 623 0
	mov	r10, r4
	.loc 1 631 0
	mvn	fp, #0
	b	.L142
.LVL170:
.L135:
	.loc 1 614 0
	ldr	r2, [r7]
	add	r5, r5, #1
.LVL171:
	ldr	r3, [r2]
	add	r4, r4, #104
	mov	r3, r3, asl #2
	add	r1, r8, r3
	ldr	r1, [r1, #356]
	cmp	r5, r1
	bge	.L132
.LVL172:
.L142:
	.loc 1 616 0
	add	r3, r8, r3
	ldr	r3, [r3, #372]
	.loc 1 618 0
	ldr	r0, [r7, #220]
	.loc 1 616 0
	add	r6, r3, r4
.LVL173:
	.loc 1 618 0
	ldr	r1, [r6, #88]
	cmp	r1, r0
	bne	.L135
	.loc 1 620 0
	ldrb	r3, [r3, r4]	@ zero_extendqisi2
	cmp	r3, #1
	beq	.L136
	bcc	.L137
	cmp	r3, #2
	bne	.L135
	.loc 1 640 0
	ldrsb	r3, [r9, #224]
	cmp	r3, #0
	cmpeq	r5, #7
	beq	.L135
	.loc 1 641 0
	ldr	r2, [r2, #12]
	ldr	r3, [r6, #20]
	cmp	r2, r3
	bne	.L135
	.loc 1 643 0
	ldr	r2, [r6, #96]
	.loc 1 644 0
	ldr	r0, [r6, #8]
	.loc 1 643 0
	add	r3, r2, #1
	.loc 1 644 0
	cmp	r3, r0
	.loc 1 643 0
	str	r3, [r6, #96]
	.loc 1 644 0
	streq	r2, [r6, #96]
	b	.L141
.LVL174:
.L132:
.LBE49:
.LBE48:
	.loc 1 651 0
	add	sp, sp, #12
	.cfi_remember_state
	.cfi_def_cfa_offset 36
	@ sp needed
	ldmfd	sp!, {r4, r5, r6, r7, r8, r9, r10, fp, pc}
.LVL175:
.L136:
	.cfi_restore_state
.LBB51:
.LBB50:
	.loc 1 628 0
	ldr	r3, [r6, #96]
	.loc 1 629 0
	ldr	r2, [r6, #8]
	.loc 1 628 0
	add	r3, r3, #1
	.loc 1 629 0
	cmp	r3, r2
	.loc 1 628 0
	str	r3, [r6, #96]
	.loc 1 629 0
	beq	.L149
.L141:
	.loc 1 645 0
	ldr	r3, [r6, #4]
	add	r1, r1, r3
	str	r1, [r6, #88]
	b	.L135
.L137:
	.loc 1 623 0
	ldr	r3, [r6, #96]
	ldr	r2, [r6, #8]
	add	r3, r3, #1
	cmp	r3, r2
	str	r3, [r6, #96]
	strge	r10, [r6, #96]
	b	.L141
.L149:
	.loc 1 632 0
	ldr	r3, [r6, #24]
	.loc 1 631 0
	str	fp, [r6, #96]
	.loc 1 632 0
	add	r3, r1, r3
	mov	r0, #48
	str	r3, [sp, #4]
	bl	P_Random
.LVL176:
	ldr	r1, [r6, #20]
	bl	__aeabi_idivmod
.LVL177:
	ldr	r3, [sp, #4]
	add	r1, r3, r1
	str	r1, [r6, #88]
	b	.L135
.L151:
	.align	2
.L150:
	.word	gamemode
	.word	.LANCHOR0
	.word	.LANCHOR1
.LBE50:
.LBE51:
	.cfi_endproc
.LFE12:
	.size	WI_updateAnimatedBack, .-WI_updateAnimatedBack
	.align	2
	.global	WI_drawAnimatedBack
	.type	WI_drawAnimatedBack, %function
WI_drawAnimatedBack:
.LFB13:
	.loc 1 661 0
	.cfi_startproc
	@ args = 0, pretend = 0, frame = 0
	@ frame_needed = 0, uses_anonymous_args = 0
	.loc 1 665 0
	ldr	r3, .L160
	ldrb	r3, [r3]	@ zero_extendqisi2
	cmp	r3, #2
	bxeq	lr
	.loc 1 661 0
	stmfd	sp!, {r4, r5, r6, r7, r8, r9, r10, lr}
	.cfi_def_cfa_offset 32
	.cfi_offset 4, -32
	.cfi_offset 5, -28
	.cfi_offset 6, -24
	.cfi_offset 7, -20
	.cfi_offset 8, -16
	.cfi_offset 9, -12
	.cfi_offset 10, -8
	.cfi_offset 14, -4
	.loc 1 668 0
	ldr	r7, .L160+4
	.loc 1 661 0
	sub	sp, sp, #8
	.cfi_def_cfa_offset 40
	.loc 1 668 0
	ldr	r3, [r7]
	ldr	r3, [r3]
	cmp	r3, #2
	bgt	.L152
.LVL178:
.LBB54:
.LBB55:
	.loc 1 671 0
	ldr	r6, .L160+8
	mov	r3, r3, asl #2
	add	r2, r6, r3
	ldr	r2, [r2, #356]
	cmp	r2, #0
	ble	.L152
	mov	r4, #0
	.loc 1 677 0
	mov	r9, #6
	.loc 1 671 0
	mov	r5, r4
	.loc 1 677 0
	mov	r8, #4
	ldr	r10, .L160+12
.LVL179:
.L156:
	.loc 1 673 0
	add	r3, r6, r3
	ldr	r2, [r3, #372]
	.loc 1 671 0
	add	r5, r5, #1
.LVL180:
	.loc 1 673 0
	add	r2, r2, r4
.LVL181:
	.loc 1 675 0
	ldr	r3, [r2, #96]
	add	r4, r4, #104
	.loc 1 677 0
	add	r1, r3, r3, asl #2
	.loc 1 675 0
	cmp	r3, #0
	.loc 1 677 0
	add	r1, r2, r1, asl #2
	.loc 1 675 0
	blt	.L155
	.loc 1 677 0
	ldr	r3, [r1, #44]
	ldr	r0, [r2, #12]
	ldr	r1, [r2, #16]
	ldr	ip, [r10]
	str	r9, [sp]
	str	r8, [sp, #4]
	mov	r2, #0
.LVL182:
	blx	ip
.LVL183:
.L155:
	.loc 1 671 0
	ldr	r3, [r7]
	ldr	r3, [r3]
	mov	r3, r3, asl #2
	add	r2, r6, r3
	ldr	r2, [r2, #356]
	cmp	r5, r2
	blt	.L156
.LVL184:
.L152:
.LBE55:
.LBE54:
	.loc 1 679 0
	add	sp, sp, #8
	.cfi_def_cfa_offset 32
	@ sp needed
	ldmfd	sp!, {r4, r5, r6, r7, r8, r9, r10, pc}
.L161:
	.align	2
.L160:
	.word	gamemode
	.word	.LANCHOR0
	.word	.LANCHOR1
	.word	V_DrawNumPatch
	.cfi_endproc
.LFE13:
	.size	WI_drawAnimatedBack, .-WI_drawAnimatedBack
	.align	2
	.global	WI_End
	.type	WI_End, %function
WI_End:
.LFB17:
	.loc 1 806 0
	.cfi_startproc
	@ args = 0, pretend = 0, frame = 0
	@ frame_needed = 0, uses_anonymous_args = 0
	.loc 1 807 0
	ldr	r3, .L168
	ldr	r3, [r3]
	cmp	r3, #0
	bne	.L167
	.loc 1 810 0
	b	WI_endNetgameStats
.LVL185:
.L167:
	.loc 1 806 0
	stmfd	sp!, {r4, r5, r6, lr}
	.cfi_def_cfa_offset 16
	.cfi_offset 4, -16
	.cfi_offset 5, -12
	.cfi_offset 6, -8
	.cfi_offset 14, -4
	mov	r4, #0
	ldr	r6, .L168+4
.L164:
.LBB58:
.LBB59:
	.loc 1 1064 0
	ldr	r3, [r6, #228]
	ldr	r5, .L168+4
	ldr	r0, [r3, r4]
	add	r4, r4, #4
	bl	Z_Free
.LVL186:
	.loc 1 1063 0
	cmp	r4, #16
	bne	.L164
	.loc 1 1066 0
	ldr	r0, [r5, #228]
	bl	Z_Free
.LVL187:
	ldr	r0, [r5, #232]
.LBE59:
.LBE58:
	.loc 1 813 0
	ldmfd	sp!, {r4, r5, r6, lr}
	.cfi_restore 14
	.cfi_restore 6
	.cfi_restore 5
	.cfi_restore 4
	.cfi_def_cfa_offset 0
.LBB61:
.LBB60:
	.loc 1 1066 0
	b	Z_Free
.LVL188:
.L169:
	.align	2
.L168:
	.word	deathmatch
	.word	.LANCHOR0
.LBE60:
.LBE61:
	.cfi_endproc
.LFE17:
	.size	WI_End, .-WI_End
	.align	2
	.global	WI_initNoState
	.type	WI_initNoState, %function
WI_initNoState:
.LFB18:
	.loc 1 823 0
	.cfi_startproc
	@ args = 0, pretend = 0, frame = 0
	@ frame_needed = 0, uses_anonymous_args = 0
	@ link register save eliminated.
	.loc 1 824 0
	mvn	ip, #0
	.loc 1 826 0
	mov	r0, #10
	.loc 1 825 0
	mov	r1, #0
	.loc 1 824 0
	ldr	r3, .L171
	.loc 1 825 0
	ldr	r2, .L171+4
	.loc 1 824 0
	strb	ip, [r3, #224]
	.loc 1 826 0
	str	r0, [r3, #236]
	.loc 1 825 0
	str	r1, [r2]
	bx	lr
.L172:
	.align	2
.L171:
	.word	.LANCHOR0
	.word	acceleratestage
	.cfi_endproc
.LFE18:
	.size	WI_initNoState, .-WI_initNoState
	.align	2
	.global	WI_updateNoState
	.type	WI_updateNoState, %function
WI_updateNoState:
.LFB20:
	.loc 1 868 0
	.cfi_startproc
	@ args = 0, pretend = 0, frame = 0
	@ frame_needed = 0, uses_anonymous_args = 0
	stmfd	sp!, {r3, lr}
	.cfi_def_cfa_offset 8
	.cfi_offset 3, -8
	.cfi_offset 14, -4
	.loc 1 870 0
	bl	WI_updateAnimatedBack
.LVL189:
	.loc 1 872 0
	ldr	r2, .L176
	ldr	r3, [r2, #236]
	sub	r3, r3, #1
	cmp	r3, #0
	str	r3, [r2, #236]
	ldmnefd	sp!, {r3, pc}
	.loc 1 874 0
	ldmfd	sp!, {r3, lr}
	.cfi_restore 14
	.cfi_restore 3
	.cfi_def_cfa_offset 0
	.loc 1 873 0
	b	G_WorldDone
.LVL190:
.L177:
	.align	2
.L176:
	.word	.LANCHOR0
	.cfi_endproc
.LFE20:
	.size	WI_updateNoState, .-WI_updateNoState
	.align	2
	.global	WI_initShowNextLoc
	.type	WI_initShowNextLoc, %function
WI_initShowNextLoc:
.LFB21:
	.loc 1 886 0
	.cfi_startproc
	@ args = 0, pretend = 0, frame = 0
	@ frame_needed = 0, uses_anonymous_args = 0
	@ link register save eliminated.
	.loc 1 887 0
	ldr	r3, .L186
	ldrb	r3, [r3]	@ zero_extendqisi2
	cmp	r3, #2
	beq	.L179
	.loc 1 887 0 is_stmt 0 discriminator 1
	ldr	r3, .L186+4
	ldr	r3, [r3]
	cmp	r3, #8
	beq	.L185
.L179:
	.loc 1 893 0 is_stmt 1
	mov	r1, #0
	.loc 1 903 0
	ldr	r2, .L186+8
	.loc 1 892 0
	mov	r0, #1
	.loc 1 903 0
	ldrb	ip, [r2]	@ zero_extendqisi2
	.loc 1 893 0
	ldr	r2, .L186+12
	.loc 1 903 0
	cmp	ip, #6
	.loc 1 893 0
	str	r1, [r2]
	.loc 1 904 0
	moveq	r2, #60
	.loc 1 906 0
	movne	r2, #140
	.loc 1 892 0
	ldr	r3, .L186+16
	strb	r0, [r3, #224]
	.loc 1 906 0
	str	r2, [r3, #236]
	.loc 1 908 0
	b	WI_initAnimatedBack
.LVL191:
.L185:
	.loc 1 888 0
	b	G_WorldDone
.LVL192:
.L187:
	.align	2
.L186:
	.word	gamemode
	.word	gamemap
	.word	compatibility_level
	.word	acceleratestage
	.word	.LANCHOR0
	.cfi_endproc
.LFE21:
	.size	WI_initShowNextLoc, .-WI_initShowNextLoc
	.align	2
	.global	WI_updateShowNextLoc
	.type	WI_updateShowNextLoc, %function
WI_updateShowNextLoc:
.LFB22:
	.loc 1 919 0
	.cfi_startproc
	@ args = 0, pretend = 0, frame = 0
	@ frame_needed = 0, uses_anonymous_args = 0
	stmfd	sp!, {r3, lr}
	.cfi_def_cfa_offset 8
	.cfi_offset 3, -8
	.cfi_offset 14, -4
	.loc 1 920 0
	bl	WI_updateAnimatedBack
.LVL193:
	.loc 1 922 0
	ldr	r2, .L196
	ldr	r1, .L196+4
	ldr	r3, [r2, #236]
	sub	r3, r3, #1
	cmp	r3, #0
	str	r3, [r2, #236]
	beq	.L189
	.loc 1 922 0 is_stmt 0 discriminator 1
	ldr	r0, [r1]
	cmp	r0, #0
	bne	.L189
	.loc 1 925 0 is_stmt 1
	and	r3, r3, #31
	cmp	r3, #19
	movgt	r3, #0
	movle	r3, #1
	str	r3, [r2, #240]
	ldmfd	sp!, {r3, pc}
.L189:
.LBB66:
.LBB67:
	.loc 1 824 0
	mvn	ip, #0
	.loc 1 825 0
	mov	r0, #0
	.loc 1 826 0
	mov	r3, #10
	.loc 1 824 0
	strb	ip, [r2, #224]
	.loc 1 825 0
	str	r0, [r1]
	.loc 1 826 0
	str	r3, [r2, #236]
	ldmfd	sp!, {r3, pc}
.L197:
	.align	2
.L196:
	.word	.LANCHOR0
	.word	acceleratestage
.LBE67:
.LBE66:
	.cfi_endproc
.LFE22:
	.size	WI_updateShowNextLoc, .-WI_updateShowNextLoc
	.align	2
	.global	WI_drawShowNextLoc
	.type	WI_drawShowNextLoc, %function
WI_drawShowNextLoc:
.LFB23:
	.loc 1 936 0
	.cfi_startproc
	@ args = 0, pretend = 0, frame = 0
	@ frame_needed = 0, uses_anonymous_args = 0
	stmfd	sp!, {r3, r4, r5, r6, r7, lr}
	.cfi_def_cfa_offset 24
	.cfi_offset 3, -24
	.cfi_offset 4, -20
	.cfi_offset 5, -16
	.cfi_offset 6, -12
	.cfi_offset 7, -8
	.cfi_offset 14, -4
	.loc 1 945 0
	ldr	r7, .L224
	.loc 1 940 0
	bl	WI_slamBackground
.LVL194:
	.loc 1 943 0
	bl	WI_drawAnimatedBack
.LVL195:
	.loc 1 945 0
	ldrb	r3, [r7]	@ zero_extendqisi2
	.loc 1 947 0
	ldr	r6, .L224+4
	.loc 1 945 0
	cmp	r3, #2
	beq	.L208
	.loc 1 947 0
	ldr	r3, [r6]
	ldr	r2, [r3]
	cmp	r2, #2
	bgt	.L209
	.loc 1 953 0
	ldr	r5, [r3, #8]
	cmp	r5, #8
	ldreq	r5, [r3, #12]
	subeq	r5, r5, #1
.LVL196:
	.loc 1 956 0
	cmp	r5, #0
	blt	.L204
	mov	r4, #0
.LVL197:
.L205:
	.loc 1 957 0 discriminator 3
	mov	r0, r4
	ldr	r1, .L224+8
	.loc 1 956 0 discriminator 3
	add	r4, r4, #1
.LVL198:
	.loc 1 957 0 discriminator 3
	bl	WI_drawOnLnode
.LVL199:
	.loc 1 956 0 discriminator 3
	cmp	r5, r4
	bge	.L205
	ldr	r3, [r6]
.LVL200:
.L204:
	.loc 1 960 0
	ldr	r3, [r3, #4]
	cmp	r3, #0
	bne	.L222
	.loc 1 964 0
	ldr	r3, [r6, #240]
	ldr	r2, .L224+4
	cmp	r3, #0
	bne	.L223
.L207:
	.loc 1 969 0
	ldrb	r3, [r7]	@ zero_extendqisi2
	cmp	r3, #2
	beq	.L208
.LVL201:
.L209:
	.loc 1 972 0
	ldmfd	sp!, {r3, r4, r5, r6, r7, lr}
	.cfi_remember_state
	.cfi_restore 14
	.cfi_restore 7
	.cfi_restore 6
	.cfi_restore 5
	.cfi_restore 4
	.cfi_restore 3
	.cfi_def_cfa_offset 0
	.loc 1 949 0
	b	WI_drawEL
.LVL202:
.L208:
	.cfi_restore_state
	.loc 1 970 0
	ldr	r3, [r6]
	ldr	r3, [r3, #12]
	cmp	r3, #30
	bne	.L209
	ldmfd	sp!, {r3, r4, r5, r6, r7, pc}
.LVL203:
.L223:
	.loc 1 965 0
	ldr	r3, [r2]
	ldr	r1, .L224+12
	ldr	r0, [r3, #12]
	bl	WI_drawOnLnode
.LVL204:
	.loc 1 969 0
	ldrb	r3, [r7]	@ zero_extendqisi2
	cmp	r3, #2
	bne	.L209
	b	.L208
.L222:
	.loc 1 961 0
	mov	r0, #8
	ldr	r1, .L224+8
	bl	WI_drawOnLnode
.LVL205:
	.loc 1 964 0
	ldr	r3, [r6, #240]
	ldr	r2, .L224+4
	cmp	r3, #0
	beq	.L207
	b	.L223
.L225:
	.align	2
.L224:
	.word	gamemode
	.word	.LANCHOR0
	.word	.LANCHOR2
	.word	.LANCHOR2+4
	.cfi_endproc
.LFE23:
	.size	WI_drawShowNextLoc, .-WI_drawShowNextLoc
	.align	2
	.global	WI_drawNoState
	.type	WI_drawNoState, %function
WI_drawNoState:
.LFB24:
	.loc 1 981 0
	.cfi_startproc
	@ args = 0, pretend = 0, frame = 0
	@ frame_needed = 0, uses_anonymous_args = 0
	@ link register save eliminated.
	.loc 1 982 0
	mov	r2, #1
	ldr	r3, .L227
	str	r2, [r3, #240]
	.loc 1 983 0
	b	WI_drawShowNextLoc
.LVL206:
.L228:
	.align	2
.L227:
	.word	.LANCHOR0
	.cfi_endproc
.LFE24:
	.size	WI_drawNoState, .-WI_drawNoState
	.align	2
	.global	WI_fragSum
	.type	WI_fragSum, %function
WI_fragSum:
.LFB25:
	.loc 1 994 0
	.cfi_startproc
	@ args = 0, pretend = 0, frame = 0
	@ frame_needed = 0, uses_anonymous_args = 0
.LVL207:
	stmfd	sp!, {r4, lr}
	.cfi_def_cfa_offset 8
	.cfi_offset 4, -8
	.cfi_offset 14, -4
	.loc 1 996 0
	mov	lr, #0
	.loc 1 998 0
	mov	r3, lr
	ldr	r2, .L237
	add	ip, r0, r0, asl #2
	ldr	r2, [r2, #244]
	ldr	r4, .L237+4
	add	ip, r2, ip, asl #3
	add	r2, ip, #20
.LVL208:
.L231:
	.loc 1 1000 0
	ldr	r1, [r4, r3, asl #2]
	add	r2, r2, #4
	.loc 1 1001 0
	cmp	r1, #0
	cmpne	r0, r3
	.loc 1 1003 0
	ldrne	r1, [r2, #-4]
	.loc 1 998 0
	add	r3, r3, #1
.LVL209:
	.loc 1 1003 0
	addne	lr, lr, r1
.LVL210:
	.loc 1 998 0
	cmp	r3, #4
	bne	.L231
.LVL211:
	.loc 1 1009 0
	add	ip, ip, r0, asl #2
.LVL212:
	ldr	r0, [ip, #20]
.LVL213:
	.loc 1 1012 0
	rsb	r0, r0, lr
	ldmfd	sp!, {r4, pc}
.L238:
	.align	2
.L237:
	.word	.LANCHOR0
	.word	playeringame
	.cfi_endproc
.LFE25:
	.size	WI_fragSum, .-WI_fragSum
	.align	2
	.global	WI_initDeathmatchStats
	.type	WI_initDeathmatchStats, %function
WI_initDeathmatchStats:
.LFB26:
	.loc 1 1027 0
	.cfi_startproc
	@ args = 0, pretend = 0, frame = 0
	@ frame_needed = 0, uses_anonymous_args = 0
	.loc 1 1031 0
	mov	r0, #4
	.loc 1 1027 0
	stmfd	sp!, {r4, r5, r6, r7, r8, lr}
	.cfi_def_cfa_offset 24
	.cfi_offset 4, -24
	.cfi_offset 5, -20
	.cfi_offset 6, -16
	.cfi_offset 7, -12
	.cfi_offset 8, -8
	.cfi_offset 14, -4
	.loc 1 1031 0
	mov	r2, #1
	mov	r1, r0
	mov	r3, #0
	bl	Z_Calloc
.LVL214:
	ldr	r5, .L248
	.loc 1 1032 0
	mov	r1, #2
	.loc 1 1031 0
	str	r0, [r5, #228]
	.loc 1 1032 0
	mov	r2, #1
	mov	r3, #0
	mov	r0, #4
	bl	Z_Calloc
.LVL215:
	.loc 1 1034 0
	mov	r3, #0
	.loc 1 1036 0
	mov	ip, #1
	.loc 1 1038 0
	mov	r1, #35
	mov	r4, r3
	.loc 1 1045 0
	mov	r8, r3
	.loc 1 1035 0
	ldr	r2, .L248+4
	ldr	r6, .L248+8
	.loc 1 1032 0
	str	r0, [r5, #232]
	.loc 1 1036 0
	str	ip, [r5, #248]
	.loc 1 1038 0
	str	r1, [r5, #252]
.LVL216:
	.loc 1 1034 0
	strb	r3, [r5, #224]
	.loc 1 1035 0
	str	r3, [r2]
.LVL217:
.L241:
	.loc 1 1042 0
	ldr	r3, [r6, r4, asl #1]
	cmp	r3, #0
	bne	.L247
.L240:
	add	r4, r4, #2
	.loc 1 1040 0 discriminator 2
	cmp	r4, #8
	bne	.L241
	.loc 1 1051 0
	ldmfd	sp!, {r4, r5, r6, r7, r8, lr}
	.cfi_remember_state
	.cfi_restore 14
	.cfi_restore 8
	.cfi_restore 7
	.cfi_restore 6
	.cfi_restore 5
	.cfi_restore 4
	.cfi_def_cfa_offset 0
	.loc 1 1050 0
	b	WI_initAnimatedBack
.LVL218:
.L247:
	.cfi_restore_state
	.loc 1 1045 0
	mov	r3, #0
	mov	r0, #4
	mov	r1, #2
	mov	r2, #1
	ldr	r7, [r5, #228]
	bl	Z_Calloc
.LVL219:
	.loc 1 1047 0
	ldr	r3, [r5, #232]
	.loc 1 1045 0
	str	r0, [r7, r4, asl #1]
	.loc 1 1047 0
	strh	r8, [r3, r4]	@ movhi
	b	.L240
.L249:
	.align	2
.L248:
	.word	.LANCHOR0
	.word	acceleratestage
	.word	playeringame
	.cfi_endproc
.LFE26:
	.size	WI_initDeathmatchStats, .-WI_initDeathmatchStats
	.align	2
	.global	WI_updateDeathmatchStats
	.type	WI_updateDeathmatchStats, %function
WI_updateDeathmatchStats:
.LFB28:
	.loc 1 1078 0
	.cfi_startproc
	@ args = 0, pretend = 0, frame = 0
	@ frame_needed = 0, uses_anonymous_args = 0
	stmfd	sp!, {r3, r4, r5, r6, r7, r8, r9, r10, fp, lr}
	.cfi_def_cfa_offset 40
	.cfi_offset 3, -40
	.cfi_offset 4, -36
	.cfi_offset 5, -32
	.cfi_offset 6, -28
	.cfi_offset 7, -24
	.cfi_offset 8, -20
	.cfi_offset 9, -16
	.cfi_offset 10, -12
	.cfi_offset 11, -8
	.cfi_offset 14, -4
	.loc 1 1086 0
	ldr	r8, .L307
	.loc 1 1084 0
	bl	WI_updateAnimatedBack
.LVL220:
	.loc 1 1086 0
	ldr	r3, [r8]
	ldr	r5, .L307+4
	cmp	r3, #0
	ldr	r3, [r5, #248]
	beq	.L251
	.loc 1 1086 0 is_stmt 0 discriminator 1
	cmp	r3, #4
	beq	.L252
	.loc 1 1088 0 is_stmt 1
	mov	r3, #0
	.loc 1 1090 0
	mov	r6, r3
	ldr	r7, [r5, #244]
	.loc 1 1096 0
	ldr	r10, [r5, #228]
	ldr	r9, [r5, #232]
	ldr	r4, .L307+8
	.loc 1 1088 0
	str	r3, [r8]
.LVL221:
	add	r7, r7, #20
.LVL222:
.L256:
	.loc 1 1092 0
	ldr	r3, [r4, r6, asl #2]
	cmp	r3, #0
	beq	.L253
	mov	r2, r7
	mov	r3, #0
.L255:
.LVL223:
	.loc 1 1095 0
	ldr	r1, [r4, r3, asl #1]
	add	r2, r2, #4
	cmp	r1, #0
	.loc 1 1096 0
	ldrne	r0, [r2, #-4]
	ldrne	r1, [r10, r6, asl #2]
	strneh	r0, [r1, r3]	@ movhi
	add	r3, r3, #2
	.loc 1 1094 0
	cmp	r3, #8
	bne	.L255
	.loc 1 1098 0
	mov	r0, r6
	bl	WI_fragSum
.LVL224:
	strh	r0, [r9]	@ movhi
.L253:
	.loc 1 1090 0 discriminator 2
	add	r6, r6, #1
.LVL225:
	cmp	r6, #4
	add	r9, r9, #2
	add	r7, r7, #40
	bne	.L256
	.loc 1 1103 0
	mov	r0, #0
	mov	r1, #82
	bl	S_StartSound
.LVL226:
	.loc 1 1156 0
	ldr	r3, [r8]
	.loc 1 1104 0
	str	r6, [r5, #248]
	.loc 1 1156 0
	cmp	r3, #0
	beq	.L302
.LVL227:
.L252:
	.loc 1 1158 0
	mov	r0, #0
	mov	r1, #31
	bl	S_StartSound
.LVL228:
	.loc 1 1160 0
	ldr	r3, .L307+12
	ldrb	r3, [r3]	@ zero_extendqisi2
	cmp	r3, #2
	beq	.L303
	.loc 1 1174 0
	ldmfd	sp!, {r3, r4, r5, r6, r7, r8, r9, r10, fp, lr}
	.cfi_remember_state
	.cfi_restore 14
	.cfi_restore 11
	.cfi_restore 10
	.cfi_restore 9
	.cfi_restore 8
	.cfi_restore 7
	.cfi_restore 6
	.cfi_restore 5
	.cfi_restore 4
	.cfi_restore 3
	.cfi_def_cfa_offset 0
	.loc 1 1163 0
	b	WI_initShowNextLoc
.LVL229:
.L251:
	.cfi_restore_state
	.loc 1 1108 0
	cmp	r3, #2
	beq	.L304
	.loc 1 1154 0
	cmp	r3, #4
	beq	.L305
	.loc 1 1166 0
	tst	r3, #1
	ldmeqfd	sp!, {r3, r4, r5, r6, r7, r8, r9, r10, fp, pc}
	.loc 1 1168 0
	ldr	r2, [r5, #252]
	sub	r2, r2, #1
	cmp	r2, #0
	str	r2, [r5, #252]
	.loc 1 1171 0
	moveq	r2, #35
	.loc 1 1170 0
	addeq	r3, r3, #1
	streq	r3, [r5, #248]
	.loc 1 1171 0
	streq	r2, [r5, #252]
	ldmfd	sp!, {r3, r4, r5, r6, r7, r8, r9, r10, fp, pc}
.L304:
	.loc 1 1110 0
	ldr	r0, [r5, #220]
	ands	r0, r0, #3
	beq	.L306
.L259:
.LVL230:
	.loc 1 1138 0 discriminator 1
	mov	r10, #0
	mov	r6, r10
	ldr	r7, [r5, #244]
	.loc 1 1122 0 discriminator 1
	ldr	fp, [r5, #228]
	ldr	r8, [r5, #232]
	ldr	r4, .L307+8
	.loc 1 1129 0 discriminator 1
	ldr	r9, .L307+16
	add	r7, r7, #20
.LVL231:
.L268:
	.loc 1 1117 0
	ldr	r3, [r4, r6, asl #2]
	cmp	r3, #0
	beq	.L260
	mov	r1, r7
	mov	r3, #0
.L265:
	.loc 1 1121 0
	ldr	r2, [r4, r3, asl #1]
	cmp	r2, #0
	beq	.L261
	.loc 1 1122 0
	ldr	r0, [fp, r6, asl #2]
	ldr	ip, [r1]
	ldrh	r2, [r0, r3]
	add	r0, r0, r3
	sxth	lr, r2
	cmp	lr, ip
	beq	.L261
	.loc 1 1124 0
	cmp	ip, #0
	.loc 1 1125 0
	sublt	r2, r2, #1
	.loc 1 1127 0
	addge	r2, r2, #1
	uxth	r2, r2
	strh	r2, [r0]	@ movhi
	.loc 1 1129 0
	sxth	r2, r2
	cmp	r2, r9
	.loc 1 1130 0
	strgth	r9, [r0]	@ movhi
	.loc 1 1135 0
	movgt	r10, #1
	.loc 1 1129 0
	bgt	.L261
	.loc 1 1132 0
	ldr	ip, .L307+20
	.loc 1 1135 0
	mov	r10, #1
	.loc 1 1132 0
	cmp	r2, ip
	.loc 1 1133 0
	movlt	r2, ip
	strlth	r2, [r0]	@ movhi
.L261:
	add	r3, r3, #2
	.loc 1 1119 0 discriminator 2
	cmp	r3, #8
	add	r1, r1, #4
	bne	.L265
	.loc 1 1138 0
	mov	r0, r6
	bl	WI_fragSum
.LVL232:
	uxth	r0, r0
	.loc 1 1140 0
	sxth	r3, r0
	cmp	r3, r9
	strgth	r9, [r8]	@ movhi
	bgt	.L260
	.loc 1 1143 0
	ldr	r2, .L307+20
	cmp	r3, r2
	.loc 1 1144 0
	ldrlt	r3, .L307+20
	.loc 1 1138 0
	strgeh	r0, [r8]	@ movhi
	.loc 1 1144 0
	strlth	r3, [r8]	@ movhi
.L260:
	.loc 1 1115 0 discriminator 2
	add	r6, r6, #1
.LVL233:
	cmp	r6, #4
	add	r8, r8, #2
	add	r7, r7, #40
	bne	.L268
	.loc 1 1148 0
	cmp	r10, #0
	ldmnefd	sp!, {r3, r4, r5, r6, r7, r8, r9, r10, fp, pc}
	.loc 1 1150 0
	mov	r0, r10
	mov	r1, #82
	bl	S_StartSound
.LVL234:
	.loc 1 1151 0
	ldr	r3, [r5, #248]
	add	r3, r3, #1
	str	r3, [r5, #248]
	ldmfd	sp!, {r3, r4, r5, r6, r7, r8, r9, r10, fp, pc}
.LVL235:
.L305:
	ldmfd	sp!, {r3, r4, r5, r6, r7, r8, r9, r10, fp, pc}
.L306:
	.loc 1 1111 0
	mov	r1, #1
	bl	S_StartSound
.LVL236:
	b	.L259
.L303:
.LBB68:
.LBB69:
	.loc 1 824 0
	mvn	r1, #0
	.loc 1 825 0
	mov	r2, #0
	.loc 1 826 0
	mov	r3, #10
	.loc 1 824 0
	strb	r1, [r5, #224]
	.loc 1 825 0
	str	r2, [r8]
	.loc 1 826 0
	str	r3, [r5, #236]
	ldmfd	sp!, {r3, r4, r5, r6, r7, r8, r9, r10, fp, pc}
.LVL237:
.L302:
.LBE69:
.LBE68:
	ldmfd	sp!, {r3, r4, r5, r6, r7, r8, r9, r10, fp, pc}
.L308:
	.align	2
.L307:
	.word	acceleratestage
	.word	.LANCHOR0
	.word	playeringame
	.word	gamemode
	.word	999
	.word	-999
	.cfi_endproc
.LFE28:
	.size	WI_updateDeathmatchStats, .-WI_updateDeathmatchStats
	.align	2
	.global	WI_drawDeathmatchStats
	.type	WI_drawDeathmatchStats, %function
WI_drawDeathmatchStats:
.LFB29:
	.loc 1 1186 0
	.cfi_startproc
	@ args = 0, pretend = 0, frame = 16
	@ frame_needed = 0, uses_anonymous_args = 0
	stmfd	sp!, {r4, r5, r6, r7, r8, r9, r10, fp, lr}
	.cfi_def_cfa_offset 36
	.cfi_offset 4, -36
	.cfi_offset 5, -32
	.cfi_offset 6, -28
	.cfi_offset 7, -24
	.cfi_offset 8, -20
	.cfi_offset 9, -16
	.cfi_offset 10, -12
	.cfi_offset 11, -8
	.cfi_offset 14, -4
	.loc 1 1194 0
	ldr	r0, .L334
	.loc 1 1186 0
	sub	sp, sp, #28
	.cfi_def_cfa_offset 64
	.loc 1 1194 0
	bl	W_GetNumForName
.LVL238:
	bl	R_NumPatchWidth
.LVL239:
	add	r0, r0, r0, lsr #31
	mov	r3, r0, asr #1
	.loc 1 1205 0
	ldr	r8, .L334+4
	.loc 1 1194 0
	mov	r9, r3
	str	r3, [sp, #16]
.LVL240:
	.loc 1 1198 0
	bl	WI_slamBackground
.LVL241:
	.loc 1 1201 0
	bl	WI_drawAnimatedBack
.LVL242:
	.loc 1 1202 0
	bl	WI_drawLF
.LVL243:
	.loc 1 1205 0
	ldr	r0, .L334+8
	ldr	r7, [r8]
	bl	W_GetNumForName
.LVL244:
	bl	R_NumPatchWidth
.LVL245:
	mov	r4, r0
	ldr	r0, .L334+8
	bl	W_GetNumForName
.LVL246:
	mov	r6, #6
	mov	r5, #4
	add	r4, r4, r4, lsr #31
	mov	r4, r4, asr #1
	mov	r3, r0
	rsb	r0, r4, #268
	mov	r1, #45
	mov	r2, #0
	add	r0, r0, #1
	str	r6, [sp]
	str	r5, [sp, #4]
	blx	r7
.LVL247:
	.loc 1 1208 0
	ldr	r0, .L334+12
	ldr	r4, [r8]
	bl	W_GetNumForName
.LVL248:
	mov	r1, #100
	mov	r3, r0
	mov	r2, #0
	str	r6, [sp]
	str	r5, [sp, #4]
	mov	r0, #10
	blx	r4
.LVL249:
	.loc 1 1209 0
	ldr	r0, .L334+16
	ldr	r4, [r8]
	bl	W_GetNumForName
.LVL250:
	str	r6, [sp]
	str	r5, [sp, #4]
	.loc 1 1219 0
	str	r6, [sp, #8]
	str	r5, [sp, #20]
	.loc 1 1213 0
	mov	r6, #68
	.loc 1 1215 0
	mov	r5, #0
	.loc 1 1209 0
	mov	r3, r0
	mov	r1, #50
	mov	r0, #5
	mov	r2, #0
	blx	r4
.LVL251:
	ldr	r7, .L334+20
	ldr	r4, .L334+24
	rsb	fp, r9, #82
.LVL252:
.L314:
	.loc 1 1217 0
	ldr	r3, [r4, r5, asl #2]
	cmp	r3, #0
	bne	.L332
.L311:
	.loc 1 1235 0 discriminator 2
	add	r6, r6, #33
.LVL253:
	.loc 1 1215 0 discriminator 2
	cmp	r6, #200
	add	r5, r5, #1
.LVL254:
	add	fp, fp, #40
	bne	.L314
.LVL255:
	.loc 1 1240 0
	mov	r8, #0
	.loc 1 1239 0
	mov	r9, #78
	.loc 1 1240 0
	ldr	fp, [r7, #4]
.LVL256:
	.loc 1 1255 0
	add	r10, fp, #268
	add	r3, r10, #1
	str	r3, [sp, #8]
.LVL257:
.L318:
	.loc 1 1246 0
	ldr	r3, [r4, r8, asl #1]
	mov	r10, r8, asl #1
	cmp	r3, #0
	beq	.L315
	mov	r5, #0
	add	r6, fp, #82
.LVL258:
.L317:
	.loc 1 1250 0
	ldr	r3, [r4, r5, asl #1]
	cmp	r3, #0
	bne	.L333
.L316:
.LVL259:
	add	r5, r5, #2
	.loc 1 1248 0 discriminator 2
	cmp	r5, #8
	add	r6, r6, #40
	bne	.L317
	.loc 1 1255 0
	ldr	r3, [r7, #232]
	ldr	r0, [sp, #8]
	ldrsh	r2, [r3, r8]
	mov	r1, r9
	mov	r3, #2
	bl	WI_drawNum
.LVL260:
.L315:
	.loc 1 1257 0 discriminator 2
	add	r9, r9, #33
.LVL261:
	.loc 1 1242 0 discriminator 2
	cmp	r9, #210
	add	r8, r8, #2
	bne	.L318
	.loc 1 1259 0
	add	sp, sp, #28
	.cfi_remember_state
	.cfi_def_cfa_offset 36
	@ sp needed
	ldmfd	sp!, {r4, r5, r6, r7, r8, r9, r10, fp, pc}
.LVL262:
.L333:
	.cfi_restore_state
	.loc 1 1251 0
	ldr	r3, [r7, #228]
	mov	r0, r6
	ldr	r3, [r3, r10]
	mov	r1, r9
	ldrsh	r2, [r3, r5]
	mov	r3, #2
	bl	WI_drawNum
.LVL263:
	b	.L316
.LVL264:
.L332:
	.loc 1 1219 0
	ldr	r0, .L334
	ldr	r10, [r8]
	bl	W_GetNumForName
.LVL265:
	cmp	r5, #0
	add	r9, r5, #11
	mov	r3, r0
	beq	.L312
	.loc 1 1219 0 is_stmt 0 discriminator 1
	ldr	r2, [sp, #8]
	mov	r1, #35
	str	r2, [sp, #4]
	mov	r0, fp
	mov	r2, #0
	str	r9, [sp]
	blx	r10
.LVL266:
	.loc 1 1222 0 is_stmt 1 discriminator 1
	ldr	r3, .L334+4
	ldr	r0, .L334
	ldr	r3, [r3]
	str	r3, [sp, #12]
	bl	W_GetNumForName
.LVL267:
	mov	r1, #6
	ldr	r3, [sp, #16]
	rsb	r10, r3, #42
.L319:
	.loc 1 1222 0 is_stmt 0 discriminator 8
	mov	r3, r0
	str	r1, [sp, #4]
	mov	r2, #0
	str	r9, [sp]
	mov	r0, r10
	mov	r1, r6
	ldr	ip, [sp, #12]
	blx	ip
.LVL268:
	.loc 1 1226 0 is_stmt 1 discriminator 8
	ldr	r3, [r7, #256]
	cmp	r5, r3
	bne	.L311
	.loc 1 1228 0
	ldr	r0, .L334+28
	ldr	r9, [r8]
	bl	W_GetNumForName
.LVL269:
	ldr	r2, [sp, #8]
	ldr	r1, [sp, #20]
	mov	r3, r0
	str	r2, [sp]
	str	r1, [sp, #4]
	mov	r0, fp
	mov	r1, #35
	mov	r2, #0
	blx	r9
.LVL270:
	.loc 1 1230 0
	ldr	r0, .L334+32
	ldr	r9, [r8]
	bl	W_GetNumForName
.LVL271:
	ldr	r2, [sp, #8]
	ldr	r1, [sp, #20]
	mov	r3, r0
	str	r2, [sp]
	str	r1, [sp, #4]
	mov	r0, r10
	mov	r1, r6
	mov	r2, #0
	blx	r9
.LVL272:
	b	.L311
.L312:
	.loc 1 1219 0
	ldr	r2, [sp, #8]
	mov	r1, #35
	str	r2, [sp]
	ldr	r2, [sp, #20]
	mov	r0, fp
	str	r2, [sp, #4]
	mov	r2, r5
	blx	r10
.LVL273:
	.loc 1 1222 0
	ldr	r3, .L334+4
	ldr	r0, .L334
	ldr	r3, [r3]
	mov	r9, #6
	str	r3, [sp, #12]
	ldr	r3, [sp, #16]
	rsb	r10, r3, #42
	bl	W_GetNumForName
.LVL274:
	mov	r1, #4
	b	.L319
.L335:
	.align	2
.L334:
	.word	.LANCHOR1+388
	.word	V_DrawNumPatch
	.word	.LANCHOR1+40
	.word	.LANCHOR1+396
	.word	.LANCHOR1+404
	.word	.LANCHOR0
	.word	playeringame
	.word	.LANCHOR1+412
	.word	.LANCHOR1+424
	.cfi_endproc
.LFE29:
	.size	WI_drawDeathmatchStats, .-WI_drawDeathmatchStats
	.align	2
	.global	WI_initNetgameStats
	.type	WI_initNetgameStats, %function
WI_initNetgameStats:
.LFB31:
	.loc 1 1311 0
	.cfi_startproc
	@ args = 0, pretend = 0, frame = 0
	@ frame_needed = 0, uses_anonymous_args = 0
	stmfd	sp!, {r3, r4, r5, r6, r7, lr}
	.cfi_def_cfa_offset 24
	.cfi_offset 3, -24
	.cfi_offset 4, -20
	.cfi_offset 5, -16
	.cfi_offset 6, -12
	.cfi_offset 7, -8
	.cfi_offset 14, -4
	.loc 1 1321 0
	mov	r0, #4
	.loc 1 1314 0
	mov	r4, #0
	.loc 1 1316 0
	mov	r6, #1
	.loc 1 1318 0
	mov	ip, #35
	.loc 1 1314 0
	ldr	r5, .L344
	.loc 1 1315 0
	ldr	lr, .L344+4
	.loc 1 1321 0
	mov	r2, r6
	mov	r3, r4
	mov	r1, r0
	.loc 1 1315 0
	str	r4, [lr]
	.loc 1 1318 0
	str	ip, [r5, #252]
	.loc 1 1316 0
	str	r6, [r5, #260]
	.loc 1 1314 0
	strb	r4, [r5, #224]
	.loc 1 1321 0
	bl	Z_Calloc
.LVL275:
	str	r0, [r5, #216]
	.loc 1 1322 0
	mov	r0, #4
	mov	r2, r6
	mov	r3, r4
	mov	r1, r0
	bl	Z_Calloc
.LVL276:
	str	r0, [r5, #212]
	.loc 1 1323 0
	mov	r0, #4
	mov	r2, r6
	mov	r3, r4
	mov	r1, r0
	bl	Z_Calloc
.LVL277:
	str	r0, [r5, #208]
	.loc 1 1324 0
	mov	r0, #4
	mov	r2, r6
	mov	r3, r4
	mov	r1, r0
	bl	Z_Calloc
.LVL278:
	ldr	r7, .L344+8
	ldr	r6, [r5, #264]
	str	r0, [r5, #204]
.LVL279:
.L338:
	.loc 1 1327 0
	ldr	r3, [r7, r4, asl #2]
	cmp	r3, #0
	beq	.L337
	.loc 1 1328 0
	mov	r0, r4
	bl	WI_fragSum
.LVL280:
	add	r6, r6, r0
	str	r6, [r5, #264]
.L337:
	.loc 1 1326 0 discriminator 2
	add	r4, r4, #1
.LVL281:
	cmp	r4, #4
	bne	.L338
	.loc 1 1330 0
	adds	r6, r6, #0
	movne	r6, #1
	str	r6, [r5, #264]
	.loc 1 1333 0
	ldmfd	sp!, {r3, r4, r5, r6, r7, lr}
	.cfi_restore 14
	.cfi_restore 7
	.cfi_restore 6
	.cfi_restore 5
	.cfi_restore 4
	.cfi_restore 3
	.cfi_def_cfa_offset 0
.LVL282:
	.loc 1 1332 0
	b	WI_initAnimatedBack
.LVL283:
.L345:
	.align	2
.L344:
	.word	.LANCHOR0
	.word	acceleratestage
	.word	playeringame
	.cfi_endproc
.LFE31:
	.size	WI_initNetgameStats, .-WI_initNetgameStats
	.global	__aeabi_idiv
	.align	2
	.global	WI_updateNetgameStats
	.type	WI_updateNetgameStats, %function
WI_updateNetgameStats:
.LFB32:
	.loc 1 1344 0
	.cfi_startproc
	@ args = 0, pretend = 0, frame = 16
	@ frame_needed = 0, uses_anonymous_args = 0
	stmfd	sp!, {r4, r5, r6, r7, r8, r9, r10, fp, lr}
	.cfi_def_cfa_offset 36
	.cfi_offset 4, -36
	.cfi_offset 5, -32
	.cfi_offset 6, -28
	.cfi_offset 7, -24
	.cfi_offset 8, -20
	.cfi_offset 9, -16
	.cfi_offset 10, -12
	.cfi_offset 11, -8
	.cfi_offset 14, -4
	.loc 1 1352 0
	ldr	r5, .L430
	.loc 1 1344 0
	sub	sp, sp, #20
	.cfi_def_cfa_offset 56
	.loc 1 1350 0
	bl	WI_updateAnimatedBack
.LVL284:
	.loc 1 1352 0
	ldr	r3, [r5]
	ldr	r4, .L430+4
	cmp	r3, #0
	ldr	r3, [r4, #260]
	beq	.L347
	.loc 1 1352 0 is_stmt 0 discriminator 1
	cmp	r3, #10
	beq	.L348
	.loc 1 1362 0 is_stmt 1
	ldr	r3, [r4, #212]
	ldr	r9, .L430+8
	str	r3, [sp]
	.loc 1 1365 0
	ldr	r3, [r4, #208]
	.loc 1 1354 0
	mov	r1, #0
	.loc 1 1365 0
	str	r3, [sp, #4]
	.loc 1 1367 0
	ldr	r3, [r4, #264]
	ldr	r8, [r4, #244]
	str	r3, [sp, #8]
	.loc 1 1368 0
	ldr	r3, [r4, #204]
	.loc 1 1361 0
	mov	r7, #100
	.loc 1 1368 0
	str	r3, [sp, #12]
	.loc 1 1354 0
	mov	r3, r9
	mov	r9, r8
	mov	r10, r3
	mov	r8, r1
	.loc 1 1361 0
	ldr	fp, [r4, #216]
	ldr	r6, [r4]
	.loc 1 1354 0
	str	r1, [r5]
.LVL285:
.L353:
	.loc 1 1358 0
	ldr	r1, [r10, r8, asl #2]
	cmp	r1, #0
	beq	.L350
	.loc 1 1361 0
	ldr	r0, [r9, #4]
	ldr	r1, [r6, #16]
	mul	r0, r7, r0
	bl	__aeabi_idiv
.LVL286:
	str	r0, [fp, r8, asl #2]
	.loc 1 1362 0
	ldr	r0, [r9, #8]
	ldr	r1, [r6, #20]
	mul	r0, r7, r0
	bl	__aeabi_idiv
.LVL287:
	ldr	r3, [sp]
	str	r0, [r3, r8, asl #2]
	.loc 1 1365 0
	ldr	r1, [r6, #24]
	.loc 1 1366 0
	cmp	r1, #0
	moveq	r0, #100
	beq	.L351
	.loc 1 1366 0 is_stmt 0 discriminator 1
	ldr	r0, [r9, #12]
	mul	r0, r7, r0
	bl	__aeabi_idiv
.LVL288:
.L351:
	.loc 1 1367 0 is_stmt 1
	ldr	r3, [sp, #8]
	cmp	r3, #0
	.loc 1 1365 0
	ldr	r3, [sp, #4]
	str	r0, [r3, r8, asl #2]
	.loc 1 1367 0
	beq	.L350
	.loc 1 1368 0
	mov	r0, r8
	bl	WI_fragSum
.LVL289:
	ldr	r3, [sp, #12]
	str	r0, [r3, r8, asl #2]
.L350:
	.loc 1 1356 0 discriminator 2
	add	r8, r8, #1
.LVL290:
	cmp	r8, #4
	add	r9, r9, #40
	bne	.L353
	.loc 1 1370 0
	mov	r0, #0
	mov	r1, #82
	bl	S_StartSound
.LVL291:
	.loc 1 1371 0
	mov	r2, #10
	.loc 1 1481 0
	ldr	r3, [r5]
	.loc 1 1371 0
	str	r2, [r4, #260]
	.loc 1 1481 0
	cmp	r3, #0
	beq	.L346
.LVL292:
.L348:
	.loc 1 1483 0
	mov	r0, #0
	mov	r1, #3
	bl	S_StartSound
.LVL293:
	.loc 1 1484 0
	ldr	r3, .L430+12
	ldrb	r3, [r3]	@ zero_extendqisi2
	cmp	r3, #2
	beq	.L420
	.loc 1 1498 0
	add	sp, sp, #20
	.cfi_remember_state
	.cfi_def_cfa_offset 36
	@ sp needed
	ldmfd	sp!, {r4, r5, r6, r7, r8, r9, r10, fp, lr}
	.cfi_restore 14
	.cfi_restore 11
	.cfi_restore 10
	.cfi_restore 9
	.cfi_restore 8
	.cfi_restore 7
	.cfi_restore 6
	.cfi_restore 5
	.cfi_restore 4
	.cfi_def_cfa_offset 0
	.loc 1 1487 0
	b	WI_initShowNextLoc
.LVL294:
.L347:
	.cfi_restore_state
	.loc 1 1374 0
	cmp	r3, #2
	beq	.L421
	.loc 1 1400 0
	cmp	r3, #4
	beq	.L422
	.loc 1 1425 0
	cmp	r3, #6
	beq	.L423
	.loc 1 1453 0
	cmp	r3, #8
	beq	.L424
	.loc 1 1479 0
	cmp	r3, #10
	beq	.L346
	.loc 1 1490 0
	tst	r3, #1
	beq	.L346
	.loc 1 1492 0
	ldr	r2, [r4, #252]
	sub	r2, r2, #1
	cmp	r2, #0
	str	r2, [r4, #252]
	.loc 1 1495 0
	moveq	r2, #35
	.loc 1 1494 0
	addeq	r3, r3, #1
	streq	r3, [r4, #260]
	.loc 1 1495 0
	streq	r2, [r4, #252]
.L346:
	.loc 1 1498 0
	add	sp, sp, #20
	.cfi_remember_state
	.cfi_def_cfa_offset 36
	@ sp needed
	ldmfd	sp!, {r4, r5, r6, r7, r8, r9, r10, fp, pc}
.L421:
	.cfi_restore_state
	.loc 1 1376 0
	ldr	r0, [r4, #220]
	ands	r0, r0, #3
	beq	.L425
.L356:
.LVL295:
	.loc 1 1388 0 discriminator 1
	mov	r8, #0
	mov	r10, #100
	ldr	r5, [r4, #216]
	ldr	r3, [r4]
	ldr	fp, .L430+8
	ldr	r6, [r4, #244]
	str	r3, [sp]
	add	r9, r5, #16
.LVL296:
.L358:
	.loc 1 1383 0
	ldr	r3, [fp], #4
	cmp	r3, #0
	beq	.L357
	.loc 1 1386 0
	ldr	r7, [r5]
	.loc 1 1388 0
	ldr	r3, [sp]
	.loc 1 1386 0
	add	r7, r7, #2
	str	r7, [r5]
	.loc 1 1388 0
	ldr	r0, [r6, #4]
	ldr	r1, [r3, #16]
	mul	r0, r10, r0
	bl	__aeabi_idiv
.LVL297:
	cmp	r7, r0
	.loc 1 1391 0
	movlt	r8, #1
	.loc 1 1389 0
	strge	r0, [r5]
.L357:
	add	r5, r5, #4
	.loc 1 1381 0 discriminator 2
	cmp	r5, r9
	add	r6, r6, #40
	bne	.L358
	.loc 1 1419 0
	cmp	r8, #0
	bne	.L346
.L427:
	.loc 1 1421 0
	mov	r0, r8
	mov	r1, #82
	bl	S_StartSound
.LVL298:
	.loc 1 1422 0
	ldr	r3, [r4, #260]
	add	r3, r3, #1
	str	r3, [r4, #260]
	.loc 1 1498 0
	add	sp, sp, #20
	.cfi_remember_state
	.cfi_def_cfa_offset 36
	@ sp needed
	ldmfd	sp!, {r4, r5, r6, r7, r8, r9, r10, fp, pc}
.L422:
	.cfi_restore_state
	.loc 1 1402 0
	ldr	r0, [r4, #220]
	ands	r0, r0, #3
	beq	.L426
.L362:
.LVL299:
	.loc 1 1413 0 discriminator 1
	mov	r8, #0
	mov	r10, #100
	ldr	r5, [r4, #212]
	ldr	r3, [r4]
	ldr	fp, .L430+8
	ldr	r6, [r4, #244]
	str	r3, [sp]
	add	r9, r5, #16
.LVL300:
.L364:
	.loc 1 1409 0
	ldr	r3, [fp], #4
	cmp	r3, #0
	beq	.L363
	.loc 1 1412 0
	ldr	r7, [r5]
	.loc 1 1413 0
	ldr	r3, [sp]
	.loc 1 1412 0
	add	r7, r7, #2
	str	r7, [r5]
	.loc 1 1413 0
	ldr	r0, [r6, #8]
	ldr	r1, [r3, #20]
	mul	r0, r10, r0
	bl	__aeabi_idiv
.LVL301:
	cmp	r7, r0
	.loc 1 1416 0
	movlt	r8, #1
	.loc 1 1414 0
	strge	r0, [r5]
.L363:
	add	r5, r5, #4
	.loc 1 1407 0 discriminator 2
	cmp	r5, r9
	add	r6, r6, #40
	bne	.L364
	.loc 1 1419 0
	cmp	r8, #0
	bne	.L346
	b	.L427
.L423:
	.loc 1 1427 0
	ldr	r0, [r4, #220]
	ands	r0, r0, #3
	beq	.L428
.L366:
.LVL302:
	.loc 1 1441 0 discriminator 1
	ldr	r3, .L430+16
	ldr	r5, [r4, #208]
	ldrb	r2, [r3]	@ zero_extendqisi2
	ldr	fp, [r4]
	ldr	r6, [r4, #244]
	str	r4, [sp]
	mov	r10, #0
	.loc 1 1442 0 discriminator 1
	mov	ip, #100
	mov	r4, r2
	ldr	r8, .L430+8
	add	r9, r5, #16
.LVL303:
.L371:
	.loc 1 1434 0
	ldr	r3, [r8], #4
	cmp	r3, #0
	beq	.L367
	.loc 1 1437 0
	ldr	r7, [r5]
	add	r7, r7, #2
	str	r7, [r5]
	.loc 1 1441 0
	ldr	r1, [fp, #24]
	cmp	r1, #0
	beq	.L368
	.loc 1 1441 0 is_stmt 0 discriminator 1
	ldr	r0, [r6, #12]
	str	ip, [sp, #4]
	mul	r0, ip, r0
	bl	__aeabi_idiv
.LVL304:
	cmp	r7, r0
	ldr	ip, [sp, #4]
	blt	.L414
.L369:
	.loc 1 1442 0 is_stmt 1 discriminator 4
	str	r0, [r5]
.L367:
	add	r5, r5, #4
	.loc 1 1432 0 discriminator 2
	cmp	r5, r9
	add	r6, r6, #40
	bne	.L371
	.loc 1 1447 0
	cmp	r10, #0
	ldr	r4, [sp]
	bne	.L346
	.loc 1 1449 0
	mov	r0, r10
	mov	r1, #82
	bl	S_StartSound
.LVL305:
	.loc 1 1450 0
	ldr	r3, [r4, #264]
	ldr	r2, [r4, #260]
	cmp	r3, #0
	moveq	r3, #3
	movne	r3, #1
	add	r3, r3, r2
	str	r3, [r4, #260]
	b	.L346
.L425:
	.loc 1 1377 0
	mov	r1, #1
	bl	S_StartSound
.LVL306:
	b	.L356
.L426:
	.loc 1 1403 0
	mov	r1, #1
	bl	S_StartSound
.LVL307:
	b	.L362
.L414:
	.loc 1 1444 0
	mov	r10, #1
	b	.L367
.L368:
	.loc 1 1441 0 discriminator 2
	cmp	r4, #9
	movhi	r1, #100
	cmp	r1, r7
	bgt	.L414
	.loc 1 1442 0
	mov	r0, #100
	b	.L369
.L424:
	.loc 1 1455 0
	ldr	r0, [r4, #220]
	ands	r0, r0, #3
	beq	.L429
.L374:
.LVL308:
	.loc 1 1465 0 discriminator 1
	mov	r8, #0
	mov	r5, r8
	ldr	r6, [r4, #204]
	ldr	r9, .L430+8
.LVL309:
.L376:
	.loc 1 1462 0
	ldr	r3, [r9, r5, asl #2]
	cmp	r3, #0
	beq	.L375
	.loc 1 1465 0
	ldr	r7, [r6]
	.loc 1 1467 0
	mov	r0, r5
	.loc 1 1465 0
	add	r7, r7, #1
	str	r7, [r6]
	.loc 1 1467 0
	bl	WI_fragSum
.LVL310:
	cmp	r7, r0
	.loc 1 1470 0
	movlt	r8, #1
	.loc 1 1468 0
	strge	r0, [r6]
.LVL311:
.L375:
	.loc 1 1460 0 discriminator 2
	add	r5, r5, #1
.LVL312:
	cmp	r5, #4
	add	r6, r6, #4
	bne	.L376
	.loc 1 1473 0
	cmp	r8, #0
	bne	.L346
	.loc 1 1475 0
	mov	r0, r8
	mov	r1, #57
	bl	S_StartSound
.LVL313:
	.loc 1 1476 0
	ldr	r3, [r4, #260]
	add	r3, r3, #1
	str	r3, [r4, #260]
	b	.L346
.LVL314:
.L420:
.LBB70:
.LBB71:
	.loc 1 824 0
	mvn	r1, #0
	.loc 1 825 0
	mov	r2, #0
	.loc 1 826 0
	mov	r3, #10
	.loc 1 824 0
	strb	r1, [r4, #224]
	.loc 1 825 0
	str	r2, [r5]
	.loc 1 826 0
	str	r3, [r4, #236]
	b	.L346
.L428:
.LBE71:
.LBE70:
	.loc 1 1428 0
	mov	r1, #1
	bl	S_StartSound
.LVL315:
	b	.L366
.L429:
	.loc 1 1456 0
	mov	r1, #1
	bl	S_StartSound
.LVL316:
	b	.L374
.L431:
	.align	2
.L430:
	.word	acceleratestage
	.word	.LANCHOR0
	.word	playeringame
	.word	gamemode
	.word	compatibility_level
	.cfi_endproc
.LFE32:
	.size	WI_updateNetgameStats, .-WI_updateNetgameStats
	.align	2
	.global	WI_drawNetgameStats
	.type	WI_drawNetgameStats, %function
WI_drawNetgameStats:
.LFB33:
	.loc 1 1510 0
	.cfi_startproc
	@ args = 0, pretend = 0, frame = 16
	@ frame_needed = 0, uses_anonymous_args = 0
	stmfd	sp!, {r4, r5, r6, r7, r8, r9, r10, fp, lr}
	.cfi_def_cfa_offset 36
	.cfi_offset 4, -36
	.cfi_offset 5, -32
	.cfi_offset 6, -28
	.cfi_offset 7, -24
	.cfi_offset 8, -20
	.cfi_offset 9, -16
	.cfi_offset 10, -12
	.cfi_offset 11, -8
	.cfi_offset 14, -4
	.loc 1 1514 0
	ldr	r0, .L481
	.loc 1 1510 0
	sub	sp, sp, #28
	.cfi_def_cfa_offset 64
	.loc 1 1514 0
	bl	W_GetNumForName
.LVL317:
	bl	R_NumPatchWidth
.LVL318:
	mov	fp, r0
.LVL319:
	.loc 1 1515 0
	ldr	r0, .L481+4
.LVL320:
	bl	W_GetNumForName
.LVL321:
	bl	R_NumPatchWidth
.LVL322:
	.loc 1 1525 0
	ldr	r9, .L481+8
	.loc 1 1515 0
	str	r0, [sp, #20]
.LVL323:
	.loc 1 1517 0
	bl	WI_slamBackground
.LVL324:
	.loc 1 1520 0
	bl	WI_drawAnimatedBack
.LVL325:
	.loc 1 1522 0
	bl	WI_drawLF
.LVL326:
	.loc 1 1525 0
	ldr	r0, .L481+12
	ldr	r8, [r9]
	bl	W_GetNumForName
.LVL327:
	bl	R_NumPatchWidth
.LVL328:
	ldr	r6, .L481+16
	add	r0, r0, r0, lsr #31
	ldr	r4, [r6, #264]
	mov	r3, r0, asr #1
	cmp	r4, #0
	moveq	r5, #32
	movne	r5, #0
	ldr	r0, .L481+20
	add	r4, r3, #32
	bl	W_GetNumForName
.LVL329:
	bl	R_NumPatchWidth
.LVL330:
	add	r4, r4, r5
	add	r4, r4, #64
	rsb	r4, r0, r4
	ldr	r0, .L481+20
	bl	W_GetNumForName
.LVL331:
	mov	r7, #6
	mov	r5, #4
	mov	r1, #50
	mov	r2, #0
	mov	r3, r0
	str	r7, [sp]
	mov	r0, r4
	str	r5, [sp, #4]
	blx	r8
.LVL332:
	.loc 1 1528 0
	ldr	r0, .L481+12
	ldr	r8, [r9]
	bl	W_GetNumForName
.LVL333:
	bl	R_NumPatchWidth
.LVL334:
	ldr	r4, [r6, #264]
	add	r0, r0, r0, lsr #31
	cmp	r4, #0
	moveq	r10, #32
	movne	r10, #0
	mov	r3, r0, asr #1
	ldr	r0, .L481+24
	add	r4, r3, #32
	bl	W_GetNumForName
.LVL335:
	bl	R_NumPatchWidth
.LVL336:
	add	r4, r4, r10
	add	r4, r4, #128
	rsb	r4, r0, r4
	ldr	r0, .L481+24
	bl	W_GetNumForName
.LVL337:
	mov	r1, #50
	mov	r2, #0
	mov	r3, r0
	str	r7, [sp]
	mov	r0, r4
	str	r5, [sp, #4]
	blx	r8
.LVL338:
	.loc 1 1531 0
	ldr	r0, .L481+12
	ldr	r8, [r9]
	bl	W_GetNumForName
.LVL339:
	bl	R_NumPatchWidth
.LVL340:
	ldr	r4, [r6, #264]
	add	r0, r0, r0, lsr #31
	cmp	r4, #0
	mov	r3, r0, asr #1
	moveq	r10, #32
	movne	r10, #0
	ldr	r0, .L481+28
	add	r4, r3, #32
	bl	W_GetNumForName
.LVL341:
	bl	R_NumPatchWidth
.LVL342:
	add	r4, r4, r10
	add	r4, r4, #192
	rsb	r4, r0, r4
	ldr	r0, .L481+28
	bl	W_GetNumForName
.LVL343:
	str	r7, [sp]
	mov	r3, r0
	str	r5, [sp, #4]
	mov	r0, r4
	mov	r1, #50
	mov	r2, #0
	blx	r8
.LVL344:
	.loc 1 1534 0
	ldr	r3, [r6, #264]
	cmp	r3, #0
	bne	.L477
.L436:
	.loc 1 1539 0
	mov	r7, #0
	ldr	r0, .L481+20
	bl	W_GetNumForName
.LVL345:
	bl	R_NumPatchHeight
.LVL346:
	.loc 1 1541 0
	mov	r4, r7
	ldr	r10, .L481+32
	.loc 1 1539 0
	add	r8, r0, #50
.LVL347:
.L446:
	.loc 1 1544 0
	ldr	r3, [r10, r4, asl #2]
	cmp	r3, #0
	bne	.L478
.L438:
	.loc 1 1541 0 discriminator 2
	add	r4, r4, #1
.LVL348:
	cmp	r4, #4
	add	r7, r7, #4
	bne	.L446
	.loc 1 1572 0
	cmp	r8, #160
	ble	.L479
	.loc 1 1575 0
	add	sp, sp, #28
	.cfi_remember_state
	.cfi_def_cfa_offset 36
	@ sp needed
	ldmfd	sp!, {r4, r5, r6, r7, r8, r9, r10, fp, pc}
.LVL349:
.L478:
	.cfi_restore_state
	.loc 1 1547 0
	ldr	r0, .L481+12
	bl	W_GetNumForName
.LVL350:
	bl	R_NumPatchWidth
.LVL351:
	ldr	r5, [r6, #264]
	add	r0, r0, r0, lsr #31
	cmp	r5, #0
	moveq	r5, #32
	movne	r5, #0
	.loc 1 1548 0
	ldr	ip, [r9]
	.loc 1 1547 0
	mov	r3, r0, asr #1
	add	r3, r3, #32
	.loc 1 1548 0
	ldr	r0, .L481+4
	.loc 1 1547 0
	add	r5, r3, r5
.LVL352:
	.loc 1 1548 0
	str	ip, [sp, #16]
	bl	W_GetNumForName
.LVL353:
	ldr	r2, [sp, #20]
	cmp	r4, #0
	rsb	r2, r2, r5
	str	r2, [sp, #12]
	moveq	r1, #6
	movne	r2, #6
	moveq	r2, #4
	addne	r1, r4, #11
	mov	r3, r0
	stmia	sp, {r1, r2}
	ldr	ip, [sp, #16]
	ldr	r0, [sp, #12]
	mov	r1, r8
	mov	r2, #0
	blx	ip
.LVL354:
	.loc 1 1552 0
	ldr	r3, [r6, #256]
	cmp	r4, r3
	beq	.L480
.L441:
.LVL355:
	.loc 1 1556 0
	ldr	r3, [r6, #216]
	cmp	r3, #0
	beq	.L442
	.loc 1 1557 0
	ldr	r2, [r3, r7]
.LVL356:
.LBB72:
.LBB73:
	.loc 1 754 0
	cmp	r2, #0
	blt	.L442
.LBE73:
.LBE72:
	.loc 1 1555 0
	add	r0, r5, #64
.LVL357:
.LBB75:
.LBB74:
	rsb	r0, fp, r0
.LVL358:
	add	r1, r8, #10
.LVL359:
	bl	WI_drawPercent.part.0
.LVL360:
.L442:
.LBE74:
.LBE75:
	.loc 1 1559 0
	ldr	r3, [r6, #212]
	cmp	r3, #0
	beq	.L443
	.loc 1 1560 0
	ldr	r2, [r3, r7]
.LVL361:
.LBB76:
.LBB77:
	.loc 1 754 0
	cmp	r2, #0
	blt	.L443
.LBE77:
.LBE76:
	.loc 1 1558 0
	add	r0, r5, #128
.LVL362:
.LBB79:
.LBB78:
	rsb	r0, fp, r0
.LVL363:
	add	r1, r8, #10
.LVL364:
	bl	WI_drawPercent.part.0
.LVL365:
.L443:
.LBE78:
.LBE79:
	.loc 1 1562 0
	ldr	r3, [r6, #208]
	cmp	r3, #0
	beq	.L444
	.loc 1 1563 0
	ldr	r2, [r3, r7]
.LVL366:
.LBB80:
.LBB81:
	.loc 1 754 0
	cmp	r2, #0
	blt	.L444
.LBE81:
.LBE80:
	.loc 1 1561 0
	add	r0, r5, #192
.LVL367:
.LBB83:
.LBB82:
	rsb	r0, fp, r0
.LVL368:
	add	r1, r8, #10
.LVL369:
	bl	WI_drawPercent.part.0
.LVL370:
.L444:
.LBE82:
.LBE83:
	.loc 1 1566 0
	ldr	r3, [r6, #264]
	cmp	r3, #0
	beq	.L445
	.loc 1 1566 0 is_stmt 0 discriminator 1
	ldr	r3, .L481+16
	ldr	r3, [r3, #204]
	cmp	r3, #0
	beq	.L445
	.loc 1 1567 0 is_stmt 1
	ldr	r2, [r3, r7]
	add	r0, r5, #256
.LVL371:
	add	r1, r8, #10
	mvn	r3, #0
	bl	WI_drawNum
.LVL372:
.L445:
	.loc 1 1569 0
	add	r8, r8, #33
.LVL373:
	b	.L438
.LVL374:
.L479:
	.loc 1 1574 0
	ldr	r3, [r6, #256]
	ldr	r2, [r6, #244]
	ldr	r1, [r6]
	add	r3, r3, r3, asl #2
	add	r3, r2, r3, asl #3
	ldr	lr, [r3, #16]
	ldr	r2, [r1, #32]
	ldr	ip, [r1, #200]
	ldr	r3, .L481+36
	smull	r1, r0, r3, lr
	smull	r4, r1, r3, ip
.LVL375:
	smull	r4, r3, r3, r2
	add	r0, r0, lr
	add	r3, r3, r2
	mov	lr, lr, asr #31
	add	r1, r1, ip
	mov	r2, r2, asr #31
	mov	ip, ip, asr #31
	rsb	r0, lr, r0, asr #5
	rsb	r1, ip, r1, asr #5
	rsb	r2, r2, r3, asr #5
	.loc 1 1575 0
	add	sp, sp, #28
	.cfi_remember_state
	.cfi_def_cfa_offset 36
	@ sp needed
	ldmfd	sp!, {r4, r5, r6, r7, r8, r9, r10, fp, lr}
	.cfi_restore 14
	.cfi_restore 11
	.cfi_restore 10
	.cfi_restore 9
	.cfi_restore 8
	.cfi_restore 7
	.cfi_restore 6
	.cfi_restore 5
	.cfi_restore 4
	.cfi_def_cfa_offset 0
.LVL376:
	.loc 1 1574 0
	b	WI_drawTimeStats
.LVL377:
.L477:
	.cfi_restore_state
	.loc 1 1535 0
	ldr	r0, .L481+12
	ldr	r8, [r9]
	bl	W_GetNumForName
.LVL378:
	bl	R_NumPatchWidth
.LVL379:
	ldr	r4, [r6, #264]
	add	r0, r0, r0, lsr #31
	cmp	r4, #0
	mov	r3, r0, asr #1
	moveq	r10, #32
	movne	r10, #0
	ldr	r0, .L481+40
	add	r4, r3, #32
	bl	W_GetNumForName
.LVL380:
	bl	R_NumPatchWidth
.LVL381:
	add	r4, r4, r10
	add	r4, r4, #256
	rsb	r4, r0, r4
	ldr	r0, .L481+40
	bl	W_GetNumForName
.LVL382:
	str	r7, [sp]
	mov	r3, r0
	str	r5, [sp, #4]
	mov	r0, r4
	mov	r1, #50
	mov	r2, #0
	blx	r8
.LVL383:
	b	.L436
.LVL384:
.L480:
	.loc 1 1553 0
	ldr	ip, [r9]
	ldr	r0, .L481+12
	str	ip, [sp, #16]
	bl	W_GetNumForName
.LVL385:
	mov	r2, #4
	mov	r1, #6
	mov	r3, r0
	str	r1, [sp]
	str	r2, [sp, #4]
	ldr	r0, [sp, #12]
	mov	r1, r8
	mov	r2, #0
	ldr	ip, [sp, #16]
	blx	ip
.LVL386:
	b	.L441
.L482:
	.align	2
.L481:
	.word	.LANCHOR1+8
	.word	.LANCHOR1+388
	.word	V_DrawNumPatch
	.word	.LANCHOR1+424
	.word	.LANCHOR0
	.word	.LANCHOR1+432
	.word	.LANCHOR1+440
	.word	.LANCHOR1+448
	.word	playeringame
	.word	-368140053
	.word	.LANCHOR1+456
	.cfi_endproc
.LFE33:
	.size	WI_drawNetgameStats, .-WI_drawNetgameStats
	.align	2
	.global	WI_initStats
	.type	WI_initStats, %function
WI_initStats:
.LFB34:
	.loc 1 1588 0
	.cfi_startproc
	@ args = 0, pretend = 0, frame = 0
	@ frame_needed = 0, uses_anonymous_args = 0
	stmfd	sp!, {r4, r5, r6, r7, r8, lr}
	.cfi_def_cfa_offset 24
	.cfi_offset 4, -24
	.cfi_offset 5, -20
	.cfi_offset 6, -16
	.cfi_offset 7, -12
	.cfi_offset 8, -8
	.cfi_offset 14, -4
	.loc 1 1589 0
	mov	r5, #0
	.loc 1 1591 0
	mov	r6, #1
	.loc 1 1589 0
	ldr	r4, .L485
	.loc 1 1590 0
	ldr	r3, .L485+4
	.loc 1 1594 0
	mov	r2, r5
	mov	r1, r6
	mov	r0, #4
	.loc 1 1590 0
	str	r5, [r3]
	.loc 1 1589 0
	strb	r5, [r4, #224]
	.loc 1 1591 0
	str	r6, [r4, #268]
	.loc 1 1594 0
	bl	Z_Malloc
.LVL387:
	mov	r7, r0
	.loc 1 1595 0
	mov	r1, r6
	mov	r2, r5
	mov	r0, #4
	.loc 1 1594 0
	str	r7, [r4, #216]
	.loc 1 1595 0
	bl	Z_Malloc
.LVL388:
	mov	r8, r0
	.loc 1 1596 0
	mov	r1, r6
	mov	r2, r5
	mov	r0, #4
	.loc 1 1595 0
	str	r8, [r4, #212]
	.loc 1 1596 0
	bl	Z_Malloc
.LVL389:
	mvn	r3, #0
	.loc 1 1598 0
	mov	r1, #35
	.loc 1 1596 0
	str	r3, [r0]
	str	r0, [r4, #208]
	.loc 1 1595 0
	str	r3, [r8]
	.loc 1 1597 0
	str	r3, [r4, #272]
	.loc 1 1594 0
	str	r3, [r7]
	.loc 1 1597 0
	str	r3, [r4, #276]
	str	r3, [r4, #280]
	.loc 1 1598 0
	str	r1, [r4, #252]
	.loc 1 1601 0
	ldmfd	sp!, {r4, r5, r6, r7, r8, lr}
	.cfi_restore 14
	.cfi_restore 8
	.cfi_restore 7
	.cfi_restore 6
	.cfi_restore 5
	.cfi_restore 4
	.cfi_def_cfa_offset 0
	.loc 1 1600 0
	b	WI_initAnimatedBack
.LVL390:
.L486:
	.align	2
.L485:
	.word	.LANCHOR0
	.word	acceleratestage
	.cfi_endproc
.LFE34:
	.size	WI_initStats, .-WI_initStats
	.align	2
	.global	WI_updateStats
	.type	WI_updateStats, %function
WI_updateStats:
.LFB35:
	.loc 1 1610 0
	.cfi_startproc
	@ args = 0, pretend = 0, frame = 0
	@ frame_needed = 0, uses_anonymous_args = 0
	stmfd	sp!, {r4, r5, r6, r7, r8, r9, r10, lr}
	.cfi_def_cfa_offset 32
	.cfi_offset 4, -32
	.cfi_offset 5, -28
	.cfi_offset 6, -24
	.cfi_offset 7, -20
	.cfi_offset 8, -16
	.cfi_offset 9, -12
	.cfi_offset 10, -8
	.cfi_offset 14, -4
	.loc 1 1613 0
	ldr	r5, .L572
	.loc 1 1611 0
	bl	WI_updateAnimatedBack
.LVL391:
	.loc 1 1613 0
	ldr	r3, [r5]
	ldr	r4, .L572+4
	cmp	r3, #0
	ldr	r3, [r4, #268]
	beq	.L488
	.loc 1 1613 0 is_stmt 0 discriminator 1
	cmp	r3, #10
	beq	.L489
	.loc 1 1616 0 is_stmt 1
	mov	r8, #100
	.loc 1 1615 0
	mov	r2, #0
	.loc 1 1616 0
	ldr	r3, [r4, #256]
	ldr	r6, [r4, #244]
	add	r3, r3, r3, asl #2
	add	r6, r6, r3, asl #3
	ldr	r0, [r6, #4]
	ldr	r7, [r4]
	.loc 1 1615 0
	str	r2, [r5]
	.loc 1 1616 0
	ldr	r1, [r7, #16]
	mul	r0, r8, r0
	bl	__aeabi_idiv
.LVL392:
	ldr	r3, [r4, #216]
	.loc 1 1617 0
	ldr	r9, [r4, #212]
	.loc 1 1616 0
	str	r0, [r3]
	.loc 1 1617 0
	ldr	r0, [r6, #8]
	ldr	r1, [r7, #20]
	mul	r0, r8, r0
	bl	__aeabi_idiv
.LVL393:
	str	r0, [r9]
	.loc 1 1620 0
	ldr	r1, [r7, #24]
	ldr	r9, [r4, #208]
	.loc 1 1621 0
	cmp	r1, #0
	moveq	r0, r8
	bne	.L560
.L490:
	.loc 1 1620 0
	str	r0, [r9]
	.loc 1 1624 0
	ldr	r1, [r6, #16]
	.loc 1 1623 0
	ldr	r2, [r7, #200]
	.loc 1 1625 0
	ldr	r3, [r7, #32]
	.loc 1 1623 0
	ldr	r0, .L572+8
	.loc 1 1624 0
	smull	lr, ip, r0, r1
	.loc 1 1623 0
	smull	r6, lr, r0, r2
	.loc 1 1625 0
	smull	r6, r0, r0, r3
	.loc 1 1623 0
	add	lr, lr, r2
	.loc 1 1625 0
	add	r0, r0, r3
	.loc 1 1624 0
	add	ip, ip, r1
	.loc 1 1623 0
	mov	r2, r2, asr #31
	.loc 1 1624 0
	mov	r1, r1, asr #31
	.loc 1 1625 0
	mov	r3, r3, asr #31
	rsb	r3, r3, r0, asr #5
	.loc 1 1624 0
	rsb	ip, r1, ip, asr #5
	.loc 1 1623 0
	rsb	r2, r2, lr, asr #5
	.loc 1 1626 0
	mov	r0, #0
	mov	r1, #82
	.loc 1 1623 0
	str	r2, [r4, #272]
	.loc 1 1625 0
	str	r3, [r4, #276]
	.loc 1 1624 0
	str	ip, [r4, #280]
	.loc 1 1626 0
	bl	S_StartSound
.LVL394:
	.loc 1 1627 0
	mov	r2, #10
	.loc 1 1733 0
	ldr	r3, [r5]
	.loc 1 1627 0
	str	r2, [r4, #268]
	.loc 1 1733 0
	cmp	r3, #0
	beq	.L561
.L489:
	.loc 1 1735 0
	mov	r0, #0
	mov	r1, #3
	bl	S_StartSound
.LVL395:
	.loc 1 1737 0
	ldr	r3, .L572+12
	ldrb	r3, [r3]	@ zero_extendqisi2
	cmp	r3, #2
	beq	.L562
	.loc 1 1751 0
	ldmfd	sp!, {r4, r5, r6, r7, r8, r9, r10, lr}
	.cfi_remember_state
	.cfi_restore 14
	.cfi_restore 10
	.cfi_restore 9
	.cfi_restore 8
	.cfi_restore 7
	.cfi_restore 6
	.cfi_restore 5
	.cfi_restore 4
	.cfi_def_cfa_offset 0
	.loc 1 1740 0
	b	WI_initShowNextLoc
.LVL396:
.L488:
	.cfi_restore_state
	.loc 1 1630 0
	cmp	r3, #2
	beq	.L563
	.loc 1 1644 0
	cmp	r3, #4
	beq	.L564
	.loc 1 1658 0
	cmp	r3, #6
	beq	.L565
	.loc 1 1676 0
	cmp	r3, #8
	beq	.L566
	.loc 1 1731 0
	cmp	r3, #10
	beq	.L567
	.loc 1 1743 0
	tst	r3, #1
	ldmeqfd	sp!, {r4, r5, r6, r7, r8, r9, r10, pc}
	.loc 1 1745 0
	ldr	r2, [r4, #252]
	sub	r2, r2, #1
	cmp	r2, #0
	str	r2, [r4, #252]
	.loc 1 1748 0
	moveq	r2, #35
	.loc 1 1747 0
	addeq	r3, r3, #1
	streq	r3, [r4, #268]
	.loc 1 1748 0
	streq	r2, [r4, #252]
	ldmfd	sp!, {r4, r5, r6, r7, r8, r9, r10, pc}
.L563:
	.loc 1 1632 0
	ldr	r6, [r4, #216]
	.loc 1 1634 0
	ldr	r0, [r4, #220]
	.loc 1 1632 0
	ldr	r5, [r6]
	.loc 1 1634 0
	ands	r0, r0, #3
	.loc 1 1632 0
	add	r5, r5, #2
	str	r5, [r6]
	.loc 1 1634 0
	beq	.L568
.L493:
	.loc 1 1637 0
	mov	r0, #100
	ldr	r3, [r4, #256]
	ldr	r2, [r4, #244]
	add	r3, r3, r3, asl #2
	add	r3, r2, r3, asl #3
	ldr	r2, [r3, #4]
	ldr	r3, [r4]
	mul	r0, r0, r2
	ldr	r1, [r3, #16]
	bl	__aeabi_idiv
.LVL397:
	cmp	r0, r5
	ldr	r4, .L572+4
	ldmgtfd	sp!, {r4, r5, r6, r7, r8, r9, r10, pc}
.L556:
	.loc 1 1653 0
	str	r0, [r6]
.L557:
	.loc 1 1672 0
	mov	r0, #0
	mov	r1, #82
	bl	S_StartSound
.LVL398:
	.loc 1 1673 0
	ldr	r3, [r4, #268]
	add	r3, r3, #1
	str	r3, [r4, #268]
	ldmfd	sp!, {r4, r5, r6, r7, r8, r9, r10, pc}
.L564:
	.loc 1 1646 0
	ldr	r6, [r4, #212]
	.loc 1 1648 0
	ldr	r0, [r4, #220]
	.loc 1 1646 0
	ldr	r5, [r6]
	.loc 1 1648 0
	ands	r0, r0, #3
	.loc 1 1646 0
	add	r5, r5, #2
	str	r5, [r6]
	.loc 1 1648 0
	beq	.L569
.L497:
	.loc 1 1651 0
	mov	r0, #100
	ldr	r3, [r4, #256]
	ldr	r2, [r4, #244]
	add	r3, r3, r3, asl #2
	add	r3, r2, r3, asl #3
	ldr	r2, [r3, #8]
	ldr	r3, [r4]
	mul	r0, r0, r2
	ldr	r1, [r3, #20]
	bl	__aeabi_idiv
.LVL399:
	cmp	r0, r5
	ldr	r4, .L572+4
	ldmgtfd	sp!, {r4, r5, r6, r7, r8, r9, r10, pc}
	b	.L556
.L560:
	.loc 1 1621 0 discriminator 1
	ldr	r0, [r6, #12]
	mul	r0, r8, r0
	bl	__aeabi_idiv
.LVL400:
	b	.L490
.L565:
	.loc 1 1660 0
	ldr	r5, [r4, #208]
	.loc 1 1662 0
	ldr	r0, [r4, #220]
	.loc 1 1660 0
	ldr	r3, [r5]
	.loc 1 1662 0
	ands	r0, r0, #3
	.loc 1 1660 0
	add	r3, r3, #2
	str	r3, [r5]
	.loc 1 1662 0
	beq	.L570
.L499:
	.loc 1 1666 0
	ldr	r3, [r4]
	ldr	r2, .L572+4
	ldr	r1, [r3, #24]
	cmp	r1, #0
	bne	.L500
	.loc 1 1666 0 is_stmt 0 discriminator 1
	ldr	r3, .L572+16
	ldrb	r3, [r3]	@ zero_extendqisi2
	cmp	r3, #9
	bhi	.L501
.L523:
	.loc 1 1671 0 is_stmt 1
	mov	r0, #100
.L519:
	.loc 1 1670 0
	str	r0, [r5]
	b	.L557
.L568:
	.loc 1 1635 0
	mov	r1, #1
	bl	S_StartSound
.LVL401:
	ldr	r6, [r4, #216]
	ldr	r5, [r6]
	b	.L493
.L567:
	ldmfd	sp!, {r4, r5, r6, r7, r8, r9, r10, pc}
.L569:
	.loc 1 1649 0
	mov	r1, #1
	bl	S_StartSound
.LVL402:
	ldr	r6, [r4, #212]
	ldr	r5, [r6]
	b	.L497
.L566:
.LBB84:
	.loc 1 1690 0
	ldr	r3, [r4, #256]
	ldr	r2, [r4, #244]
	add	r3, r3, r3, asl #2
	.loc 1 1692 0
	ldr	ip, [r4]
	.loc 1 1690 0
	add	r3, r2, r3, asl #3
	ldr	r1, [r3, #16]
	ldr	r0, .L572+8
	.loc 1 1692 0
	ldr	r2, [ip, #200]
	.loc 1 1694 0
	ldr	r3, [ip, #32]
	.loc 1 1690 0
	smull	ip, r7, r0, r1
	.loc 1 1692 0
	smull	ip, r6, r0, r2
	.loc 1 1694 0
	smull	ip, r0, r0, r3
	.loc 1 1690 0
	ldr	ip, [r4, #280]
	add	r7, r7, r1
	.loc 1 1692 0
	ldr	r5, [r4, #272]
	.loc 1 1690 0
	mov	r1, r1, asr #31
	rsb	r1, r1, r7, asr #5
.LVL403:
	.loc 1 1692 0
	add	r6, r6, r2
	.loc 1 1690 0
	add	r8, ip, #3
	.loc 1 1694 0
	ldr	lr, [r4, #276]
	.loc 1 1692 0
	mov	r2, r2, asr #31
	.loc 1 1690 0
	cmp	r1, r8
	.loc 1 1694 0
	add	r0, r0, r3
	.loc 1 1692 0
	rsb	r2, r2, r6, asr #5
	.loc 1 1694 0
	mov	r3, r3, asr #31
	.loc 1 1692 0
	add	r6, r5, #3
	.loc 1 1694 0
	rsb	r3, r3, r0, asr #5
	.loc 1 1690 0
	movgt	r9, #0
	.loc 1 1694 0
	add	r0, lr, #3
	.loc 1 1690 0
	movle	r9, #1
.LVL404:
	.loc 1 1692 0
	cmp	r2, r6
	movgt	r10, #0
	movle	r10, #1
.LVL405:
	.loc 1 1694 0
	cmp	r3, r0
	movgt	r7, #0
	movle	r7, #1
.LVL406:
	.loc 1 1690 0
	cmp	r9, #0
	movne	r8, r1
	.loc 1 1692 0
	cmp	r10, #0
	movne	r6, r2
	.loc 1 1694 0
	cmp	r7, #0
	movne	r0, r3
	.loc 1 1700 0
	cmp	r9, #0
	.loc 1 1690 0
	str	r8, [r4, #280]
	.loc 1 1692 0
	str	r6, [r4, #272]
	.loc 1 1694 0
	str	r0, [r4, #276]
	.loc 1 1700 0
	beq	.L509
	.loc 1 1701 0
	cmp	r10, #0
	beq	.L571
.L510:
	.loc 1 1702 0
	cmp	r7, #0
	bne	.L511
	.loc 1 1702 0 is_stmt 0 discriminator 1
	ldr	r0, .L572+20
	ldr	r0, [r0]
	cmp	r0, #0
	beq	.L509
	.loc 1 1702 0 discriminator 2
	ldr	r0, .L572+24
	ldr	r0, [r0]
	cmp	r0, #0
	bne	.L509
.L511:
	.loc 1 1705 0 is_stmt 1
	cmp	r1, ip
	ldrgt	r6, .L572+16
	bgt	.L512
	.loc 1 1706 0
	cmp	r2, r5
	movle	r5, #0
	andgt	r5, r10, #1
.LVL407:
	.loc 1 1694 0
	cmp	r3, lr
	movle	r3, #0
	andgt	r3, r7, #1
.LVL408:
	.loc 1 1706 0
	cmp	r5, #0
	ldr	r6, .L572+16
	beq	.L513
	.loc 1 1706 0 is_stmt 0 discriminator 1
	ldrb	r1, [r6]	@ zero_extendqisi2
.LVL409:
	cmp	r1, #9
	bhi	.L512
	.loc 1 1707 0 is_stmt 1
	cmp	r3, #0
	beq	.L521
.L520:
	.loc 1 1707 0 is_stmt 0 discriminator 1
	ldr	r3, .L572+20
	ldr	r3, [r3]
	cmp	r3, #0
	beq	.L512
	.loc 1 1707 0 discriminator 2
	ldr	r3, .L572+24
	ldr	r3, [r3]
	cmp	r3, #0
	beq	.L515
.L512:
	.loc 1 1708 0 is_stmt 1
	mov	r0, #0
	mov	r1, #82
	bl	S_StartSound
.LVL410:
.L515:
	.loc 1 1711 0
	ldrb	r3, [r6]	@ zero_extendqisi2
	cmp	r3, #9
	bhi	.L516
	ldr	r2, [r4]
	ldr	r3, .L572+8
	ldr	r2, [r2, #200]
	smull	r1, r3, r3, r2
	mov	r1, r2, asr #31
	add	r3, r3, r2
	rsb	r2, r1, r3, asr #5
.L521:
	.loc 1 1712 0
	str	r2, [r4, #272]
.L516:
	.loc 1 1715 0
	cmp	r7, #0
	ldmeqfd	sp!, {r4, r5, r6, r7, r8, r9, r10, pc}
	.loc 1 1719 0
	ldr	r3, [r4, #256]
	ldr	r2, [r4, #244]
	.loc 1 1720 0
	ldr	ip, [r4]
	.loc 1 1719 0
	add	r3, r3, r3, asl #2
	add	r3, r2, r3, asl #3
	ldr	r1, [r3, #16]
	.loc 1 1720 0
	ldr	r2, [ip, #200]
	.loc 1 1721 0
	ldr	r3, [ip, #32]
	.loc 1 1719 0
	ldr	r0, .L572+8
	smull	ip, r5, r0, r1
	.loc 1 1720 0
	smull	ip, lr, r0, r2
	.loc 1 1721 0
	smull	ip, r0, r0, r3
	.loc 1 1717 0
	ldr	ip, [r4, #268]
	.loc 1 1721 0
	add	r0, r0, r3
	.loc 1 1719 0
	add	r5, r5, r1
	.loc 1 1720 0
	add	lr, lr, r2
	.loc 1 1719 0
	mov	r1, r1, asr #31
	.loc 1 1720 0
	mov	r2, r2, asr #31
	.loc 1 1721 0
	mov	r3, r3, asr #31
	rsb	r3, r3, r0, asr #5
	.loc 1 1719 0
	rsb	r1, r1, r5, asr #5
	.loc 1 1720 0
	rsb	r2, r2, lr, asr #5
	.loc 1 1717 0
	add	r0, ip, #1
	.loc 1 1719 0
	str	r1, [r4, #280]
	.loc 1 1720 0
	str	r2, [r4, #272]
	.loc 1 1721 0
	str	r3, [r4, #276]
	.loc 1 1717 0
	str	r0, [r4, #268]
	ldmfd	sp!, {r4, r5, r6, r7, r8, r9, r10, pc}
.LVL411:
.L571:
	.loc 1 1701 0 discriminator 1
	ldr	r6, .L572+16
	ldrb	r0, [r6]	@ zero_extendqisi2
	cmp	r0, #9
	bls	.L510
.L509:
	.loc 1 1727 0
	ldr	r0, [r4, #220]
	ands	r0, r0, #3
	ldmnefd	sp!, {r4, r5, r6, r7, r8, r9, r10, pc}
	.loc 1 1728 0
	mov	r1, #1
.LVL412:
.LBE84:
	.loc 1 1751 0
	ldmfd	sp!, {r4, r5, r6, r7, r8, r9, r10, lr}
	.cfi_remember_state
	.cfi_restore 14
	.cfi_restore 10
	.cfi_restore 9
	.cfi_restore 8
	.cfi_restore 7
	.cfi_restore 6
	.cfi_restore 5
	.cfi_restore 4
	.cfi_def_cfa_offset 0
.LVL413:
.LBB85:
	.loc 1 1728 0
	b	S_StartSound
.LVL414:
.L500:
	.cfi_restore_state
.LBE85:
	.loc 1 1668 0
	mov	r0, #100
	ldr	r3, [r2, #256]
	ldr	r2, [r2, #244]
	add	r3, r3, r3, asl #2
	add	r3, r2, r3, asl #3
	ldr	r3, [r3, #12]
	mul	r0, r0, r3
	bl	__aeabi_idiv
.LVL415:
	.loc 1 1666 0
	ldr	r3, [r5]
	cmp	r0, r3
	ble	.L519
	ldmfd	sp!, {r4, r5, r6, r7, r8, r9, r10, pc}
.L501:
	ldr	r3, [r5]
	cmp	r3, #99
	bgt	.L523
	ldmfd	sp!, {r4, r5, r6, r7, r8, r9, r10, pc}
.L562:
.LBB86:
.LBB87:
	.loc 1 824 0
	mvn	r1, #0
	.loc 1 825 0
	mov	r2, #0
	.loc 1 826 0
	mov	r3, #10
	.loc 1 824 0
	strb	r1, [r4, #224]
	.loc 1 825 0
	str	r2, [r5]
	.loc 1 826 0
	str	r3, [r4, #236]
	ldmfd	sp!, {r4, r5, r6, r7, r8, r9, r10, pc}
.L570:
.LBE87:
.LBE86:
	.loc 1 1663 0
	mov	r1, #1
	bl	S_StartSound
.LVL416:
	ldr	r5, [r4, #208]
	b	.L499
.LVL417:
.L513:
.LBB88:
	.loc 1 1707 0
	cmp	r3, #0
	beq	.L515
	b	.L520
.LVL418:
.L561:
.LBE88:
	ldmfd	sp!, {r4, r5, r6, r7, r8, r9, r10, pc}
.L573:
	.align	2
.L572:
	.word	acceleratestage
	.word	.LANCHOR0
	.word	-368140053
	.word	gamemode
	.word	compatibility_level
	.word	modifiedgame
	.word	deh_pars
	.cfi_endproc
.LFE35:
	.size	WI_updateStats, .-WI_updateStats
	.align	2
	.global	WI_drawStats
	.type	WI_drawStats, %function
WI_drawStats:
.LFB36:
	.loc 1 1762 0
	.cfi_startproc
	@ args = 0, pretend = 0, frame = 0
	@ frame_needed = 0, uses_anonymous_args = 0
	stmfd	sp!, {r4, r5, r6, r7, r8, lr}
	.cfi_def_cfa_offset 24
	.cfi_offset 4, -24
	.cfi_offset 5, -20
	.cfi_offset 6, -16
	.cfi_offset 7, -12
	.cfi_offset 8, -8
	.cfi_offset 14, -4
	.loc 1 1766 0
	ldr	r5, .L588
	.loc 1 1762 0
	sub	sp, sp, #8
	.cfi_def_cfa_offset 32
	.loc 1 1775 0
	ldr	r6, .L588+4
	.loc 1 1766 0
	ldr	r4, [r5, #8]
	.loc 1 1768 0
	bl	WI_slamBackground
.LVL419:
	.loc 1 1771 0
	bl	WI_drawAnimatedBack
.LVL420:
	.loc 1 1773 0
	bl	WI_drawLF
.LVL421:
	.loc 1 1775 0
	ldr	r0, .L588+8
	ldr	r7, [r6]
	bl	W_GetNumForName
.LVL422:
	mov	r1, #6
	mov	r3, r0
	mov	r2, #4
	mov	r0, #50
	stmia	sp, {r1, r2}
	mov	r1, r0
	mov	r2, #0
	blx	r7
.LVL423:
	.loc 1 1776 0
	ldr	r3, [r5, #216]
	.loc 1 1766 0
	add	r4, r4, r4, asl #1
	add	r4, r4, r4, lsr #31
	.loc 1 1776 0
	cmp	r3, #0
	.loc 1 1766 0
	mov	r4, r4, asr #1
.LVL424:
	.loc 1 1776 0
	beq	.L575
	.loc 1 1777 0
	ldr	r2, [r3]
.LVL425:
.LBB89:
.LBB90:
	.loc 1 754 0
	cmp	r2, #0
	blt	.L575
	ldr	r0, .L588+12
	mov	r1, #50
	bl	WI_drawPercent.part.0
.LVL426:
.L575:
.LBE90:
.LBE89:
	.loc 1 1779 0
	ldr	r0, .L588+16
	ldr	r8, [r6]
	bl	W_GetNumForName
.LVL427:
	mov	r1, #6
	mov	r2, #4
	add	r7, r4, #50
	mov	r3, r0
	stmia	sp, {r1, r2}
	mov	r0, #50
	mov	r1, r7
	mov	r2, #0
	blx	r8
.LVL428:
	.loc 1 1780 0
	ldr	r3, [r5, #212]
	cmp	r3, #0
	beq	.L576
	.loc 1 1781 0
	ldr	r2, [r3]
.LVL429:
.LBB91:
.LBB92:
	.loc 1 754 0
	cmp	r2, #0
	blt	.L576
	mov	r1, r7
	ldr	r0, .L588+12
	bl	WI_drawPercent.part.0
.LVL430:
.L576:
.LBE92:
.LBE91:
	.loc 1 1783 0
	ldr	r0, .L588+20
	ldr	r6, [r6]
	bl	W_GetNumForName
.LVL431:
	mov	ip, #6
	mov	r2, #4
	add	r4, r4, #25
.LVL432:
	mov	r4, r4, asl #1
	mov	r3, r0
	str	r2, [sp, #4]
	mov	r1, r4
	str	ip, [sp]
	mov	r0, #50
	mov	r2, #0
	blx	r6
.LVL433:
	.loc 1 1784 0
	ldr	r3, [r5, #208]
	cmp	r3, #0
	beq	.L577
	.loc 1 1785 0
	ldr	r2, [r3]
.LVL434:
.LBB93:
.LBB94:
	.loc 1 754 0
	cmp	r2, #0
	blt	.L577
	mov	r1, r4
	ldr	r0, .L588+12
	bl	WI_drawPercent.part.0
.LVL435:
.L577:
.LBE94:
.LBE93:
	.loc 1 1787 0
	ldr	r0, [r5, #280]
	ldr	r1, [r5, #272]
	ldr	r2, [r5, #276]
	.loc 1 1788 0
	add	sp, sp, #8
	.cfi_def_cfa_offset 24
	@ sp needed
	ldmfd	sp!, {r4, r5, r6, r7, r8, lr}
	.cfi_restore 14
	.cfi_restore 8
	.cfi_restore 7
	.cfi_restore 6
	.cfi_restore 5
	.cfi_restore 4
	.cfi_def_cfa_offset 0
.LVL436:
	.loc 1 1787 0
	b	WI_drawTimeStats
.LVL437:
.L589:
	.align	2
.L588:
	.word	.LANCHOR0
	.word	V_DrawNumPatch
	.word	.LANCHOR1+432
	.word	270
	.word	.LANCHOR1+440
	.word	.LANCHOR1+464
	.cfi_endproc
.LFE36:
	.size	WI_drawStats, .-WI_drawStats
	.align	2
	.global	WI_checkForAccelerate
	.type	WI_checkForAccelerate, %function
WI_checkForAccelerate:
.LFB37:
	.loc 1 1799 0
	.cfi_startproc
	@ args = 0, pretend = 0, frame = 0
	@ frame_needed = 0, uses_anonymous_args = 0
.LVL438:
	stmfd	sp!, {r4, r5, lr}
	.cfi_def_cfa_offset 12
	.cfi_offset 4, -12
	.cfi_offset 5, -8
	.cfi_offset 14, -4
	.loc 1 1821 0
	mov	r4, #1
	ldr	lr, .L605
	.loc 1 1804 0
	ldr	r3, .L605+4
	ldr	r0, [lr]
	ldr	r1, .L605+8
	add	ip, r3, #1136
.LVL439:
.L597:
	.loc 1 1806 0
	ldr	r2, [r1], #4
	cmp	r2, #0
	beq	.L591
	.loc 1 1808 0
	ldrb	r2, [r3, #13]	@ zero_extendqisi2
	ands	r5, r2, #1
	.loc 1 1815 0
	streq	r5, [r3, #192]
	.loc 1 1808 0
	beq	.L594
	.loc 1 1810 0
	ldr	r5, [r3, #192]
	.loc 1 1812 0
	str	r4, [r3, #192]
	.loc 1 1811 0
	cmp	r5, #0
	moveq	r0, #1
.L594:
	.loc 1 1817 0
	and	r2, r2, #2
	ands	r2, r2, #255
	.loc 1 1824 0
	streq	r2, [r3, #196]
	.loc 1 1817 0
	beq	.L591
	.loc 1 1819 0
	ldr	r2, [r3, #196]
	.loc 1 1821 0
	str	r4, [r3, #196]
	.loc 1 1820 0
	cmp	r2, #0
	moveq	r0, #1
.L591:
	.loc 1 1804 0 discriminator 2
	add	r3, r3, #284
.LVL440:
	cmp	r3, ip
	bne	.L597
	str	r0, [lr]
	ldmfd	sp!, {r4, r5, pc}
.L606:
	.align	2
.L605:
	.word	acceleratestage
	.word	players
	.word	playeringame
	.cfi_endproc
.LFE37:
	.size	WI_checkForAccelerate, .-WI_checkForAccelerate
	.align	2
	.global	WI_Ticker
	.type	WI_Ticker, %function
WI_Ticker:
.LFB38:
	.loc 1 1837 0
	.cfi_startproc
	@ args = 0, pretend = 0, frame = 0
	@ frame_needed = 0, uses_anonymous_args = 0
	stmfd	sp!, {r4, lr}
	.cfi_def_cfa_offset 8
	.cfi_offset 4, -8
	.cfi_offset 14, -4
	.loc 1 1839 0
	ldr	r4, .L622
	ldr	r1, [r4, #220]
	add	r1, r1, #1
	.loc 1 1841 0
	cmp	r1, #1
	.loc 1 1839 0
	str	r1, [r4, #220]
	.loc 1 1841 0
	beq	.L619
	.loc 1 1850 0
	bl	WI_checkForAccelerate
.LVL441:
	.loc 1 1852 0
	ldrsb	r3, [r4, #224]
	cmp	r3, #0
	beq	.L611
.L620:
	cmp	r3, #1
	beq	.L612
	cmn	r3, #1
	ldmnefd	sp!, {r4, pc}
	.loc 1 1868 0
	ldmfd	sp!, {r4, lr}
	.cfi_remember_state
	.cfi_restore 14
	.cfi_restore 4
	.cfi_def_cfa_offset 0
	.loc 1 1865 0
	b	WI_updateNoState
.LVL442:
.L619:
	.cfi_restore_state
	.loc 1 1844 0
	ldr	r3, .L622+4
	ldrb	r3, [r3]	@ zero_extendqisi2
	cmp	r3, #2
	.loc 1 1845 0
	moveq	r0, #67
	.loc 1 1847 0
	movne	r0, #28
	bl	S_ChangeMusic
.LVL443:
	.loc 1 1850 0
	bl	WI_checkForAccelerate
.LVL444:
	.loc 1 1852 0
	ldrsb	r3, [r4, #224]
	cmp	r3, #0
	bne	.L620
.L611:
	.loc 1 1855 0
	ldr	r3, .L622+8
	ldr	r3, [r3]
	cmp	r3, #0
	bne	.L621
	.loc 1 1856 0
	ldr	r3, .L622+12
	ldr	r3, [r3]
	cmp	r3, #0
	beq	.L615
	.loc 1 1868 0 discriminator 1
	ldmfd	sp!, {r4, lr}
	.cfi_remember_state
	.cfi_restore 14
	.cfi_restore 4
	.cfi_def_cfa_offset 0
	.loc 1 1856 0 discriminator 1
	b	WI_updateNetgameStats
.LVL445:
.L612:
	.cfi_restore_state
	.loc 1 1868 0
	ldmfd	sp!, {r4, lr}
	.cfi_remember_state
	.cfi_restore 14
	.cfi_restore 4
	.cfi_def_cfa_offset 0
	.loc 1 1861 0
	b	WI_updateShowNextLoc
.LVL446:
.L621:
	.cfi_restore_state
	.loc 1 1868 0 discriminator 1
	ldmfd	sp!, {r4, lr}
	.cfi_remember_state
	.cfi_restore 14
	.cfi_restore 4
	.cfi_def_cfa_offset 0
	.loc 1 1855 0 discriminator 1
	b	WI_updateDeathmatchStats
.LVL447:
.L615:
	.cfi_restore_state
	.loc 1 1868 0
	ldmfd	sp!, {r4, lr}
	.cfi_restore 14
	.cfi_restore 4
	.cfi_def_cfa_offset 0
	.loc 1 1857 0
	b	WI_updateStats
.LVL448:
.L623:
	.align	2
.L622:
	.word	.LANCHOR0
	.word	gamemode
	.word	deathmatch
	.word	netgame
	.cfi_endproc
.LFE38:
	.size	WI_Ticker, .-WI_Ticker
	.align	2
	.global	WI_loadData
	.type	WI_loadData, %function
WI_loadData:
.LFB39:
	.loc 1 1883 0
	.cfi_startproc
	@ args = 0, pretend = 0, frame = 32
	@ frame_needed = 0, uses_anonymous_args = 0
	stmfd	sp!, {r4, r5, r6, r7, r8, r9, r10, fp, lr}
	.cfi_def_cfa_offset 36
	.cfi_offset 4, -36
	.cfi_offset 5, -32
	.cfi_offset 6, -28
	.cfi_offset 7, -24
	.cfi_offset 8, -20
	.cfi_offset 9, -16
	.cfi_offset 10, -12
	.cfi_offset 11, -8
	.cfi_offset 14, -4
	.loc 1 1889 0
	ldr	r3, .L644
	.loc 1 1883 0
	sub	sp, sp, #44
	.cfi_def_cfa_offset 80
	.loc 1 1889 0
	ldrb	r3, [r3]	@ zero_extendqisi2
	cmp	r3, #2
	beq	.L641
	.loc 1 1891 0
	ldr	fp, .L644+4
	ldr	r3, [fp]
	ldr	ip, [r3]
	cmp	ip, #2
	bgt	.L641
.LVL449:
	.loc 1 1893 0 discriminator 1
	ldr	r2, .L644+8
	mov	r3, ip, asl #2
	add	r2, r2, r3
	ldr	r2, [r2, #356]
	cmp	r2, #0
	movgt	r2, #0
	addgt	r6, sp, #28
	strgt	r2, [sp, #12]
	movgt	r10, r2
	ble	.L641
.LVL450:
.L632:
	.loc 1 1895 0
	ldr	r2, .L644+8
	ldr	r1, [sp, #12]
	add	r2, r2, r3
	ldr	r2, [r2, #372]
	add	r8, r2, r1
.LVL451:
	.loc 1 1896 0
	ldr	lr, [r8, #8]
	cmp	lr, #0
	ble	.L628
	subs	r9, r10, #8
	movne	r9, #1
	mov	r4, #0
	ldr	r7, .L644+12
	add	r5, r8, #28
	str	r8, [sp, #8]
	b	.L631
.LVL452:
.L643:
	.loc 1 1902 0
	mov	r2, ip
	mov	r3, r10
	str	r4, [sp]
	mov	r0, r6
	bl	sprintf
.LVL453:
	.loc 1 1903 0
	mov	r0, r5
	mov	r1, r6
	bl	R_SetPatchNum
.LVL454:
	ldr	r3, [fp]
	ldr	r2, [sp, #8]
	ldr	ip, [r3]
	ldr	lr, [r2, #8]
.L630:
	.loc 1 1896 0 discriminator 2
	add	r4, r4, #1
.LVL455:
	cmp	lr, r4
	add	r5, r5, #20
	add	r7, r7, #20
	ble	.L642
.LVL456:
.L631:
	.loc 1 1899 0
	cmp	ip, #1
	moveq	r3, r9
	orrne	r3, r9, #1
	cmp	r3, #0
	.loc 1 1902 0
	ldr	r1, .L644+16
	.loc 1 1899 0
	bne	.L643
	.loc 1 1908 0
	add	r8, r7, #444
	ldmia	r8!, {r0, r1, r2, r3}
	str	r8, [sp, #16]
	mov	r8, r5
	stmia	r8!, {r0, r1, r2, r3}
	ldr	r3, [sp, #16]
	str	r5, [sp, #20]
	ldr	r3, [r3]
	mov	ip, #1
	str	r3, [r8]
	b	.L630
.LVL457:
.L641:
	add	r6, sp, #28
.L627:
.LVL458:
	mov	r4, #0
	ldr	r5, .L644+20
.LVL459:
.L626:
	.loc 1 1918 0 discriminator 3
	mov	r2, r4
	ldr	r1, .L644+24
	mov	r0, r6
	bl	sprintf
.LVL460:
	.loc 1 1915 0 discriminator 3
	add	r4, r4, #1
.LVL461:
	.loc 1 1919 0 discriminator 3
	mov	r0, r5
	mov	r1, r6
	bl	R_SetPatchNum
.LVL462:
	.loc 1 1915 0 discriminator 3
	cmp	r4, #10
	add	r5, r5, #20
	bne	.L626
	.loc 1 1921 0
	add	sp, sp, #44
	.cfi_remember_state
	.cfi_def_cfa_offset 36
	@ sp needed
	ldmfd	sp!, {r4, r5, r6, r7, r8, r9, r10, fp, pc}
.LVL463:
.L642:
	.cfi_restore_state
	mov	r3, ip, asl #2
.LVL464:
.L628:
	.loc 1 1893 0 discriminator 2
	ldr	r2, .L644+8
	add	r10, r10, #1
.LVL465:
	add	r2, r2, r3
	ldr	r2, [r2, #356]
	cmp	r2, r10
	ldr	r2, [sp, #12]
	add	r2, r2, #104
	str	r2, [sp, #12]
	bgt	.L632
	b	.L627
.L645:
	.align	2
.L644:
	.word	gamemode
	.word	.LANCHOR0
	.word	.LANCHOR1
	.word	.LANCHOR2+12
	.word	.LC5
	.word	.LANCHOR0+4
	.word	.LC6
	.cfi_endproc
.LFE39:
	.size	WI_loadData, .-WI_loadData
	.align	2
	.global	WI_Drawer
	.type	WI_Drawer, %function
WI_Drawer:
.LFB40:
	.loc 1 1932 0
	.cfi_startproc
	@ args = 0, pretend = 0, frame = 0
	@ frame_needed = 0, uses_anonymous_args = 0
	@ link register save eliminated.
	.loc 1 1933 0
	ldr	r2, .L657
	ldrsb	r3, [r2, #224]
	cmp	r3, #0
	beq	.L648
	cmp	r3, #1
	beq	.L654
	cmn	r3, #1
	bxne	lr
.LBB95:
.LBB96:
	.loc 1 982 0
	mov	r3, #1
	str	r3, [r2, #240]
.L654:
	.loc 1 983 0
	b	WI_drawShowNextLoc
.LVL466:
.L648:
.LBE96:
.LBE95:
	.loc 1 1936 0
	ldr	r3, .L657+4
	ldr	r3, [r3]
	cmp	r3, #0
	bne	.L656
	.loc 1 1938 0
	ldr	r3, .L657+8
	ldr	r3, [r3]
	cmp	r3, #0
	beq	.L652
	.loc 1 1939 0
	b	WI_drawNetgameStats
.LVL467:
.L656:
	.loc 1 1937 0
	b	WI_drawDeathmatchStats
.LVL468:
.L652:
	.loc 1 1941 0
	b	WI_drawStats
.LVL469:
.L658:
	.align	2
.L657:
	.word	.LANCHOR0
	.word	deathmatch
	.word	netgame
	.cfi_endproc
.LFE40:
	.size	WI_Drawer, .-WI_Drawer
	.align	2
	.global	WI_initVariables
	.type	WI_initVariables, %function
WI_initVariables:
.LFB41:
	.loc 1 1963 0
	.cfi_startproc
	@ args = 0, pretend = 0, frame = 0
	@ frame_needed = 0, uses_anonymous_args = 0
.LVL470:
	.loc 1 1984 0
	mov	r2, #0
	.loc 1 1986 0
	mov	r1, #1
	.loc 1 1963 0
	stmfd	sp!, {r4, lr}
	.cfi_def_cfa_offset 8
	.cfi_offset 4, -8
	.cfi_offset 14, -4
	.loc 1 1990 0
	ldr	lr, [r0, #16]
	.loc 1 1965 0
	ldr	r3, .L667
	.loc 1 1987 0
	ldr	r4, [r0, #36]
	.loc 1 1990 0
	cmp	lr, r2
	.loc 1 1988 0
	add	lr, r0, #40
	.loc 1 1965 0
	str	r0, [r3]
	.loc 1 1987 0
	str	r4, [r3, #256]
	.loc 1 1988 0
	str	lr, [r3, #244]
	.loc 1 1985 0
	str	r2, [r3, #220]
	str	r2, [r3, #236]
	.loc 1 1986 0
	str	r1, [r3, #284]
	.loc 1 1993 0
	ldr	r3, [r0, #20]
	.loc 1 1991 0
	streq	r1, [r0, #16]
	.loc 1 1993 0
	cmp	r3, #0
	.loc 1 1994 0
	moveq	r3, #1
	streq	r3, [r0, #20]
	.loc 1 1996 0
	ldr	r3, .L667+4
	.loc 1 1984 0
	ldr	ip, .L667+8
	.loc 1 1996 0
	ldrb	r3, [r3]	@ zero_extendqisi2
	.loc 1 1984 0
	str	r2, [ip]
	.loc 1 1996 0
	cmp	r3, #3
	ldmeqfd	sp!, {r4, pc}
	.loc 1 1997 0
	ldr	r3, [r0]
	cmp	r3, #2
	.loc 1 1998 0
	subgt	r3, r3, #3
	strgt	r3, [r0]
	ldmfd	sp!, {r4, pc}
.L668:
	.align	2
.L667:
	.word	.LANCHOR0
	.word	gamemode
	.word	acceleratestage
	.cfi_endproc
.LFE41:
	.size	WI_initVariables, .-WI_initVariables
	.align	2
	.global	WI_Start
	.type	WI_Start, %function
WI_Start:
.LFB42:
	.loc 1 2010 0
	.cfi_startproc
	@ args = 0, pretend = 0, frame = 0
	@ frame_needed = 0, uses_anonymous_args = 0
.LVL471:
	stmfd	sp!, {r3, lr}
	.cfi_def_cfa_offset 8
	.cfi_offset 3, -8
	.cfi_offset 14, -4
	.loc 1 2011 0
	bl	WI_initVariables
.LVL472:
	.loc 1 2012 0
	bl	WI_loadData
.LVL473:
	.loc 1 2014 0
	ldr	r3, .L675
	ldr	r3, [r3]
	cmp	r3, #0
	bne	.L673
	.loc 1 2016 0
	ldr	r3, .L675+4
	ldr	r3, [r3]
	cmp	r3, #0
	bne	.L674
	.loc 1 2020 0
	ldmfd	sp!, {r3, lr}
	.cfi_remember_state
	.cfi_restore 14
	.cfi_restore 3
	.cfi_def_cfa_offset 0
	.loc 1 2019 0
	b	WI_initStats
.LVL474:
.L674:
	.cfi_restore_state
	.loc 1 2020 0
	ldmfd	sp!, {r3, lr}
	.cfi_remember_state
	.cfi_restore 14
	.cfi_restore 3
	.cfi_def_cfa_offset 0
	.loc 1 2017 0
	b	WI_initNetgameStats
.LVL475:
.L673:
	.cfi_restore_state
	.loc 1 2020 0
	ldmfd	sp!, {r3, lr}
	.cfi_restore 14
	.cfi_restore 3
	.cfi_def_cfa_offset 0
	.loc 1 2015 0
	b	WI_initDeathmatchStats
.LVL476:
.L676:
	.align	2
.L675:
	.word	deathmatch
	.word	netgame
	.cfi_endproc
.LFE42:
	.size	WI_Start, .-WI_Start
	.comm	acceleratestage,4,4
	.section	.rodata
	.align	2
	.set	.LANCHOR1,. + 0
	.type	wiminus, %object
	.size	wiminus, 8
wiminus:
	.ascii	"WIMINUS\000"
	.type	percent, %object
	.size	percent, 7
percent:
	.ascii	"WIPCNT\000"
	.space	1
	.type	colon, %object
	.size	colon, 8
colon:
	.ascii	"WICOLON\000"
	.type	sucks, %object
	.size	sucks, 8
sucks:
	.ascii	"WISUCKS\000"
	.type	time1, %object
	.size	time1, 7
time1:
	.ascii	"WITIME\000"
	.space	1
	.type	total, %object
	.size	total, 7
total:
	.ascii	"WIMSTT\000"
	.space	1
	.type	par, %object
	.size	par, 6
par:
	.ascii	"WIPAR\000"
	.space	2
	.type	finished, %object
	.size	finished, 4
finished:
	.ascii	"WIF\000"
	.type	entering, %object
	.size	entering, 8
entering:
	.ascii	"WIENTER\000"
	.type	lnodes, %object
	.size	lnodes, 288
lnodes:
	.word	185
	.word	164
	.word	148
	.word	143
	.word	69
	.word	122
	.word	209
	.word	102
	.word	116
	.word	89
	.word	166
	.word	55
	.word	71
	.word	56
	.word	135
	.word	29
	.word	71
	.word	24
	.word	254
	.word	25
	.word	97
	.word	50
	.word	188
	.word	64
	.word	128
	.word	78
	.word	214
	.word	92
	.word	133
	.word	130
	.word	208
	.word	136
	.word	148
	.word	140
	.word	235
	.word	158
	.word	156
	.word	168
	.word	48
	.word	154
	.word	174
	.word	95
	.word	265
	.word	75
	.word	130
	.word	48
	.word	279
	.word	23
	.word	198
	.word	48
	.word	140
	.word	25
	.word	281
	.word	136
	.space	72
	.type	NUMANIMS, %object
	.size	NUMANIMS, 16
NUMANIMS:
	.word	10
	.word	9
	.word	6
	.space	4
	.type	anims, %object
	.size	anims, 16
anims:
	.word	epsd0animinfo
	.word	epsd1animinfo
	.word	epsd2animinfo
	.space	4
	.type	facebackp, %object
	.size	facebackp, 6
facebackp:
	.ascii	"STPB0\000"
	.space	2
	.type	killers, %object
	.size	killers, 8
killers:
	.ascii	"WIKILRS\000"
	.type	victims, %object
	.size	victims, 8
victims:
	.ascii	"WIVCTMS\000"
	.type	bstar, %object
	.size	bstar, 9
bstar:
	.ascii	"STFDEAD0\000"
	.space	3
	.type	star, %object
	.size	star, 8
star:
	.ascii	"STFST01\000"
	.type	kills, %object
	.size	kills, 7
kills:
	.ascii	"WIOSTK\000"
	.space	1
	.type	items, %object
	.size	items, 7
items:
	.ascii	"WIOSTI\000"
	.space	1
	.type	secret, %object
	.size	secret, 7
secret:
	.ascii	"WIOSTS\000"
	.space	1
	.type	frags, %object
	.size	frags, 7
frags:
	.ascii	"WIFRGS\000"
	.space	1
	.type	sp_secret, %object
	.size	sp_secret, 8
sp_secret:
	.ascii	"WISCRT2\000"
	.data
	.align	2
	.set	.LANCHOR2,. + 0
	.type	splat, %object
	.size	splat, 4
splat:
	.word	.LC7
	.type	yah, %object
	.size	yah, 8
yah:
	.word	.LC8
	.word	.LC9
	.type	epsd1animinfo, %object
	.size	epsd1animinfo, 936
epsd1animinfo:
	.byte	2
	.space	3
	.word	11
	.word	1
	.word	128
	.word	136
	.word	1
	.space	80
	.byte	2
	.space	3
	.word	11
	.word	1
	.word	128
	.word	136
	.word	2
	.space	80
	.byte	2
	.space	3
	.word	11
	.word	1
	.word	128
	.word	136
	.word	3
	.space	80
	.byte	2
	.space	3
	.word	11
	.word	1
	.word	128
	.word	136
	.word	4
	.space	80
	.byte	2
	.space	3
	.word	11
	.word	1
	.word	128
	.word	136
	.word	5
	.space	80
	.byte	2
	.space	3
	.word	11
	.word	1
	.word	128
	.word	136
	.word	6
	.space	80
	.byte	2
	.space	3
	.word	11
	.word	1
	.word	128
	.word	136
	.word	7
	.space	80
	.byte	2
	.space	3
	.word	11
	.word	3
	.word	192
	.word	144
	.word	8
	.space	80
	.byte	2
	.space	3
	.word	11
	.word	1
	.word	128
	.word	136
	.word	8
	.space	80
	.type	epsd2animinfo, %object
	.size	epsd2animinfo, 624
epsd2animinfo:
	.byte	0
	.space	3
	.word	11
	.word	3
	.word	104
	.word	168
	.space	84
	.byte	0
	.space	3
	.word	11
	.word	3
	.word	40
	.word	136
	.space	84
	.byte	0
	.space	3
	.word	11
	.word	3
	.word	160
	.word	96
	.space	84
	.byte	0
	.space	3
	.word	11
	.word	3
	.word	104
	.word	80
	.space	84
	.byte	0
	.space	3
	.word	11
	.word	3
	.word	120
	.word	32
	.space	84
	.byte	0
	.space	3
	.word	8
	.word	3
	.word	40
	.word	0
	.space	84
	.type	epsd0animinfo, %object
	.size	epsd0animinfo, 1040
epsd0animinfo:
	.byte	0
	.space	3
	.word	11
	.word	3
	.word	224
	.word	104
	.space	84
	.byte	0
	.space	3
	.word	11
	.word	3
	.word	184
	.word	160
	.space	84
	.byte	0
	.space	3
	.word	11
	.word	3
	.word	112
	.word	136
	.space	84
	.byte	0
	.space	3
	.word	11
	.word	3
	.word	72
	.word	112
	.space	84
	.byte	0
	.space	3
	.word	11
	.word	3
	.word	88
	.word	96
	.space	84
	.byte	0
	.space	3
	.word	11
	.word	3
	.word	64
	.word	48
	.space	84
	.byte	0
	.space	3
	.word	11
	.word	3
	.word	192
	.word	40
	.space	84
	.byte	0
	.space	3
	.word	11
	.word	3
	.word	136
	.word	16
	.space	84
	.byte	0
	.space	3
	.word	11
	.word	3
	.word	80
	.word	16
	.space	84
	.byte	0
	.space	3
	.word	11
	.word	3
	.word	64
	.word	24
	.space	84
	.section	.rodata.str1.4,"aMS",%progbits,1
	.align	2
.LC1:
	.ascii	"WIMAP%d\000"
.LC0:
	.ascii	"INTERPIC\000"
	.space	3
.LC2:
	.ascii	"CWILV%2.2d\000"
	.space	1
.LC3:
	.ascii	"WILV%d%d\000"
	.space	3
.LC4:
	.ascii	"Could not place patch on level %d\012\000"
	.space	1
.LC5:
	.ascii	"WIA%d%.2d%.2d\000"
	.space	2
.LC6:
	.ascii	"WINUM%d\000"
.LC7:
	.ascii	"WISPLAT\000"
.LC8:
	.ascii	"WIURH0\000"
	.space	1
.LC9:
	.ascii	"WIURH1\000"
	.bss
	.align	2
	.set	.LANCHOR0,. + 0
	.type	wbs, %object
	.size	wbs, 4
wbs:
	.space	4
	.type	num, %object
	.size	num, 200
num:
	.space	200
	.type	cnt_frags, %object
	.size	cnt_frags, 4
cnt_frags:
	.space	4
	.type	cnt_secret, %object
	.size	cnt_secret, 4
cnt_secret:
	.space	4
	.type	cnt_items, %object
	.size	cnt_items, 4
cnt_items:
	.space	4
	.type	cnt_kills, %object
	.size	cnt_kills, 4
cnt_kills:
	.space	4
	.type	bcnt, %object
	.size	bcnt, 4
bcnt:
	.space	4
	.type	state, %object
	.size	state, 1
state:
	.space	1
	.space	3
	.type	dm_frags, %object
	.size	dm_frags, 4
dm_frags:
	.space	4
	.type	dm_totals, %object
	.size	dm_totals, 4
dm_totals:
	.space	4
	.type	cnt, %object
	.size	cnt, 4
cnt:
	.space	4
	.type	snl_pointeron, %object
	.size	snl_pointeron, 4
snl_pointeron:
	.space	4
	.type	plrs, %object
	.size	plrs, 4
plrs:
	.space	4
	.type	dm_state, %object
	.size	dm_state, 4
dm_state:
	.space	4
	.type	cnt_pause, %object
	.size	cnt_pause, 4
cnt_pause:
	.space	4
	.type	me, %object
	.size	me, 4
me:
	.space	4
	.type	ng_state, %object
	.size	ng_state, 4
ng_state:
	.space	4
	.type	dofrags, %object
	.size	dofrags, 4
dofrags:
	.space	4
	.type	sp_state, %object
	.size	sp_state, 4
sp_state:
	.space	4
	.type	cnt_total_time, %object
	.size	cnt_total_time, 4
cnt_total_time:
	.space	4
	.type	cnt_par, %object
	.size	cnt_par, 4
cnt_par:
	.space	4
	.type	cnt_time, %object
	.size	cnt_time, 4
cnt_time:
	.space	4
	.type	firstrefresh, %object
	.size	firstrefresh, 4
firstrefresh:
	.space	4
	.text
.Letext0:
	.file 3 "c:/devl/prboom3ds/src/z_zone.h"
	.file 4 "c:/devl/prboom3ds/src/doomdef.h"
	.file 5 "c:\\devkitpro\\devkitarm\\lib\\gcc\\arm-none-eabi\\4.9.2\\include\\stddef.h"
	.file 6 "c:/devl/prboom3ds/src/doomtype.h"
	.file 7 "c:/devl/prboom3ds/src/m_fixed.h"
	.file 8 "c:/devl/prboom3ds/src/tables.h"
	.file 9 "c:/devl/prboom3ds/src/d_think.h"
	.file 10 "c:/devl/prboom3ds/src/info.h"
	.file 11 "c:/devl/prboom3ds/src/p_pspr.h"
	.file 12 "c:/devl/prboom3ds/src/doomdata.h"
	.file 13 "c:/devl/prboom3ds/src/p_mobj.h"
	.file 14 "c:/devl/prboom3ds/src/r_defs.h"
	.file 15 "c:/devl/prboom3ds/src/d_player.h"
	.file 16 "c:/devl/prboom3ds/src/d_ticcmd.h"
	.file 17 "c:/devl/prboom3ds/src/doomstat.h"
	.file 18 "c:/devl/prboom3ds/src/m_random.h"
	.file 19 "c:/devl/prboom3ds/src/d_event.h"
	.file 20 "c:/devl/prboom3ds/src/r_patch.h"
	.file 21 "c:/devl/prboom3ds/src/v_video.h"
	.file 22 "c:/devl/prboom3ds/src/wi_stuff.h"
	.file 23 "c:/devl/prboom3ds/src/sounds.h"
	.file 24 "c:/devl/prboom3ds/src/lprintf.h"
	.file 25 "c:\\devkitpro\\devkitarm\\arm-none-eabi\\include\\stdio.h"
	.file 26 "c:/devl/prboom3ds/src/g_game.h"
	.file 27 "c:/devl/prboom3ds/src/s_sound.h"
	.file 28 "c:/devl/prboom3ds/src/r_data.h"