	.arch armv6k
	.fpu softvfp
	.eabi_attribute 23, 1
	.eabi_attribute 24, 1
	.eabi_attribute 25, 1
	.eabi_attribute 26, 1
	.eabi_attribute 30, 2
	.eabi_attribute 34, 1
	.eabi_attribute 18, 4
	.file	"z_zone.c"
	.text
.Ltext0:
	.cfi_sections	.debug_frame
	.align	2
	.global	Z_DumpHistory
	.type	Z_DumpHistory, %function
Z_DumpHistory:
.LFB4:
	.file 1 "c:/devl/prboom3ds/src/z_zone.c"
	.loc 1 263 0
	.cfi_startproc
	@ args = 0, pretend = 0, frame = 0
	@ frame_needed = 0, uses_anonymous_args = 0
	@ link register save eliminated.
.LVL0:
	bx	lr
	.cfi_endproc
.LFE4:
	.size	Z_DumpHistory, .-Z_DumpHistory
	.align	2
	.global	Z_Close
	.type	Z_Close, %function
Z_Close:
.LFB5:
	.loc 1 269 0
	.cfi_startproc
	@ args = 0, pretend = 0, frame = 0
	@ frame_needed = 0, uses_anonymous_args = 0
	@ link register save eliminated.
	bx	lr
	.cfi_endproc
.LFE5:
	.size	Z_Close, .-Z_Close
	.align	2
	.global	Z_Init
	.type	Z_Init, %function
Z_Init:
.LFB6:
	.loc 1 277 0
	.cfi_startproc
	@ args = 0, pretend = 0, frame = 0
	@ frame_needed = 0, uses_anonymous_args = 0
	@ link register save eliminated.
	bx	lr
	.cfi_endproc
.LFE6:
	.size	Z_Init, .-Z_Init
	.align	2
	.global	Z_Free
	.type	Z_Free, %function
Z_Free:
.LFB8:
	.loc 1 463 0
	.cfi_startproc
	@ args = 0, pretend = 0, frame = 0
	@ frame_needed = 0, uses_anonymous_args = 0
.LVL1:
	.loc 1 475 0
	cmp	r0, #0
	.loc 1 464 0
	sub	r1, r0, #32
.LVL2:
	.loc 1 475 0
	bxeq	lr
	.loc 1 491 0
	ldr	r3, [r0, #-20]
	.loc 1 463 0
	stmfd	sp!, {r4, lr}
	.cfi_def_cfa_offset 8
	.cfi_offset 4, -8
	.cfi_offset 14, -4
	.loc 1 491 0
	cmp	r3, #0
	.loc 1 492 0
	movne	r2, #0
	strne	r2, [r3]
	.loc 1 494 0
	ldr	ip, [r0, #-32]
	cmp	ip, r1
	beq	.L14
	.loc 1 497 0
	ldrb	r2, [r0, #-16]	@ zero_extendqisi2
	ldr	r3, .L15
	ldr	lr, [r3, r2, asl #2]
	cmp	lr, r1
	.loc 1 498 0
	streq	ip, [r3, r2, asl #2]
.L8:
	.loc 1 499 0
	ldr	lr, [r0, #-28]
	.loc 1 502 0
	ldr	r4, [r0, #-24]
	.loc 1 499 0
	str	ip, [lr]
	.loc 1 500 0
	ldr	ip, [r0, #-32]
	.loc 1 502 0
	ldr	r2, [r3, #32]
	.loc 1 500 0
	str	lr, [ip, #4]
	.loc 1 502 0
	add	r2, r2, r4
	.loc 1 516 0
	mov	r0, r1
.LVL3:
	.loc 1 521 0
	ldmfd	sp!, {r4, lr}
	.cfi_remember_state
	.cfi_restore 14
	.cfi_restore 4
	.cfi_def_cfa_offset 0
	.loc 1 502 0
	str	r2, [r3, #32]
	.loc 1 516 0
	b	free
.LVL4:
.L14:
	.cfi_restore_state
	.loc 1 495 0
	mov	lr, #0
	ldr	r3, .L15
	ldrb	r2, [r0, #-16]	@ zero_extendqisi2
	str	lr, [r3, r2, asl #2]
	b	.L8
.L16:
	.align	2
.L15:
	.word	.LANCHOR0
	.cfi_endproc
.LFE8:
	.size	Z_Free, .-Z_Free
	.align	2
	.global	Z_FreeTags
	.type	Z_FreeTags, %function
Z_FreeTags:
.LFB9:
	.loc 1 528 0
	.cfi_startproc
	@ args = 0, pretend = 0, frame = 0
	@ frame_needed = 0, uses_anonymous_args = 0
.LVL5:
	.loc 1 534 0
	cmp	r0, #1
	.loc 1 528 0
	stmfd	sp!, {r3, r4, r5, r6, r7, r8, r9, lr}
	.cfi_def_cfa_offset 32
	.cfi_offset 3, -32
	.cfi_offset 4, -28
	.cfi_offset 5, -24
	.cfi_offset 6, -20
	.cfi_offset 7, -16
	.cfi_offset 8, -12
	.cfi_offset 9, -8
	.cfi_offset 14, -4
	.loc 1 534 0
	movge	r7, r0
	movlt	r7, #1
.LVL6:
	cmp	r1, #6
	movlt	r9, r1
	movge	r9, #6
.LVL7:
	.loc 1 539 0
	cmp	r7, r9
	ldmgtfd	sp!, {r3, r4, r5, r6, r7, r8, r9, pc}
	ldr	r3, .L28
	sub	r8, r7, #-1073741823
	add	r8, r3, r8, asl #2
.L21:
.LVL8:
.LBB2:
	.loc 1 542 0
	ldr	r4, [r8, #4]!
.LVL9:
	.loc 1 543 0
	cmp	r4, #0
	.loc 1 545 0
	ldrne	r6, [r4, #4]
	.loc 1 543 0
	bne	.L24
	b	.L23
.LVL10:
.L27:
.LBB3:
	.loc 1 556 0
	mov	r4, r5
.LVL11:
.L24:
	.loc 1 548 0
	mov	r0, r4
	ldr	r5, [r0], #32
.LVL12:
	.loc 1 552 0
	bl	Z_Free
.LVL13:
	.loc 1 554 0
	cmp	r4, r6
	bne	.L27
.LVL14:
.L23:
.LBE3:
.LBE2:
	.loc 1 539 0
	add	r7, r7, #1
.LVL15:
	cmp	r9, r7
	bge	.L21
	ldmfd	sp!, {r3, r4, r5, r6, r7, r8, r9, pc}
.L29:
	.align	2
.L28:
	.word	.LANCHOR0
	.cfi_endproc
.LFE9:
	.size	Z_FreeTags, .-Z_FreeTags
	.align	2
	.global	Z_Malloc
	.type	Z_Malloc, %function
Z_Malloc:
.LFB7:
	.loc 1 344 0
	.cfi_startproc
	@ args = 0, pretend = 0, frame = 0
	@ frame_needed = 0, uses_anonymous_args = 0
.LVL16:
	.loc 1 366 0
	cmp	r0, #0
	.loc 1 344 0
	stmfd	sp!, {r4, r5, r6, r7, r8, lr}
	.cfi_def_cfa_offset 24
	.cfi_offset 4, -24
	.cfi_offset 5, -20
	.cfi_offset 6, -16
	.cfi_offset 7, -12
	.cfi_offset 8, -8
	.cfi_offset 14, -4
	.loc 1 344 0
	mov	r6, r2
	.loc 1 366 0
	beq	.L42
	.loc 1 369 0
	add	r0, r0, #31
.LVL17:
	bic	r8, r0, #31
.LVL18:
	mov	r7, r1
	add	r5, r8, #32
	ldr	r4, .L44
	b	.L33
.LVL19:
.L35:
	.loc 1 399 0
	ldr	r3, [r4, #24]
	cmp	r3, #0
	beq	.L43
.LVL20:
.L34:
	.loc 1 409 0
	mov	r0, #6
	mov	r1, r0
	bl	Z_FreeTags
.LVL21:
.L33:
	.loc 1 397 0
	mov	r0, r5
	bl	malloc
.LVL22:
	cmp	r0, #0
	beq	.L35
	.loc 1 412 0
	ldr	r2, [r4, r7, asl #2]
	ldr	r1, .L44
	cmp	r2, #0
	.loc 1 419 0
	ldrne	r2, [r2, #4]
	.loc 1 414 0
	streq	r0, [r1, r7, asl #2]
	.loc 1 419 0
	strne	r0, [r2]
	.loc 1 420 0
	ldrne	r2, [r1, r7, asl #2]
	.loc 1 415 0
	streq	r0, [r0, #4]
	.loc 1 420 0
	ldrne	r1, [r2, #4]
	.loc 1 421 0
	strne	r2, [r0]
	.loc 1 420 0
	strne	r1, [r0, #4]
	.loc 1 422 0
	strne	r0, [r2, #4]
	.loc 1 433 0
	ldr	r2, [r4, #32]
	.loc 1 415 0
	streq	r0, [r0]
	.loc 1 433 0
	rsb	r2, r8, r2
	.loc 1 446 0
	cmp	r6, #0
	.loc 1 425 0
	str	r8, [r0, #8]
	.loc 1 443 0
	strb	r7, [r0, #16]
	.loc 1 444 0
	str	r6, [r0, #12]
	.loc 1 433 0
	str	r2, [r4, #32]
	.loc 1 445 0
	add	r0, r0, #32
.LVL23:
	.loc 1 446 0
	ldmeqfd	sp!, {r4, r5, r6, r7, r8, pc}
.LVL24:
.L41:
	.loc 1 447 0
	str	r0, [r6]
	ldmfd	sp!, {r4, r5, r6, r7, r8, pc}
.LVL25:
.L43:
	.loc 1 400 0
	ldr	r0, .L44+4
.LVL26:
	mov	r1, r8
	bl	I_Error
.LVL27:
	b	.L34
.LVL28:
.L42:
	.loc 1 367 0
	cmp	r2, #0
	bne	.L41
	mov	r0, r2
.LVL29:
	.loc 1 456 0
	ldmfd	sp!, {r4, r5, r6, r7, r8, pc}
.L45:
	.align	2
.L44:
	.word	.LANCHOR0
	.word	.LC0
	.cfi_endproc
.LFE7:
	.size	Z_Malloc, .-Z_Malloc
	.align	2
	.global	Z_ChangeTag
	.type	Z_ChangeTag, %function
Z_ChangeTag:
.LFB10:
	.loc 1 566 0
	.cfi_startproc
	@ args = 0, pretend = 0, frame = 0
	@ frame_needed = 0, uses_anonymous_args = 0
.LVL30:
	.loc 1 570 0
	cmp	r0, #0
	bxeq	lr
	.loc 1 574 0
	ldrb	r2, [r0, #-16]	@ zero_extendqisi2
	cmp	r2, r1
	bxeq	lr
	.loc 1 604 0
	ldr	ip, [r0, #-32]
	.loc 1 567 0
	sub	r3, r0, #32
.LVL31:
	.loc 1 604 0
	cmp	ip, r3
	.loc 1 566 0
	stmfd	sp!, {r4, lr}
	.cfi_def_cfa_offset 8
	.cfi_offset 4, -8
	.cfi_offset 14, -4
	.loc 1 604 0
	beq	.L57
	.loc 1 607 0
	ldr	lr, .L58
	ldr	r4, [lr, r2, asl #2]
	cmp	r4, r3
	.loc 1 608 0
	streq	ip, [lr, r2, asl #2]
	ldreq	ip, [r0, #-32]
.L49:
	.loc 1 609 0
	ldr	r4, [r0, #-28]
	.loc 1 612 0
	ldr	r2, .L58
	.loc 1 609 0
	str	ip, [r4]
	.loc 1 610 0
	ldr	ip, [r0, #-32]
	str	r4, [ip, #4]
	.loc 1 612 0
	ldr	ip, [lr, r1, asl #2]
	cmp	ip, #0
	.loc 1 614 0
	streq	r3, [r2, r1, asl #2]
	.loc 1 615 0
	streq	r3, [r0, #-28]
	streq	r3, [r0, #-32]
	.loc 1 612 0
	beq	.L51
	.loc 1 619 0
	ldr	ip, [ip, #4]
	str	r3, [ip]
	.loc 1 620 0
	ldr	ip, [r2, r1, asl #2]
	ldr	ip, [ip, #4]
	str	ip, [r0, #-28]
	.loc 1 621 0
	ldr	ip, [r2, r1, asl #2]
	str	ip, [r0, #-32]
	.loc 1 622 0
	ldr	r2, [r2, r1, asl #2]
	str	r3, [r2, #4]
.L51:
	.loc 1 639 0
	strb	r1, [r0, #-16]
	ldmfd	sp!, {r4, pc}
.L57:
	.loc 1 605 0
	mov	ip, #0
	ldr	lr, .L58
	str	ip, [lr, r2, asl #2]
	ldr	ip, [r0, #-32]
	b	.L49
.L59:
	.align	2
.L58:
	.word	.LANCHOR0
	.cfi_endproc
.LFE10:
	.size	Z_ChangeTag, .-Z_ChangeTag
	.align	2
	.global	Z_Realloc
	.type	Z_Realloc, %function
Z_Realloc:
.LFB11:
	.loc 1 647 0
	.cfi_startproc
	@ args = 0, pretend = 0, frame = 0
	@ frame_needed = 0, uses_anonymous_args = 0
.LVL32:
	stmfd	sp!, {r3, r4, r5, r6, r7, lr}
	.cfi_def_cfa_offset 24
	.cfi_offset 3, -24
	.cfi_offset 4, -20
	.cfi_offset 5, -16
	.cfi_offset 6, -12
	.cfi_offset 7, -8
	.cfi_offset 14, -4
	.loc 1 647 0
	mov	r5, r1
	mov	r4, r0
	.loc 1 648 0
	mov	r1, r2
.LVL33:
	mov	r0, r5
.LVL34:
	mov	r2, r3
.LVL35:
	.loc 1 647 0
	mov	r6, r3
	.loc 1 648 0
	bl	Z_Malloc
.LVL36:
	.loc 1 649 0
	cmp	r4, #0
	.loc 1 648 0
	mov	r7, r0
.LVL37:
	.loc 1 649 0
	beq	.L62
.LVL38:
.LBB4:
	.loc 1 652 0
	ldr	r3, [r4, #-24]
	mov	r1, r4
	cmp	r5, r3
	movcc	r2, r5
	movcs	r2, r3
	bl	memcpy
.LVL39:
	.loc 1 653 0
	mov	r0, r4
	bl	Z_Free
.LVL40:
	.loc 1 654 0
	cmp	r6, #0
	.loc 1 655 0
	strne	r7, [r6]
.LVL41:
.L62:
.LBE4:
	.loc 1 658 0
	mov	r0, r7
	ldmfd	sp!, {r3, r4, r5, r6, r7, pc}
	.cfi_endproc
.LFE11:
	.size	Z_Realloc, .-Z_Realloc
	.align	2
	.global	Z_Calloc
	.type	Z_Calloc, %function
Z_Calloc:
.LFB12:
	.loc 1 665 0
	.cfi_startproc
	@ args = 0, pretend = 0, frame = 0
	@ frame_needed = 0, uses_anonymous_args = 0
.LVL42:
	stmfd	sp!, {r4, lr}
	.cfi_def_cfa_offset 8
	.cfi_offset 4, -8
	.cfi_offset 14, -4
	.loc 1 667 0
	mul	r4, r1, r0
.LVL43:
	cmp	r4, #0
	beq	.L69
	mov	r1, r2
.LVL44:
	.loc 1 667 0 is_stmt 0 discriminator 1
	mov	r0, r4
	mov	r2, r3
.LVL45:
	bl	Z_Malloc
.LVL46:
	mov	r2, r4
	.loc 1 668 0 is_stmt 1 discriminator 1
	ldmfd	sp!, {r4, lr}
	.cfi_remember_state
	.cfi_restore 14
	.cfi_restore 4
	.cfi_def_cfa_offset 0
.LVL47:
	.loc 1 667 0 discriminator 1
	mov	r1, #0
	b	memset
.LVL48:
.L69:
	.cfi_restore_state
	.loc 1 668 0
	mov	r0, r4
	ldmfd	sp!, {r4, pc}
	.cfi_endproc
.LFE12:
	.size	Z_Calloc, .-Z_Calloc
	.align	2
	.global	Z_Strdup
	.type	Z_Strdup, %function
Z_Strdup:
.LFB13:
	.loc 1 675 0
	.cfi_startproc
	@ args = 0, pretend = 0, frame = 0
	@ frame_needed = 0, uses_anonymous_args = 0
.LVL49:
	stmfd	sp!, {r4, r5, r6, lr}
	.cfi_def_cfa_offset 16
	.cfi_offset 4, -16
	.cfi_offset 5, -12
	.cfi_offset 6, -8
	.cfi_offset 14, -4
	.loc 1 675 0
	mov	r6, r1
	mov	r5, r2
	mov	r4, r0
	.loc 1 676 0
	bl	strlen
.LVL50:
	mov	r1, r6
	mov	r2, r5
	add	r0, r0, #1
	bl	Z_Malloc
.LVL51:
	mov	r1, r4
	.loc 1 677 0
	ldmfd	sp!, {r4, r5, r6, lr}
	.cfi_restore 14
	.cfi_restore 6
	.cfi_restore 5
	.cfi_restore 4
	.cfi_def_cfa_offset 0
.LVL52:
	.loc 1 676 0
	b	strcpy
.LVL53:
	.cfi_endproc
.LFE13:
	.size	Z_Strdup, .-Z_Strdup
	.align	2
	.global	Z_CheckHeap
	.type	Z_CheckHeap, %function
Z_CheckHeap:
.LFB14:
	.loc 1 686 0
	.cfi_startproc
	@ args = 0, pretend = 0, frame = 0
	@ frame_needed = 0, uses_anonymous_args = 0
	@ link register save eliminated.
	bx	lr
	.cfi_endproc
.LFE14:
	.size	Z_CheckHeap, .-Z_CheckHeap
	.section	.rodata.str1.4,"aMS",%progbits,1
	.align	2
.LC0:
	.ascii	"Z_Malloc: Failure trying to allocate %lu bytes\000"
	.bss
	.align	2
	.set	.LANCHOR0,. + 0
	.type	blockbytag, %object
	.size	blockbytag, 32
blockbytag:
	.space	32
	.type	free_memory, %object
	.size	free_memory, 4
free_memory:
	.space	4
	.text
.Letext0:
	.file 2 "c:\\devkitpro\\devkitarm\\lib\\gcc\\arm-none-eabi\\4.9.2\\include\\stddef.h"
	.file 3 "c:/devl/prboom3ds/src/m_fixed.h"
	.file 4 "c:\\devkitpro\\devkitarm\\arm-none-eabi\\include\\stdlib.h"
	.file 5 "c:/devl/prboom3ds/src/lprintf.h"
	.file 6 "c:\\devkitpro\\devkitarm\\arm-none-eabi\\include\\string.h"
	.file 7 "c:/devl/prboom3ds/src/z_zone.h"
	.file 8 "c:/devl/prboom3ds/src/tables.h"